

Microchip MPLAB XC8 Assembler V2.45 build 20230818022343 
                                                                                               Fri Dec 22 19:17:37 2023

Microchip MPLAB XC8 C Compiler v2.45 (Free license) build 20230818022343 Og1 
     1                           	processor	16F886
     2                           	pagewidth 120
     3                           	opt	flic
     4                           	psect	strings,global,class=STRING,delta=2,noexec
     5                           	psect	cinit,global,class=CODE,merge=1,delta=2
     6                           	psect	bssBANK0,global,class=BANK0,space=1,delta=1,noexec
     7                           	psect	bssBANK1,global,class=BANK1,space=1,delta=1,noexec
     8                           	psect	bssBANK3,global,class=BANK3,space=1,delta=1,noexec
     9                           	psect	clrtext,global,class=CODE,delta=2
    10                           	psect	cstackBANK3,global,class=BANK3,space=1,delta=1,noexec
    11                           	psect	cstackBANK1,global,class=BANK1,space=1,delta=1,noexec
    12                           	psect	cstackCOMMON,global,class=COMMON,space=1,delta=1,noexec
    13                           	psect	cstackBANK0,global,class=BANK0,space=1,delta=1,noexec
    14                           	psect	maintext,global,class=CODE,split=1,delta=2
    15                           	psect	text1,local,class=CODE,merge=1,delta=2
    16                           	psect	text2,local,class=CODE,merge=1,delta=2
    17                           	psect	text3,local,class=CODE,merge=1,delta=2
    18                           	psect	text4,local,class=CODE,merge=1,delta=2
    19                           	psect	intentry,global,class=CODE,delta=2
    20                           	psect	text5,local,class=CODE,merge=1,delta=2
    21                           	psect	text6,local,class=CODE,merge=1,delta=2,group=3
    22                           	psect	text7,local,class=CODE,merge=1,delta=2,group=1
    23                           	psect	text8,local,class=CODE,merge=1,delta=2,group=1
    24                           	psect	text9,local,class=CODE,merge=1,delta=2,group=1
    25                           	psect	text10,local,class=CODE,merge=1,delta=2,group=1
    26                           	psect	text11,local,class=CODE,merge=1,delta=2,group=2
    27                           	psect	text12,local,class=CODE,merge=1,delta=2,group=1
    28                           	psect	text13,local,class=CODE,merge=1,delta=2,group=3
    29                           	psect	text14,local,class=CODE,merge=1,delta=2,group=3
    30                           	psect	text15,local,class=CODE,merge=1,delta=2,group=3
    31                           	psect	text16,local,class=CODE,merge=1,delta=2,group=3
    32                           	psect	text17,local,class=CODE,merge=1,delta=2,group=3
    33                           	psect	text18,local,class=CODE,merge=1,delta=2,group=2
    34                           	psect	text19,local,class=CODE,merge=1,delta=2,group=2
    35                           	psect	text20,local,class=CODE,merge=1,delta=2,group=2
    36                           	psect	text21,local,class=CODE,merge=1,delta=2,group=2
    37                           	psect	text22,local,class=CODE,merge=1,delta=2,group=2
    38                           	psect	text23,local,class=CODE,merge=1,delta=2,group=2
    39                           	psect	text24,local,class=CODE,merge=1,delta=2,group=2
    40                           	psect	text25,local,class=CODE,merge=1,delta=2,group=2
    41                           	psect	text26,local,class=CODE,merge=1,delta=2,group=2
    42                           	psect	text27,local,class=CODE,merge=1,delta=2,group=1
    43                           	psect	text28,local,class=CODE,merge=1,delta=2,group=1
    44                           	psect	text29,local,class=CODE,merge=1,delta=2,group=3
    45                           	psect	text30,local,class=CODE,merge=1,delta=2,group=3
    46                           	psect	text31,local,class=CODE,merge=1,delta=2
    47                           	psect	text32,local,class=CODE,merge=1,delta=2,group=3
    48                           	psect	text33,local,class=CODE,merge=1,delta=2,group=2
    49                           	psect	text34,local,class=CODE,merge=1,delta=2,group=2
    50                           	psect	text35,local,class=CODE,merge=1,delta=2
    51                           	psect	text36,local,class=CODE,merge=1,delta=2
    52                           	psect	text37,local,class=CODE,merge=1,delta=2
    53                           	psect	text38,local,class=CODE,merge=1,delta=2
    54                           	psect	text39,local,class=CODE,merge=1,delta=2
    55                           	psect	text40,local,class=CODE,merge=1,delta=2
    56                           	psect	config,global,abs,ovrld,class=CONFIG,space=4,delta=2,noexec
    57                           	psect	text12_split_1,local,class=CODE,merge=1,delta=2
    58                           	psect	text12_split_2,local,class=CODE,merge=1,delta=2
    59                           	dabs	1,0x7E,2
    60     0000                     
    61                           ; Generated 22/03/2023 GMT
    62                           ; 
    63                           ; Copyright © 2023, Microchip Technology Inc. and its subsidiaries ("Microchip")
    64                           ; All rights reserved.
    65                           ; 
    66                           ; This software is developed by Microchip Technology Inc. and its subsidiaries ("Microch
      +                          ip").
    67                           ; 
    68                           ; Redistribution and use in source and binary forms, with or without modification, are
    69                           ; permitted provided that the following conditions are met:
    70                           ; 
    71                           ;     1. Redistributions of source code must retain the above copyright notice, this lis
      +                          t of
    72                           ;        conditions and the following disclaimer.
    73                           ; 
    74                           ;     2. Redistributions in binary form must reproduce the above copyright notice, this 
      +                          list
    75                           ;        of conditions and the following disclaimer in the documentation and/or other
    76                           ;        materials provided with the distribution. Publication is not required when
    77                           ;        this file is used in an embedded application.
    78                           ; 
    79                           ;     3. Microchip's name may not be used to endorse or promote products derived from th
      +                          is
    80                           ;        software without specific prior written permission.
    81                           ; 
    82                           ; THIS SOFTWARE IS PROVIDED BY MICROCHIP "AS IS" AND ANY EXPRESS OR IMPLIED WARRANTIES,
    83                           ; INCLUDING, BUT NOT LIMITED TO, THE IMPLIED WARRANTIES OF MERCHANTABILITY AND FITNESS F
      +                          OR
    84                           ; PURPOSE ARE DISCLAIMED.  IN NO EVENT SHALL MICROCHIP BE LIABLE FOR ANY DIRECT, INDIREC
      +                          T,
    85                           ; INCIDENTAL, SPECIAL, EXEMPLARY, OR CONSEQUENTIAL DAMAGES (INCLUDING BUT NOT LIMITED TO
    86                           ; PROCUREMENT OF SUBSTITUTE GOODS OR SERVICES; LOSS OF USE, DATA OR PROFITS; OR BUSINESS
    87                           ; INTERRUPTION) HOWSOEVER CAUSED AND ON ANY THEORY OF LIABILITY, WHETHER IN CONTRACT, ST
      +                          RICT
    88                           ; LIABILITY, OR TORT (INCLUDING NEGLIGENCE OR OTHERWISE) ARISING IN ANY WAY OUT OF THE U
      +                          SE OF
    89                           ; THIS SOFTWARE, EVEN IF ADVISED OF THE POSSIBILITY OF SUCH DAMAGE.
    90                           ; 
    91                           ; 
    92                           ; Code-generator required, PIC16F886 Definitions
    93                           ; 
    94                           ; SFR Addresses
    95     0000                     	;# 
    96     0001                     	;# 
    97     0002                     	;# 
    98     0003                     	;# 
    99     0004                     	;# 
   100     0005                     	;# 
   101     0006                     	;# 
   102     0007                     	;# 
   103     0009                     	;# 
   104     000A                     	;# 
   105     000B                     	;# 
   106     000C                     	;# 
   107     000D                     	;# 
   108     000E                     	;# 
   109     000E                     	;# 
   110     000F                     	;# 
   111     0010                     	;# 
   112     0011                     	;# 
   113     0012                     	;# 
   114     0013                     	;# 
   115     0014                     	;# 
   116     0015                     	;# 
   117     0015                     	;# 
   118     0016                     	;# 
   119     0017                     	;# 
   120     0018                     	;# 
   121     0019                     	;# 
   122     001A                     	;# 
   123     001B                     	;# 
   124     001B                     	;# 
   125     001C                     	;# 
   126     001D                     	;# 
   127     001E                     	;# 
   128     001F                     	;# 
   129     0081                     	;# 
   130     0085                     	;# 
   131     0086                     	;# 
   132     0087                     	;# 
   133     0089                     	;# 
   134     008C                     	;# 
   135     008D                     	;# 
   136     008E                     	;# 
   137     008F                     	;# 
   138     0090                     	;# 
   139     0091                     	;# 
   140     0092                     	;# 
   141     0093                     	;# 
   142     0093                     	;# 
   143     0093                     	;# 
   144     0094                     	;# 
   145     0095                     	;# 
   146     0096                     	;# 
   147     0097                     	;# 
   148     0098                     	;# 
   149     0099                     	;# 
   150     009A                     	;# 
   151     009B                     	;# 
   152     009C                     	;# 
   153     009D                     	;# 
   154     009E                     	;# 
   155     009F                     	;# 
   156     0105                     	;# 
   157     0107                     	;# 
   158     0108                     	;# 
   159     0109                     	;# 
   160     010C                     	;# 
   161     010C                     	;# 
   162     010D                     	;# 
   163     010E                     	;# 
   164     010F                     	;# 
   165     0185                     	;# 
   166     0187                     	;# 
   167     0188                     	;# 
   168     0189                     	;# 
   169     018C                     	;# 
   170     018D                     	;# 
   171     0000                     	;# 
   172     0001                     	;# 
   173     0002                     	;# 
   174     0003                     	;# 
   175     0004                     	;# 
   176     0005                     	;# 
   177     0006                     	;# 
   178     0007                     	;# 
   179     0009                     	;# 
   180     000A                     	;# 
   181     000B                     	;# 
   182     000C                     	;# 
   183     000D                     	;# 
   184     000E                     	;# 
   185     000E                     	;# 
   186     000F                     	;# 
   187     0010                     	;# 
   188     0011                     	;# 
   189     0012                     	;# 
   190     0013                     	;# 
   191     0014                     	;# 
   192     0015                     	;# 
   193     0015                     	;# 
   194     0016                     	;# 
   195     0017                     	;# 
   196     0018                     	;# 
   197     0019                     	;# 
   198     001A                     	;# 
   199     001B                     	;# 
   200     001B                     	;# 
   201     001C                     	;# 
   202     001D                     	;# 
   203     001E                     	;# 
   204     001F                     	;# 
   205     0081                     	;# 
   206     0085                     	;# 
   207     0086                     	;# 
   208     0087                     	;# 
   209     0089                     	;# 
   210     008C                     	;# 
   211     008D                     	;# 
   212     008E                     	;# 
   213     008F                     	;# 
   214     0090                     	;# 
   215     0091                     	;# 
   216     0092                     	;# 
   217     0093                     	;# 
   218     0093                     	;# 
   219     0093                     	;# 
   220     0094                     	;# 
   221     0095                     	;# 
   222     0096                     	;# 
   223     0097                     	;# 
   224     0098                     	;# 
   225     0099                     	;# 
   226     009A                     	;# 
   227     009B                     	;# 
   228     009C                     	;# 
   229     009D                     	;# 
   230     009E                     	;# 
   231     009F                     	;# 
   232     0105                     	;# 
   233     0107                     	;# 
   234     0108                     	;# 
   235     0109                     	;# 
   236     010C                     	;# 
   237     010C                     	;# 
   238     010D                     	;# 
   239     010E                     	;# 
   240     010F                     	;# 
   241     0185                     	;# 
   242     0187                     	;# 
   243     0188                     	;# 
   244     0189                     	;# 
   245     018C                     	;# 
   246     018D                     	;# 
   247     0000                     	;# 
   248     0001                     	;# 
   249     0002                     	;# 
   250     0003                     	;# 
   251     0004                     	;# 
   252     0005                     	;# 
   253     0006                     	;# 
   254     0007                     	;# 
   255     0009                     	;# 
   256     000A                     	;# 
   257     000B                     	;# 
   258     000C                     	;# 
   259     000D                     	;# 
   260     000E                     	;# 
   261     000E                     	;# 
   262     000F                     	;# 
   263     0010                     	;# 
   264     0011                     	;# 
   265     0012                     	;# 
   266     0013                     	;# 
   267     0014                     	;# 
   268     0015                     	;# 
   269     0015                     	;# 
   270     0016                     	;# 
   271     0017                     	;# 
   272     0018                     	;# 
   273     0019                     	;# 
   274     001A                     	;# 
   275     001B                     	;# 
   276     001B                     	;# 
   277     001C                     	;# 
   278     001D                     	;# 
   279     001E                     	;# 
   280     001F                     	;# 
   281     0081                     	;# 
   282     0085                     	;# 
   283     0086                     	;# 
   284     0087                     	;# 
   285     0089                     	;# 
   286     008C                     	;# 
   287     008D                     	;# 
   288     008E                     	;# 
   289     008F                     	;# 
   290     0090                     	;# 
   291     0091                     	;# 
   292     0092                     	;# 
   293     0093                     	;# 
   294     0093                     	;# 
   295     0093                     	;# 
   296     0094                     	;# 
   297     0095                     	;# 
   298     0096                     	;# 
   299     0097                     	;# 
   300     0098                     	;# 
   301     0099                     	;# 
   302     009A                     	;# 
   303     009B                     	;# 
   304     009C                     	;# 
   305     009D                     	;# 
   306     009E                     	;# 
   307     009F                     	;# 
   308     0105                     	;# 
   309     0107                     	;# 
   310     0108                     	;# 
   311     0109                     	;# 
   312     010C                     	;# 
   313     010C                     	;# 
   314     010D                     	;# 
   315     010E                     	;# 
   316     010F                     	;# 
   317     0185                     	;# 
   318     0187                     	;# 
   319     0188                     	;# 
   320     0189                     	;# 
   321     018C                     	;# 
   322     018D                     	;# 
   323     0000                     	;# 
   324     0001                     	;# 
   325     0002                     	;# 
   326     0003                     	;# 
   327     0004                     	;# 
   328     0005                     	;# 
   329     0006                     	;# 
   330     0007                     	;# 
   331     0009                     	;# 
   332     000A                     	;# 
   333     000B                     	;# 
   334     000C                     	;# 
   335     000D                     	;# 
   336     000E                     	;# 
   337     000E                     	;# 
   338     000F                     	;# 
   339     0010                     	;# 
   340     0011                     	;# 
   341     0012                     	;# 
   342     0013                     	;# 
   343     0014                     	;# 
   344     0015                     	;# 
   345     0015                     	;# 
   346     0016                     	;# 
   347     0017                     	;# 
   348     0018                     	;# 
   349     0019                     	;# 
   350     001A                     	;# 
   351     001B                     	;# 
   352     001B                     	;# 
   353     001C                     	;# 
   354     001D                     	;# 
   355     001E                     	;# 
   356     001F                     	;# 
   357     0081                     	;# 
   358     0085                     	;# 
   359     0086                     	;# 
   360     0087                     	;# 
   361     0089                     	;# 
   362     008C                     	;# 
   363     008D                     	;# 
   364     008E                     	;# 
   365     008F                     	;# 
   366     0090                     	;# 
   367     0091                     	;# 
   368     0092                     	;# 
   369     0093                     	;# 
   370     0093                     	;# 
   371     0093                     	;# 
   372     0094                     	;# 
   373     0095                     	;# 
   374     0096                     	;# 
   375     0097                     	;# 
   376     0098                     	;# 
   377     0099                     	;# 
   378     009A                     	;# 
   379     009B                     	;# 
   380     009C                     	;# 
   381     009D                     	;# 
   382     009E                     	;# 
   383     009F                     	;# 
   384     0105                     	;# 
   385     0107                     	;# 
   386     0108                     	;# 
   387     0109                     	;# 
   388     010C                     	;# 
   389     010C                     	;# 
   390     010D                     	;# 
   391     010E                     	;# 
   392     010F                     	;# 
   393     0185                     	;# 
   394     0187                     	;# 
   395     0188                     	;# 
   396     0189                     	;# 
   397     018C                     	;# 
   398     018D                     	;# 
   399     0000                     	;# 
   400     0001                     	;# 
   401     0002                     	;# 
   402     0003                     	;# 
   403     0004                     	;# 
   404     0005                     	;# 
   405     0006                     	;# 
   406     0007                     	;# 
   407     0009                     	;# 
   408     000A                     	;# 
   409     000B                     	;# 
   410     000C                     	;# 
   411     000D                     	;# 
   412     000E                     	;# 
   413     000E                     	;# 
   414     000F                     	;# 
   415     0010                     	;# 
   416     0011                     	;# 
   417     0012                     	;# 
   418     0013                     	;# 
   419     0014                     	;# 
   420     0015                     	;# 
   421     0015                     	;# 
   422     0016                     	;# 
   423     0017                     	;# 
   424     0018                     	;# 
   425     0019                     	;# 
   426     001A                     	;# 
   427     001B                     	;# 
   428     001B                     	;# 
   429     001C                     	;# 
   430     001D                     	;# 
   431     001E                     	;# 
   432     001F                     	;# 
   433     0081                     	;# 
   434     0085                     	;# 
   435     0086                     	;# 
   436     0087                     	;# 
   437     0089                     	;# 
   438     008C                     	;# 
   439     008D                     	;# 
   440     008E                     	;# 
   441     008F                     	;# 
   442     0090                     	;# 
   443     0091                     	;# 
   444     0092                     	;# 
   445     0093                     	;# 
   446     0093                     	;# 
   447     0093                     	;# 
   448     0094                     	;# 
   449     0095                     	;# 
   450     0096                     	;# 
   451     0097                     	;# 
   452     0098                     	;# 
   453     0099                     	;# 
   454     009A                     	;# 
   455     009B                     	;# 
   456     009C                     	;# 
   457     009D                     	;# 
   458     009E                     	;# 
   459     009F                     	;# 
   460     0105                     	;# 
   461     0107                     	;# 
   462     0108                     	;# 
   463     0109                     	;# 
   464     010C                     	;# 
   465     010C                     	;# 
   466     010D                     	;# 
   467     010E                     	;# 
   468     010F                     	;# 
   469     0185                     	;# 
   470     0187                     	;# 
   471     0188                     	;# 
   472     0189                     	;# 
   473     018C                     	;# 
   474     018D                     	;# 
   475     0000                     	;# 
   476     0001                     	;# 
   477     0002                     	;# 
   478     0003                     	;# 
   479     0004                     	;# 
   480     0005                     	;# 
   481     0006                     	;# 
   482     0007                     	;# 
   483     0009                     	;# 
   484     000A                     	;# 
   485     000B                     	;# 
   486     000C                     	;# 
   487     000D                     	;# 
   488     000E                     	;# 
   489     000E                     	;# 
   490     000F                     	;# 
   491     0010                     	;# 
   492     0011                     	;# 
   493     0012                     	;# 
   494     0013                     	;# 
   495     0014                     	;# 
   496     0015                     	;# 
   497     0015                     	;# 
   498     0016                     	;# 
   499     0017                     	;# 
   500     0018                     	;# 
   501     0019                     	;# 
   502     001A                     	;# 
   503     001B                     	;# 
   504     001B                     	;# 
   505     001C                     	;# 
   506     001D                     	;# 
   507     001E                     	;# 
   508     001F                     	;# 
   509     0081                     	;# 
   510     0085                     	;# 
   511     0086                     	;# 
   512     0087                     	;# 
   513     0089                     	;# 
   514     008C                     	;# 
   515     008D                     	;# 
   516     008E                     	;# 
   517     008F                     	;# 
   518     0090                     	;# 
   519     0091                     	;# 
   520     0092                     	;# 
   521     0093                     	;# 
   522     0093                     	;# 
   523     0093                     	;# 
   524     0094                     	;# 
   525     0095                     	;# 
   526     0096                     	;# 
   527     0097                     	;# 
   528     0098                     	;# 
   529     0099                     	;# 
   530     009A                     	;# 
   531     009B                     	;# 
   532     009C                     	;# 
   533     009D                     	;# 
   534     009E                     	;# 
   535     009F                     	;# 
   536     0105                     	;# 
   537     0107                     	;# 
   538     0108                     	;# 
   539     0109                     	;# 
   540     010C                     	;# 
   541     010C                     	;# 
   542     010D                     	;# 
   543     010E                     	;# 
   544     010F                     	;# 
   545     0185                     	;# 
   546     0187                     	;# 
   547     0188                     	;# 
   548     0189                     	;# 
   549     018C                     	;# 
   550     018D                     	;# 
   551     0019                     _TXREG	set	25
   552     001A                     _RCREG	set	26
   553     0018                     _RCSTAbits	set	24
   554     0013                     _SSPBUF	set	19
   555     000C                     _PIR1bits	set	12
   556     0014                     _SSPCONbits	set	20
   557     0001                     _TMR0	set	1
   558     000B                     _INTCONbits	set	11
   559     0064                     _TXIF	set	100
   560     008C                     _PIE1bits	set	140
   561     0099                     _SPBRG	set	153
   562     009A                     _SPBRGH	set	154
   563     0098                     _TXSTAbits	set	152
   564     0091                     _SSPCON2bits	set	145
   565     0081                     _OPTION_REGbits	set	129
   566     0187                     _BAUDCTLbits	set	391
   567                           
   568                           	psect	strings
   569     1000                     __pstrings:
   570     1000                     stringtab:
   571     1000                     __stringtab:
   572                           
   573                           ;	String table - string pointers are 1 byte each
   574     1000  1BFF               	btfsc	btemp+1,7
   575     1001  280A               	ljmp	stringcode
   576     1002  1383               	bcf	3,7
   577     1003  187F               	btfsc	btemp+1,0
   578     1004  1783               	bsf	3,7
   579     1005  0800               	movf	0,w
   580     1006  0A84               	incf	4,f
   581     1007  1903               	skipnz
   582     1008  0AFF               	incf	btemp+1,f
   583     1009  0008               	return
   584     100A                     stringcode:
   585     100A                     stringdir:
   586     100A  3010               	movlw	high stringdir
   587     100B  008A               	movwf	10
   588     100C  0804               	movf	4,w
   589     100D  0A84               	incf	4,f
   590     100E  0782               	addwf	2,f
   591     100F                     __stringbase:
   592     100F  3400               	retlw	0
   593     1010                     __end_of__stringtab:
   594     1010                     STR_3:
   595     1010  3425               	retlw	37	;'%'
   596     1011  3473               	retlw	115	;'s'
   597     1012  3420               	retlw	32	;' '
   598     1013  3476               	retlw	118	;'v'
   599     1014  3461               	retlw	97	;'a'
   600     1015  346C               	retlw	108	;'l'
   601     1016  3475               	retlw	117	;'u'
   602     1017  3465               	retlw	101	;'e'
   603     1018  343A               	retlw	58	;':'
   604     1019  3420               	retlw	32	;' '
   605     101A  345B               	retlw	91	;'['
   606     101B  3425               	retlw	37	;'%'
   607     101C  342E               	retlw	46	;'.'
   608     101D  3432               	retlw	50	;'2'
   609     101E  3466               	retlw	102	;'f'
   610     101F  345D               	retlw	93	;']'
   611     1020  3420               	retlw	32	;' '
   612     1021  340D               	retlw	13
   613     1022  340A               	retlw	10
   614     1023  3400               	retlw	0
   615     1024                     STR_2:
   616     1024  3425               	retlw	37	;'%'
   617     1025  3473               	retlw	115	;'s'
   618     1026  3420               	retlw	32	;' '
   619     1027  3476               	retlw	118	;'v'
   620     1028  3461               	retlw	97	;'a'
   621     1029  346C               	retlw	108	;'l'
   622     102A  3475               	retlw	117	;'u'
   623     102B  3465               	retlw	101	;'e'
   624     102C  343A               	retlw	58	;':'
   625     102D  3420               	retlw	32	;' '
   626     102E  345B               	retlw	91	;'['
   627     102F  3425               	retlw	37	;'%'
   628     1030  3469               	retlw	105	;'i'
   629     1031  345D               	retlw	93	;']'
   630     1032  3420               	retlw	32	;' '
   631     1033  340D               	retlw	13
   632     1034  340A               	retlw	10
   633     1035  3400               	retlw	0
   634     1036                     STR_10:
   635     1036  3428               	retlw	40	;'('
   636     1037  346E               	retlw	110	;'n'
   637     1038  3475               	retlw	117	;'u'
   638     1039  346C               	retlw	108	;'l'
   639     103A  346C               	retlw	108	;'l'
   640     103B  3429               	retlw	41	;')'
   641     103C  3400               	retlw	0
   642     103D                     STR_4:
   643     103D  3469               	retlw	105	;'i'
   644     103E  346E               	retlw	110	;'n'
   645     103F  3466               	retlw	102	;'f'
   646     1040  3400               	retlw	0
   647     1041                     STR_7:
   648     1041  346E               	retlw	110	;'n'
   649     1042  3461               	retlw	97	;'a'
   650     1043  346E               	retlw	110	;'n'
   651     1044  3400               	retlw	0
   652     1045                     STR_1:
   653     1045  3463               	retlw	99	;'c'
   654     1046  346F               	retlw	111	;'o'
   655     1047  3432               	retlw	50	;'2'
   656     1048  3400               	retlw	0
   657     103D                     
   658                           	psect	cinit
   659     07E3                     start_initialization:	
   660                           ; #config settings
   661                           
   662     07E3                     __initialization:
   663                           
   664                           ; Clear objects allocated to BANK0
   665     07E3  1383               	bcf	3,7	;select IRP bank0
   666     07E4  305E               	movlw	low __pbssBANK0
   667     07E5  0084               	movwf	4
   668     07E6  306A               	movlw	low (__pbssBANK0+12)
   669     07E7  160A  118A  2049  120A  118A  	fcall	clear_ram0
   670                           
   671                           ; Clear objects allocated to BANK1
   672     07EC  1683               	bsf	3,5	;RP0=1, select bank1
   673     07ED  1303               	bcf	3,6	;RP1=0, select bank1
   674     07EE  01D9               	clrf	__pbssBANK1& (0+127)
   675     07EF  01DA               	clrf	(__pbssBANK1+1)& (0+127)
   676     07F0  01DB               	clrf	(__pbssBANK1+2)& (0+127)
   677     07F1  01DC               	clrf	(__pbssBANK1+3)& (0+127)
   678     07F2  01DD               	clrf	(__pbssBANK1+4)& (0+127)
   679                           
   680                           ; Clear objects allocated to BANK3
   681     07F3  1783               	bsf	3,7	;select IRP bank2
   682     07F4  3090               	movlw	low __pbssBANK3
   683     07F5  0084               	movwf	4
   684     07F6  30E0               	movlw	low (__pbssBANK3+80)
   685     07F7  160A  118A  2049  120A  118A  	fcall	clear_ram0
   686     07FC                     end_of_initialization:	
   687                           ;End of C runtime variable initialization code
   688                           
   689     07FC                     __end_of__initialization:
   690     07FC  0183               	clrf	3
   691     07FD  160A  158A  2D15   	ljmp	_main	;jump to C main() function
   692                           
   693                           	psect	bssBANK0
   694     005E                     __pbssBANK0:
   695     005E                     floorf@F521:
   696     005E                     	ds	4
   697     0062                     ___fpclassifyf@F465:
   698     0062                     	ds	4
   699     0066                     _width:
   700     0066                     	ds	2
   701     0068                     _prec:
   702     0068                     	ds	2
   703                           
   704                           	psect	bssBANK1
   705     00D9                     __pbssBANK1:
   706     00D9                     _cont:
   707     00D9                     	ds	2
   708     00DB                     _co2:
   709     00DB                     	ds	2
   710     00DD                     _flags:
   711     00DD                     	ds	1
   712                           
   713                           	psect	bssBANK3
   714     0190                     __pbssBANK3:
   715     0190                     _dbuf:
   716     0190                     	ds	80
   717                           
   718                           	psect	clrtext
   719     1049                     clear_ram0:	
   720                           ;	Called with FSR containing the base address, and
   721                           ;	W with the last address+1
   722                           
   723     1049  0064               	clrwdt	;clear the watchdog before getting into this loop
   724     104A                     clrloop0:
   725     104A  0180               	clrf	0	;clear RAM location pointed to by FSR
   726     104B  0A84               	incf	4,f	;increment pointer
   727     104C  0604               	xorwf	4,w	;XOR with final address
   728     104D  1903               	btfsc	3,2	;have we reached the end yet?
   729     104E  3400               	retlw	0	;all done for this memory range, return
   730     104F  0604               	xorwf	4,w	;XOR again to restore value
   731     1050  284A               	goto	clrloop0	;do the next byte
   732                           
   733                           	psect	cstackBANK3
   734     0000                     __pcstackBANK3:
   735     0000                     ??_config_tmr0:
   736     0000                     ??_i2c_config:	
   737                           ; 1 bytes @ 0x0
   738                           
   739     0000                     ??_config_uart:	
   740                           ; 1 bytes @ 0x0
   741                           
   742     0000                     ??_main:	
   743                           ; 1 bytes @ 0x0
   744                           
   745                           
   746                           	psect	cstackBANK1
   747     00A0                     __pcstackBANK1:	
   748                           ; 1 bytes @ 0x0
   749                           
   750     00A0                     efgtoa@ne:
   751                           
   752                           ; 2 bytes @ 0x0
   753     00A0                     	ds	2
   754     00A2                     efgtoa@p:
   755                           
   756                           ; 2 bytes @ 0x2
   757     00A2                     	ds	2
   758     00A4                     efgtoa@t:
   759                           
   760                           ; 2 bytes @ 0x4
   761     00A4                     	ds	2
   762     00A6                     _efgtoa$1004:
   763                           
   764                           ; 2 bytes @ 0x6
   765     00A6                     	ds	2
   766     00A8                     efgtoa@pp:
   767                           
   768                           ; 1 bytes @ 0x8
   769     00A8                     	ds	1
   770     00A9                     efgtoa@mode:
   771                           
   772                           ; 1 bytes @ 0x9
   773     00A9                     	ds	1
   774     00AA                     efgtoa@nmode:
   775                           
   776                           ; 1 bytes @ 0xA
   777     00AA                     	ds	1
   778     00AB                     efgtoa@d:
   779                           
   780                           ; 2 bytes @ 0xB
   781     00AB                     	ds	2
   782     00AD                     efgtoa@m:
   783                           
   784                           ; 2 bytes @ 0xD
   785     00AD                     	ds	2
   786     00AF                     efgtoa@fp:
   787                           
   788                           ; 1 bytes @ 0xF
   789     00AF                     	ds	1
   790     00B0                     efgtoa@e:
   791                           
   792                           ; 2 bytes @ 0x10
   793     00B0                     	ds	2
   794     00B2                     efgtoa@w:
   795                           
   796                           ; 2 bytes @ 0x12
   797     00B2                     	ds	2
   798     00B4                     efgtoa@ou:
   799                           
   800                           ; 4 bytes @ 0x14
   801     00B4                     	ds	4
   802     00B8                     efgtoa@i:
   803                           
   804                           ; 2 bytes @ 0x18
   805     00B8                     	ds	2
   806     00BA                     efgtoa@h:
   807                           
   808                           ; 4 bytes @ 0x1A
   809     00BA                     	ds	4
   810     00BE                     efgtoa@l:
   811                           
   812                           ; 4 bytes @ 0x1E
   813     00BE                     	ds	4
   814     00C2                     efgtoa@sign:
   815                           
   816                           ; 1 bytes @ 0x22
   817     00C2                     	ds	1
   818     00C3                     efgtoa@n:
   819                           
   820                           ; 2 bytes @ 0x23
   821     00C3                     	ds	2
   822     00C5                     efgtoa@g:
   823                           
   824                           ; 4 bytes @ 0x25
   825     00C5                     	ds	4
   826     00C9                     efgtoa@u:
   827                           
   828                           ; 4 bytes @ 0x29
   829     00C9                     	ds	4
   830     00CD                     ?_vfpfcnvrt:
   831     00CD                     vfpfcnvrt@fmt:	
   832                           ; 1 bytes @ 0x2D
   833                           
   834                           
   835                           ; 1 bytes @ 0x2D
   836     00CD                     	ds	1
   837     00CE                     vfpfcnvrt@ap:
   838                           
   839                           ; 1 bytes @ 0x2E
   840     00CE                     	ds	1
   841     00CF                     ?_vfprintf:
   842     00CF                     vfprintf@fmt:	
   843                           ; 2 bytes @ 0x2F
   844                           
   845                           
   846                           ; 1 bytes @ 0x2F
   847     00CF                     	ds	1
   848     00D0                     vfprintf@ap:
   849                           
   850                           ; 1 bytes @ 0x30
   851     00D0                     	ds	1
   852     00D1                     ?_printf:
   853                           
   854                           ; 2 bytes @ 0x31
   855     00D1                     	ds	6
   856     00D7                     ?_send_uint16t_to_uart:
   857     00D7                     send_uint16t_to_uart@value:	
   858                           ; 1 bytes @ 0x37
   859                           
   860                           
   861                           ; 2 bytes @ 0x37
   862     00D7                     	ds	2
   863                           
   864                           	psect	cstackCOMMON
   865     0071                     __pcstackCOMMON:
   866     0071                     ?___fleq:
   867     0071                     ?_config_tmr0:	
   868                           ; 1 bit 
   869                           
   870     0071                     ?_i2c_config:	
   871                           ; 1 bytes @ 0x0
   872                           
   873     0071                     ?_config_uart:	
   874                           ; 1 bytes @ 0x0
   875                           
   876     0071                     ?_i2c_start:	
   877                           ; 1 bytes @ 0x0
   878                           
   879     0071                     ??_i2c_start:	
   880                           ; 1 bytes @ 0x0
   881                           
   882     0071                     ?_i2c_write:	
   883                           ; 1 bytes @ 0x0
   884                           
   885     0071                     ??_i2c_write:	
   886                           ; 1 bytes @ 0x0
   887                           
   888     0071                     ?_i2c_stop:	
   889                           ; 1 bytes @ 0x0
   890                           
   891     0071                     ??_i2c_stop:	
   892                           ; 1 bytes @ 0x0
   893                           
   894     0071                     ?_i2c_read:	
   895                           ; 1 bytes @ 0x0
   896                           
   897     0071                     ??_i2c_read:	
   898                           ; 1 bytes @ 0x0
   899                           
   900     0071                     ?_strcpy:	
   901                           ; 1 bytes @ 0x0
   902                           
   903     0071                     ?_memcpy:	
   904                           ; 1 bytes @ 0x0
   905                           
   906     0071                     ?_main:	
   907                           ; 1 bytes @ 0x0
   908                           
   909     0071                     ?_co2_interruption:	
   910                           ; 1 bytes @ 0x0
   911                           
   912     0071                     ?_wait_MSSP:	
   913                           ; 1 bytes @ 0x0
   914                           
   915     0071                     ??_wait_MSSP:	
   916                           ; 1 bytes @ 0x0
   917                           
   918     0071                     ?_putch:	
   919                           ; 1 bytes @ 0x0
   920                           
   921     0071                     ??_putch:	
   922                           ; 1 bytes @ 0x0
   923                           
   924     0071                     ?__Umul8_16:	
   925                           ; 1 bytes @ 0x0
   926                           
   927     0071                     ?___fpclassifyf:	
   928                           ; 2 bytes @ 0x0
   929                           
   930     0071                     ?___wmul:	
   931                           ; 2 bytes @ 0x0
   932                           
   933     0071                     ?___awdiv:	
   934                           ; 2 bytes @ 0x0
   935                           
   936     0071                     ?___awmod:	
   937                           ; 2 bytes @ 0x0
   938                           
   939     0071                     ?_labs:	
   940                           ; 2 bytes @ 0x0
   941                           
   942     0071                     ?___flneg:	
   943                           ; 4 bytes @ 0x0
   944                           
   945     0071                     ?___fltol:	
   946                           ; 4 bytes @ 0x0
   947                           
   948     0071                     ?___fladd:	
   949                           ; 4 bytes @ 0x0
   950                           
   951     0071                     ?___fldiv:	
   952                           ; 4 bytes @ 0x0
   953                           
   954     0071                     i2c_write@I2C_data:	
   955                           ; 4 bytes @ 0x0
   956                           
   957     0071                     i2c_read@master_ack:	
   958                           ; 1 bytes @ 0x0
   959                           
   960     0071                     putch@data:	
   961                           ; 1 bytes @ 0x0
   962                           
   963     0071                     __Umul8_16@multiplicand:	
   964                           ; 1 bytes @ 0x0
   965                           
   966     0071                     memcpy@s1:	
   967                           ; 1 bytes @ 0x0
   968                           
   969     0071                     strcpy@src:	
   970                           ; 1 bytes @ 0x0
   971                           
   972     0071                     ___wmul@multiplier:	
   973                           ; 1 bytes @ 0x0
   974                           
   975     0071                     ___awdiv@divisor:	
   976                           ; 2 bytes @ 0x0
   977                           
   978     0071                     ___awmod@divisor:	
   979                           ; 2 bytes @ 0x0
   980                           
   981     0071                     ___fleq@ff1:	
   982                           ; 2 bytes @ 0x0
   983                           
   984     0071                     ___flneg@f1:	
   985                           ; 4 bytes @ 0x0
   986                           
   987     0071                     ___fltol@f1:	
   988                           ; 4 bytes @ 0x0
   989                           
   990     0071                     ___fladd@b:	
   991                           ; 4 bytes @ 0x0
   992                           
   993     0071                     ___fldiv@a:	
   994                           ; 4 bytes @ 0x0
   995                           
   996     0071                     ___fpclassifyf@x:	
   997                           ; 4 bytes @ 0x0
   998                           
   999     0071                     labs@a:	
  1000                           ; 4 bytes @ 0x0
  1001                           
  1002                           
  1003                           ; 4 bytes @ 0x0
  1004     0071                     	ds	1
  1005     0072                     ??_strcpy:
  1006     0072                     ?_fputc:	
  1007                           ; 1 bytes @ 0x1
  1008                           
  1009     0072                     i2c_read@I2C_data:	
  1010                           ; 2 bytes @ 0x1
  1011                           
  1012     0072                     strcpy@d:	
  1013                           ; 1 bytes @ 0x1
  1014                           
  1015     0072                     memcpy@n:	
  1016                           ; 1 bytes @ 0x1
  1017                           
  1018     0072                     fputc@c:	
  1019                           ; 2 bytes @ 0x1
  1020                           
  1021                           
  1022                           ; 2 bytes @ 0x1
  1023     0072                     	ds	1
  1024     0073                     ??__Umul8_16:
  1025     0073                     ?_read_co2_environment:	
  1026                           ; 1 bytes @ 0x2
  1027                           
  1028     0073                     strcpy@dest:	
  1029                           ; 2 bytes @ 0x2
  1030                           
  1031     0073                     ___wmul@multiplicand:	
  1032                           ; 1 bytes @ 0x2
  1033                           
  1034     0073                     ___awdiv@dividend:	
  1035                           ; 2 bytes @ 0x2
  1036                           
  1037     0073                     ___awmod@dividend:	
  1038                           ; 2 bytes @ 0x2
  1039                           
  1040                           
  1041                           ; 2 bytes @ 0x2
  1042     0073                     	ds	1
  1043     0074                     ??_memcpy:
  1044     0074                     memcpy@tmp:	
  1045                           ; 1 bytes @ 0x3
  1046                           
  1047     0074                     fputc@fp:	
  1048                           ; 1 bytes @ 0x3
  1049                           
  1050                           
  1051                           ; 1 bytes @ 0x3
  1052     0074                     	ds	1
  1053     0075                     ??_read_co2_environment:
  1054     0075                     ??_fputc:	
  1055                           ; 1 bytes @ 0x4
  1056                           
  1057     0075                     ??___fpclassifyf:	
  1058                           ; 1 bytes @ 0x4
  1059                           
  1060     0075                     ??_labs:	
  1061                           ; 1 bytes @ 0x4
  1062                           
  1063     0075                     ??___wmul:	
  1064                           ; 1 bytes @ 0x4
  1065                           
  1066     0075                     ??___awdiv:	
  1067                           ; 1 bytes @ 0x4
  1068                           
  1069     0075                     ??___awmod:	
  1070                           ; 1 bytes @ 0x4
  1071                           
  1072     0075                     ??___flneg:	
  1073                           ; 1 bytes @ 0x4
  1074                           
  1075     0075                     ??___fltol:	
  1076                           ; 1 bytes @ 0x4
  1077                           
  1078     0075                     ___awdiv@counter:	
  1079                           ; 1 bytes @ 0x4
  1080                           
  1081     0075                     ___awmod@counter:	
  1082                           ; 1 bytes @ 0x4
  1083                           
  1084     0075                     memcpy@d1:	
  1085                           ; 1 bytes @ 0x4
  1086                           
  1087     0075                     ___wmul@product:	
  1088                           ; 1 bytes @ 0x4
  1089                           
  1090     0075                     __Umul8_16@product:	
  1091                           ; 2 bytes @ 0x4
  1092                           
  1093     0075                     ___fleq@ff2:	
  1094                           ; 2 bytes @ 0x4
  1095                           
  1096     0075                     ___fladd@a:	
  1097                           ; 4 bytes @ 0x4
  1098                           
  1099     0075                     ___fldiv@b:	
  1100                           ; 4 bytes @ 0x4
  1101                           
  1102                           
  1103                           ; 4 bytes @ 0x4
  1104     0075                     	ds	1
  1105     0076                     ___awdiv@sign:
  1106     0076                     ___awmod@sign:	
  1107                           ; 1 bytes @ 0x5
  1108                           
  1109     0076                     memcpy@d:	
  1110                           ; 1 bytes @ 0x5
  1111                           
  1112                           
  1113                           ; 1 bytes @ 0x5
  1114     0076                     	ds	1
  1115     0077                     ?_abs:
  1116     0077                     ?_read_prec_or_width:	
  1117                           ; 2 bytes @ 0x6
  1118                           
  1119     0077                     read_prec_or_width@ap:	
  1120                           ; 2 bytes @ 0x6
  1121                           
  1122     0077                     memcpy@s:	
  1123                           ; 1 bytes @ 0x6
  1124                           
  1125     0077                     ___awdiv@quotient:	
  1126                           ; 1 bytes @ 0x6
  1127                           
  1128     0077                     __Umul8_16@word_mpld:	
  1129                           ; 2 bytes @ 0x6
  1130                           
  1131     0077                     abs@a:	
  1132                           ; 2 bytes @ 0x6
  1133                           
  1134                           
  1135                           ; 2 bytes @ 0x6
  1136     0077                     	ds	2
  1137     0079                     ??_abs:
  1138     0079                     ??___fleq:	
  1139                           ; 1 bytes @ 0x8
  1140                           
  1141     0079                     ??___fldiv:	
  1142                           ; 1 bytes @ 0x8
  1143                           
  1144     0079                     ??_read_prec_or_width:	
  1145                           ; 1 bytes @ 0x8
  1146                           
  1147     0079                     ___fltol@sign1:	
  1148                           ; 1 bytes @ 0x8
  1149                           
  1150     0079                     ___fladd@signs:	
  1151                           ; 1 bytes @ 0x8
  1152                           
  1153     0079                     __Umul8_16@multiplier:	
  1154                           ; 1 bytes @ 0x8
  1155                           
  1156     0079                     read_prec_or_width@c:	
  1157                           ; 1 bytes @ 0x8
  1158                           
  1159     0079                     read_co2_environment@co2_value:	
  1160                           ; 1 bytes @ 0x8
  1161                           
  1162                           
  1163                           ; 2 bytes @ 0x8
  1164     0079                     	ds	1
  1165     007A                     ??___flge:
  1166     007A                     ?_stoa:	
  1167                           ; 1 bytes @ 0x9
  1168                           
  1169     007A                     ?_fputs:	
  1170                           ; 1 bytes @ 0x9
  1171                           
  1172     007A                     ___fltol@exp1:	
  1173                           ; 2 bytes @ 0x9
  1174                           
  1175     007A                     ___fladd@aexp:	
  1176                           ; 1 bytes @ 0x9
  1177                           
  1178     007A                     fputs@fp:	
  1179                           ; 1 bytes @ 0x9
  1180                           
  1181     007A                     stoa@s:	
  1182                           ; 1 bytes @ 0x9
  1183                           
  1184     007A                     read_prec_or_width@n:	
  1185                           ; 2 bytes @ 0x9
  1186                           
  1187                           
  1188                           ; 2 bytes @ 0x9
  1189     007A                     	ds	1
  1190     007B                     ??_fputs:
  1191     007B                     ___fladd@bexp:	
  1192                           ; 1 bytes @ 0xA
  1193                           
  1194                           
  1195                           ; 1 bytes @ 0xA
  1196     007B                     	ds	1
  1197     007C                     ___fladd@grs:
  1198     007C                     read_prec_or_width@fmt:	
  1199                           ; 1 bytes @ 0xB
  1200                           
  1201                           
  1202                           ; 1 bytes @ 0xB
  1203     007C                     	ds	1
  1204     007D                     ??___flsub:
  1205     007D                     ??_pad:	
  1206                           ; 1 bytes @ 0xC
  1207                           
  1208                           
  1209                           ; 1 bytes @ 0xC
  1210     007D                     	ds	1
  1211     007E                     ??_send_uint16t_to_uart:
  1212     007E                     ??_printf:	
  1213                           ; 1 bytes @ 0xD
  1214                           
  1215     007E                     ??_vfprintf:	
  1216                           ; 1 bytes @ 0xD
  1217                           
  1218     007E                     ??_dtoa:	
  1219                           ; 1 bytes @ 0xD
  1220                           
  1221                           
  1222                           	psect	cstackBANK0
  1223     0020                     __pcstackBANK0:	
  1224                           ; 1 bytes @ 0xD
  1225                           
  1226     0020                     ??___fladd:
  1227     0020                     ??_stoa:	
  1228                           ; 1 bytes @ 0x0
  1229                           
  1230     0020                     ?___flmul:	
  1231                           ; 1 bytes @ 0x0
  1232                           
  1233     0020                     fputs@c:	
  1234                           ; 4 bytes @ 0x0
  1235                           
  1236     0020                     ___fpclassifyf@e:	
  1237                           ; 1 bytes @ 0x0
  1238                           
  1239     0020                     ___fldiv@rem:	
  1240                           ; 2 bytes @ 0x0
  1241                           
  1242     0020                     ___flmul@b:	
  1243                           ; 4 bytes @ 0x0
  1244                           
  1245                           
  1246                           ; 4 bytes @ 0x0
  1247     0020                     	ds	1
  1248     0021                     fputs@i:
  1249                           
  1250                           ; 2 bytes @ 0x1
  1251     0021                     	ds	1
  1252     0022                     ___fpclassifyf@u:
  1253                           
  1254                           ; 4 bytes @ 0x2
  1255     0022                     	ds	1
  1256     0023                     fputs@s:
  1257     0023                     stoa@p:	
  1258                           ; 1 bytes @ 0x3
  1259                           
  1260                           
  1261                           ; 2 bytes @ 0x3
  1262     0023                     	ds	1
  1263     0024                     ?_pad:
  1264     0024                     ___fldiv@sign:	
  1265                           ; 1 bytes @ 0x4
  1266                           
  1267     0024                     pad@buf:	
  1268                           ; 1 bytes @ 0x4
  1269                           
  1270     0024                     ___flmul@a:	
  1271                           ; 1 bytes @ 0x4
  1272                           
  1273                           
  1274                           ; 4 bytes @ 0x4
  1275     0024                     	ds	1
  1276     0025                     stoa@fp:
  1277     0025                     ___fldiv@new_exp:	
  1278                           ; 1 bytes @ 0x5
  1279                           
  1280     0025                     pad@p:	
  1281                           ; 2 bytes @ 0x5
  1282                           
  1283                           
  1284                           ; 2 bytes @ 0x5
  1285     0025                     	ds	1
  1286     0026                     stoa@cp:
  1287                           
  1288                           ; 2 bytes @ 0x6
  1289     0026                     	ds	1
  1290     0027                     pad@i:
  1291     0027                     ___fldiv@grs:	
  1292                           ; 2 bytes @ 0x7
  1293                           
  1294                           
  1295                           ; 4 bytes @ 0x7
  1296     0027                     	ds	1
  1297     0028                     ??___flmul:
  1298     0028                     stoa@l:	
  1299                           ; 1 bytes @ 0x8
  1300                           
  1301                           
  1302                           ; 2 bytes @ 0x8
  1303     0028                     	ds	1
  1304     0029                     pad@fp:
  1305                           
  1306                           ; 1 bytes @ 0x9
  1307     0029                     	ds	1
  1308     002A                     ?_dtoa:
  1309     002A                     dtoa@d:	
  1310                           ; 1 bytes @ 0xA
  1311                           
  1312                           
  1313                           ; 2 bytes @ 0xA
  1314     002A                     	ds	1
  1315     002B                     ___fldiv@bexp:
  1316                           
  1317                           ; 1 bytes @ 0xB
  1318     002B                     	ds	1
  1319     002C                     ___fldiv@aexp:
  1320     002C                     _dtoa$973:	
  1321                           ; 1 bytes @ 0xC
  1322                           
  1323                           
  1324                           ; 2 bytes @ 0xC
  1325     002C                     	ds	1
  1326     002D                     ?_floorf:
  1327     002D                     ___flmul@sign:	
  1328                           ; 4 bytes @ 0xD
  1329                           
  1330     002D                     floorf@x:	
  1331                           ; 1 bytes @ 0xD
  1332                           
  1333                           
  1334                           ; 4 bytes @ 0xD
  1335     002D                     	ds	1
  1336     002E                     dtoa@w:
  1337     002E                     ___flmul@grs:	
  1338                           ; 2 bytes @ 0xE
  1339                           
  1340                           
  1341                           ; 4 bytes @ 0xE
  1342     002E                     	ds	2
  1343     0030                     dtoa@p:
  1344                           
  1345                           ; 2 bytes @ 0x10
  1346     0030                     	ds	1
  1347     0031                     ??_floorf:
  1348                           
  1349                           ; 1 bytes @ 0x11
  1350     0031                     	ds	1
  1351     0032                     ___flmul@aexp:
  1352     0032                     dtoa@fp:	
  1353                           ; 1 bytes @ 0x12
  1354                           
  1355                           
  1356                           ; 1 bytes @ 0x12
  1357     0032                     	ds	1
  1358     0033                     ___flmul@bexp:
  1359     0033                     dtoa@s:	
  1360                           ; 1 bytes @ 0x13
  1361                           
  1362                           
  1363                           ; 1 bytes @ 0x13
  1364     0033                     	ds	1
  1365     0034                     dtoa@i:
  1366     0034                     ___flmul@prod:	
  1367                           ; 2 bytes @ 0x14
  1368                           
  1369                           
  1370                           ; 4 bytes @ 0x14
  1371     0034                     	ds	3
  1372     0037                     floorf@m:
  1373                           
  1374                           ; 4 bytes @ 0x17
  1375     0037                     	ds	1
  1376     0038                     ___flmul@temp:
  1377                           
  1378                           ; 2 bytes @ 0x18
  1379     0038                     	ds	2
  1380     003A                     ?___flge:
  1381     003A                     ?___flsub:	
  1382                           ; 1 bit 
  1383                           
  1384     003A                     ___flge@ff1:	
  1385                           ; 4 bytes @ 0x1A
  1386                           
  1387     003A                     ___flsub@a:	
  1388                           ; 4 bytes @ 0x1A
  1389                           
  1390                           
  1391                           ; 4 bytes @ 0x1A
  1392     003A                     	ds	1
  1393     003B                     floorf@e:
  1394                           
  1395                           ; 2 bytes @ 0x1B
  1396     003B                     	ds	2
  1397     003D                     floorf@u:
  1398                           
  1399                           ; 4 bytes @ 0x1D
  1400     003D                     	ds	1
  1401     003E                     ___flge@ff2:
  1402     003E                     ___flsub@b:	
  1403                           ; 4 bytes @ 0x1E
  1404                           
  1405                           
  1406                           ; 4 bytes @ 0x1E
  1407     003E                     	ds	4
  1408     0042                     ?_efgtoa:
  1409     0042                     efgtoa@f:	
  1410                           ; 1 bytes @ 0x22
  1411                           
  1412                           
  1413                           ; 4 bytes @ 0x22
  1414     0042                     	ds	4
  1415     0046                     efgtoa@c:
  1416                           
  1417                           ; 1 bytes @ 0x26
  1418     0046                     	ds	1
  1419     0047                     ??_efgtoa:
  1420                           
  1421                           ; 1 bytes @ 0x27
  1422     0047                     	ds	4
  1423     004B                     ??_vfpfcnvrt:
  1424                           
  1425                           ; 1 bytes @ 0x2B
  1426     004B                     	ds	2
  1427     004D                     vfpfcnvrt@done:
  1428                           
  1429                           ; 1 bytes @ 0x2D
  1430     004D                     	ds	1
  1431     004E                     vfpfcnvrt@convarg:
  1432                           
  1433                           ; 4 bytes @ 0x2E
  1434     004E                     	ds	4
  1435     0052                     vfpfcnvrt@c:
  1436                           
  1437                           ; 1 bytes @ 0x32
  1438     0052                     	ds	1
  1439     0053                     vfpfcnvrt@fp:
  1440                           
  1441                           ; 1 bytes @ 0x33
  1442     0053                     	ds	1
  1443     0054                     vfpfcnvrt@cp:
  1444                           
  1445                           ; 1 bytes @ 0x34
  1446     0054                     	ds	1
  1447     0055                     vfprintf@fp:
  1448                           
  1449                           ; 1 bytes @ 0x35
  1450     0055                     	ds	1
  1451     0056                     vfprintf@cfmt:
  1452                           
  1453                           ; 1 bytes @ 0x36
  1454     0056                     	ds	1
  1455     0057                     printf@fmt:
  1456                           
  1457                           ; 1 bytes @ 0x37
  1458     0057                     	ds	1
  1459     0058                     printf@ap:
  1460                           
  1461                           ; 1 bytes @ 0x38
  1462     0058                     	ds	1
  1463     0059                     send_uint16t_to_uart@name:
  1464                           
  1465                           ; 1 bytes @ 0x39
  1466     0059                     	ds	1
  1467     005A                     ??_co2_interruption:
  1468                           
  1469                           ; 1 bytes @ 0x3A
  1470     005A                     	ds	4
  1471                           
  1472                           	psect	maintext
  1473     1D15                     __pmaintext:	
  1474 ;;
  1475 ;;Main: autosize = 0, tempsize = 0, incstack = 0, save=0
  1476 ;;
  1477 ;; *************** function _main *****************
  1478 ;; Defined at:
  1479 ;;		line 18 in file "co2_test.c"
  1480 ;; Parameters:    Size  Location     Type
  1481 ;;		None
  1482 ;; Auto vars:     Size  Location     Type
  1483 ;;		None
  1484 ;; Return value:  Size  Location     Type
  1485 ;;                  1    wreg      void 
  1486 ;; Registers used:
  1487 ;;		wreg, status,2, status,0, pclath, cstack
  1488 ;; Tracked objects:
  1489 ;;		On entry : B00/0
  1490 ;;		On exit  : 0/0
  1491 ;;		Unchanged: 0/0
  1492 ;; Data sizes:     COMMON   BANK0   BANK1   BANK3   BANK2
  1493 ;;      Params:         0       0       0       0       0
  1494 ;;      Locals:         0       0       0       0       0
  1495 ;;      Temps:          0       0       0       0       0
  1496 ;;      Totals:         0       0       0       0       0
  1497 ;;Total ram usage:        0 bytes
  1498 ;; Hardware stack levels required when called: 11
  1499 ;; This function calls:
  1500 ;;		_config_tmr0
  1501 ;;		_config_uart
  1502 ;;		_i2c_config
  1503 ;; This function is called by:
  1504 ;;		Startup code after reset
  1505 ;; This function uses a non-reentrant model
  1506 ;;
  1507                           
  1508     1D15                     _main:	
  1509                           ;psect for function _main
  1510                           
  1511     1D15                     l3664:	
  1512                           ;incstack = 0
  1513 ;; hardware stack exceeded
  1514                           ; Regs used in _main: [wreg+status,2+status,0+pclath+cstack]
  1515                           
  1516                           
  1517                           ;co2_test.c: 19:     config_tmr0();
  1518     1D15  160A  158A  24E2  160A  158A  	fcall	_config_tmr0
  1519                           
  1520                           ;co2_test.c: 20:     i2c_config();
  1521     1D1A  160A  158A  24A5  160A  158A  	fcall	_i2c_config
  1522                           
  1523                           ;co2_test.c: 21:     config_uart();
  1524     1D1F  160A  158A  2553  160A  158A  	fcall	_config_uart
  1525     1D24                     l21:	
  1526                           ;co2_test.c: 23:     while(1);
  1527                           
  1528     1D24                     l22:
  1529     1D24  2D24               	goto	l21
  1530     1D25  120A  118A  2812   	ljmp	start
  1531     1D28                     __end_of_main:
  1532                           
  1533                           	psect	text1
  1534     1CA5                     __ptext1:	
  1535 ;; *************** function _i2c_config *****************
  1536 ;; Defined at:
  1537 ;;		line 9 in file "src/protocols/i2c-v2.c"
  1538 ;; Parameters:    Size  Location     Type
  1539 ;;		None
  1540 ;; Auto vars:     Size  Location     Type
  1541 ;;		None
  1542 ;; Return value:  Size  Location     Type
  1543 ;;                  1    wreg      void 
  1544 ;; Registers used:
  1545 ;;		wreg, status,2, status,0
  1546 ;; Tracked objects:
  1547 ;;		On entry : 0/0
  1548 ;;		On exit  : 0/0
  1549 ;;		Unchanged: 0/0
  1550 ;; Data sizes:     COMMON   BANK0   BANK1   BANK3   BANK2
  1551 ;;      Params:         0       0       0       0       0
  1552 ;;      Locals:         0       0       0       0       0
  1553 ;;      Temps:          0       0       0       0       0
  1554 ;;      Totals:         0       0       0       0       0
  1555 ;;Total ram usage:        0 bytes
  1556 ;; Hardware stack levels used: 1
  1557 ;; Hardware stack levels required when called: 10
  1558 ;; This function calls:
  1559 ;;		Nothing
  1560 ;; This function is called by:
  1561 ;;		_main
  1562 ;; This function uses a non-reentrant model
  1563 ;;
  1564                           
  1565     1CA5                     _i2c_config:	
  1566                           ;psect for function _i2c_config
  1567                           
  1568     1CA5                     l3612:	
  1569                           ;incstack = 0
  1570 ;; hardware stack exceeded
  1571                           ; Regs used in _i2c_config: [wreg+status,2+status,0]
  1572                           
  1573                           
  1574                           ;src/protocols/i2c-v2.c: 11:     SSPCONbits.SSPM = 0b1000;
  1575     1CA5  1283               	bcf	3,5	;RP0=0, select bank0
  1576     1CA6  1303               	bcf	3,6	;RP1=0, select bank0
  1577     1CA7  0814               	movf	20,w	;volatile
  1578     1CA8  39F0               	andlw	-16
  1579     1CA9  3808               	iorlw	8
  1580     1CAA  0094               	movwf	20	;volatile
  1581     1CAB                     l3614:
  1582                           
  1583                           ;src/protocols/i2c-v2.c: 12:     SSPCONbits.SSPEN = 1;
  1584     1CAB  1694               	bsf	20,5	;volatile
  1585     1CAC                     l61:
  1586     1CAC  0008               	return
  1587     1CAD                     __end_of_i2c_config:
  1588                           
  1589                           	psect	text2
  1590     1D53                     __ptext2:	
  1591 ;; *************** function _config_uart *****************
  1592 ;; Defined at:
  1593 ;;		line 3 in file "src/protocols/uart.c"
  1594 ;; Parameters:    Size  Location     Type
  1595 ;;		None
  1596 ;; Auto vars:     Size  Location     Type
  1597 ;;		None
  1598 ;; Return value:  Size  Location     Type
  1599 ;;                  1    wreg      void 
  1600 ;; Registers used:
  1601 ;;		wreg, status,2
  1602 ;; Tracked objects:
  1603 ;;		On entry : 0/0
  1604 ;;		On exit  : 0/0
  1605 ;;		Unchanged: 0/0
  1606 ;; Data sizes:     COMMON   BANK0   BANK1   BANK3   BANK2
  1607 ;;      Params:         0       0       0       0       0
  1608 ;;      Locals:         0       0       0       0       0
  1609 ;;      Temps:          0       0       0       0       0
  1610 ;;      Totals:         0       0       0       0       0
  1611 ;;Total ram usage:        0 bytes
  1612 ;; Hardware stack levels used: 1
  1613 ;; Hardware stack levels required when called: 10
  1614 ;; This function calls:
  1615 ;;		Nothing
  1616 ;; This function is called by:
  1617 ;;		_main
  1618 ;; This function uses a non-reentrant model
  1619 ;;
  1620                           
  1621     1D53                     _config_uart:	
  1622                           ;psect for function _config_uart
  1623                           
  1624     1D53                     l3616:	
  1625                           ;incstack = 0
  1626 ;; hardware stack exceeded
  1627                           ; Regs used in _config_uart: [wreg+status,2]
  1628                           
  1629                           
  1630                           ;src/protocols/uart.c: 5:   TXSTAbits.BRGH = 0;
  1631     1D53  1683               	bsf	3,5	;RP0=1, select bank1
  1632     1D54  1303               	bcf	3,6	;RP1=0, select bank1
  1633     1D55  1118               	bcf	24,2	;volatile
  1634                           
  1635                           ;src/protocols/uart.c: 6:   BAUDCTLbits.BRG16 = 0;
  1636     1D56  1683               	bsf	3,5	;RP0=1, select bank3
  1637     1D57  1703               	bsf	3,6	;RP1=1, select bank3
  1638     1D58  1187               	bcf	7,3	;volatile
  1639     1D59                     l3618:
  1640                           
  1641                           ;src/protocols/uart.c: 9:   SPBRGH = 0;
  1642     1D59  1683               	bsf	3,5	;RP0=1, select bank1
  1643     1D5A  1303               	bcf	3,6	;RP1=0, select bank1
  1644     1D5B  019A               	clrf	26	;volatile
  1645     1D5C                     l3620:
  1646                           
  1647                           ;src/protocols/uart.c: 10:   SPBRG = 32;
  1648     1D5C  3020               	movlw	32
  1649     1D5D  0099               	movwf	25	;volatile
  1650     1D5E                     l3622:
  1651                           
  1652                           ;src/protocols/uart.c: 12:   TXSTAbits.SYNC = 0;
  1653     1D5E  1218               	bcf	24,4	;volatile
  1654     1D5F                     l3624:
  1655                           
  1656                           ;src/protocols/uart.c: 13:   TXSTAbits.TX9 = 0;
  1657     1D5F  1318               	bcf	24,6	;volatile
  1658     1D60                     l3626:
  1659                           
  1660                           ;src/protocols/uart.c: 14:   RCSTAbits.RX9 = 0;
  1661     1D60  1283               	bcf	3,5	;RP0=0, select bank0
  1662     1D61  1303               	bcf	3,6	;RP1=0, select bank0
  1663     1D62  1318               	bcf	24,6	;volatile
  1664     1D63                     l3628:
  1665                           
  1666                           ;src/protocols/uart.c: 16:   PIE1bits.TXIE = 0;
  1667     1D63  1683               	bsf	3,5	;RP0=1, select bank1
  1668     1D64  1303               	bcf	3,6	;RP1=0, select bank1
  1669     1D65  120C               	bcf	12,4	;volatile
  1670     1D66                     l3630:
  1671                           
  1672                           ;src/protocols/uart.c: 17:   PIE1bits.RCIE = 1;
  1673     1D66  168C               	bsf	12,5	;volatile
  1674     1D67                     l3632:
  1675                           
  1676                           ;src/protocols/uart.c: 19:   RCSTAbits.SPEN = 1;
  1677     1D67  1283               	bcf	3,5	;RP0=0, select bank0
  1678     1D68  1303               	bcf	3,6	;RP1=0, select bank0
  1679     1D69  1798               	bsf	24,7	;volatile
  1680     1D6A                     l3634:
  1681                           
  1682                           ;src/protocols/uart.c: 21:   TXSTAbits.TXEN = 0;
  1683     1D6A  1683               	bsf	3,5	;RP0=1, select bank1
  1684     1D6B  1303               	bcf	3,6	;RP1=0, select bank1
  1685     1D6C  1298               	bcf	24,5	;volatile
  1686     1D6D                     l3636:
  1687                           
  1688                           ;src/protocols/uart.c: 22:   TXSTAbits.TXEN = 1;
  1689     1D6D  1698               	bsf	24,5	;volatile
  1690     1D6E                     l3638:
  1691                           
  1692                           ;src/protocols/uart.c: 24:   RCSTAbits.CREN = 0;
  1693     1D6E  1283               	bcf	3,5	;RP0=0, select bank0
  1694     1D6F  1303               	bcf	3,6	;RP1=0, select bank0
  1695     1D70  1218               	bcf	24,4	;volatile
  1696     1D71                     l3640:
  1697                           
  1698                           ;src/protocols/uart.c: 25:   RCSTAbits.CREN = 1;
  1699     1D71  1618               	bsf	24,4	;volatile
  1700     1D72                     l109:
  1701     1D72  0008               	return
  1702     1D73                     __end_of_config_uart:
  1703                           
  1704                           	psect	text3
  1705     1CE2                     __ptext3:	
  1706 ;; *************** function _config_tmr0 *****************
  1707 ;; Defined at:
  1708 ;;		line 3 in file "src/timers/tmr0.c"
  1709 ;; Parameters:    Size  Location     Type
  1710 ;;		None
  1711 ;; Auto vars:     Size  Location     Type
  1712 ;;		None
  1713 ;; Return value:  Size  Location     Type
  1714 ;;                  1    wreg      void 
  1715 ;; Registers used:
  1716 ;;		wreg, status,2, status,0
  1717 ;; Tracked objects:
  1718 ;;		On entry : 0/0
  1719 ;;		On exit  : 0/0
  1720 ;;		Unchanged: 0/0
  1721 ;; Data sizes:     COMMON   BANK0   BANK1   BANK3   BANK2
  1722 ;;      Params:         0       0       0       0       0
  1723 ;;      Locals:         0       0       0       0       0
  1724 ;;      Temps:          0       0       0       0       0
  1725 ;;      Totals:         0       0       0       0       0
  1726 ;;Total ram usage:        0 bytes
  1727 ;; Hardware stack levels used: 1
  1728 ;; Hardware stack levels required when called: 10
  1729 ;; This function calls:
  1730 ;;		Nothing
  1731 ;; This function is called by:
  1732 ;;		_main
  1733 ;; This function uses a non-reentrant model
  1734 ;;
  1735                           
  1736     1CE2                     _config_tmr0:	
  1737                           ;psect for function _config_tmr0
  1738                           
  1739     1CE2                     l3604:	
  1740                           ;incstack = 0
  1741 ;; hardware stack exceeded
  1742                           ; Regs used in _config_tmr0: [wreg+status,2+status,0]
  1743                           
  1744                           
  1745                           ;src/timers/tmr0.c: 5:     INTCONbits.GIE = 1;
  1746     1CE2  178B               	bsf	11,7	;volatile
  1747                           
  1748                           ;src/timers/tmr0.c: 6:     INTCONbits.T0IE = 1;
  1749     1CE3  168B               	bsf	11,5	;volatile
  1750                           
  1751                           ;src/timers/tmr0.c: 7:     OPTION_REGbits.T0CS = 0;
  1752     1CE4  1683               	bsf	3,5	;RP0=1, select bank1
  1753     1CE5  1303               	bcf	3,6	;RP1=0, select bank1
  1754     1CE6  1281               	bcf	1,5	;volatile
  1755                           
  1756                           ;src/timers/tmr0.c: 8:     OPTION_REGbits.PSA = 0;
  1757     1CE7  1181               	bcf	1,3	;volatile
  1758     1CE8                     l3606:
  1759                           
  1760                           ;src/timers/tmr0.c: 9:     OPTION_REGbits.PS = 0b110;
  1761     1CE8  0801               	movf	1,w	;volatile
  1762     1CE9  39F8               	andlw	-8
  1763     1CEA  3806               	iorlw	6
  1764     1CEB  0081               	movwf	1	;volatile
  1765     1CEC                     l3608:
  1766                           
  1767                           ;src/timers/tmr0.c: 10:     TMR0 = 61;
  1768     1CEC  303D               	movlw	61
  1769     1CED  1283               	bcf	3,5	;RP0=0, select bank0
  1770     1CEE  1303               	bcf	3,6	;RP1=0, select bank0
  1771     1CEF  0081               	movwf	1	;volatile
  1772     1CF0                     l3610:
  1773                           
  1774                           ;src/timers/tmr0.c: 11:     INTCONbits.T0IF = 0;
  1775     1CF0  110B               	bcf	11,2	;volatile
  1776     1CF1                     l39:
  1777     1CF1  0008               	return
  1778     1CF2                     __end_of_config_tmr0:
  1779                           
  1780                           	psect	text4
  1781     1E54                     __ptext4:	
  1782 ;; *************** function _co2_interruption *****************
  1783 ;; Defined at:
  1784 ;;		line 27 in file "co2_test.c"
  1785 ;; Parameters:    Size  Location     Type
  1786 ;;		None
  1787 ;; Auto vars:     Size  Location     Type
  1788 ;;		None
  1789 ;; Return value:  Size  Location     Type
  1790 ;;                  1    wreg      void 
  1791 ;; Registers used:
  1792 ;;		wreg, fsr0l, fsr0h, status,2, status,0, btemp+1, pclath, cstack
  1793 ;; Tracked objects:
  1794 ;;		On entry : 0/0
  1795 ;;		On exit  : 0/0
  1796 ;;		Unchanged: 0/0
  1797 ;; Data sizes:     COMMON   BANK0   BANK1   BANK3   BANK2
  1798 ;;      Params:         0       0       0       0       0
  1799 ;;      Locals:         0       0       0       0       0
  1800 ;;      Temps:          0       4       0       0       0
  1801 ;;      Totals:         0       4       0       0       0
  1802 ;;Total ram usage:        4 bytes
  1803 ;; Hardware stack levels used: 1
  1804 ;; Hardware stack levels required when called: 9
  1805 ;; This function calls:
  1806 ;;		_read_co2_environment
  1807 ;;		_send_uint16t_to_uart
  1808 ;; This function is called by:
  1809 ;;		Interrupt level 1
  1810 ;; This function uses a non-reentrant model
  1811 ;;
  1812                           
  1813     1E54                     _co2_interruption:	
  1814                           ;psect for function _co2_interruption
  1815                           
  1816     1E54                     i1l3666:
  1817                           
  1818                           ;co2_test.c: 29:     INTCONbits.T0IF = 0;
  1819     1E54  110B               	bcf	11,2	;volatile
  1820     1E55                     i1l3668:
  1821                           
  1822                           ;co2_test.c: 30:     if(cont == 100)
  1823     1E55  3064               	movlw	100
  1824     1E56  1683               	bsf	3,5	;RP0=1, select bank1
  1825     1E57  1303               	bcf	3,6	;RP1=0, select bank1
  1826     1E58  0659               	xorwf	_cont^(0+128),w
  1827     1E59  045A               	iorwf	(_cont+1)^(0+128),w
  1828     1E5A  1D03               	btfss	3,2
  1829     1E5B  2E5D               	goto	u516_21
  1830     1E5C  2E5E               	goto	u516_20
  1831     1E5D                     u516_21:
  1832     1E5D  2E77               	goto	i1l3676
  1833     1E5E                     u516_20:
  1834     1E5E                     i1l3670:
  1835                           
  1836                           ;co2_test.c: 31:     {;co2_test.c: 32:         co2 = read_co2_environment();
  1837     1E5E  160A  158A  26C4  160A  158A  	fcall	_read_co2_environment
  1838     1E63  0874               	movf	?_read_co2_environment+1,w
  1839     1E64  1683               	bsf	3,5	;RP0=1, select bank1
  1840     1E65  1303               	bcf	3,6	;RP1=0, select bank1
  1841     1E66  00DC               	movwf	(_co2+1)^(0+128)
  1842     1E67  0873               	movf	?_read_co2_environment,w
  1843     1E68  00DB               	movwf	_co2^(0+128)
  1844     1E69                     i1l3672:
  1845                           
  1846                           ;co2_test.c: 33:         send_uint16t_to_uart("co2",co2);
  1847     1E69  085C               	movf	(_co2+1)^(0+128),w
  1848     1E6A  00D8               	movwf	(send_uint16t_to_uart@value+1)^(0+128)
  1849     1E6B  085B               	movf	_co2^(0+128),w
  1850     1E6C  00D7               	movwf	send_uint16t_to_uart@value^(0+128)
  1851     1E6D  3036               	movlw	(low ((STR_1-__stringbase)| (0+32768)))& (0+255)
  1852     1E6E  160A  158A  253D  160A  158A  	fcall	_send_uint16t_to_uart
  1853     1E73                     i1l3674:
  1854                           
  1855                           ;co2_test.c: 34:         cont = 0;
  1856     1E73  1683               	bsf	3,5	;RP0=1, select bank1
  1857     1E74  1303               	bcf	3,6	;RP1=0, select bank1
  1858     1E75  01D9               	clrf	_cont^(0+128)
  1859     1E76  01DA               	clrf	(_cont+1)^(0+128)
  1860     1E77                     i1l3676:
  1861                           
  1862                           ;co2_test.c: 36:     cont ++;
  1863     1E77  3001               	movlw	1
  1864     1E78  07D9               	addwf	_cont^(0+128),f
  1865     1E79  1803               	skipnc
  1866     1E7A  0ADA               	incf	(_cont+1)^(0+128),f
  1867     1E7B  3000               	movlw	0
  1868     1E7C  07DA               	addwf	(_cont+1)^(0+128),f
  1869     1E7D                     i1l30:
  1870     1E7D  1283               	bcf	3,5	;RP0=0, select bank0
  1871     1E7E  1303               	bcf	3,6	;RP1=0, select bank0
  1872     1E7F  085D               	movf	??_co2_interruption+3,w
  1873     1E80  00FF               	movwf	btemp+1
  1874     1E81  085C               	movf	??_co2_interruption+2,w
  1875     1E82  008A               	movwf	10
  1876     1E83  085B               	movf	??_co2_interruption+1,w
  1877     1E84  0084               	movwf	4
  1878     1E85  0E5A               	swapf	??_co2_interruption,w
  1879     1E86  0083               	movwf	3
  1880     1E87  0EFE               	swapf	btemp,f
  1881     1E88  0E7E               	swapf	btemp,w
  1882     1E89  0009               	retfie
  1883     1E8A                     __end_of_co2_interruption:
  1884                           
  1885                           	psect	intentry
  1886     0004                     __pintentry:	
  1887                           ;incstack = 0
  1888 ;; hardware stack exceeded
  1889                           ; Regs used in _co2_interruption: [wreg-fsr0h+status,2+status,0+btemp+1+pclath+cstack]
  1890                           
  1891     0004                     interrupt_function:
  1892     007E                     saved_w	set	btemp
  1893     0004  00FE               	movwf	btemp
  1894     0005  0E03               	swapf	3,w
  1895     0006  1283               	bcf	3,5	;RP0=0, select bank0
  1896     0007  1303               	bcf	3,6	;RP1=0, select bank0
  1897     0008  00DA               	movwf	??_co2_interruption
  1898     0009  0804               	movf	4,w
  1899     000A  00DB               	movwf	??_co2_interruption+1
  1900     000B  080A               	movf	10,w
  1901     000C  00DC               	movwf	??_co2_interruption+2
  1902     000D  087F               	movf	btemp+1,w
  1903     000E  00DD               	movwf	??_co2_interruption+3
  1904     000F  160A  158A  2E54   	ljmp	_co2_interruption
  1905                           
  1906                           	psect	text5
  1907     1D3D                     __ptext5:	
  1908 ;; *************** function _send_uint16t_to_uart *****************
  1909 ;; Defined at:
  1910 ;;		line 29 in file "src/protocols/uart.c"
  1911 ;; Parameters:    Size  Location     Type
  1912 ;;  name            1    wreg     PTR unsigned char 
  1913 ;;		 -> STR_1(4), 
  1914 ;;  value           2   55[BANK1 ] unsigned short 
  1915 ;; Auto vars:     Size  Location     Type
  1916 ;;  name            1   57[BANK0 ] PTR unsigned char 
  1917 ;;		 -> STR_1(4), 
  1918 ;; Return value:  Size  Location     Type
  1919 ;;                  1    wreg      void 
  1920 ;; Registers used:
  1921 ;;		wreg, fsr0l, fsr0h, status,2, status,0, btemp+1, pclath, cstack
  1922 ;; Tracked objects:
  1923 ;;		On entry : 0/0
  1924 ;;		On exit  : 0/0
  1925 ;;		Unchanged: 0/0
  1926 ;; Data sizes:     COMMON   BANK0   BANK1   BANK3   BANK2
  1927 ;;      Params:         0       0       2       0       0
  1928 ;;      Locals:         0       1       0       0       0
  1929 ;;      Temps:          0       0       0       0       0
  1930 ;;      Totals:         0       1       2       0       0
  1931 ;;Total ram usage:        3 bytes
  1932 ;; Hardware stack levels used: 1
  1933 ;; Hardware stack levels required when called: 8
  1934 ;; This function calls:
  1935 ;;		_printf
  1936 ;; This function is called by:
  1937 ;;		_co2_interruption
  1938 ;; This function uses a non-reentrant model
  1939 ;;
  1940                           
  1941     1D3D                     _send_uint16t_to_uart:	
  1942                           ;psect for function _send_uint16t_to_uart
  1943                           
  1944                           
  1945                           ;incstack = 0
  1946 ;; hardware stack exceeded
  1947                           ; Regs used in _send_uint16t_to_uart: [wreg-fsr0h+status,2+status,0+btemp+1+pclath+cstac
      +                          k]
  1948                           ;send_uint16t_to_uart@name stored from wreg
  1949     1D3D  1283               	bcf	3,5	;RP0=0, select bank0
  1950     1D3E  1303               	bcf	3,6	;RP1=0, select bank0
  1951     1D3F  00D9               	movwf	send_uint16t_to_uart@name
  1952     1D40                     i1l3662:
  1953                           
  1954                           ;src/protocols/uart.c: 29: void send_uint16t_to_uart (char *name, uint16_t value);src/pr
      +                          otocols/uart.c: 30: {;src/protocols/uart.c: 31:     printf("%s value: [%i] \r\n",name,va
      +                          lue);
  1955     1D40  0859               	movf	send_uint16t_to_uart@name,w
  1956     1D41  1683               	bsf	3,5	;RP0=1, select bank1
  1957     1D42  1303               	bcf	3,6	;RP1=0, select bank1
  1958     1D43  00D1               	movwf	?_printf^(0+128)
  1959     1D44  3000               	movlw	0
  1960     1D45  1D03               	btfss	3,2
  1961     1D46  3080               	movlw	128
  1962     1D47  00D2               	movwf	(?_printf+1)^(0+128)
  1963     1D48  0858               	movf	(send_uint16t_to_uart@value+1)^(0+128),w
  1964     1D49  00D4               	movwf	((?_printf+1)^(0+128)+2)
  1965     1D4A  0857               	movf	send_uint16t_to_uart@value^(0+128),w
  1966     1D4B  00D3               	movwf	(?_printf^(0+128)+2)
  1967     1D4C  3015               	movlw	(low ((STR_2-__stringbase)| (0+32768)))& (0+255)
  1968     1D4D  160A  158A  2503  160A  158A  	fcall	_printf
  1969     1D52                     i1l112:
  1970     1D52  0008               	return
  1971     1D53                     __end_of_send_uint16t_to_uart:
  1972                           
  1973                           	psect	text6
  1974     1D03                     __ptext6:	
  1975 ;; *************** function _printf *****************
  1976 ;; Defined at:
  1977 ;;		line 5 in file "C:\Program Files\Microchip\xc8\v2.45\pic\sources\c99\common\printf.c"
  1978 ;; Parameters:    Size  Location     Type
  1979 ;;  fmt             1    wreg     PTR const unsigned char 
  1980 ;;		 -> STR_3(20), STR_2(18), 
  1981 ;; Auto vars:     Size  Location     Type
  1982 ;;  fmt             1   55[BANK0 ] PTR const unsigned char 
  1983 ;;		 -> STR_3(20), STR_2(18), 
  1984 ;;  ret             2    0        int 
  1985 ;;  ap              1   56[BANK0 ] PTR void [1]
  1986 ;;		 -> ?_printf(2), 
  1987 ;; Return value:  Size  Location     Type
  1988 ;;                  2   49[BANK1 ] int 
  1989 ;; Registers used:
  1990 ;;		wreg, fsr0l, fsr0h, status,2, status,0, btemp+1, pclath, cstack
  1991 ;; Tracked objects:
  1992 ;;		On entry : 0/0
  1993 ;;		On exit  : 0/0
  1994 ;;		Unchanged: 0/0
  1995 ;; Data sizes:     COMMON   BANK0   BANK1   BANK3   BANK2
  1996 ;;      Params:         0       0       6       0       0
  1997 ;;      Locals:         0       2       0       0       0
  1998 ;;      Temps:          0       0       0       0       0
  1999 ;;      Totals:         0       2       6       0       0
  2000 ;;Total ram usage:        8 bytes
  2001 ;; Hardware stack levels used: 1
  2002 ;; Hardware stack levels required when called: 7
  2003 ;; This function calls:
  2004 ;;		_vfprintf
  2005 ;; This function is called by:
  2006 ;;		_send_uint16t_to_uart
  2007 ;;		_send_float_to_uart
  2008 ;; This function uses a non-reentrant model
  2009 ;;
  2010                           
  2011     1D03                     _printf:	
  2012                           ;psect for function _printf
  2013                           
  2014                           
  2015                           ;incstack = 0
  2016 ;; hardware stack exceeded
  2017                           ; Regs used in _printf: [wreg-fsr0h+status,2+status,0+btemp+1+pclath+cstack]
  2018                           ;printf@fmt stored from wreg
  2019     1D03  1283               	bcf	3,5	;RP0=0, select bank0
  2020     1D04  1303               	bcf	3,6	;RP1=0, select bank0
  2021     1D05  00D7               	movwf	printf@fmt
  2022     1D06                     i1l3598:
  2023     1D06  30D1               	movlw	(low (?_printf| 0))& (0+255)
  2024     1D07  00D8               	movwf	printf@ap
  2025     1D08                     i1l3600:
  2026     1D08  0857               	movf	printf@fmt,w
  2027     1D09  1683               	bsf	3,5	;RP0=1, select bank1
  2028     1D0A  1303               	bcf	3,6	;RP1=0, select bank1
  2029     1D0B  00CF               	movwf	vfprintf@fmt^(0+128)
  2030     1D0C  3058               	movlw	(low (printf@ap| 0))& (0+255)
  2031     1D0D  00D0               	movwf	vfprintf@ap^(0+128)
  2032     1D0E  3000               	movlw	0
  2033     1D0F  160A  118A  2051  160A  158A  	fcall	_vfprintf
  2034     1D14                     i1l673:
  2035     1D14  0008               	return
  2036     1D15                     __end_of_printf:
  2037                           
  2038                           	psect	text7
  2039     1051                     __ptext7:	
  2040 ;; *************** function _vfprintf *****************
  2041 ;; Defined at:
  2042 ;;		line 1817 in file "C:\Program Files\Microchip\xc8\v2.45\pic\sources\c99\common\doprnt.c"
  2043 ;; Parameters:    Size  Location     Type
  2044 ;;  fp              1    wreg     PTR struct _IO_FILE
  2045 ;;		 -> NULL(0), 
  2046 ;;  fmt             1   47[BANK1 ] PTR const unsigned char 
  2047 ;;		 -> STR_3(20), STR_2(18), 
  2048 ;;  ap              1   48[BANK1 ] PTR PTR void 
  2049 ;;		 -> printf@ap(1), 
  2050 ;; Auto vars:     Size  Location     Type
  2051 ;;  fp              1   53[BANK0 ] PTR struct _IO_FILE
  2052 ;;		 -> NULL(0), 
  2053 ;;  cfmt            1   54[BANK0 ] PTR unsigned char 
  2054 ;;		 -> STR_3(20), STR_2(18), 
  2055 ;; Return value:  Size  Location     Type
  2056 ;;                  2   47[BANK1 ] int 
  2057 ;; Registers used:
  2058 ;;		wreg, fsr0l, fsr0h, status,2, status,0, btemp+1, pclath, cstack
  2059 ;; Tracked objects:
  2060 ;;		On entry : 0/0
  2061 ;;		On exit  : 0/0
  2062 ;;		Unchanged: 0/0
  2063 ;; Data sizes:     COMMON   BANK0   BANK1   BANK3   BANK2
  2064 ;;      Params:         0       0       2       0       0
  2065 ;;      Locals:         0       2       0       0       0
  2066 ;;      Temps:          0       0       0       0       0
  2067 ;;      Totals:         0       2       2       0       0
  2068 ;;Total ram usage:        4 bytes
  2069 ;; Hardware stack levels used: 1
  2070 ;; Hardware stack levels required when called: 6
  2071 ;; This function calls:
  2072 ;;		_vfpfcnvrt
  2073 ;; This function is called by:
  2074 ;;		_printf
  2075 ;; This function uses a non-reentrant model
  2076 ;;
  2077                           
  2078     1051                     _vfprintf:	
  2079                           ;psect for function _vfprintf
  2080                           
  2081                           
  2082                           ;incstack = 0
  2083 ;; hardware stack exceeded
  2084                           ; Regs used in _vfprintf: [wreg-fsr0h+status,2+status,0+btemp+1+pclath+cstack]
  2085                           ;vfprintf@fp stored from wreg
  2086     1051  1283               	bcf	3,5	;RP0=0, select bank0
  2087     1052  1303               	bcf	3,6	;RP1=0, select bank0
  2088     1053  00D5               	movwf	vfprintf@fp
  2089     1054                     i1l3552:
  2090                           
  2091                           ;C:\Program Files\Microchip\xc8\v2.45\pic\sources\c99\common\doprnt.c: 1817: int vfprint
      +                          f(FILE *fp, const char *fmt, va_list ap);C:\Program Files\Microchip\xc8\v2.45\pic\source
      +                          s\c99\common\doprnt.c: 1818: {;C:\Program Files\Microchip\xc8\v2.45\pic\sources\c99\comm
      +                          on\doprnt.c: 1820:     char *cfmt;;C:\Program Files\Microchip\xc8\v2.45\pic\sources\c99\
      +                          common\doprnt.c: 1822:     cfmt = (char *)fmt;
  2092     1054  1683               	bsf	3,5	;RP0=1, select bank1
  2093     1055  1303               	bcf	3,6	;RP1=0, select bank1
  2094     1056  084F               	movf	vfprintf@fmt^(0+128),w
  2095     1057  1283               	bcf	3,5	;RP0=0, select bank0
  2096     1058  1303               	bcf	3,6	;RP1=0, select bank0
  2097     1059  00D6               	movwf	vfprintf@cfmt
  2098                           
  2099                           ;C:\Program Files\Microchip\xc8\v2.45\pic\sources\c99\common\doprnt.c: 1826:     while (
      +                          *cfmt) {
  2100     105A  2869               	goto	i1l3556
  2101     105B                     i1l3554:
  2102                           
  2103                           ;C:\Program Files\Microchip\xc8\v2.45\pic\sources\c99\common\doprnt.c: 1830:    vfpfcnvr
      +                          t(fp, &cfmt, ap);
  2104     105B  3056               	movlw	(low (vfprintf@cfmt| 0))& (0+255)
  2105     105C  1683               	bsf	3,5	;RP0=1, select bank1
  2106     105D  1303               	bcf	3,6	;RP1=0, select bank1
  2107     105E  00CD               	movwf	vfpfcnvrt@fmt^(0+128)
  2108     105F  0850               	movf	vfprintf@ap^(0+128),w
  2109     1060  00CE               	movwf	vfpfcnvrt@ap^(0+128)
  2110     1061  1283               	bcf	3,5	;RP0=0, select bank0
  2111     1062  1303               	bcf	3,6	;RP1=0, select bank0
  2112     1063  0855               	movf	vfprintf@fp,w
  2113     1064  120A  158A  2081  160A  118A  	fcall	_vfpfcnvrt
  2114     1069                     i1l3556:
  2115                           
  2116                           ;C:\Program Files\Microchip\xc8\v2.45\pic\sources\c99\common\doprnt.c: 1826:     while (
      +                          *cfmt) {
  2117     1069  1283               	bcf	3,5	;RP0=0, select bank0
  2118     106A  1303               	bcf	3,6	;RP1=0, select bank0
  2119     106B  0856               	movf	vfprintf@cfmt,w
  2120     106C  0084               	movwf	4
  2121     106D  160A  118A  200A  160A  118A  	fcall	stringdir
  2122     1072  3A00               	xorlw	0
  2123     1073  1D03               	skipz
  2124     1074  2876               	goto	u514_21
  2125     1075  2877               	goto	u514_20
  2126     1076                     u514_21:
  2127     1076  285B               	goto	i1l3554
  2128     1077                     u514_20:
  2129     1077                     i1l3558:
  2130                           
  2131                           ;C:\Program Files\Microchip\xc8\v2.45\pic\sources\c99\common\doprnt.c: 1835:  return 0;
  2132     1077  1683               	bsf	3,5	;RP0=1, select bank1
  2133     1078  1303               	bcf	3,6	;RP1=0, select bank1
  2134     1079  01CF               	clrf	?_vfprintf^(0+128)
  2135     107A  01D0               	clrf	(?_vfprintf+1)^(0+128)
  2136     107B                     i1l830:
  2137     107B  0008               	return
  2138     107C                     __end_of_vfprintf:
  2139                           
  2140                           	psect	text8
  2141     0881                     __ptext8:	
  2142 ;; *************** function _vfpfcnvrt *****************
  2143 ;; Defined at:
  2144 ;;		line 1177 in file "C:\Program Files\Microchip\xc8\v2.45\pic\sources\c99\common\doprnt.c"
  2145 ;; Parameters:    Size  Location     Type
  2146 ;;  fp              1    wreg     PTR struct _IO_FILE
  2147 ;;		 -> NULL(0), 
  2148 ;;  fmt             1   45[BANK1 ] PTR PTR unsigned char 
  2149 ;;		 -> vfprintf@cfmt(1), 
  2150 ;;  ap              1   46[BANK1 ] PTR PTR void 
  2151 ;;		 -> printf@ap(1), 
  2152 ;; Auto vars:     Size  Location     Type
  2153 ;;  fp              1   51[BANK0 ] PTR struct _IO_FILE
  2154 ;;		 -> NULL(0), 
  2155 ;;  convarg         4   46[BANK0 ] struct .
  2156 ;;  cp              1   52[BANK0 ] PTR unsigned char 
  2157 ;;		 -> STR_3(20), STR_2(18), 
  2158 ;;  c               1   50[BANK0 ] unsigned char 
  2159 ;;  done            1   45[BANK0 ] _Bool 
  2160 ;; Return value:  Size  Location     Type
  2161 ;;                  1    wreg      void 
  2162 ;; Registers used:
  2163 ;;		wreg, fsr0l, fsr0h, status,2, status,0, btemp+1, pclath, cstack
  2164 ;; Tracked objects:
  2165 ;;		On entry : 0/0
  2166 ;;		On exit  : 0/0
  2167 ;;		Unchanged: 0/0
  2168 ;; Data sizes:     COMMON   BANK0   BANK1   BANK3   BANK2
  2169 ;;      Params:         0       0       2       0       0
  2170 ;;      Locals:         0       8       0       0       0
  2171 ;;      Temps:          0       2       0       0       0
  2172 ;;      Totals:         0      10       2       0       0
  2173 ;;Total ram usage:       12 bytes
  2174 ;; Hardware stack levels used: 1
  2175 ;; Hardware stack levels required when called: 5
  2176 ;; This function calls:
  2177 ;;		_dtoa
  2178 ;;		_efgtoa
  2179 ;;		_fputc
  2180 ;;		_read_prec_or_width
  2181 ;;		_stoa
  2182 ;; This function is called by:
  2183 ;;		_vfprintf
  2184 ;; This function uses a non-reentrant model
  2185 ;;
  2186                           
  2187     0881                     _vfpfcnvrt:	
  2188                           ;psect for function _vfpfcnvrt
  2189                           
  2190                           
  2191                           ;incstack = 0
  2192 ;; hardware stack exceeded
  2193                           ; Regs used in _vfpfcnvrt: [wreg-fsr0h+status,2+status,0+btemp+1+pclath+cstack]
  2194                           ;vfpfcnvrt@fp stored from wreg
  2195     0881  1283               	bcf	3,5	;RP0=0, select bank0
  2196     0882  1303               	bcf	3,6	;RP1=0, select bank0
  2197     0883  00D3               	movwf	vfpfcnvrt@fp
  2198     0884                     i1l3436:
  2199                           
  2200                           ;C:\Program Files\Microchip\xc8\v2.45\pic\sources\c99\common\doprnt.c: 1177: vfpfcnvrt(F
      +                          ILE *fp, char *fmt[], va_list ap);C:\Program Files\Microchip\xc8\v2.45\pic\sources\c99\c
      +                          ommon\doprnt.c: 1178: {;C:\Program Files\Microchip\xc8\v2.45\pic\sources\c99\common\dopr
      +                          nt.c: 1179:     char c, *cp;;C:\Program Files\Microchip\xc8\v2.45\pic\sources\c99\common
      +                          \doprnt.c: 1180:     _Bool done;;C:\Program Files\Microchip\xc8\v2.45\pic\sources\c99\co
      +                          mmon\doprnt.c: 1188:  } convarg;;C:\Program Files\Microchip\xc8\v2.45\pic\sources\c99\co
      +                          mmon\doprnt.c: 1201:     if ((*fmt)[0] == '%') {
  2201     0884  1683               	bsf	3,5	;RP0=1, select bank1
  2202     0885  1303               	bcf	3,6	;RP1=0, select bank1
  2203     0886  084D               	movf	vfpfcnvrt@fmt^(0+128),w
  2204     0887  0084               	movwf	4
  2205     0888  1383               	bcf	3,7	;select IRP bank0
  2206     0889  0800               	movf	0,w
  2207     088A  0084               	movwf	4
  2208     088B  160A  118A  200A  120A  158A  	fcall	stringdir
  2209     0890  3A25               	xorlw	37
  2210     0891  1D03               	skipz
  2211     0892  2894               	goto	u503_21
  2212     0893  2895               	goto	u503_20
  2213     0894                     u503_21:
  2214     0894  2A3D               	goto	i1l3526
  2215     0895                     u503_20:
  2216     0895                     i1l3438:
  2217                           
  2218                           ;C:\Program Files\Microchip\xc8\v2.45\pic\sources\c99\common\doprnt.c: 1202:         ++*
      +                          fmt;
  2219     0895  3001               	movlw	1
  2220     0896  00FF               	movwf	btemp+1
  2221     0897  084D               	movf	vfpfcnvrt@fmt^(0+128),w
  2222     0898  0084               	movwf	4
  2223     0899  087F               	movf	btemp+1,w
  2224     089A  0780               	addwf	0,f
  2225     089B                     i1l3440:
  2226                           
  2227                           ;C:\Program Files\Microchip\xc8\v2.45\pic\sources\c99\common\doprnt.c: 1204:         fla
      +                          gs = width = 0;
  2228     089B  1283               	bcf	3,5	;RP0=0, select bank0
  2229     089C  1303               	bcf	3,6	;RP1=0, select bank0
  2230     089D  01E6               	clrf	_width
  2231     089E  01E7               	clrf	_width+1
  2232     089F  1003               	clrc
  2233     08A0  3000               	movlw	0
  2234     08A1  1803               	btfsc	3,0
  2235     08A2  3001               	movlw	1
  2236     08A3  1683               	bsf	3,5	;RP0=1, select bank1
  2237     08A4  1303               	bcf	3,6	;RP1=0, select bank1
  2238     08A5  00DD               	movwf	_flags^(0+128)
  2239     08A6                     i1l3442:
  2240                           
  2241                           ;C:\Program Files\Microchip\xc8\v2.45\pic\sources\c99\common\doprnt.c: 1205:         pre
      +                          c = -1;
  2242     08A6  30FF               	movlw	255
  2243     08A7  1283               	bcf	3,5	;RP0=0, select bank0
  2244     08A8  1303               	bcf	3,6	;RP1=0, select bank0
  2245     08A9  00E8               	movwf	_prec
  2246     08AA  30FF               	movlw	255
  2247     08AB  00E9               	movwf	_prec+1
  2248     08AC                     i1l3444:
  2249                           
  2250                           ;C:\Program Files\Microchip\xc8\v2.45\pic\sources\c99\common\doprnt.c: 1265:         if 
      +                          ((*fmt)[0] == '.') {
  2251     08AC  1683               	bsf	3,5	;RP0=1, select bank1
  2252     08AD  1303               	bcf	3,6	;RP1=0, select bank1
  2253     08AE  084D               	movf	vfpfcnvrt@fmt^(0+128),w
  2254     08AF  0084               	movwf	4
  2255     08B0  0800               	movf	0,w
  2256     08B1  0084               	movwf	4
  2257     08B2  160A  118A  200A  120A  158A  	fcall	stringdir
  2258     08B7  3A2E               	xorlw	46
  2259     08B8  1D03               	skipz
  2260     08B9  28BB               	goto	u504_21
  2261     08BA  28BC               	goto	u504_20
  2262     08BB                     u504_21:
  2263     08BB  28D0               	goto	i1l3450
  2264     08BC                     u504_20:
  2265     08BC                     i1l3446:
  2266                           
  2267                           ;C:\Program Files\Microchip\xc8\v2.45\pic\sources\c99\common\doprnt.c: 1266:            
      +                           ++*fmt;
  2268     08BC  3001               	movlw	1
  2269     08BD  00FF               	movwf	btemp+1
  2270     08BE  084D               	movf	vfpfcnvrt@fmt^(0+128),w
  2271     08BF  0084               	movwf	4
  2272     08C0  087F               	movf	btemp+1,w
  2273     08C1  0780               	addwf	0,f
  2274     08C2                     i1l3448:
  2275                           
  2276                           ;C:\Program Files\Microchip\xc8\v2.45\pic\sources\c99\common\doprnt.c: 1267:    prec = r
      +                          ead_prec_or_width(fmt, ap);
  2277     08C2  084E               	movf	vfpfcnvrt@ap^(0+128),w
  2278     08C3  00F7               	movwf	read_prec_or_width@ap
  2279     08C4  084D               	movf	vfpfcnvrt@fmt^(0+128),w
  2280     08C5  160A  118A  2120  120A  158A  	fcall	_read_prec_or_width
  2281     08CA  0878               	movf	?_read_prec_or_width+1,w
  2282     08CB  1283               	bcf	3,5	;RP0=0, select bank0
  2283     08CC  1303               	bcf	3,6	;RP1=0, select bank0
  2284     08CD  00E9               	movwf	_prec+1
  2285     08CE  0877               	movf	?_read_prec_or_width,w
  2286     08CF  00E8               	movwf	_prec
  2287     08D0                     i1l3450:
  2288                           
  2289                           ;C:\Program Files\Microchip\xc8\v2.45\pic\sources\c99\common\doprnt.c: 1291:   cp = *fmt
      +                          ;
  2290     08D0  1683               	bsf	3,5	;RP0=1, select bank1
  2291     08D1  1303               	bcf	3,6	;RP1=0, select bank1
  2292     08D2  084D               	movf	vfpfcnvrt@fmt^(0+128),w
  2293     08D3  0084               	movwf	4
  2294     08D4  1383               	bcf	3,7	;select IRP bank0
  2295     08D5  0800               	movf	0,w
  2296     08D6  1283               	bcf	3,5	;RP0=0, select bank0
  2297     08D7  1303               	bcf	3,6	;RP1=0, select bank0
  2298     08D8  00D4               	movwf	vfpfcnvrt@cp
  2299     08D9                     i1l3452:
  2300                           
  2301                           ;C:\Program Files\Microchip\xc8\v2.45\pic\sources\c99\common\doprnt.c: 1361:   if (*cp =
      +                          = 'd' || *cp == 'i') {
  2302     08D9  0854               	movf	vfpfcnvrt@cp,w
  2303     08DA  0084               	movwf	4
  2304     08DB  160A  118A  200A  120A  158A  	fcall	stringdir
  2305     08E0  3A64               	xorlw	100
  2306     08E1  1903               	skipnz
  2307     08E2  28E4               	goto	u505_21
  2308     08E3  28E5               	goto	u505_20
  2309     08E4                     u505_21:
  2310     08E4  28F1               	goto	i1l3456
  2311     08E5                     u505_20:
  2312     08E5                     i1l3454:
  2313     08E5  0854               	movf	vfpfcnvrt@cp,w
  2314     08E6  0084               	movwf	4
  2315     08E7  160A  118A  200A  120A  158A  	fcall	stringdir
  2316     08EC  3A69               	xorlw	105
  2317     08ED  1D03               	skipz
  2318     08EE  28F0               	goto	u506_21
  2319     08EF  28F1               	goto	u506_20
  2320     08F0                     u506_21:
  2321     08F0  2916               	goto	i1l3464
  2322     08F1                     u506_20:
  2323     08F1                     i1l3456:
  2324                           
  2325                           ;C:\Program Files\Microchip\xc8\v2.45\pic\sources\c99\common\doprnt.c: 1404:    convarg.
      +                          sint = (vfpf_sint_t)(int)(*(int *)__va_arg(*(int **)ap, (int)0));
  2326     08F1  1683               	bsf	3,5	;RP0=1, select bank1
  2327     08F2  1303               	bcf	3,6	;RP1=0, select bank1
  2328     08F3  084E               	movf	vfpfcnvrt@ap^(0+128),w
  2329     08F4  0084               	movwf	4
  2330     08F5  0800               	movf	0,w
  2331     08F6  00FF               	movwf	btemp+1
  2332     08F7  3002               	movlw	2
  2333     08F8  0780               	addwf	0,f
  2334     08F9  087F               	movf	btemp+1,w
  2335     08FA  0084               	movwf	4
  2336     08FB  0800               	movf	0,w
  2337     08FC  1283               	bcf	3,5	;RP0=0, select bank0
  2338     08FD  1303               	bcf	3,6	;RP1=0, select bank0
  2339     08FE  00CE               	movwf	vfpfcnvrt@convarg
  2340     08FF  0A84               	incf	4,f
  2341     0900  0800               	movf	0,w
  2342     0901  00CF               	movwf	vfpfcnvrt@convarg+1
  2343     0902                     i1l3458:
  2344                           
  2345                           ;C:\Program Files\Microchip\xc8\v2.45\pic\sources\c99\common\doprnt.c: 1406:    *fmt = c
      +                          p+1;
  2346     0902  1683               	bsf	3,5	;RP0=1, select bank1
  2347     0903  1303               	bcf	3,6	;RP1=0, select bank1
  2348     0904  084D               	movf	vfpfcnvrt@fmt^(0+128),w
  2349     0905  0084               	movwf	4
  2350     0906  1283               	bcf	3,5	;RP0=0, select bank0
  2351     0907  1303               	bcf	3,6	;RP1=0, select bank0
  2352     0908  0854               	movf	vfpfcnvrt@cp,w
  2353     0909  3E01               	addlw	1
  2354     090A  0080               	movwf	0
  2355     090B                     i1l3460:
  2356                           
  2357                           ;C:\Program Files\Microchip\xc8\v2.45\pic\sources\c99\common\doprnt.c: 1432:    return (
      +                          void) dtoa(fp, convarg.sint);;	Return value of _vfpfcnvrt is never used
  2358     090B  084F               	movf	vfpfcnvrt@convarg+1,w
  2359     090C  00AB               	movwf	dtoa@d+1
  2360     090D  084E               	movf	vfpfcnvrt@convarg,w
  2361     090E  00AA               	movwf	dtoa@d
  2362     090F  0853               	movf	vfpfcnvrt@fp,w
  2363     0910  160A  118A  2330  120A  158A  	fcall	_dtoa
  2364     0915  2A56               	goto	i1l804
  2365     0916                     i1l3464:
  2366                           
  2367                           ;C:\Program Files\Microchip\xc8\v2.45\pic\sources\c99\common\doprnt.c: 1656:   done = 0;
  2368     0916  01CD               	clrf	vfpfcnvrt@done
  2369     0917                     i1l3466:
  2370                           
  2371                           ;C:\Program Files\Microchip\xc8\v2.45\pic\sources\c99\common\doprnt.c: 1657:   if ((*fmt
      +                          )[0] == 's') {
  2372     0917  1683               	bsf	3,5	;RP0=1, select bank1
  2373     0918  1303               	bcf	3,6	;RP1=0, select bank1
  2374     0919  084D               	movf	vfpfcnvrt@fmt^(0+128),w
  2375     091A  0084               	movwf	4
  2376     091B  0800               	movf	0,w
  2377     091C  0084               	movwf	4
  2378     091D  160A  118A  200A  120A  158A  	fcall	stringdir
  2379     0922  3A73               	xorlw	115
  2380     0923  1D03               	skipz
  2381     0924  2926               	goto	u507_21
  2382     0925  2927               	goto	u507_20
  2383     0926                     u507_21:
  2384     0926  2932               	goto	i1l3472
  2385     0927                     u507_20:
  2386     0927                     i1l3468:
  2387                           
  2388                           ;C:\Program Files\Microchip\xc8\v2.45\pic\sources\c99\common\doprnt.c: 1658:    ++*fmt;
  2389     0927  3001               	movlw	1
  2390     0928  00FF               	movwf	btemp+1
  2391     0929  084D               	movf	vfpfcnvrt@fmt^(0+128),w
  2392     092A  0084               	movwf	4
  2393     092B  087F               	movf	btemp+1,w
  2394     092C  0780               	addwf	0,f
  2395     092D                     i1l3470:
  2396                           
  2397                           ;C:\Program Files\Microchip\xc8\v2.45\pic\sources\c99\common\doprnt.c: 1659:    done = 1
      +                          ;
  2398     092D  1283               	bcf	3,5	;RP0=0, select bank0
  2399     092E  1303               	bcf	3,6	;RP1=0, select bank0
  2400     092F  01CD               	clrf	vfpfcnvrt@done
  2401     0930  0ACD               	incf	vfpfcnvrt@done,f
  2402                           
  2403                           ;C:\Program Files\Microchip\xc8\v2.45\pic\sources\c99\common\doprnt.c: 1660:   }
  2404     0931  2965               	goto	i1l3482
  2405     0932                     i1l3472:
  2406     0932  084D               	movf	vfpfcnvrt@fmt^(0+128),w
  2407     0933  0084               	movwf	4
  2408     0934  0800               	movf	0,w
  2409     0935  0084               	movwf	4
  2410     0936  160A  118A  200A  120A  158A  	fcall	stringdir
  2411     093B  3A6C               	xorlw	108
  2412     093C  1D03               	skipz
  2413     093D  293F               	goto	u508_21
  2414     093E  2940               	goto	u508_20
  2415     093F                     u508_21:
  2416     093F  2965               	goto	i1l3482
  2417     0940                     u508_20:
  2418     0940                     i1l3474:
  2419     0940  084D               	movf	vfpfcnvrt@fmt^(0+128),w
  2420     0941  0084               	movwf	4
  2421     0942  0800               	movf	0,w
  2422     0943  3E01               	addlw	1
  2423     0944  0084               	movwf	4
  2424     0945  160A  118A  200A  120A  158A  	fcall	stringdir
  2425     094A  3A6C               	xorlw	108
  2426     094B  1D03               	skipz
  2427     094C  294E               	goto	u509_21
  2428     094D  294F               	goto	u509_20
  2429     094E                     u509_21:
  2430     094E  2965               	goto	i1l3482
  2431     094F                     u509_20:
  2432     094F                     i1l3476:
  2433     094F  084D               	movf	vfpfcnvrt@fmt^(0+128),w
  2434     0950  0084               	movwf	4
  2435     0951  0800               	movf	0,w
  2436     0952  3E02               	addlw	2
  2437     0953  0084               	movwf	4
  2438     0954  160A  118A  200A  120A  158A  	fcall	stringdir
  2439     0959  3A73               	xorlw	115
  2440     095A  1D03               	skipz
  2441     095B  295D               	goto	u510_21
  2442     095C  295E               	goto	u510_20
  2443     095D                     u510_21:
  2444     095D  2965               	goto	i1l3482
  2445     095E                     u510_20:
  2446     095E                     i1l3478:
  2447                           
  2448                           ;C:\Program Files\Microchip\xc8\v2.45\pic\sources\c99\common\doprnt.c: 1662:    *fmt += 
      +                          3;
  2449     095E  3003               	movlw	3
  2450     095F  00FF               	movwf	btemp+1
  2451     0960  084D               	movf	vfpfcnvrt@fmt^(0+128),w
  2452     0961  0084               	movwf	4
  2453     0962  087F               	movf	btemp+1,w
  2454     0963  0780               	addwf	0,f
  2455     0964  292D               	goto	i1l3470
  2456     0965                     i1l3482:
  2457                           
  2458                           ;C:\Program Files\Microchip\xc8\v2.45\pic\sources\c99\common\doprnt.c: 1665:   if (done)
      +                           {
  2459     0965  1283               	bcf	3,5	;RP0=0, select bank0
  2460     0966  084D               	movf	vfpfcnvrt@done,w
  2461     0967  1903               	btfsc	3,2
  2462     0968  296A               	goto	u511_21
  2463     0969  296B               	goto	u511_20
  2464     096A                     u511_21:
  2465     096A  2984               	goto	i1l3488
  2466     096B                     u511_20:
  2467     096B                     i1l3484:
  2468                           
  2469                           ;C:\Program Files\Microchip\xc8\v2.45\pic\sources\c99\common\doprnt.c: 1682:    return (
      +                          void) stoa(fp, (*(char * *)__va_arg(*(char * **)ap, (char *)0)));;	Return value of _vfpf
      +                          cnvrt is never used
  2470     096B  1683               	bsf	3,5	;RP0=1, select bank1
  2471     096C  1303               	bcf	3,6	;RP1=0, select bank1
  2472     096D  084E               	movf	vfpfcnvrt@ap^(0+128),w
  2473     096E  0084               	movwf	4
  2474     096F  0800               	movf	0,w
  2475     0970  00FF               	movwf	btemp+1
  2476     0971  3002               	movlw	2
  2477     0972  0780               	addwf	0,f
  2478     0973  087F               	movf	btemp+1,w
  2479     0974  0084               	movwf	4
  2480     0975  0800               	movf	0,w
  2481     0976  00FA               	movwf	stoa@s
  2482     0977  0A84               	incf	4,f
  2483     0978  0800               	movf	0,w
  2484     0979  0384               	decf	4,f
  2485     097A  00FB               	movwf	stoa@s+1
  2486     097B  1283               	bcf	3,5	;RP0=0, select bank0
  2487     097C  1303               	bcf	3,6	;RP1=0, select bank0
  2488     097D  0853               	movf	vfpfcnvrt@fp,w
  2489     097E  160A  118A  22AE  120A  158A  	fcall	_stoa
  2490     0983  2A56               	goto	i1l804
  2491     0984                     i1l3488:
  2492                           
  2493                           ;C:\Program Files\Microchip\xc8\v2.45\pic\sources\c99\common\doprnt.c: 1689:   cp = *fmt
      +                          ;
  2494     0984  1683               	bsf	3,5	;RP0=1, select bank1
  2495     0985  1303               	bcf	3,6	;RP1=0, select bank1
  2496     0986  084D               	movf	vfpfcnvrt@fmt^(0+128),w
  2497     0987  0084               	movwf	4
  2498     0988  0800               	movf	0,w
  2499     0989  1283               	bcf	3,5	;RP0=0, select bank0
  2500     098A  1303               	bcf	3,6	;RP1=0, select bank0
  2501     098B  00D4               	movwf	vfpfcnvrt@cp
  2502     098C                     i1l3490:
  2503                           
  2504                           ;C:\Program Files\Microchip\xc8\v2.45\pic\sources\c99\common\doprnt.c: 1690:   c = *cp;
  2505     098C  0854               	movf	vfpfcnvrt@cp,w
  2506     098D  0084               	movwf	4
  2507     098E  160A  118A  200A  120A  158A  	fcall	stringdir
  2508     0993  00D2               	movwf	vfpfcnvrt@c
  2509                           
  2510                           ;C:\Program Files\Microchip\xc8\v2.45\pic\sources\c99\common\doprnt.c: 1691:   switch(c)
      +                           {
  2511     0994  299F               	goto	i1l3500
  2512     0995                     i1l3492:
  2513                           
  2514                           ;C:\Program Files\Microchip\xc8\v2.45\pic\sources\c99\common\doprnt.c: 1695:     cp++;
  2515     0995  3001               	movlw	1
  2516     0996  00FF               	movwf	btemp+1
  2517     0997  087F               	movf	btemp+1,w
  2518     0998  07D4               	addwf	vfpfcnvrt@cp,f
  2519                           
  2520                           ;C:\Program Files\Microchip\xc8\v2.45\pic\sources\c99\common\doprnt.c: 1696:     break;
  2521     0999  29B2               	goto	i1l3502
  2522     099A                     i1l3494:
  2523                           
  2524                           ;C:\Program Files\Microchip\xc8\v2.45\pic\sources\c99\common\doprnt.c: 1721:     c = 'l'
      +                          ;
  2525     099A  306C               	movlw	108
  2526     099B  00D2               	movwf	vfpfcnvrt@c
  2527                           
  2528                           ;C:\Program Files\Microchip\xc8\v2.45\pic\sources\c99\common\doprnt.c: 1722:     break;
  2529     099C  29B2               	goto	i1l3502
  2530     099D                     i1l3496:
  2531                           
  2532                           ;C:\Program Files\Microchip\xc8\v2.45\pic\sources\c99\common\doprnt.c: 1724:     c = 0;
  2533     099D  01D2               	clrf	vfpfcnvrt@c
  2534                           
  2535                           ;C:\Program Files\Microchip\xc8\v2.45\pic\sources\c99\common\doprnt.c: 1725:     break;
  2536     099E  29B2               	goto	i1l3502
  2537     099F                     i1l3500:
  2538     099F  0852               	movf	vfpfcnvrt@c,w
  2539     09A0  00CB               	movwf	??_vfpfcnvrt
  2540     09A1  01CC               	clrf	??_vfpfcnvrt+1
  2541                           
  2542                           ; Switch on 2 bytes has been partitioned into a top level switch of size 1, and 1 sub-sw
      +                          itches
  2543                           ; Switch size 1, requested type "simple"
  2544                           ; Number of cases is 1, Range of values is 0 to 0
  2545                           ; switch strategies available:
  2546                           ; Name         Instructions Cycles
  2547                           ; simple_byte            4     3 (average)
  2548                           ; direct_byte           11     8 (fixed)
  2549                           ; jumptable            260     6 (fixed)
  2550                           ;	Chosen strategy is simple_byte
  2551     09A2  084C               	movf	??_vfpfcnvrt+1,w
  2552     09A3  3A00               	xorlw	0	; case 0
  2553     09A4  1903               	skipnz
  2554     09A5  29A7               	goto	i1l3776
  2555     09A6  299D               	goto	i1l3496
  2556     09A7                     i1l3776:
  2557                           
  2558                           ; Switch size 1, requested type "simple"
  2559                           ; Number of cases is 3, Range of values is 76 to 108
  2560                           ; switch strategies available:
  2561                           ; Name         Instructions Cycles
  2562                           ; simple_byte           10     6 (average)
  2563                           ; direct_byte          110    11 (fixed)
  2564                           ; jumptable            263     9 (fixed)
  2565                           ;	Chosen strategy is simple_byte
  2566     09A7  084B               	movf	??_vfpfcnvrt,w
  2567     09A8  3A4C               	xorlw	76	; case 76
  2568     09A9  1903               	skipnz
  2569     09AA  2995               	goto	i1l3492
  2570     09AB  3A2A               	xorlw	42	; case 102
  2571     09AC  1903               	skipnz
  2572     09AD  299A               	goto	i1l3494
  2573     09AE  3A0A               	xorlw	10	; case 108
  2574     09AF  1903               	skipnz
  2575     09B0  2995               	goto	i1l3492
  2576     09B1  299D               	goto	i1l3496
  2577     09B2                     i1l3502:
  2578     09B2  0854               	movf	vfpfcnvrt@cp,w
  2579     09B3  0084               	movwf	4
  2580     09B4  160A  118A  200A  120A  158A  	fcall	stringdir
  2581     09B9  3A66               	xorlw	102
  2582     09BA  1D03               	skipz
  2583     09BB  29BD               	goto	u512_21
  2584     09BC  29BE               	goto	u512_20
  2585     09BD                     u512_21:
  2586     09BD  2A33               	goto	i1l3522
  2587     09BE                     u512_20:
  2588     09BE  29EF               	goto	i1l3510
  2589     09BF                     i1l3504:
  2590                           
  2591                           ;C:\Program Files\Microchip\xc8\v2.45\pic\sources\c99\common\doprnt.c: 1756:      convar
      +                          g.f = (long double)(*(double *)__va_arg(*(double **)ap, (double)0));
  2592     09BF  1683               	bsf	3,5	;RP0=1, select bank1
  2593     09C0  1303               	bcf	3,6	;RP1=0, select bank1
  2594     09C1  084E               	movf	vfpfcnvrt@ap^(0+128),w
  2595     09C2  0084               	movwf	4
  2596     09C3  0800               	movf	0,w
  2597     09C4  00FF               	movwf	btemp+1
  2598     09C5  3004               	movlw	4
  2599     09C6  0780               	addwf	0,f
  2600     09C7  087F               	movf	btemp+1,w
  2601     09C8  0084               	movwf	4
  2602     09C9  0800               	movf	0,w
  2603     09CA  1283               	bcf	3,5	;RP0=0, select bank0
  2604     09CB  1303               	bcf	3,6	;RP1=0, select bank0
  2605     09CC  00CE               	movwf	vfpfcnvrt@convarg
  2606     09CD  0A84               	incf	4,f
  2607     09CE  0800               	movf	0,w
  2608     09CF  00CF               	movwf	vfpfcnvrt@convarg+1
  2609     09D0  0A84               	incf	4,f
  2610     09D1  0800               	movf	0,w
  2611     09D2  00D0               	movwf	vfpfcnvrt@convarg+2
  2612     09D3  0A84               	incf	4,f
  2613     09D4  0800               	movf	0,w
  2614     09D5  00D1               	movwf	vfpfcnvrt@convarg+3
  2615                           
  2616                           ;C:\Program Files\Microchip\xc8\v2.45\pic\sources\c99\common\doprnt.c: 1757:      break;
  2617     09D6  29FF               	goto	i1l3512
  2618     09D7                     i1l3506:
  2619                           
  2620                           ;C:\Program Files\Microchip\xc8\v2.45\pic\sources\c99\common\doprnt.c: 1759:      convar
      +                          g.f = (long double)(*(long double *)__va_arg(*(long double **)ap, (long double)0));
  2621     09D7  1683               	bsf	3,5	;RP0=1, select bank1
  2622     09D8  1303               	bcf	3,6	;RP1=0, select bank1
  2623     09D9  084E               	movf	vfpfcnvrt@ap^(0+128),w
  2624     09DA  0084               	movwf	4
  2625     09DB  0800               	movf	0,w
  2626     09DC  00FF               	movwf	btemp+1
  2627     09DD  3004               	movlw	4
  2628     09DE  0780               	addwf	0,f
  2629     09DF  087F               	movf	btemp+1,w
  2630     09E0  0084               	movwf	4
  2631     09E1  0800               	movf	0,w
  2632     09E2  1283               	bcf	3,5	;RP0=0, select bank0
  2633     09E3  1303               	bcf	3,6	;RP1=0, select bank0
  2634     09E4  00CE               	movwf	vfpfcnvrt@convarg
  2635     09E5  0A84               	incf	4,f
  2636     09E6  0800               	movf	0,w
  2637     09E7  00CF               	movwf	vfpfcnvrt@convarg+1
  2638     09E8  0A84               	incf	4,f
  2639     09E9  0800               	movf	0,w
  2640     09EA  00D0               	movwf	vfpfcnvrt@convarg+2
  2641     09EB  0A84               	incf	4,f
  2642     09EC  0800               	movf	0,w
  2643     09ED  00D1               	movwf	vfpfcnvrt@convarg+3
  2644                           
  2645                           ;C:\Program Files\Microchip\xc8\v2.45\pic\sources\c99\common\doprnt.c: 1760:      break;
  2646     09EE  29FF               	goto	i1l3512
  2647     09EF                     i1l3510:
  2648     09EF  0852               	movf	vfpfcnvrt@c,w
  2649     09F0  00CB               	movwf	??_vfpfcnvrt
  2650     09F1  01CC               	clrf	??_vfpfcnvrt+1
  2651                           
  2652                           ; Switch on 2 bytes has been partitioned into a top level switch of size 1, and 1 sub-sw
      +                          itches
  2653                           ; Switch size 1, requested type "simple"
  2654                           ; Number of cases is 1, Range of values is 0 to 0
  2655                           ; switch strategies available:
  2656                           ; Name         Instructions Cycles
  2657                           ; simple_byte            4     3 (average)
  2658                           ; direct_byte           11     8 (fixed)
  2659                           ; jumptable            260     6 (fixed)
  2660                           ;	Chosen strategy is simple_byte
  2661     09F2  084C               	movf	??_vfpfcnvrt+1,w
  2662     09F3  3A00               	xorlw	0	; case 0
  2663     09F4  1903               	skipnz
  2664     09F5  29F7               	goto	i1l3778
  2665     09F6  29FF               	goto	i1l3512
  2666     09F7                     i1l3778:
  2667                           
  2668                           ; Switch size 1, requested type "simple"
  2669                           ; Number of cases is 2, Range of values is 76 to 108
  2670                           ; switch strategies available:
  2671                           ; Name         Instructions Cycles
  2672                           ; simple_byte            7     4 (average)
  2673                           ; direct_byte          110    11 (fixed)
  2674                           ; jumptable            263     9 (fixed)
  2675                           ;	Chosen strategy is simple_byte
  2676     09F7  084B               	movf	??_vfpfcnvrt,w
  2677     09F8  3A4C               	xorlw	76	; case 76
  2678     09F9  1903               	skipnz
  2679     09FA  29D7               	goto	i1l3506
  2680     09FB  3A20               	xorlw	32	; case 108
  2681     09FC  1903               	skipnz
  2682     09FD  29BF               	goto	i1l3504
  2683     09FE  29FF               	goto	i1l3512
  2684     09FF                     i1l3512:
  2685                           
  2686                           ;C:\Program Files\Microchip\xc8\v2.45\pic\sources\c99\common\doprnt.c: 1762:    *fmt = c
      +                          p+1;
  2687     09FF  1683               	bsf	3,5	;RP0=1, select bank1
  2688     0A00  1303               	bcf	3,6	;RP1=0, select bank1
  2689     0A01  084D               	movf	vfpfcnvrt@fmt^(0+128),w
  2690     0A02  0084               	movwf	4
  2691     0A03  1283               	bcf	3,5	;RP0=0, select bank0
  2692     0A04  1303               	bcf	3,6	;RP1=0, select bank0
  2693     0A05  0854               	movf	vfpfcnvrt@cp,w
  2694     0A06  3E01               	addlw	1
  2695     0A07  0080               	movwf	0
  2696                           
  2697                           ;C:\Program Files\Microchip\xc8\v2.45\pic\sources\c99\common\doprnt.c: 1763:    switch (
      +                          *cp) {
  2698     0A08  2A20               	goto	i1l3520
  2699     0A09                     i1l3514:
  2700                           
  2701                           ;C:\Program Files\Microchip\xc8\v2.45\pic\sources\c99\common\doprnt.c: 1790:      return
      +                           (void) efgtoa(fp, convarg.f, *cp);;	Return value of _vfpfcnvrt is never used
  2702     0A09  0851               	movf	vfpfcnvrt@convarg+3,w
  2703     0A0A  00C5               	movwf	efgtoa@f+3
  2704     0A0B  0850               	movf	vfpfcnvrt@convarg+2,w
  2705     0A0C  00C4               	movwf	efgtoa@f+2
  2706     0A0D  084F               	movf	vfpfcnvrt@convarg+1,w
  2707     0A0E  00C3               	movwf	efgtoa@f+1
  2708     0A0F  084E               	movf	vfpfcnvrt@convarg,w
  2709     0A10  00C2               	movwf	efgtoa@f
  2710     0A11  0854               	movf	vfpfcnvrt@cp,w
  2711     0A12  0084               	movwf	4
  2712     0A13  160A  118A  200A  120A  158A  	fcall	stringdir
  2713     0A18  00C6               	movwf	efgtoa@c
  2714     0A19  0853               	movf	vfpfcnvrt@fp,w
  2715     0A1A  160A  118A  24FA  120A  158A  	fcall	_efgtoa
  2716     0A1F  2A56               	goto	i1l804
  2717     0A20                     i1l3520:
  2718     0A20  0854               	movf	vfpfcnvrt@cp,w
  2719     0A21  0084               	movwf	4
  2720     0A22  160A  118A  200A  120A  158A  	fcall	stringdir
  2721     0A27  00CB               	movwf	??_vfpfcnvrt
  2722     0A28  01CC               	clrf	??_vfpfcnvrt+1
  2723                           
  2724                           ; Switch on 2 bytes has been partitioned into a top level switch of size 1, and 1 sub-sw
      +                          itches
  2725                           ; Switch size 1, requested type "simple"
  2726                           ; Number of cases is 1, Range of values is 0 to 0
  2727                           ; switch strategies available:
  2728                           ; Name         Instructions Cycles
  2729                           ; simple_byte            4     3 (average)
  2730                           ; direct_byte           11     8 (fixed)
  2731                           ; jumptable            260     6 (fixed)
  2732                           ;	Chosen strategy is simple_byte
  2733     0A29  084C               	movf	??_vfpfcnvrt+1,w
  2734     0A2A  3A00               	xorlw	0	; case 0
  2735     0A2B  1903               	skipnz
  2736     0A2C  2A2E               	goto	i1l3780
  2737     0A2D  2A33               	goto	i1l3522
  2738     0A2E                     i1l3780:
  2739                           
  2740                           ; Switch size 1, requested type "simple"
  2741                           ; Number of cases is 1, Range of values is 102 to 102
  2742                           ; switch strategies available:
  2743                           ; Name         Instructions Cycles
  2744                           ; simple_byte            4     3 (average)
  2745                           ; direct_byte           14    11 (fixed)
  2746                           ; jumptable            263     9 (fixed)
  2747                           ;	Chosen strategy is simple_byte
  2748     0A2E  084B               	movf	??_vfpfcnvrt,w
  2749     0A2F  3A66               	xorlw	102	; case 102
  2750     0A30  1903               	skipnz
  2751     0A31  2A09               	goto	i1l3514
  2752     0A32  2A33               	goto	i1l3522
  2753     0A33                     i1l3522:
  2754                           
  2755                           ;C:\Program Files\Microchip\xc8\v2.45\pic\sources\c99\common\doprnt.c: 1806:         ++*
      +                          fmt;
  2756     0A33  3001               	movlw	1
  2757     0A34  00FF               	movwf	btemp+1
  2758     0A35  1683               	bsf	3,5	;RP0=1, select bank1
  2759     0A36  1303               	bcf	3,6	;RP1=0, select bank1
  2760     0A37  084D               	movf	vfpfcnvrt@fmt^(0+128),w
  2761     0A38  0084               	movwf	4
  2762     0A39  087F               	movf	btemp+1,w
  2763     0A3A  1383               	bcf	3,7	;select IRP bank0
  2764     0A3B  0780               	addwf	0,f
  2765     0A3C  2A56               	goto	i1l804
  2766     0A3D                     i1l3526:
  2767                           
  2768                           ;C:\Program Files\Microchip\xc8\v2.45\pic\sources\c99\common\doprnt.c: 1811:     fputc((
      +                          int)(*fmt)[0], fp);
  2769     0A3D  084D               	movf	vfpfcnvrt@fmt^(0+128),w
  2770     0A3E  0084               	movwf	4
  2771     0A3F  0800               	movf	0,w
  2772     0A40  0084               	movwf	4
  2773     0A41  160A  118A  200A  120A  158A  	fcall	stringdir
  2774     0A46  1283               	bcf	3,5	;RP0=0, select bank0
  2775     0A47  1303               	bcf	3,6	;RP1=0, select bank0
  2776     0A48  00CB               	movwf	??_vfpfcnvrt
  2777     0A49  01CC               	clrf	??_vfpfcnvrt+1
  2778     0A4A  084B               	movf	??_vfpfcnvrt,w
  2779     0A4B  00F2               	movwf	fputc@c
  2780     0A4C  084C               	movf	??_vfpfcnvrt+1,w
  2781     0A4D  00F3               	movwf	fputc@c+1
  2782     0A4E  0853               	movf	vfpfcnvrt@fp,w
  2783     0A4F  00F4               	movwf	fputc@fp
  2784     0A50  160A  118A  20CA  120A  158A  	fcall	_fputc
  2785     0A55  2A33               	goto	i1l3522
  2786     0A56                     i1l804:
  2787     0A56  0008               	return
  2788     0A57                     __end_of_vfpfcnvrt:
  2789                           
  2790                           	psect	text9
  2791     12AE                     __ptext9:	
  2792 ;; *************** function _stoa *****************
  2793 ;; Defined at:
  2794 ;;		line 942 in file "C:\Program Files\Microchip\xc8\v2.45\pic\sources\c99\common\doprnt.c"
  2795 ;; Parameters:    Size  Location     Type
  2796 ;;  fp              1    wreg     PTR struct _IO_FILE
  2797 ;;		 -> NULL(0), 
  2798 ;;  s               2    9[COMMON] PTR unsigned char 
  2799 ;;		 -> ?_printf(2), STR_1(4), 
  2800 ;; Auto vars:     Size  Location     Type
  2801 ;;  fp              1    5[BANK0 ] PTR struct _IO_FILE
  2802 ;;		 -> NULL(0), 
  2803 ;;  l               2    8[BANK0 ] int 
  2804 ;;  cp              2    6[BANK0 ] PTR unsigned char 
  2805 ;;		 -> STR_10(7), ?_printf(2), STR_1(4), 
  2806 ;;  p               2    3[BANK0 ] int 
  2807 ;; Return value:  Size  Location     Type
  2808 ;;                  1    wreg      void 
  2809 ;; Registers used:
  2810 ;;		wreg, fsr0l, fsr0h, status,2, status,0, btemp+1, pclath, cstack
  2811 ;; Tracked objects:
  2812 ;;		On entry : 0/0
  2813 ;;		On exit  : 0/0
  2814 ;;		Unchanged: 0/0
  2815 ;; Data sizes:     COMMON   BANK0   BANK1   BANK3   BANK2
  2816 ;;      Params:         2       0       0       0       0
  2817 ;;      Locals:         0       7       0       0       0
  2818 ;;      Temps:          0       3       0       0       0
  2819 ;;      Totals:         2      10       0       0       0
  2820 ;;Total ram usage:       12 bytes
  2821 ;; Hardware stack levels used: 1
  2822 ;; Hardware stack levels required when called: 2
  2823 ;; This function calls:
  2824 ;;		_fputc
  2825 ;; This function is called by:
  2826 ;;		_vfpfcnvrt
  2827 ;; This function uses a non-reentrant model
  2828 ;;
  2829                           
  2830     12AE                     _stoa:	
  2831                           ;psect for function _stoa
  2832                           
  2833                           
  2834                           ;incstack = 0
  2835 ;; hardware stack exceeded
  2836                           ; Regs used in _stoa: [wreg-fsr0h+status,2+status,0+btemp+1+pclath+cstack]
  2837                           ;stoa@fp stored from wreg
  2838     12AE  1283               	bcf	3,5	;RP0=0, select bank0
  2839     12AF  1303               	bcf	3,6	;RP1=0, select bank0
  2840     12B0  00A5               	movwf	stoa@fp
  2841     12B1                     i1l3400:
  2842                           
  2843                           ;C:\Program Files\Microchip\xc8\v2.45\pic\sources\c99\common\doprnt.c: 942: static void 
      +                          stoa(FILE *fp, char *s);C:\Program Files\Microchip\xc8\v2.45\pic\sources\c99\common\dopr
      +                          nt.c: 943: {;C:\Program Files\Microchip\xc8\v2.45\pic\sources\c99\common\doprnt.c: 944: 
      +                              char *cp;;C:\Program Files\Microchip\xc8\v2.45\pic\sources\c99\common\doprnt.c: 945:
      +                               int l, p;;C:\Program Files\Microchip\xc8\v2.45\pic\sources\c99\common\doprnt.c: 951
      +                          :     cp = s;
  2844     12B1  087A               	movf	stoa@s,w
  2845     12B2  00A6               	movwf	stoa@cp
  2846     12B3  087B               	movf	stoa@s+1,w
  2847     12B4  00A7               	movwf	stoa@cp+1
  2848                           
  2849                           ;C:\Program Files\Microchip\xc8\v2.45\pic\sources\c99\common\doprnt.c: 952:     if (!cp)
      +                           {
  2850     12B5  0826               	movf	stoa@cp,w
  2851     12B6  0427               	iorwf	stoa@cp+1,w
  2852     12B7  1D03               	btfss	3,2
  2853     12B8  2ABA               	goto	u495_21
  2854     12B9  2ABB               	goto	u495_20
  2855     12BA                     u495_21:
  2856     12BA  2ABF               	goto	i1l3404
  2857     12BB                     u495_20:
  2858     12BB                     i1l3402:
  2859                           
  2860                           ;C:\Program Files\Microchip\xc8\v2.45\pic\sources\c99\common\doprnt.c: 953:         cp =
      +                           "(null)";
  2861     12BB  3027               	movlw	(low ((STR_10-__stringbase)| (0+32768)))& (0+255)
  2862     12BC  00A6               	movwf	stoa@cp
  2863     12BD  3080               	movlw	128
  2864     12BE  00A7               	movwf	stoa@cp+1
  2865     12BF                     i1l3404:
  2866                           
  2867                           ;C:\Program Files\Microchip\xc8\v2.45\pic\sources\c99\common\doprnt.c: 957:  for (l = 0;
      +                           cp[l] != '\0'; l++) {
  2868     12BF  01A8               	clrf	stoa@l
  2869     12C0  01A9               	clrf	stoa@l+1
  2870     12C1  2AC8               	goto	i1l3408
  2871     12C2                     i1l3406:
  2872     12C2  3001               	movlw	1
  2873     12C3  07A8               	addwf	stoa@l,f
  2874     12C4  1803               	skipnc
  2875     12C5  0AA9               	incf	stoa@l+1,f
  2876     12C6  3000               	movlw	0
  2877     12C7  07A9               	addwf	stoa@l+1,f
  2878     12C8                     i1l3408:
  2879     12C8  0828               	movf	stoa@l,w
  2880     12C9  0726               	addwf	stoa@cp,w
  2881     12CA  00A1               	movwf	??_stoa+1
  2882     12CB  0827               	movf	stoa@cp+1,w
  2883     12CC  00A0               	movwf	??_stoa
  2884     12CD  1803               	skipnc
  2885     12CE  0AA0               	incf	??_stoa,f
  2886     12CF  1FA8               	btfss	stoa@l,7
  2887     12D0  2AD2               	goto	u496_20
  2888     12D1  03A0               	decf	??_stoa,f
  2889     12D2                     u496_20:
  2890     12D2  1283               	bcf	3,5	;RP0=0, select bank0
  2891     12D3  1303               	bcf	3,6	;RP1=0, select bank0
  2892     12D4  0820               	movf	??_stoa,w
  2893     12D5  00A2               	movwf	??_stoa+2
  2894     12D6  0822               	movf	??_stoa+2,w
  2895     12D7  00FF               	movwf	btemp+1
  2896     12D8  0821               	movf	??_stoa+1,w
  2897     12D9  0084               	movwf	4
  2898     12DA  160A  118A  2000  160A  118A  	fcall	stringtab
  2899     12DF  3A00               	xorlw	0
  2900     12E0  1D03               	skipz
  2901     12E1  2AE3               	goto	u497_21
  2902     12E2  2AE4               	goto	u497_20
  2903     12E3                     u497_21:
  2904     12E3  2AC2               	goto	i1l3406
  2905     12E4                     u497_20:
  2906     12E4                     i1l783:
  2907                           
  2908                           ;C:\Program Files\Microchip\xc8\v2.45\pic\sources\c99\common\doprnt.c: 961:  if (!(prec 
      +                          < 0) && (prec < l)) {
  2909     12E4  1BE9               	btfsc	_prec+1,7
  2910     12E5  2AE7               	goto	u498_21
  2911     12E6  2AE8               	goto	u498_20
  2912     12E7                     u498_21:
  2913     12E7  2AFC               	goto	i1l784
  2914     12E8                     u498_20:
  2915     12E8                     i1l3410:
  2916     12E8  0869               	movf	_prec+1,w
  2917     12E9  3A80               	xorlw	128
  2918     12EA  00A0               	movwf	??_stoa
  2919     12EB  0829               	movf	stoa@l+1,w
  2920     12EC  3A80               	xorlw	128
  2921     12ED  0220               	subwf	??_stoa,w
  2922     12EE  1D03               	skipz
  2923     12EF  2AF2               	goto	u499_25
  2924     12F0  0828               	movf	stoa@l,w
  2925     12F1  0268               	subwf	_prec,w
  2926     12F2                     u499_25:
  2927     12F2  1803               	skipnc
  2928     12F3  2AF5               	goto	u499_21
  2929     12F4  2AF6               	goto	u499_20
  2930     12F5                     u499_21:
  2931     12F5  2AFC               	goto	i1l784
  2932     12F6                     u499_20:
  2933     12F6                     i1l3412:
  2934                           
  2935                           ;C:\Program Files\Microchip\xc8\v2.45\pic\sources\c99\common\doprnt.c: 962:   l = prec;
  2936     12F6  1283               	bcf	3,5	;RP0=0, select bank0
  2937     12F7  1303               	bcf	3,6	;RP1=0, select bank0
  2938     12F8  0869               	movf	_prec+1,w
  2939     12F9  00A9               	movwf	stoa@l+1
  2940     12FA  0868               	movf	_prec,w
  2941     12FB  00A8               	movwf	stoa@l
  2942     12FC                     i1l784:	
  2943                           ;C:\Program Files\Microchip\xc8\v2.45\pic\sources\c99\common\doprnt.c: 963:  }
  2944                           
  2945                           
  2946                           ;C:\Program Files\Microchip\xc8\v2.45\pic\sources\c99\common\doprnt.c: 965:     p = l;
  2947     12FC  1283               	bcf	3,5	;RP0=0, select bank0
  2948     12FD  1303               	bcf	3,6	;RP1=0, select bank0
  2949     12FE  0829               	movf	stoa@l+1,w
  2950     12FF  00A4               	movwf	stoa@p+1
  2951     1300  0828               	movf	stoa@l,w
  2952     1301  00A3               	movwf	stoa@p
  2953                           
  2954                           ;C:\Program Files\Microchip\xc8\v2.45\pic\sources\c99\common\doprnt.c: 979:     while (p
      +                          --) {
  2955     1302  2B21               	goto	i1l3418
  2956     1303                     i1l3414:
  2957                           
  2958                           ;C:\Program Files\Microchip\xc8\v2.45\pic\sources\c99\common\doprnt.c: 980:         fput
      +                          c(*cp, fp);
  2959     1303  0827               	movf	stoa@cp+1,w
  2960     1304  00FF               	movwf	btemp+1
  2961     1305  0826               	movf	stoa@cp,w
  2962     1306  0084               	movwf	4
  2963     1307  160A  118A  2000  160A  118A  	fcall	stringtab
  2964     130C  00A0               	movwf	??_stoa
  2965     130D  01A1               	clrf	??_stoa+1
  2966     130E  0820               	movf	??_stoa,w
  2967     130F  00F2               	movwf	fputc@c
  2968     1310  0821               	movf	??_stoa+1,w
  2969     1311  00F3               	movwf	fputc@c+1
  2970     1312  0825               	movf	stoa@fp,w
  2971     1313  00F4               	movwf	fputc@fp
  2972     1314  160A  118A  20CA  160A  118A  	fcall	_fputc
  2973     1319                     i1l3416:
  2974                           
  2975                           ;C:\Program Files\Microchip\xc8\v2.45\pic\sources\c99\common\doprnt.c: 981:         ++cp
      +                          ;
  2976     1319  3001               	movlw	1
  2977     131A  1283               	bcf	3,5	;RP0=0, select bank0
  2978     131B  1303               	bcf	3,6	;RP1=0, select bank0
  2979     131C  07A6               	addwf	stoa@cp,f
  2980     131D  1803               	skipnc
  2981     131E  0AA7               	incf	stoa@cp+1,f
  2982     131F  3000               	movlw	0
  2983     1320  07A7               	addwf	stoa@cp+1,f
  2984     1321                     i1l3418:
  2985                           
  2986                           ;C:\Program Files\Microchip\xc8\v2.45\pic\sources\c99\common\doprnt.c: 979:     while (p
      +                          --) {
  2987     1321  30FF               	movlw	255
  2988     1322  07A3               	addwf	stoa@p,f
  2989     1323  1803               	skipnc
  2990     1324  0AA4               	incf	stoa@p+1,f
  2991     1325  30FF               	movlw	255
  2992     1326  07A4               	addwf	stoa@p+1,f
  2993     1327  0A23               	incf	stoa@p,w
  2994     1328  1D03               	skipz
  2995     1329  2B2E               	goto	u500_21
  2996     132A  0A24               	incf	stoa@p+1,w
  2997     132B  1D03               	btfss	3,2
  2998     132C  2B2E               	goto	u500_21
  2999     132D  2B2F               	goto	u500_20
  3000     132E                     u500_21:
  3001     132E  2B03               	goto	i1l3414
  3002     132F                     u500_20:
  3003     132F                     i1l788:
  3004     132F  0008               	return
  3005     1330                     __end_of_stoa:
  3006                           
  3007                           	psect	text10
  3008     1120                     __ptext10:	
  3009 ;; *************** function _read_prec_or_width *****************
  3010 ;; Defined at:
  3011 ;;		line 1158 in file "C:\Program Files\Microchip\xc8\v2.45\pic\sources\c99\common\doprnt.c"
  3012 ;; Parameters:    Size  Location     Type
  3013 ;;  fmt             1    wreg     PTR PTR const unsigned c
  3014 ;;		 -> vfprintf@cfmt(1), 
  3015 ;;  ap              1    6[COMMON] PTR PTR void [1]
  3016 ;;		 -> printf@ap(1), 
  3017 ;; Auto vars:     Size  Location     Type
  3018 ;;  fmt             1   11[COMMON] PTR PTR const unsigned c
  3019 ;;		 -> vfprintf@cfmt(1), 
  3020 ;;  c               1    8[COMMON] unsigned char 
  3021 ;;  n               2    9[COMMON] int 
  3022 ;; Return value:  Size  Location     Type
  3023 ;;                  2    6[COMMON] int 
  3024 ;; Registers used:
  3025 ;;		wreg, fsr0l, fsr0h, status,2, status,0, btemp+1, pclath, cstack
  3026 ;; Tracked objects:
  3027 ;;		On entry : 0/0
  3028 ;;		On exit  : 0/0
  3029 ;;		Unchanged: 0/0
  3030 ;; Data sizes:     COMMON   BANK0   BANK1   BANK3   BANK2
  3031 ;;      Params:         2       0       0       0       0
  3032 ;;      Locals:         4       0       0       0       0
  3033 ;;      Temps:          0       0       0       0       0
  3034 ;;      Totals:         6       0       0       0       0
  3035 ;;Total ram usage:        6 bytes
  3036 ;; Hardware stack levels used: 1
  3037 ;; Hardware stack levels required when called: 1
  3038 ;; This function calls:
  3039 ;;		___wmul
  3040 ;; This function is called by:
  3041 ;;		_vfpfcnvrt
  3042 ;; This function uses a non-reentrant model
  3043 ;;
  3044                           
  3045     1120                     _read_prec_or_width:	
  3046                           ;psect for function _read_prec_or_width
  3047                           
  3048                           
  3049                           ;incstack = 0
  3050 ;; using string table level
  3051                           ; Regs used in _read_prec_or_width: [wreg-fsr0h+status,2+status,0+btemp+1+pclath+cstack]
  3052                           ;read_prec_or_width@fmt stored from wreg
  3053     1120  00FC               	movwf	read_prec_or_width@fmt
  3054     1121                     i1l3420:
  3055                           
  3056                           ;C:\Program Files\Microchip\xc8\v2.45\pic\sources\c99\common\doprnt.c: 1159:     int n =
      +                           0;
  3057     1121  01FA               	clrf	read_prec_or_width@n
  3058     1122  01FB               	clrf	read_prec_or_width@n+1
  3059     1123                     i1l3422:
  3060                           
  3061                           ;C:\Program Files\Microchip\xc8\v2.45\pic\sources\c99\common\doprnt.c: 1160:     if ((*f
      +                          mt)[0] == '*') {
  3062     1123  087C               	movf	read_prec_or_width@fmt,w
  3063     1124  0084               	movwf	4
  3064     1125  1383               	bcf	3,7	;select IRP bank0
  3065     1126  0800               	movf	0,w
  3066     1127  0084               	movwf	4
  3067     1128  160A  118A  200A  160A  118A  	fcall	stringdir
  3068     112D  3A2A               	xorlw	42
  3069     112E  1D03               	skipz
  3070     112F  2931               	goto	u501_21
  3071     1130  2932               	goto	u501_20
  3072     1131                     u501_21:
  3073     1131  2962               	goto	i1l3430
  3074     1132                     u501_20:
  3075     1132                     i1l3424:
  3076                           
  3077                           ;C:\Program Files\Microchip\xc8\v2.45\pic\sources\c99\common\doprnt.c: 1161:         ++*
      +                          fmt;
  3078     1132  3001               	movlw	1
  3079     1133  00FF               	movwf	btemp+1
  3080     1134  087C               	movf	read_prec_or_width@fmt,w
  3081     1135  0084               	movwf	4
  3082     1136  087F               	movf	btemp+1,w
  3083     1137  0780               	addwf	0,f
  3084                           
  3085                           ;C:\Program Files\Microchip\xc8\v2.45\pic\sources\c99\common\doprnt.c: 1162:         n =
      +                           (*(int *)__va_arg(*(int **)*ap, (int)0));
  3086     1138  0877               	movf	read_prec_or_width@ap,w
  3087     1139  0084               	movwf	4
  3088     113A  0800               	movf	0,w
  3089     113B  00FF               	movwf	btemp+1
  3090     113C  3002               	movlw	2
  3091     113D  0780               	addwf	0,f
  3092     113E  087F               	movf	btemp+1,w
  3093     113F  0084               	movwf	4
  3094     1140  0800               	movf	0,w
  3095     1141  00FA               	movwf	read_prec_or_width@n
  3096     1142  0A84               	incf	4,f
  3097     1143  0800               	movf	0,w
  3098     1144  00FB               	movwf	read_prec_or_width@n+1
  3099                           
  3100                           ;C:\Program Files\Microchip\xc8\v2.45\pic\sources\c99\common\doprnt.c: 1163:     } else 
      +                          {
  3101     1145  2973               	goto	i1l3432
  3102     1146                     i1l3426:
  3103                           
  3104                           ;C:\Program Files\Microchip\xc8\v2.45\pic\sources\c99\common\doprnt.c: 1166:            
      +                           n = n * 10 + c;
  3105     1146  087B               	movf	read_prec_or_width@n+1,w
  3106     1147  00F2               	movwf	___wmul@multiplier+1
  3107     1148  087A               	movf	read_prec_or_width@n,w
  3108     1149  00F1               	movwf	___wmul@multiplier
  3109     114A  300A               	movlw	10
  3110     114B  00F3               	movwf	___wmul@multiplicand
  3111     114C  3000               	movlw	0
  3112     114D  00F4               	movwf	___wmul@multiplicand+1
  3113     114E  160A  158A  25B8  160A  118A  	fcall	___wmul
  3114     1153  0879               	movf	read_prec_or_width@c,w
  3115     1154  0771               	addwf	?___wmul,w
  3116     1155  00FA               	movwf	read_prec_or_width@n
  3117     1156  3000               	movlw	0
  3118     1157  1803               	skipnc
  3119     1158  3001               	movlw	1
  3120     1159  0772               	addwf	?___wmul+1,w
  3121     115A  00FB               	movwf	read_prec_or_width@n+1
  3122     115B                     i1l3428:
  3123                           
  3124                           ;C:\Program Files\Microchip\xc8\v2.45\pic\sources\c99\common\doprnt.c: 1167:            
      +                           ++*fmt;
  3125     115B  3001               	movlw	1
  3126     115C  00FF               	movwf	btemp+1
  3127     115D  087C               	movf	read_prec_or_width@fmt,w
  3128     115E  0084               	movwf	4
  3129     115F  087F               	movf	btemp+1,w
  3130     1160  1383               	bcf	3,7	;select IRP bank0
  3131     1161  0780               	addwf	0,f
  3132     1162                     i1l3430:
  3133                           
  3134                           ;C:\Program Files\Microchip\xc8\v2.45\pic\sources\c99\common\doprnt.c: 1165:         whi
      +                          le ((c = ((unsigned)(*fmt)[0]) - '0') < 10) {
  3135     1162  087C               	movf	read_prec_or_width@fmt,w
  3136     1163  0084               	movwf	4
  3137     1164  0800               	movf	0,w
  3138     1165  0084               	movwf	4
  3139     1166  160A  118A  200A  160A  118A  	fcall	stringdir
  3140     116B  3ED0               	addlw	208
  3141     116C  00F9               	movwf	read_prec_or_width@c
  3142     116D  300A               	movlw	10
  3143     116E  0279               	subwf	read_prec_or_width@c,w
  3144     116F  1C03               	skipc
  3145     1170  2972               	goto	u502_21
  3146     1171  2973               	goto	u502_20
  3147     1172                     u502_21:
  3148     1172  2946               	goto	i1l3426
  3149     1173                     u502_20:
  3150     1173                     i1l3432:
  3151                           
  3152                           ;C:\Program Files\Microchip\xc8\v2.45\pic\sources\c99\common\doprnt.c: 1170:     return 
      +                          n;
  3153     1173  087B               	movf	read_prec_or_width@n+1,w
  3154     1174  00F8               	movwf	?_read_prec_or_width+1
  3155     1175  087A               	movf	read_prec_or_width@n,w
  3156     1176  00F7               	movwf	?_read_prec_or_width
  3157     1177                     i1l796:
  3158     1177  0008               	return
  3159     1178                     __end_of_read_prec_or_width:
  3160                           
  3161                           	psect	text11
  3162     1DB8                     __ptext11:	
  3163 ;; *************** function ___wmul *****************
  3164 ;; Defined at:
  3165 ;;		line 15 in file "C:\Program Files\Microchip\xc8\v2.45\pic\sources\c99\common\Umul16.c"
  3166 ;; Parameters:    Size  Location     Type
  3167 ;;  multiplier      2    0[COMMON] unsigned int 
  3168 ;;  multiplicand    2    2[COMMON] unsigned int 
  3169 ;; Auto vars:     Size  Location     Type
  3170 ;;  product         2    4[COMMON] unsigned int 
  3171 ;; Return value:  Size  Location     Type
  3172 ;;                  2    0[COMMON] unsigned int 
  3173 ;; Registers used:
  3174 ;;		wreg, status,2, status,0
  3175 ;; Tracked objects:
  3176 ;;		On entry : 0/0
  3177 ;;		On exit  : 0/0
  3178 ;;		Unchanged: 0/0
  3179 ;; Data sizes:     COMMON   BANK0   BANK1   BANK3   BANK2
  3180 ;;      Params:         4       0       0       0       0
  3181 ;;      Locals:         2       0       0       0       0
  3182 ;;      Temps:          0       0       0       0       0
  3183 ;;      Totals:         6       0       0       0       0
  3184 ;;Total ram usage:        6 bytes
  3185 ;; Hardware stack levels used: 1
  3186 ;; This function calls:
  3187 ;;		Nothing
  3188 ;; This function is called by:
  3189 ;;		_read_prec_or_width
  3190 ;; This function uses a non-reentrant model
  3191 ;;
  3192                           
  3193     1DB8                     ___wmul:	
  3194                           ;psect for function ___wmul
  3195                           
  3196     1DB8                     i1l2582:	
  3197                           ;incstack = 0
  3198                           ; Regs used in ___wmul: [wreg+status,2+status,0]
  3199                           
  3200     1DB8  01F5               	clrf	___wmul@product
  3201     1DB9  01F6               	clrf	___wmul@product+1
  3202     1DBA                     i1l2584:
  3203     1DBA  1C71               	btfss	___wmul@multiplier,0
  3204     1DBB  2DBD               	goto	u314_21
  3205     1DBC  2DBE               	goto	u314_20
  3206     1DBD                     u314_21:
  3207     1DBD  2DC4               	goto	i1l210
  3208     1DBE                     u314_20:
  3209     1DBE                     i1l2586:
  3210     1DBE  0873               	movf	___wmul@multiplicand,w
  3211     1DBF  07F5               	addwf	___wmul@product,f
  3212     1DC0  1803               	skipnc
  3213     1DC1  0AF6               	incf	___wmul@product+1,f
  3214     1DC2  0874               	movf	___wmul@multiplicand+1,w
  3215     1DC3  07F6               	addwf	___wmul@product+1,f
  3216     1DC4                     i1l210:
  3217     1DC4  3001               	movlw	1
  3218     1DC5                     u315_25:
  3219     1DC5  1003               	clrc
  3220     1DC6  0DF3               	rlf	___wmul@multiplicand,f
  3221     1DC7  0DF4               	rlf	___wmul@multiplicand+1,f
  3222     1DC8  3EFF               	addlw	-1
  3223     1DC9  1D03               	skipz
  3224     1DCA  2DC5               	goto	u315_25
  3225     1DCB                     i1l2588:
  3226     1DCB  3001               	movlw	1
  3227     1DCC                     u316_25:
  3228     1DCC  1003               	clrc
  3229     1DCD  0CF2               	rrf	___wmul@multiplier+1,f
  3230     1DCE  0CF1               	rrf	___wmul@multiplier,f
  3231     1DCF  3EFF               	addlw	-1
  3232     1DD0  1D03               	skipz
  3233     1DD1  2DCC               	goto	u316_25
  3234     1DD2                     i1l2590:
  3235     1DD2  0871               	movf	___wmul@multiplier,w
  3236     1DD3  0472               	iorwf	___wmul@multiplier+1,w
  3237     1DD4  1D03               	btfss	3,2
  3238     1DD5  2DD7               	goto	u317_21
  3239     1DD6  2DD8               	goto	u317_20
  3240     1DD7                     u317_21:
  3241     1DD7  2DBA               	goto	i1l2584
  3242     1DD8                     u317_20:
  3243     1DD8                     i1l2592:
  3244     1DD8  0876               	movf	___wmul@product+1,w
  3245     1DD9  00F2               	movwf	?___wmul+1
  3246     1DDA  0875               	movf	___wmul@product,w
  3247     1DDB  00F1               	movwf	?___wmul
  3248     1DDC                     i1l212:
  3249     1DDC  0008               	return
  3250     1DDD                     __end_of___wmul:
  3251                           
  3252                           	psect	text12
  3253     14FA                     __ptext12:	
  3254 ;; *************** function _efgtoa *****************
  3255 ;; Defined at:
  3256 ;;		line 587 in file "C:\Program Files\Microchip\xc8\v2.45\pic\sources\c99\common\doprnt.c"
  3257 ;; Parameters:    Size  Location     Type
  3258 ;;  fp              1    wreg     PTR struct _IO_FILE
  3259 ;;		 -> NULL(0), 
  3260 ;;  f               4   34[BANK0 ] PTR struct _IO_FILE
  3261 ;;  c               1   38[BANK0 ] unsigned char 
  3262 ;; Auto vars:     Size  Location     Type
  3263 ;;  fp              1   15[BANK1 ] PTR struct _IO_FILE
  3264 ;;		 -> NULL(0), 
  3265 ;;  u               4   41[BANK1 ] struct flui
  3266 ;;  g               4   37[BANK1 ] struct flui
  3267 ;;  l               4   30[BANK1 ] struct flui
  3268 ;;  h               4   26[BANK1 ] struct flui
  3269 ;;  ou              4   20[BANK1 ] struct flui
  3270 ;;  n               2   35[BANK1 ] int 
  3271 ;;  i               2   24[BANK1 ] int 
  3272 ;;  w               2   18[BANK1 ] int 
  3273 ;;  e               2   16[BANK1 ] int 
  3274 ;;  m               2   13[BANK1 ] int 
  3275 ;;  d               2   11[BANK1 ] int 
  3276 ;;  t               2    4[BANK1 ] int 
  3277 ;;  p               2    2[BANK1 ] int 
  3278 ;;  ne              2    0[BANK1 ] int 
  3279 ;;  sign            1   34[BANK1 ] unsigned char 
  3280 ;;  nmode           1   10[BANK1 ] unsigned char 
  3281 ;;  mode            1    9[BANK1 ] unsigned char 
  3282 ;;  pp              1    8[BANK1 ] unsigned char 
  3283 ;;  esign           1    0        unsigned char 
  3284 ;; Return value:  Size  Location     Type
  3285 ;;                  1    wreg      void 
  3286 ;; Registers used:
  3287 ;;		wreg, fsr0l, fsr0h, status,2, status,0, btemp+1, pclath, cstack
  3288 ;; Tracked objects:
  3289 ;;		On entry : 0/0
  3290 ;;		On exit  : 0/0
  3291 ;;		Unchanged: 0/0
  3292 ;; Data sizes:     COMMON   BANK0   BANK1   BANK3   BANK2
  3293 ;;      Params:         0       5       0       0       0
  3294 ;;      Locals:         0       0      45       0       0
  3295 ;;      Temps:          0       4       0       0       0
  3296 ;;      Totals:         0       9      45       0       0
  3297 ;;Total ram usage:       54 bytes
  3298 ;; Hardware stack levels used: 1
  3299 ;; Hardware stack levels required when called: 4
  3300 ;; This function calls:
  3301 ;;		___fladd
  3302 ;;		___fldiv
  3303 ;;		___fleq
  3304 ;;		___flge
  3305 ;;		___flmul
  3306 ;;		___flneg
  3307 ;;		___flsub
  3308 ;;		___fltol
  3309 ;;		___fpclassifyf
  3310 ;;		_floorf
  3311 ;;		_labs
  3312 ;;		_memcpy
  3313 ;;		_pad
  3314 ;;		_strcpy
  3315 ;; This function is called by:
  3316 ;;		_vfpfcnvrt
  3317 ;; This function uses a non-reentrant model
  3318 ;;
  3319                           
  3320     14FA                     _efgtoa:	
  3321                           ;psect for function _efgtoa
  3322                           
  3323                           
  3324                           ;incstack = 0
  3325 ;; hardware stack exceeded
  3326                           ; Regs used in _efgtoa: [wreg-fsr0h+status,2+status,0+btemp+1+pclath+cstack]
  3327                           ;efgtoa@fp stored from wreg
  3328     14FA  1683               	bsf	3,5	;RP0=1, select bank1
  3329     14FB  1303               	bcf	3,6	;RP1=0, select bank1
  3330     14FC  00AF               	movwf	efgtoa@fp^(0+128)
  3331     14FD                     i1l3192:
  3332                           
  3333                           ;C:\Program Files\Microchip\xc8\v2.45\pic\sources\c99\common\doprnt.c: 587: static void 
      +                          efgtoa(FILE *fp, long double f, char c);C:\Program Files\Microchip\xc8\v2.45\pic\sources
      +                          \c99\common\doprnt.c: 588: {;C:\Program Files\Microchip\xc8\v2.45\pic\sources\c99\common
      +                          \doprnt.c: 589:     char mode, nmode, pp, sign, esign;;C:\Program Files\Microchip\xc8\v2
      +                          .45\pic\sources\c99\common\doprnt.c: 590:     int d, e, i, m, n, ne, p, t, w;;C:\Program
      +                           Files\Microchip\xc8\v2.45\pic\sources\c99\common\doprnt.c: 591:     long double h, l;
  3334     14FD  01C2               	clrf	efgtoa@sign^(0+128)
  3335     14FE                     i1l3194:
  3336                           
  3337                           ;C:\Program Files\Microchip\xc8\v2.45\pic\sources\c99\common\doprnt.c: 596:     g.f = f;
  3338     14FE  1283               	bcf	3,5	;RP0=0, select bank0
  3339     14FF  1303               	bcf	3,6	;RP1=0, select bank0
  3340     1500  0845               	movf	efgtoa@f+3,w
  3341     1501  1683               	bsf	3,5	;RP0=1, select bank1
  3342     1502  1303               	bcf	3,6	;RP1=0, select bank1
  3343     1503  00C8               	movwf	(efgtoa@g+3)^(0+128)
  3344     1504  1283               	bcf	3,5	;RP0=0, select bank0
  3345     1505  1303               	bcf	3,6	;RP1=0, select bank0
  3346     1506  0844               	movf	efgtoa@f+2,w
  3347     1507  1683               	bsf	3,5	;RP0=1, select bank1
  3348     1508  1303               	bcf	3,6	;RP1=0, select bank1
  3349     1509  00C7               	movwf	(efgtoa@g+2)^(0+128)
  3350     150A  1283               	bcf	3,5	;RP0=0, select bank0
  3351     150B  1303               	bcf	3,6	;RP1=0, select bank0
  3352     150C  0843               	movf	efgtoa@f+1,w
  3353     150D  1683               	bsf	3,5	;RP0=1, select bank1
  3354     150E  1303               	bcf	3,6	;RP1=0, select bank1
  3355     150F  00C6               	movwf	(efgtoa@g+1)^(0+128)
  3356     1510  1283               	bcf	3,5	;RP0=0, select bank0
  3357     1511  1303               	bcf	3,6	;RP1=0, select bank0
  3358     1512  0842               	movf	efgtoa@f,w
  3359     1513  1683               	bsf	3,5	;RP0=1, select bank1
  3360     1514  1303               	bcf	3,6	;RP1=0, select bank1
  3361     1515  00C5               	movwf	efgtoa@g^(0+128)
  3362     1516                     i1l3196:
  3363                           
  3364                           ;C:\Program Files\Microchip\xc8\v2.45\pic\sources\c99\common\doprnt.c: 597:     if (g.f 
      +                          < 0.0) {
  3365     1516  0848               	movf	(efgtoa@g+3)^(0+128),w
  3366     1517  1283               	bcf	3,5	;RP0=0, select bank0
  3367     1518  1303               	bcf	3,6	;RP1=0, select bank0
  3368     1519  00BD               	movwf	___flge@ff1+3
  3369     151A  1683               	bsf	3,5	;RP0=1, select bank1
  3370     151B  1303               	bcf	3,6	;RP1=0, select bank1
  3371     151C  0847               	movf	(efgtoa@g+2)^(0+128),w
  3372     151D  1283               	bcf	3,5	;RP0=0, select bank0
  3373     151E  1303               	bcf	3,6	;RP1=0, select bank0
  3374     151F  00BC               	movwf	___flge@ff1+2
  3375     1520  1683               	bsf	3,5	;RP0=1, select bank1
  3376     1521  1303               	bcf	3,6	;RP1=0, select bank1
  3377     1522  0846               	movf	(efgtoa@g+1)^(0+128),w
  3378     1523  1283               	bcf	3,5	;RP0=0, select bank0
  3379     1524  1303               	bcf	3,6	;RP1=0, select bank0
  3380     1525  00BB               	movwf	___flge@ff1+1
  3381     1526  1683               	bsf	3,5	;RP0=1, select bank1
  3382     1527  1303               	bcf	3,6	;RP1=0, select bank1
  3383     1528  0845               	movf	efgtoa@g^(0+128),w
  3384     1529  1283               	bcf	3,5	;RP0=0, select bank0
  3385     152A  1303               	bcf	3,6	;RP1=0, select bank0
  3386     152B  00BA               	movwf	___flge@ff1
  3387     152C  3000               	movlw	0
  3388     152D  00C1               	movwf	___flge@ff2+3
  3389     152E  3000               	movlw	0
  3390     152F  00C0               	movwf	___flge@ff2+2
  3391     1530  3000               	movlw	0
  3392     1531  00BF               	movwf	___flge@ff2+1
  3393     1532  3000               	movlw	0
  3394     1533  00BE               	movwf	___flge@ff2
  3395     1534  120A  118A  2030  160A  118A  	fcall	___flge
  3396     1539  1803               	btfsc	3,0
  3397     153A  2D3C               	goto	u460_21
  3398     153B  2D3D               	goto	u460_20
  3399     153C                     u460_21:
  3400     153C  2D58               	goto	i1l3202
  3401     153D                     u460_20:
  3402     153D                     i1l3198:
  3403                           
  3404                           ;C:\Program Files\Microchip\xc8\v2.45\pic\sources\c99\common\doprnt.c: 598:         sign
      +                           = 1;
  3405     153D  1683               	bsf	3,5	;RP0=1, select bank1
  3406     153E  1303               	bcf	3,6	;RP1=0, select bank1
  3407     153F  01C2               	clrf	efgtoa@sign^(0+128)
  3408     1540  0AC2               	incf	efgtoa@sign^(0+128),f
  3409     1541                     i1l3200:
  3410                           
  3411                           ;C:\Program Files\Microchip\xc8\v2.45\pic\sources\c99\common\doprnt.c: 599:         g.f 
      +                          = -g.f;
  3412     1541  0848               	movf	(efgtoa@g+3)^(0+128),w
  3413     1542  00F4               	movwf	___flneg@f1+3
  3414     1543  0847               	movf	(efgtoa@g+2)^(0+128),w
  3415     1544  00F3               	movwf	___flneg@f1+2
  3416     1545  0846               	movf	(efgtoa@g+1)^(0+128),w
  3417     1546  00F2               	movwf	___flneg@f1+1
  3418     1547  0845               	movf	efgtoa@g^(0+128),w
  3419     1548  00F1               	movwf	___flneg@f1
  3420     1549  160A  158A  24C9  160A  118A  	fcall	___flneg
  3421     154E  0874               	movf	?___flneg+3,w
  3422     154F  1683               	bsf	3,5	;RP0=1, select bank1
  3423     1550  1303               	bcf	3,6	;RP1=0, select bank1
  3424     1551  00C8               	movwf	(efgtoa@g+3)^(0+128)
  3425     1552  0873               	movf	?___flneg+2,w
  3426     1553  00C7               	movwf	(efgtoa@g+2)^(0+128)
  3427     1554  0872               	movf	?___flneg+1,w
  3428     1555  00C6               	movwf	(efgtoa@g+1)^(0+128)
  3429     1556  0871               	movf	?___flneg,w
  3430     1557  00C5               	movwf	efgtoa@g^(0+128)
  3431     1558                     i1l3202:
  3432                           
  3433                           ;C:\Program Files\Microchip\xc8\v2.45\pic\sources\c99\common\doprnt.c: 603:     n = 0;
  3434     1558  1683               	bsf	3,5	;RP0=1, select bank1
  3435     1559  1303               	bcf	3,6	;RP1=0, select bank1
  3436     155A  01C3               	clrf	efgtoa@n^(0+128)
  3437     155B  01C4               	clrf	(efgtoa@n+1)^(0+128)
  3438     155C                     i1l3204:
  3439                           
  3440                           ;C:\Program Files\Microchip\xc8\v2.45\pic\sources\c99\common\doprnt.c: 604:     w = widt
      +                          h;
  3441     155C  1283               	bcf	3,5	;RP0=0, select bank0
  3442     155D  1303               	bcf	3,6	;RP1=0, select bank0
  3443     155E  0867               	movf	_width+1,w
  3444     155F  1683               	bsf	3,5	;RP0=1, select bank1
  3445     1560  1303               	bcf	3,6	;RP1=0, select bank1
  3446     1561  00B3               	movwf	(efgtoa@w+1)^(0+128)
  3447     1562  1283               	bcf	3,5	;RP0=0, select bank0
  3448     1563  1303               	bcf	3,6	;RP1=0, select bank0
  3449     1564  0866               	movf	_width,w
  3450     1565  1683               	bsf	3,5	;RP0=1, select bank1
  3451     1566  1303               	bcf	3,6	;RP1=0, select bank1
  3452     1567  00B2               	movwf	efgtoa@w^(0+128)
  3453     1568                     i1l3206:
  3454                           
  3455                           ;C:\Program Files\Microchip\xc8\v2.45\pic\sources\c99\common\doprnt.c: 605:     if (sign
  3456     1568  0842               	movf	efgtoa@sign^(0+128),w
  3457     1569  1903               	btfsc	3,2
  3458     156A  2D6C               	goto	u461_21
  3459     156B  2D6D               	goto	u461_20
  3460     156C                     u461_21:
  3461     156C  2D7D               	goto	i1l3214
  3462     156D                     u461_20:
  3463     156D                     i1l3208:
  3464                           
  3465                           ;C:\Program Files\Microchip\xc8\v2.45\pic\sources\c99\common\doprnt.c: 609:    ) {;C:\Pr
      +                          ogram Files\Microchip\xc8\v2.45\pic\sources\c99\common\doprnt.c: 610:   sign = sign ? '-
      +                          ' : '+';
  3466     156D  0842               	movf	efgtoa@sign^(0+128),w
  3467     156E  1D03               	btfss	3,2
  3468     156F  2D71               	goto	u462_21
  3469     1570  2D72               	goto	u462_20
  3470     1571                     u462_21:
  3471     1571  2D77               	goto	i1l3212
  3472     1572                     u462_20:
  3473     1572                     i1l3210:
  3474     1572  302B               	movlw	43
  3475     1573  00A6               	movwf	_efgtoa$1004^(0+128)
  3476     1574  3000               	movlw	0
  3477     1575  00A7               	movwf	(_efgtoa$1004^(0+128)+1)
  3478     1576  2D7B               	goto	i1l732
  3479     1577                     i1l3212:
  3480     1577  302D               	movlw	45
  3481     1578  00A6               	movwf	_efgtoa$1004^(0+128)
  3482     1579  3000               	movlw	0
  3483     157A  00A7               	movwf	(_efgtoa$1004^(0+128)+1)
  3484     157B                     i1l732:
  3485     157B  0826               	movf	_efgtoa$1004^(0+128),w
  3486     157C  00C2               	movwf	efgtoa@sign^(0+128)
  3487     157D                     i1l3214:
  3488                           
  3489                           ;C:\Program Files\Microchip\xc8\v2.45\pic\sources\c99\common\doprnt.c: 619:     if (( __
      +                          fpclassifyf(g.f) == 1 )) {
  3490     157D  0848               	movf	(efgtoa@g+3)^(0+128),w
  3491     157E  00F4               	movwf	___fpclassifyf@x+3
  3492     157F  0847               	movf	(efgtoa@g+2)^(0+128),w
  3493     1580  00F3               	movwf	___fpclassifyf@x+2
  3494     1581  0846               	movf	(efgtoa@g+1)^(0+128),w
  3495     1582  00F2               	movwf	___fpclassifyf@x+1
  3496     1583  0845               	movf	efgtoa@g^(0+128),w
  3497     1584  00F1               	movwf	___fpclassifyf@x
  3498     1585  120A  158A  2002  160A  118A  	fcall	___fpclassifyf
  3499     158A  0371               	decf	?___fpclassifyf,w
  3500     158B  0472               	iorwf	?___fpclassifyf+1,w
  3501     158C  1D03               	btfss	3,2
  3502     158D  2D8F               	goto	u463_21
  3503     158E  2D90               	goto	u463_20
  3504     158F                     u463_21:
  3505     158F  2DD3               	goto	i1l3228
  3506     1590                     u463_20:
  3507     1590                     i1l3216:
  3508                           
  3509                           ;C:\Program Files\Microchip\xc8\v2.45\pic\sources\c99\common\doprnt.c: 620:   if (sign) 
      +                          {
  3510     1590  1683               	bsf	3,5	;RP0=1, select bank1
  3511     1591  1303               	bcf	3,6	;RP1=0, select bank1
  3512     1592  0842               	movf	efgtoa@sign^(0+128),w
  3513     1593  1903               	btfsc	3,2
  3514     1594  2D96               	goto	u464_21
  3515     1595  2D97               	goto	u464_20
  3516     1596                     u464_21:
  3517     1596  2DA7               	goto	i1l3220
  3518     1597                     u464_20:
  3519     1597                     i1l3218:
  3520                           
  3521                           ;C:\Program Files\Microchip\xc8\v2.45\pic\sources\c99\common\doprnt.c: 621:    dbuf[0] =
      +                           sign;
  3522     1597  0842               	movf	efgtoa@sign^(0+128),w
  3523     1598  1683               	bsf	3,5	;RP0=1, select bank3
  3524     1599  1703               	bsf	3,6	;RP1=1, select bank3
  3525     159A  0090               	movwf	_dbuf^(0+384)
  3526                           
  3527                           ;C:\Program Files\Microchip\xc8\v2.45\pic\sources\c99\common\doprnt.c: 622:    w--;
  3528     159B  30FF               	movlw	255
  3529     159C  1683               	bsf	3,5	;RP0=1, select bank1
  3530     159D  1303               	bcf	3,6	;RP1=0, select bank1
  3531     159E  07B2               	addwf	efgtoa@w^(0+128),f
  3532     159F  1803               	skipnc
  3533     15A0  0AB3               	incf	(efgtoa@w+1)^(0+128),f
  3534     15A1  30FF               	movlw	255
  3535     15A2  07B3               	addwf	(efgtoa@w+1)^(0+128),f
  3536                           
  3537                           ;C:\Program Files\Microchip\xc8\v2.45\pic\sources\c99\common\doprnt.c: 623:    n = 1;
  3538     15A3  3001               	movlw	1
  3539     15A4  00C3               	movwf	efgtoa@n^(0+128)
  3540     15A5  3000               	movlw	0
  3541     15A6  00C4               	movwf	(efgtoa@n^(0+128)+1)
  3542     15A7                     i1l3220:
  3543                           
  3544                           ;C:\Program Files\Microchip\xc8\v2.45\pic\sources\c99\common\doprnt.c: 631:   {;C:\Progr
      +                          am Files\Microchip\xc8\v2.45\pic\sources\c99\common\doprnt.c: 632:             strcpy(&d
      +                          buf[n], "inf");
  3545     15A7  302E               	movlw	(low ((STR_4-__stringbase)| (0+32768)))& (0+255)
  3546     15A8  00F1               	movwf	strcpy@src
  3547     15A9  0843               	movf	efgtoa@n^(0+128),w
  3548     15AA  3E90               	addlw	(low (_dbuf| (0+256)))& (0+255)
  3549     15AB  120A  118A  2015  160A  118A  	fcall	_strcpy
  3550     15B0                     i1l3222:
  3551                           
  3552                           ;C:\Program Files\Microchip\xc8\v2.45\pic\sources\c99\common\doprnt.c: 633:         };C:
      +                          \Program Files\Microchip\xc8\v2.45\pic\sources\c99\common\doprnt.c: 634:         w -= ((
      +                          sizeof("inf")/sizeof("inf"[0]))-1);
  3553     15B0  30FD               	movlw	253
  3554     15B1  1683               	bsf	3,5	;RP0=1, select bank1
  3555     15B2  1303               	bcf	3,6	;RP1=0, select bank1
  3556     15B3  07B2               	addwf	efgtoa@w^(0+128),f
  3557     15B4  1803               	skipnc
  3558     15B5  0AB3               	incf	(efgtoa@w+1)^(0+128),f
  3559     15B6  30FF               	movlw	255
  3560     15B7  07B3               	addwf	(efgtoa@w+1)^(0+128),f
  3561     15B8                     i1l3224:
  3562                           
  3563                           ;C:\Program Files\Microchip\xc8\v2.45\pic\sources\c99\common\doprnt.c: 635:         retu
      +                          rn (void) pad(fp, &dbuf[0], w);
  3564     15B8  3090               	movlw	(low (_dbuf| (0+256)))& (0+255)
  3565     15B9  1283               	bcf	3,5	;RP0=0, select bank0
  3566     15BA  1303               	bcf	3,6	;RP1=0, select bank0
  3567     15BB  00A4               	movwf	pad@buf
  3568     15BC  1683               	bsf	3,5	;RP0=1, select bank1
  3569     15BD  1303               	bcf	3,6	;RP1=0, select bank1
  3570     15BE  0833               	movf	(efgtoa@w+1)^(0+128),w
  3571     15BF  1283               	bcf	3,5	;RP0=0, select bank0
  3572     15C0  1303               	bcf	3,6	;RP1=0, select bank0
  3573     15C1  00A6               	movwf	pad@p+1
  3574     15C2  1683               	bsf	3,5	;RP0=1, select bank1
  3575     15C3  1303               	bcf	3,6	;RP1=0, select bank1
  3576     15C4  0832               	movf	efgtoa@w^(0+128),w
  3577     15C5  1283               	bcf	3,5	;RP0=0, select bank0
  3578     15C6  1303               	bcf	3,6	;RP1=0, select bank0
  3579     15C7  00A5               	movwf	pad@p
  3580     15C8  1683               	bsf	3,5	;RP0=1, select bank1
  3581     15C9  1303               	bcf	3,6	;RP1=0, select bank1
  3582     15CA  082F               	movf	efgtoa@fp^(0+128),w
  3583     15CB  160A  158A  268A  160A  118A  	fcall	_pad
  3584     15D0                     L1:
  3585     15D0  120A  118A  2FE2   	goto	i1l735
  3586     15D3                     i1l3228:
  3587                           
  3588                           ;C:\Program Files\Microchip\xc8\v2.45\pic\sources\c99\common\doprnt.c: 637:     if (( __
      +                          fpclassifyf(g.f) == 0 )) {
  3589     15D3  1683               	bsf	3,5	;RP0=1, select bank1
  3590     15D4  1303               	bcf	3,6	;RP1=0, select bank1
  3591     15D5  0848               	movf	(efgtoa@g+3)^(0+128),w
  3592     15D6  00F4               	movwf	___fpclassifyf@x+3
  3593     15D7  0847               	movf	(efgtoa@g+2)^(0+128),w
  3594     15D8  00F3               	movwf	___fpclassifyf@x+2
  3595     15D9  0846               	movf	(efgtoa@g+1)^(0+128),w
  3596     15DA  00F2               	movwf	___fpclassifyf@x+1
  3597     15DB  0845               	movf	efgtoa@g^(0+128),w
  3598     15DC  00F1               	movwf	___fpclassifyf@x
  3599     15DD  120A  158A  2002  160A  118A  	fcall	___fpclassifyf
  3600     15E2  0871               	movf	?___fpclassifyf,w
  3601     15E3  0472               	iorwf	?___fpclassifyf+1,w
  3602     15E4  1D03               	btfss	3,2
  3603     15E5  2DE7               	goto	u465_21
  3604     15E6  2DEA               	goto	u465_20
  3605     15E7                     u465_21:
  3606     15E7  120A  118A  28D4   	goto	i1l3242
  3607     15EA                     u465_20:
  3608     15EA                     i1l3230:
  3609                           
  3610                           ;C:\Program Files\Microchip\xc8\v2.45\pic\sources\c99\common\doprnt.c: 638:   if (sign) 
      +                          {
  3611     15EA  1683               	bsf	3,5	;RP0=1, select bank1
  3612     15EB  1303               	bcf	3,6	;RP1=0, select bank1
  3613     15EC  0842               	movf	efgtoa@sign^(0+128),w
  3614     15ED  1903               	btfsc	3,2
  3615     15EE  2DF0               	goto	u466_21
  3616     15EF  2DF1               	goto	u466_20
  3617     15F0                     u466_21:
  3618     15F0  2E01               	goto	i1l3234
  3619     15F1                     u466_20:
  3620     15F1                     i1l3232:
  3621                           
  3622                           ;C:\Program Files\Microchip\xc8\v2.45\pic\sources\c99\common\doprnt.c: 639:    dbuf[0] =
      +                           sign;
  3623     15F1  0842               	movf	efgtoa@sign^(0+128),w
  3624     15F2  1683               	bsf	3,5	;RP0=1, select bank3
  3625     15F3  1703               	bsf	3,6	;RP1=1, select bank3
  3626     15F4  0090               	movwf	_dbuf^(0+384)
  3627                           
  3628                           ;C:\Program Files\Microchip\xc8\v2.45\pic\sources\c99\common\doprnt.c: 640:    w--;
  3629     15F5  30FF               	movlw	255
  3630     15F6  1683               	bsf	3,5	;RP0=1, select bank1
  3631     15F7  1303               	bcf	3,6	;RP1=0, select bank1
  3632     15F8  07B2               	addwf	efgtoa@w^(0+128),f
  3633     15F9  1803               	skipnc
  3634     15FA  0AB3               	incf	(efgtoa@w+1)^(0+128),f
  3635     15FB  30FF               	movlw	255
  3636     15FC  07B3               	addwf	(efgtoa@w+1)^(0+128),f
  3637                           
  3638                           ;C:\Program Files\Microchip\xc8\v2.45\pic\sources\c99\common\doprnt.c: 641:    n = 1;
  3639     15FD  3001               	movlw	1
  3640     15FE  00C3               	movwf	efgtoa@n^(0+128)
  3641     15FF  3000               	movlw	0
  3642     1600  00C4               	movwf	(efgtoa@n^(0+128)+1)
  3643     1601                     i1l3234:
  3644                           
  3645                           ;C:\Program Files\Microchip\xc8\v2.45\pic\sources\c99\common\doprnt.c: 649:   {;C:\Progr
      +                          am Files\Microchip\xc8\v2.45\pic\sources\c99\common\doprnt.c: 650:             strcpy(&d
      +                          buf[n], "nan");
  3646     1601  3032               	movlw	(low ((STR_7-__stringbase)| (0+32768)))& (0+255)
  3647     1602  00F1               	movwf	strcpy@src
  3648     1603  0843               	movf	efgtoa@n^(0+128),w
  3649     1604  3E90               	addlw	(low (_dbuf| (0+256)))& (0+255)
  3650     1605  120A  118A  2015  160A  118A  	fcall	_strcpy
  3651     160A                     i1l3236:
  3652                           
  3653                           ;C:\Program Files\Microchip\xc8\v2.45\pic\sources\c99\common\doprnt.c: 651:         };C:
      +                          \Program Files\Microchip\xc8\v2.45\pic\sources\c99\common\doprnt.c: 652:         w -= ((
      +                          sizeof("nan")/sizeof("nan"[0]))-1);
  3654     160A  30FD               	movlw	253
  3655     160B  1683               	bsf	3,5	;RP0=1, select bank1
  3656     160C  1303               	bcf	3,6	;RP1=0, select bank1
  3657     160D  07B2               	addwf	efgtoa@w^(0+128),f
  3658     160E  1803               	skipnc
  3659     160F  0AB3               	incf	(efgtoa@w+1)^(0+128),f
  3660     1610  30FF               	movlw	255
  3661     1611  07B3               	addwf	(efgtoa@w+1)^(0+128),f
  3662     1612                     i1l3238:
  3663                           
  3664                           ;C:\Program Files\Microchip\xc8\v2.45\pic\sources\c99\common\doprnt.c: 653:         retu
      +                          rn (void) pad(fp, &dbuf[0], w);
  3665     1612  3090               	movlw	(low (_dbuf| (0+256)))& (0+255)
  3666     1613  1283               	bcf	3,5	;RP0=0, select bank0
  3667     1614  1303               	bcf	3,6	;RP1=0, select bank0
  3668     1615  00A4               	movwf	pad@buf
  3669     1616  1683               	bsf	3,5	;RP0=1, select bank1
  3670     1617  1303               	bcf	3,6	;RP1=0, select bank1
  3671     1618  0833               	movf	(efgtoa@w+1)^(0+128),w
  3672     1619  1283               	bcf	3,5	;RP0=0, select bank0
  3673     161A  1303               	bcf	3,6	;RP1=0, select bank0
  3674     161B  00A6               	movwf	pad@p+1
  3675     161C  1683               	bsf	3,5	;RP0=1, select bank1
  3676     161D  1303               	bcf	3,6	;RP1=0, select bank1
  3677     161E  0832               	movf	efgtoa@w^(0+128),w
  3678     161F  1283               	bcf	3,5	;RP0=0, select bank0
  3679     1620  1303               	bcf	3,6	;RP1=0, select bank0
  3680     1621  00A5               	movwf	pad@p
  3681     1622  1683               	bsf	3,5	;RP0=1, select bank1
  3682     1623  1303               	bcf	3,6	;RP1=0, select bank1
  3683     1624  082F               	movf	efgtoa@fp^(0+128),w
  3684     1625  160A  158A  268A  160A  118A  	fcall	_pad
  3685     162A  2DD0               	goto	L1
  3686                           
  3687                           	psect	text13
  3688     0015                     __ptext13:	
  3689 ;; *************** function _strcpy *****************
  3690 ;; Defined at:
  3691 ;;		line 3 in file "C:\Program Files\Microchip\xc8\v2.45\pic\sources\c99\common\strcpy.c"
  3692 ;; Parameters:    Size  Location     Type
  3693 ;;  dest            1    wreg     PTR unsigned char 
  3694 ;;		 -> dbuf(80), 
  3695 ;;  src             1    0[COMMON] PTR const unsigned char 
  3696 ;;		 -> STR_7(4), STR_4(4), 
  3697 ;; Auto vars:     Size  Location     Type
  3698 ;;  dest            1    2[COMMON] PTR unsigned char 
  3699 ;;		 -> dbuf(80), 
  3700 ;;  d               1    1[COMMON] PTR unsigned char 
  3701 ;;		 -> dbuf(80), 
  3702 ;; Return value:  Size  Location     Type
  3703 ;;                  1    wreg      PTR unsigned char 
  3704 ;; Registers used:
  3705 ;;		wreg, fsr0l, fsr0h, status,2, status,0, btemp+1, pclath
  3706 ;; Tracked objects:
  3707 ;;		On entry : 0/0
  3708 ;;		On exit  : 0/0
  3709 ;;		Unchanged: 0/0
  3710 ;; Data sizes:     COMMON   BANK0   BANK1   BANK3   BANK2
  3711 ;;      Params:         1       0       0       0       0
  3712 ;;      Locals:         2       0       0       0       0
  3713 ;;      Temps:          0       0       0       0       0
  3714 ;;      Totals:         3       0       0       0       0
  3715 ;;Total ram usage:        3 bytes
  3716 ;; Hardware stack levels used: 2
  3717 ;; This function calls:
  3718 ;;		Nothing
  3719 ;; This function is called by:
  3720 ;;		_efgtoa
  3721 ;; This function uses a non-reentrant model
  3722 ;;
  3723                           
  3724     0015                     _strcpy:	
  3725                           ;psect for function _strcpy
  3726                           
  3727                           
  3728                           ;incstack = 0
  3729 ;; hardware stack exceeded
  3730                           ; Regs used in _strcpy: [wreg-fsr0h+status,2+status,0+btemp+1+pclath]
  3731                           ;strcpy@dest stored from wreg
  3732     0015  00F3               	movwf	strcpy@dest
  3733     0016                     i1l3094:
  3734     0016  0873               	movf	strcpy@dest,w
  3735     0017  00F2               	movwf	strcpy@d
  3736     0018                     i1l3096:
  3737     0018  3001               	movlw	1
  3738     0019  07F1               	addwf	strcpy@src,f
  3739     001A  30FF               	movlw	-1
  3740     001B  0771               	addwf	strcpy@src,w
  3741     001C  0084               	movwf	4
  3742     001D  160A  118A  200A  120A  118A  	fcall	stringdir
  3743     0022  00FF               	movwf	btemp+1
  3744     0023  0872               	movf	strcpy@d,w
  3745     0024  0084               	movwf	4
  3746     0025  3001               	movlw	1
  3747     0026  07F2               	addwf	strcpy@d,f
  3748     0027  087F               	movf	btemp+1,w
  3749     0028  1783               	bsf	3,7	;select IRP bank2
  3750     0029  0080               	movwf	0
  3751     002A  0800               	movf	0,w
  3752     002B  1D03               	btfss	3,2
  3753     002C  282E               	goto	u436_21
  3754     002D  282F               	goto	u436_20
  3755     002E                     u436_21:
  3756     002E  2818               	goto	i1l3096
  3757     002F                     u436_20:
  3758     002F                     i1l900:
  3759     002F  0008               	return
  3760     0030                     __end_of_strcpy:
  3761                           
  3762                           	psect	text14
  3763     1DDD                     __ptext14:	
  3764 ;; *************** function _memcpy *****************
  3765 ;; Defined at:
  3766 ;;		line 4 in file "C:\Program Files\Microchip\xc8\v2.45\pic\sources\c99\common\memcpy.c"
  3767 ;; Parameters:    Size  Location     Type
  3768 ;;  d1              1    wreg     PTR void 
  3769 ;;		 -> dbuf(80), 
  3770 ;;  s1              1    0[COMMON] PTR const void 
  3771 ;;		 -> dbuf(80), 
  3772 ;;  n               2    1[COMMON] unsigned int 
  3773 ;; Auto vars:     Size  Location     Type
  3774 ;;  d1              1    4[COMMON] PTR void 
  3775 ;;		 -> dbuf(80), 
  3776 ;;  s               1    6[COMMON] PTR const unsigned char 
  3777 ;;		 -> dbuf(80), 
  3778 ;;  d               1    5[COMMON] PTR unsigned char 
  3779 ;;		 -> dbuf(80), 
  3780 ;;  tmp             1    3[COMMON] unsigned char 
  3781 ;; Return value:  Size  Location     Type
  3782 ;;                  1    wreg      PTR void 
  3783 ;; Registers used:
  3784 ;;		wreg, fsr0l, fsr0h, status,2, status,0, btemp+1
  3785 ;; Tracked objects:
  3786 ;;		On entry : 0/0
  3787 ;;		On exit  : 0/0
  3788 ;;		Unchanged: 0/0
  3789 ;; Data sizes:     COMMON   BANK0   BANK1   BANK3   BANK2
  3790 ;;      Params:         3       0       0       0       0
  3791 ;;      Locals:         4       0       0       0       0
  3792 ;;      Temps:          0       0       0       0       0
  3793 ;;      Totals:         7       0       0       0       0
  3794 ;;Total ram usage:        7 bytes
  3795 ;; Hardware stack levels used: 1
  3796 ;; This function calls:
  3797 ;;		Nothing
  3798 ;; This function is called by:
  3799 ;;		_efgtoa
  3800 ;; This function uses a non-reentrant model
  3801 ;;
  3802                           
  3803     1DDD                     _memcpy:	
  3804                           ;psect for function _memcpy
  3805                           
  3806                           
  3807                           ;incstack = 0
  3808                           ; Regs used in _memcpy: [wreg-fsr0h+status,2+status,0+btemp+1]
  3809                           ;memcpy@d1 stored from wreg
  3810     1DDD  00F5               	movwf	memcpy@d1
  3811     1DDE                     i1l3136:
  3812     1DDE  0871               	movf	memcpy@s1,w
  3813     1DDF  00F7               	movwf	memcpy@s
  3814     1DE0  0875               	movf	memcpy@d1,w
  3815     1DE1  00F6               	movwf	memcpy@d
  3816     1DE2  2DF4               	goto	i1l3144
  3817     1DE3                     i1l3138:
  3818     1DE3  0877               	movf	memcpy@s,w
  3819     1DE4  0084               	movwf	4
  3820     1DE5  1783               	bsf	3,7	;select IRP bank2
  3821     1DE6  0800               	movf	0,w
  3822     1DE7  00F4               	movwf	memcpy@tmp
  3823     1DE8                     i1l3140:
  3824     1DE8  3001               	movlw	1
  3825     1DE9  00FF               	movwf	btemp+1
  3826     1DEA  087F               	movf	btemp+1,w
  3827     1DEB  07F7               	addwf	memcpy@s,f
  3828     1DEC                     i1l3142:
  3829     1DEC  0876               	movf	memcpy@d,w
  3830     1DED  0084               	movwf	4
  3831     1DEE  0874               	movf	memcpy@tmp,w
  3832     1DEF  0080               	movwf	0
  3833     1DF0  3001               	movlw	1
  3834     1DF1  00FF               	movwf	btemp+1
  3835     1DF2  087F               	movf	btemp+1,w
  3836     1DF3  07F6               	addwf	memcpy@d,f
  3837     1DF4                     i1l3144:
  3838     1DF4  3001               	movlw	1
  3839     1DF5  02F2               	subwf	memcpy@n,f
  3840     1DF6  3000               	movlw	0
  3841     1DF7  1C03               	skipc
  3842     1DF8  03F3               	decf	memcpy@n+1,f
  3843     1DF9  02F3               	subwf	memcpy@n+1,f
  3844     1DFA  0A72               	incf	memcpy@n,w
  3845     1DFB  1D03               	skipz
  3846     1DFC  2E01               	goto	u450_21
  3847     1DFD  0A73               	incf	memcpy@n+1,w
  3848     1DFE  1D03               	btfss	3,2
  3849     1DFF  2E01               	goto	u450_21
  3850     1E00  2E02               	goto	u450_20
  3851     1E01                     u450_21:
  3852     1E01  2DE3               	goto	i1l3138
  3853     1E02                     u450_20:
  3854     1E02                     i1l874:
  3855     1E02  0008               	return
  3856     1E03                     __end_of_memcpy:
  3857                           
  3858                           	psect	text15
  3859     1D28                     __ptext15:	
  3860 ;; *************** function _labs *****************
  3861 ;; Defined at:
  3862 ;;		line 1 in file "C:\Program Files\Microchip\xc8\v2.45\pic\sources\c99\common\labs.c"
  3863 ;; Parameters:    Size  Location     Type
  3864 ;;  a               4    0[COMMON] long 
  3865 ;; Auto vars:     Size  Location     Type
  3866 ;;		None
  3867 ;; Return value:  Size  Location     Type
  3868 ;;                  4    0[COMMON] long 
  3869 ;; Registers used:
  3870 ;;		wreg, status,2, status,0
  3871 ;; Tracked objects:
  3872 ;;		On entry : 0/0
  3873 ;;		On exit  : 0/0
  3874 ;;		Unchanged: 0/0
  3875 ;; Data sizes:     COMMON   BANK0   BANK1   BANK3   BANK2
  3876 ;;      Params:         4       0       0       0       0
  3877 ;;      Locals:         0       0       0       0       0
  3878 ;;      Temps:          0       0       0       0       0
  3879 ;;      Totals:         4       0       0       0       0
  3880 ;;Total ram usage:        4 bytes
  3881 ;; Hardware stack levels used: 1
  3882 ;; This function calls:
  3883 ;;		Nothing
  3884 ;; This function is called by:
  3885 ;;		_efgtoa
  3886 ;; This function uses a non-reentrant model
  3887 ;;
  3888                           
  3889     1D28                     _labs:	
  3890                           ;psect for function _labs
  3891                           
  3892     1D28                     i1l3098:	
  3893                           ;incstack = 0
  3894                           ; Regs used in _labs: [wreg+status,2+status,0]
  3895                           
  3896     1D28  1BF4               	btfsc	labs@a+3,7
  3897     1D29  2D2B               	goto	u437_21
  3898     1D2A  2D2C               	goto	u437_20
  3899     1D2B                     u437_21:
  3900     1D2B  2D2D               	goto	i1l3102
  3901     1D2C                     u437_20:
  3902     1D2C                     i1l3100:
  3903     1D2C  2D3C               	goto	i1l868
  3904     1D2D                     i1l3102:
  3905     1D2D  0971               	comf	labs@a,w
  3906     1D2E  00F1               	movwf	?_labs
  3907     1D2F  0972               	comf	labs@a+1,w
  3908     1D30  00F2               	movwf	?_labs+1
  3909     1D31  0973               	comf	labs@a+2,w
  3910     1D32  00F3               	movwf	?_labs+2
  3911     1D33  0974               	comf	labs@a+3,w
  3912     1D34  00F4               	movwf	?_labs+3
  3913     1D35  0AF1               	incf	?_labs,f
  3914     1D36  1903               	skipnz
  3915     1D37  0AF2               	incf	?_labs+1,f
  3916     1D38  1903               	skipnz
  3917     1D39  0AF3               	incf	?_labs+2,f
  3918     1D3A  1903               	skipnz
  3919     1D3B  0AF4               	incf	?_labs+3,f
  3920     1D3C                     i1l868:
  3921     1D3C  0008               	return
  3922     1D3D                     __end_of_labs:
  3923                           
  3924                           	psect	text16
  3925     13F9                     __ptext16:	
  3926 ;; *************** function _floorf *****************
  3927 ;; Defined at:
  3928 ;;		line 3 in file "C:\Program Files\Microchip\xc8\v2.45\pic\sources\c99\common\floorf.c"
  3929 ;; Parameters:    Size  Location     Type
  3930 ;;  x               4   13[BANK0 ] float 
  3931 ;; Auto vars:     Size  Location     Type
  3932 ;;  u               4   29[BANK0 ] struct .
  3933 ;;  m               4   23[BANK0 ] unsigned long 
  3934 ;;  e               2   27[BANK0 ] int 
  3935 ;; Return value:  Size  Location     Type
  3936 ;;                  4   13[BANK0 ] float 
  3937 ;; Registers used:
  3938 ;;		wreg, status,2, status,0, btemp+1
  3939 ;; Tracked objects:
  3940 ;;		On entry : 0/0
  3941 ;;		On exit  : 0/0
  3942 ;;		Unchanged: 0/0
  3943 ;; Data sizes:     COMMON   BANK0   BANK1   BANK3   BANK2
  3944 ;;      Params:         0       4       0       0       0
  3945 ;;      Locals:         0      10       0       0       0
  3946 ;;      Temps:          0       6       0       0       0
  3947 ;;      Totals:         0      20       0       0       0
  3948 ;;Total ram usage:       20 bytes
  3949 ;; Hardware stack levels used: 1
  3950 ;; This function calls:
  3951 ;;		Nothing
  3952 ;; This function is called by:
  3953 ;;		_efgtoa
  3954 ;; This function uses a non-reentrant model
  3955 ;;
  3956                           
  3957     13F9                     _floorf:	
  3958                           ;psect for function _floorf
  3959                           
  3960     13F9                     i1l3106:	
  3961                           ;incstack = 0
  3962                           ; Regs used in _floorf: [wreg+status,2+status,0+btemp+1]
  3963                           
  3964     13F9  1283               	bcf	3,5	;RP0=0, select bank0
  3965     13FA  1303               	bcf	3,6	;RP1=0, select bank0
  3966     13FB  0861               	movf	floorf@F521+3,w
  3967     13FC  00C0               	movwf	floorf@u+3
  3968     13FD  0860               	movf	floorf@F521+2,w
  3969     13FE  00BF               	movwf	floorf@u+2
  3970     13FF  085F               	movf	floorf@F521+1,w
  3971     1400  00BE               	movwf	floorf@u+1
  3972     1401  085E               	movf	floorf@F521,w
  3973     1402  00BD               	movwf	floorf@u
  3974     1403  0830               	movf	floorf@x+3,w
  3975     1404  00C0               	movwf	floorf@u+3
  3976     1405  082F               	movf	floorf@x+2,w
  3977     1406  00BF               	movwf	floorf@u+2
  3978     1407  082E               	movf	floorf@x+1,w
  3979     1408  00BE               	movwf	floorf@u+1
  3980     1409  082D               	movf	floorf@x,w
  3981     140A  00BD               	movwf	floorf@u
  3982     140B                     i1l3108:
  3983     140B  083D               	movf	floorf@u,w
  3984     140C  00B1               	movwf	??_floorf
  3985     140D  083E               	movf	floorf@u+1,w
  3986     140E  00B2               	movwf	??_floorf+1
  3987     140F  083F               	movf	floorf@u+2,w
  3988     1410  00B3               	movwf	??_floorf+2
  3989     1411  0840               	movf	floorf@u+3,w
  3990     1412  00B4               	movwf	??_floorf+3
  3991     1413  3017               	movlw	23
  3992     1414                     u438_25:
  3993     1414  1003               	clrc
  3994     1415  0CB4               	rrf	??_floorf+3,f
  3995     1416  0CB3               	rrf	??_floorf+2,f
  3996     1417  0CB2               	rrf	??_floorf+1,f
  3997     1418  0CB1               	rrf	??_floorf,f
  3998     1419                     u438_20:
  3999     1419  3EFF               	addlw	-1
  4000     141A  1D03               	skipz
  4001     141B  2C14               	goto	u438_25
  4002     141C  30FF               	movlw	255
  4003     141D  0531               	andwf	??_floorf,w
  4004     141E  00B5               	movwf	??_floorf+4
  4005     141F  3000               	movlw	0
  4006     1420  0532               	andwf	??_floorf+1,w
  4007     1421  00B6               	movwf	??_floorf+5
  4008     1422  0835               	movf	??_floorf+4,w
  4009     1423  3E81               	addlw	129
  4010     1424  00BB               	movwf	floorf@e
  4011     1425  0836               	movf	??_floorf+5,w
  4012     1426  1803               	skipnc
  4013     1427  3E01               	addlw	1
  4014     1428  3EFF               	addlw	255
  4015     1429  00BC               	movwf	floorf@e+1
  4016     142A                     i1l3110:
  4017     142A  083C               	movf	floorf@e+1,w
  4018     142B  3A80               	xorlw	128
  4019     142C  00FF               	movwf	btemp+1
  4020     142D  3080               	movlw	128
  4021     142E  027F               	subwf	btemp+1,w
  4022     142F  1D03               	skipz
  4023     1430  2C33               	goto	u439_25
  4024     1431  3017               	movlw	23
  4025     1432  023B               	subwf	floorf@e,w
  4026     1433                     u439_25:
  4027     1433  1C03               	skipc
  4028     1434  2C36               	goto	u439_21
  4029     1435  2C37               	goto	u439_20
  4030     1436                     u439_21:
  4031     1436  2C38               	goto	i1l853
  4032     1437                     u439_20:
  4033     1437                     i1l3112:
  4034     1437  2CF9               	goto	i1l854
  4035     1438                     i1l853:
  4036     1438  1283               	bcf	3,5	;RP0=0, select bank0
  4037     1439  1303               	bcf	3,6	;RP1=0, select bank0
  4038     143A  1BBC               	btfsc	floorf@e+1,7
  4039     143B  2C3D               	goto	u440_21
  4040     143C  2C3E               	goto	u440_20
  4041     143D                     u440_21:
  4042     143D  2CAE               	goto	i1l3126
  4043     143E                     u440_20:
  4044     143E                     i1l3114:
  4045     143E  0A3B               	incf	floorf@e,w
  4046     143F  00FF               	movwf	btemp+1
  4047     1440  30FF               	movlw	255
  4048     1441  00B1               	movwf	??_floorf
  4049     1442  30FF               	movlw	255
  4050     1443  00B2               	movwf	??_floorf+1
  4051     1444  307F               	movlw	127
  4052     1445  00B3               	movwf	??_floorf+2
  4053     1446  3000               	movlw	0
  4054     1447  00B4               	movwf	??_floorf+3
  4055     1448  2C4E               	goto	u441_20
  4056     1449                     u441_25:
  4057     1449  0D34               	rlf	??_floorf+3,w
  4058     144A  0CB4               	rrf	??_floorf+3,f
  4059     144B  0CB3               	rrf	??_floorf+2,f
  4060     144C  0CB2               	rrf	??_floorf+1,f
  4061     144D  0CB1               	rrf	??_floorf,f
  4062     144E                     u441_20:
  4063     144E  0BFF               	decfsz	btemp+1,f
  4064     144F  2C49               	goto	u441_25
  4065     1450  0834               	movf	??_floorf+3,w
  4066     1451  00BA               	movwf	floorf@m+3
  4067     1452  0833               	movf	??_floorf+2,w
  4068     1453  00B9               	movwf	floorf@m+2
  4069     1454  0832               	movf	??_floorf+1,w
  4070     1455  00B8               	movwf	floorf@m+1
  4071     1456  0831               	movf	??_floorf,w
  4072     1457  00B7               	movwf	floorf@m
  4073     1458                     i1l3116:
  4074     1458  0837               	movf	floorf@m,w
  4075     1459  053D               	andwf	floorf@u,w
  4076     145A  00B1               	movwf	??_floorf
  4077     145B  0838               	movf	floorf@m+1,w
  4078     145C  053E               	andwf	floorf@u+1,w
  4079     145D  00B2               	movwf	??_floorf+1
  4080     145E  0839               	movf	floorf@m+2,w
  4081     145F  053F               	andwf	floorf@u+2,w
  4082     1460  00B3               	movwf	??_floorf+2
  4083     1461  083A               	movf	floorf@m+3,w
  4084     1462  0540               	andwf	floorf@u+3,w
  4085     1463  00B4               	movwf	??_floorf+3
  4086     1464  0834               	movf	??_floorf+3,w
  4087     1465  0433               	iorwf	??_floorf+2,w
  4088     1466  0432               	iorwf	??_floorf+1,w
  4089     1467  0431               	iorwf	??_floorf,w
  4090     1468  1D03               	skipz
  4091     1469  2C6B               	goto	u442_21
  4092     146A  2C6C               	goto	u442_20
  4093     146B                     u442_21:
  4094     146B  2C6D               	goto	i1l3120
  4095     146C                     u442_20:
  4096     146C  2C37               	goto	i1l3112
  4097     146D                     i1l3120:
  4098     146D  083D               	movf	floorf@u,w
  4099     146E  00B1               	movwf	??_floorf
  4100     146F  083E               	movf	floorf@u+1,w
  4101     1470  00B2               	movwf	??_floorf+1
  4102     1471  083F               	movf	floorf@u+2,w
  4103     1472  00B3               	movwf	??_floorf+2
  4104     1473  0840               	movf	floorf@u+3,w
  4105     1474  00B4               	movwf	??_floorf+3
  4106     1475  301F               	movlw	31
  4107     1476                     u443_25:
  4108     1476  1003               	clrc
  4109     1477  0CB4               	rrf	??_floorf+3,f
  4110     1478  0CB3               	rrf	??_floorf+2,f
  4111     1479  0CB2               	rrf	??_floorf+1,f
  4112     147A  0CB1               	rrf	??_floorf,f
  4113     147B                     u443_20:
  4114     147B  3EFF               	addlw	-1
  4115     147C  1D03               	skipz
  4116     147D  2C76               	goto	u443_25
  4117     147E  0834               	movf	??_floorf+3,w
  4118     147F  0433               	iorwf	??_floorf+2,w
  4119     1480  0432               	iorwf	??_floorf+1,w
  4120     1481  0431               	iorwf	??_floorf,w
  4121     1482  1903               	skipnz
  4122     1483  2C85               	goto	u444_21
  4123     1484  2C86               	goto	u444_20
  4124     1485                     u444_21:
  4125     1485  2C9D               	goto	i1l3124
  4126     1486                     u444_20:
  4127     1486                     i1l3122:
  4128     1486  0837               	movf	floorf@m,w
  4129     1487  07BD               	addwf	floorf@u,f
  4130     1488  0838               	movf	floorf@m+1,w
  4131     1489  1103               	clrz
  4132     148A  1803               	skipnc
  4133     148B  3E01               	addlw	1
  4134     148C  1903               	skipnz
  4135     148D  2C8F               	goto	u445_21
  4136     148E  07BE               	addwf	floorf@u+1,f
  4137     148F                     u445_21:
  4138     148F  0839               	movf	floorf@m+2,w
  4139     1490  1103               	clrz
  4140     1491  1803               	skipnc
  4141     1492  3E01               	addlw	1
  4142     1493  1903               	skipnz
  4143     1494  2C96               	goto	u445_22
  4144     1495  07BF               	addwf	floorf@u+2,f
  4145     1496                     u445_22:
  4146     1496  083A               	movf	floorf@m+3,w
  4147     1497  1103               	clrz
  4148     1498  1803               	skipnc
  4149     1499  3E01               	addlw	1
  4150     149A  1903               	skipnz
  4151     149B  2C9D               	goto	u445_23
  4152     149C  07C0               	addwf	floorf@u+3,f
  4153     149D                     u445_23:
  4154     149D                     i1l3124:
  4155     149D  0937               	comf	floorf@m,w
  4156     149E  00B1               	movwf	??_floorf
  4157     149F  0938               	comf	floorf@m+1,w
  4158     14A0  00B2               	movwf	??_floorf+1
  4159     14A1  0939               	comf	floorf@m+2,w
  4160     14A2  00B3               	movwf	??_floorf+2
  4161     14A3  093A               	comf	floorf@m+3,w
  4162     14A4  00B4               	movwf	??_floorf+3
  4163     14A5  0831               	movf	??_floorf,w
  4164     14A6  05BD               	andwf	floorf@u,f
  4165     14A7  0832               	movf	??_floorf+1,w
  4166     14A8  05BE               	andwf	floorf@u+1,f
  4167     14A9  0833               	movf	??_floorf+2,w
  4168     14AA  05BF               	andwf	floorf@u+2,f
  4169     14AB  0834               	movf	??_floorf+3,w
  4170     14AC  05C0               	andwf	floorf@u+3,f
  4171     14AD  2CF1               	goto	i1l858
  4172     14AE                     i1l3126:
  4173     14AE  083D               	movf	floorf@u,w
  4174     14AF  00B1               	movwf	??_floorf
  4175     14B0  083E               	movf	floorf@u+1,w
  4176     14B1  00B2               	movwf	??_floorf+1
  4177     14B2  083F               	movf	floorf@u+2,w
  4178     14B3  00B3               	movwf	??_floorf+2
  4179     14B4  0840               	movf	floorf@u+3,w
  4180     14B5  00B4               	movwf	??_floorf+3
  4181     14B6  301F               	movlw	31
  4182     14B7                     u446_25:
  4183     14B7  1003               	clrc
  4184     14B8  0CB4               	rrf	??_floorf+3,f
  4185     14B9  0CB3               	rrf	??_floorf+2,f
  4186     14BA  0CB2               	rrf	??_floorf+1,f
  4187     14BB  0CB1               	rrf	??_floorf,f
  4188     14BC                     u446_20:
  4189     14BC  3EFF               	addlw	-1
  4190     14BD  1D03               	skipz
  4191     14BE  2CB7               	goto	u446_25
  4192     14BF  0834               	movf	??_floorf+3,w
  4193     14C0  0433               	iorwf	??_floorf+2,w
  4194     14C1  0432               	iorwf	??_floorf+1,w
  4195     14C2  0431               	iorwf	??_floorf,w
  4196     14C3  1D03               	skipz
  4197     14C4  2CC6               	goto	u447_21
  4198     14C5  2CC7               	goto	u447_20
  4199     14C6                     u447_21:
  4200     14C6  2CD0               	goto	i1l3130
  4201     14C7                     u447_20:
  4202     14C7                     i1l3128:
  4203     14C7  3000               	movlw	0
  4204     14C8  00C0               	movwf	floorf@u+3
  4205     14C9  3000               	movlw	0
  4206     14CA  00BF               	movwf	floorf@u+2
  4207     14CB  3000               	movlw	0
  4208     14CC  00BE               	movwf	floorf@u+1
  4209     14CD  3000               	movlw	0
  4210     14CE  00BD               	movwf	floorf@u
  4211     14CF  2CF1               	goto	i1l858
  4212     14D0                     i1l3130:
  4213     14D0  083D               	movf	floorf@u,w
  4214     14D1  00B1               	movwf	??_floorf
  4215     14D2  083E               	movf	floorf@u+1,w
  4216     14D3  00B2               	movwf	??_floorf+1
  4217     14D4  083F               	movf	floorf@u+2,w
  4218     14D5  00B3               	movwf	??_floorf+2
  4219     14D6  0840               	movf	floorf@u+3,w
  4220     14D7  00B4               	movwf	??_floorf+3
  4221     14D8  3001               	movlw	1
  4222     14D9                     u448_25:
  4223     14D9  1003               	clrc
  4224     14DA  0DB1               	rlf	??_floorf,f
  4225     14DB  0DB2               	rlf	??_floorf+1,f
  4226     14DC  0DB3               	rlf	??_floorf+2,f
  4227     14DD  0DB4               	rlf	??_floorf+3,f
  4228     14DE                     u448_20:
  4229     14DE  3EFF               	addlw	-1
  4230     14DF  1D03               	skipz
  4231     14E0  2CD9               	goto	u448_25
  4232     14E1  0834               	movf	??_floorf+3,w
  4233     14E2  0433               	iorwf	??_floorf+2,w
  4234     14E3  0432               	iorwf	??_floorf+1,w
  4235     14E4  0431               	iorwf	??_floorf,w
  4236     14E5  1903               	skipnz
  4237     14E6  2CE8               	goto	u449_21
  4238     14E7  2CE9               	goto	u449_20
  4239     14E8                     u449_21:
  4240     14E8  2CF1               	goto	i1l858
  4241     14E9                     u449_20:
  4242     14E9                     i1l3132:
  4243     14E9  30BF               	movlw	191
  4244     14EA  00C0               	movwf	floorf@u+3
  4245     14EB  3080               	movlw	128
  4246     14EC  00BF               	movwf	floorf@u+2
  4247     14ED  3000               	movlw	0
  4248     14EE  00BE               	movwf	floorf@u+1
  4249     14EF  3000               	movlw	0
  4250     14F0  00BD               	movwf	floorf@u
  4251     14F1                     i1l858:
  4252     14F1  0840               	movf	floorf@u+3,w
  4253     14F2  00B0               	movwf	?_floorf+3
  4254     14F3  083F               	movf	floorf@u+2,w
  4255     14F4  00AF               	movwf	?_floorf+2
  4256     14F5  083E               	movf	floorf@u+1,w
  4257     14F6  00AE               	movwf	?_floorf+1
  4258     14F7  083D               	movf	floorf@u,w
  4259     14F8  00AD               	movwf	?_floorf
  4260     14F9                     i1l854:
  4261     14F9  0008               	return
  4262     14FA                     __end_of_floorf:
  4263                           
  4264                           	psect	text17
  4265     0802                     __ptext17:	
  4266 ;; *************** function ___fpclassifyf *****************
  4267 ;; Defined at:
  4268 ;;		line 4 in file "C:\Program Files\Microchip\xc8\v2.45\pic\sources\c99\common\__fpclassifyf.c"
  4269 ;; Parameters:    Size  Location     Type
  4270 ;;  x               4    0[COMMON] float 
  4271 ;; Auto vars:     Size  Location     Type
  4272 ;;  u               4    2[BANK0 ] struct .
  4273 ;;  e               2    0[BANK0 ] int 
  4274 ;; Return value:  Size  Location     Type
  4275 ;;                  2    0[COMMON] int 
  4276 ;; Registers used:
  4277 ;;		wreg, status,2, status,0
  4278 ;; Tracked objects:
  4279 ;;		On entry : 0/0
  4280 ;;		On exit  : 0/0
  4281 ;;		Unchanged: 0/0
  4282 ;; Data sizes:     COMMON   BANK0   BANK1   BANK3   BANK2
  4283 ;;      Params:         4       0       0       0       0
  4284 ;;      Locals:         0       6       0       0       0
  4285 ;;      Temps:          6       0       0       0       0
  4286 ;;      Totals:        10       6       0       0       0
  4287 ;;Total ram usage:       16 bytes
  4288 ;; Hardware stack levels used: 1
  4289 ;; This function calls:
  4290 ;;		Nothing
  4291 ;; This function is called by:
  4292 ;;		_efgtoa
  4293 ;; This function uses a non-reentrant model
  4294 ;;
  4295                           
  4296     0802                     ___fpclassifyf:	
  4297                           ;psect for function ___fpclassifyf
  4298                           
  4299     0802                     i1l3070:	
  4300                           ;incstack = 0
  4301                           ; Regs used in ___fpclassifyf: [wreg+status,2+status,0]
  4302                           
  4303     0802  1283               	bcf	3,5	;RP0=0, select bank0
  4304     0803  1303               	bcf	3,6	;RP1=0, select bank0
  4305     0804  0865               	movf	___fpclassifyf@F465+3,w
  4306     0805  00A5               	movwf	___fpclassifyf@u+3
  4307     0806  0864               	movf	___fpclassifyf@F465+2,w
  4308     0807  00A4               	movwf	___fpclassifyf@u+2
  4309     0808  0863               	movf	___fpclassifyf@F465+1,w
  4310     0809  00A3               	movwf	___fpclassifyf@u+1
  4311     080A  0862               	movf	___fpclassifyf@F465,w
  4312     080B  00A2               	movwf	___fpclassifyf@u
  4313     080C  0874               	movf	___fpclassifyf@x+3,w
  4314     080D  00A5               	movwf	___fpclassifyf@u+3
  4315     080E  0873               	movf	___fpclassifyf@x+2,w
  4316     080F  00A4               	movwf	___fpclassifyf@u+2
  4317     0810  0872               	movf	___fpclassifyf@x+1,w
  4318     0811  00A3               	movwf	___fpclassifyf@u+1
  4319     0812  0871               	movf	___fpclassifyf@x,w
  4320     0813  00A2               	movwf	___fpclassifyf@u
  4321     0814                     i1l3072:
  4322     0814  0822               	movf	___fpclassifyf@u,w
  4323     0815  00F5               	movwf	??___fpclassifyf
  4324     0816  0823               	movf	___fpclassifyf@u+1,w
  4325     0817  00F6               	movwf	??___fpclassifyf+1
  4326     0818  0824               	movf	___fpclassifyf@u+2,w
  4327     0819  00F7               	movwf	??___fpclassifyf+2
  4328     081A  0825               	movf	___fpclassifyf@u+3,w
  4329     081B  00F8               	movwf	??___fpclassifyf+3
  4330     081C  3017               	movlw	23
  4331     081D                     u428_25:
  4332     081D  1003               	clrc
  4333     081E  0CF8               	rrf	??___fpclassifyf+3,f
  4334     081F  0CF7               	rrf	??___fpclassifyf+2,f
  4335     0820  0CF6               	rrf	??___fpclassifyf+1,f
  4336     0821  0CF5               	rrf	??___fpclassifyf,f
  4337     0822                     u428_20:
  4338     0822  3EFF               	addlw	-1
  4339     0823  1D03               	skipz
  4340     0824  281D               	goto	u428_25
  4341     0825  30FF               	movlw	255
  4342     0826  0575               	andwf	??___fpclassifyf,w
  4343     0827  00A0               	movwf	___fpclassifyf@e
  4344     0828  3000               	movlw	0
  4345     0829  0576               	andwf	??___fpclassifyf+1,w
  4346     082A  00A1               	movwf	___fpclassifyf@e+1
  4347     082B                     i1l3074:
  4348     082B  0820               	movf	___fpclassifyf@e,w
  4349     082C  0421               	iorwf	___fpclassifyf@e+1,w
  4350     082D  1D03               	btfss	3,2
  4351     082E  2830               	goto	u429_21
  4352     082F  2831               	goto	u429_20
  4353     0830                     u429_21:
  4354     0830  2854               	goto	i1l3084
  4355     0831                     u429_20:
  4356     0831                     i1l3076:
  4357     0831  0822               	movf	___fpclassifyf@u,w
  4358     0832  00F5               	movwf	??___fpclassifyf
  4359     0833  0823               	movf	___fpclassifyf@u+1,w
  4360     0834  00F6               	movwf	??___fpclassifyf+1
  4361     0835  0824               	movf	___fpclassifyf@u+2,w
  4362     0836  00F7               	movwf	??___fpclassifyf+2
  4363     0837  0825               	movf	___fpclassifyf@u+3,w
  4364     0838  00F8               	movwf	??___fpclassifyf+3
  4365     0839  3001               	movlw	1
  4366     083A                     u430_25:
  4367     083A  1003               	clrc
  4368     083B  0DF5               	rlf	??___fpclassifyf,f
  4369     083C  0DF6               	rlf	??___fpclassifyf+1,f
  4370     083D  0DF7               	rlf	??___fpclassifyf+2,f
  4371     083E  0DF8               	rlf	??___fpclassifyf+3,f
  4372     083F                     u430_20:
  4373     083F  3EFF               	addlw	-1
  4374     0840  1D03               	skipz
  4375     0841  283A               	goto	u430_25
  4376     0842  0878               	movf	??___fpclassifyf+3,w
  4377     0843  0477               	iorwf	??___fpclassifyf+2,w
  4378     0844  0476               	iorwf	??___fpclassifyf+1,w
  4379     0845  0475               	iorwf	??___fpclassifyf,w
  4380     0846  1D03               	skipz
  4381     0847  2849               	goto	u431_21
  4382     0848  284A               	goto	u431_20
  4383     0849                     u431_21:
  4384     0849  284F               	goto	i1l3080
  4385     084A                     u431_20:
  4386     084A                     i1l3078:
  4387     084A  3002               	movlw	2
  4388     084B  00F1               	movwf	?___fpclassifyf
  4389     084C  3000               	movlw	0
  4390     084D  00F2               	movwf	?___fpclassifyf+1
  4391     084E  2880               	goto	i1l840
  4392     084F                     i1l3080:
  4393     084F  3003               	movlw	3
  4394     0850  00F1               	movwf	?___fpclassifyf
  4395     0851  3000               	movlw	0
  4396     0852  00F2               	movwf	?___fpclassifyf+1
  4397     0853  2880               	goto	i1l840
  4398     0854                     i1l3084:
  4399     0854  0A20               	incf	___fpclassifyf@e,w
  4400     0855  0421               	iorwf	___fpclassifyf@e+1,w
  4401     0856  1D03               	btfss	3,2
  4402     0857  2859               	goto	u432_21
  4403     0858  285A               	goto	u432_20
  4404     0859                     u432_21:
  4405     0859  287C               	goto	i1l3090
  4406     085A                     u432_20:
  4407     085A                     i1l3086:
  4408     085A  0822               	movf	___fpclassifyf@u,w
  4409     085B  00F5               	movwf	??___fpclassifyf
  4410     085C  0823               	movf	___fpclassifyf@u+1,w
  4411     085D  00F6               	movwf	??___fpclassifyf+1
  4412     085E  0824               	movf	___fpclassifyf@u+2,w
  4413     085F  00F7               	movwf	??___fpclassifyf+2
  4414     0860  0825               	movf	___fpclassifyf@u+3,w
  4415     0861  00F8               	movwf	??___fpclassifyf+3
  4416     0862  3009               	movlw	9
  4417     0863                     u433_25:
  4418     0863  1003               	clrc
  4419     0864  0DF5               	rlf	??___fpclassifyf,f
  4420     0865  0DF6               	rlf	??___fpclassifyf+1,f
  4421     0866  0DF7               	rlf	??___fpclassifyf+2,f
  4422     0867  0DF8               	rlf	??___fpclassifyf+3,f
  4423     0868                     u433_20:
  4424     0868  3EFF               	addlw	-1
  4425     0869  1D03               	skipz
  4426     086A  2863               	goto	u433_25
  4427     086B  0878               	movf	??___fpclassifyf+3,w
  4428     086C  0477               	iorwf	??___fpclassifyf+2,w
  4429     086D  0476               	iorwf	??___fpclassifyf+1,w
  4430     086E  0475               	iorwf	??___fpclassifyf,w
  4431     086F  1903               	skipnz
  4432     0870  2872               	goto	u434_21
  4433     0871  2874               	goto	u434_20
  4434     0872                     u434_21:
  4435     0872  3001               	movlw	1
  4436     0873  2875               	goto	u435_20
  4437     0874                     u434_20:
  4438     0874  3000               	movlw	0
  4439     0875                     u435_20:
  4440     0875  00F9               	movwf	??___fpclassifyf+4
  4441     0876  01FA               	clrf	??___fpclassifyf+5
  4442     0877  0879               	movf	??___fpclassifyf+4,w
  4443     0878  00F1               	movwf	?___fpclassifyf
  4444     0879  087A               	movf	??___fpclassifyf+5,w
  4445     087A  00F2               	movwf	?___fpclassifyf+1
  4446     087B  2880               	goto	i1l840
  4447     087C                     i1l3090:
  4448     087C  3004               	movlw	4
  4449     087D  00F1               	movwf	?___fpclassifyf
  4450     087E  3000               	movlw	0
  4451     087F  00F2               	movwf	?___fpclassifyf+1
  4452     0880                     i1l840:
  4453     0880  0008               	return
  4454     0881                     __end_of___fpclassifyf:
  4455                           
  4456                           	psect	text18
  4457     1238                     __ptext18:	
  4458 ;; *************** function ___fltol *****************
  4459 ;; Defined at:
  4460 ;;		line 43 in file "C:\Program Files\Microchip\xc8\v2.45\pic\sources\c99\common\fltol.c"
  4461 ;; Parameters:    Size  Location     Type
  4462 ;;  f1              4    0[COMMON] int 
  4463 ;; Auto vars:     Size  Location     Type
  4464 ;;  exp1            1    9[COMMON] unsigned char 
  4465 ;;  sign1           1    8[COMMON] unsigned char 
  4466 ;; Return value:  Size  Location     Type
  4467 ;;                  4    0[COMMON] long 
  4468 ;; Registers used:
  4469 ;;		wreg, status,2, status,0, btemp+1
  4470 ;; Tracked objects:
  4471 ;;		On entry : 0/0
  4472 ;;		On exit  : 0/0
  4473 ;;		Unchanged: 0/0
  4474 ;; Data sizes:     COMMON   BANK0   BANK1   BANK3   BANK2
  4475 ;;      Params:         4       0       0       0       0
  4476 ;;      Locals:         2       0       0       0       0
  4477 ;;      Temps:          4       0       0       0       0
  4478 ;;      Totals:        10       0       0       0       0
  4479 ;;Total ram usage:       10 bytes
  4480 ;; Hardware stack levels used: 1
  4481 ;; This function calls:
  4482 ;;		Nothing
  4483 ;; This function is called by:
  4484 ;;		_efgtoa
  4485 ;; This function uses a non-reentrant model
  4486 ;;
  4487                           
  4488     1238                     ___fltol:	
  4489                           ;psect for function ___fltol
  4490                           
  4491     1238                     i1l2718:	
  4492                           ;incstack = 0
  4493                           ; Regs used in ___fltol: [wreg+status,2+status,0+btemp+1]
  4494                           
  4495     1238  1003               	clrc
  4496     1239  0D73               	rlf	___fltol@f1+2,w
  4497     123A  0D74               	rlf	___fltol@f1+3,w
  4498     123B  00FA               	movwf	___fltol@exp1
  4499     123C  087A               	movf	___fltol@exp1,w
  4500     123D  1D03               	btfss	3,2
  4501     123E  2A40               	goto	u348_21
  4502     123F  2A41               	goto	u348_20
  4503     1240                     u348_21:
  4504     1240  2A4A               	goto	i1l2724
  4505     1241                     u348_20:
  4506     1241                     i1l2720:
  4507     1241  3000               	movlw	0
  4508     1242  00F4               	movwf	?___fltol+3
  4509     1243  3000               	movlw	0
  4510     1244  00F3               	movwf	?___fltol+2
  4511     1245  3000               	movlw	0
  4512     1246  00F2               	movwf	?___fltol+1
  4513     1247  3000               	movlw	0
  4514     1248  00F1               	movwf	?___fltol
  4515     1249  2AAD               	goto	i1l404
  4516     124A                     i1l2724:
  4517     124A  0871               	movf	___fltol@f1,w
  4518     124B  00F5               	movwf	??___fltol
  4519     124C  0872               	movf	___fltol@f1+1,w
  4520     124D  00F6               	movwf	??___fltol+1
  4521     124E  0873               	movf	___fltol@f1+2,w
  4522     124F  00F7               	movwf	??___fltol+2
  4523     1250  0874               	movf	___fltol@f1+3,w
  4524     1251  00F8               	movwf	??___fltol+3
  4525     1252  301F               	movlw	31
  4526     1253                     u349_25:
  4527     1253  1003               	clrc
  4528     1254  0CF8               	rrf	??___fltol+3,f
  4529     1255  0CF7               	rrf	??___fltol+2,f
  4530     1256  0CF6               	rrf	??___fltol+1,f
  4531     1257  0CF5               	rrf	??___fltol,f
  4532     1258                     u349_20:
  4533     1258  3EFF               	addlw	-1
  4534     1259  1D03               	skipz
  4535     125A  2A53               	goto	u349_25
  4536     125B  0875               	movf	??___fltol,w
  4537     125C  00F9               	movwf	___fltol@sign1
  4538     125D                     i1l2726:
  4539     125D  17F3               	bsf	___fltol@f1+2,7
  4540     125E                     i1l2728:
  4541     125E  30FF               	movlw	255
  4542     125F  05F1               	andwf	___fltol@f1,f
  4543     1260  30FF               	movlw	255
  4544     1261  05F2               	andwf	___fltol@f1+1,f
  4545     1262  30FF               	movlw	255
  4546     1263  05F3               	andwf	___fltol@f1+2,f
  4547     1264  3000               	movlw	0
  4548     1265  05F4               	andwf	___fltol@f1+3,f
  4549     1266                     i1l2730:
  4550     1266  3096               	movlw	150
  4551     1267  02FA               	subwf	___fltol@exp1,f
  4552     1268                     i1l2732:
  4553     1268  1FFA               	btfss	___fltol@exp1,7
  4554     1269  2A6B               	goto	u350_21
  4555     126A  2A6C               	goto	u350_20
  4556     126B                     u350_21:
  4557     126B  2A86               	goto	i1l2744
  4558     126C                     u350_20:
  4559     126C                     i1l2734:
  4560     126C  087A               	movf	___fltol@exp1,w
  4561     126D  3A80               	xorlw	128
  4562     126E  3E97               	addlw	151
  4563     126F  1803               	skipnc
  4564     1270  2A72               	goto	u351_21
  4565     1271  2A73               	goto	u351_20
  4566     1272                     u351_21:
  4567     1272  2A74               	goto	i1l2740
  4568     1273                     u351_20:
  4569     1273  2A41               	goto	i1l2720
  4570     1274                     i1l2740:
  4571     1274  3001               	movlw	1
  4572     1275                     u352_25:
  4573     1275  1003               	clrc
  4574     1276  0CF4               	rrf	___fltol@f1+3,f
  4575     1277  0CF3               	rrf	___fltol@f1+2,f
  4576     1278  0CF2               	rrf	___fltol@f1+1,f
  4577     1279  0CF1               	rrf	___fltol@f1,f
  4578     127A  3EFF               	addlw	-1
  4579     127B  1D03               	skipz
  4580     127C  2A75               	goto	u352_25
  4581     127D                     i1l2742:
  4582     127D  3001               	movlw	1
  4583     127E  00FF               	movwf	btemp+1
  4584     127F  087F               	movf	btemp+1,w
  4585     1280  07FA               	addwf	___fltol@exp1,f
  4586     1281  1D03               	btfss	3,2
  4587     1282  2A84               	goto	u353_21
  4588     1283  2A85               	goto	u353_20
  4589     1284                     u353_21:
  4590     1284  2A74               	goto	i1l2740
  4591     1285                     u353_20:
  4592     1285  2A9D               	goto	i1l2752
  4593     1286                     i1l2744:
  4594     1286  3020               	movlw	32
  4595     1287  027A               	subwf	___fltol@exp1,w
  4596     1288  1C03               	skipc
  4597     1289  2A8B               	goto	u354_21
  4598     128A  2A8C               	goto	u354_20
  4599     128B                     u354_21:
  4600     128B  2A98               	goto	i1l411
  4601     128C                     u354_20:
  4602     128C  2A41               	goto	i1l2720
  4603     128D                     i1l2750:
  4604     128D  3001               	movlw	1
  4605     128E  00F5               	movwf	??___fltol
  4606     128F                     u355_25:
  4607     128F  1003               	clrc
  4608     1290  0DF1               	rlf	___fltol@f1,f
  4609     1291  0DF2               	rlf	___fltol@f1+1,f
  4610     1292  0DF3               	rlf	___fltol@f1+2,f
  4611     1293  0DF4               	rlf	___fltol@f1+3,f
  4612     1294  0BF5               	decfsz	??___fltol,f
  4613     1295  2A8F               	goto	u355_25
  4614     1296  3001               	movlw	1
  4615     1297  02FA               	subwf	___fltol@exp1,f
  4616     1298                     i1l411:
  4617     1298  087A               	movf	___fltol@exp1,w
  4618     1299  1D03               	btfss	3,2
  4619     129A  2A9C               	goto	u356_21
  4620     129B  2A9D               	goto	u356_20
  4621     129C                     u356_21:
  4622     129C  2A8D               	goto	i1l2750
  4623     129D                     u356_20:
  4624     129D                     i1l2752:
  4625     129D  0879               	movf	___fltol@sign1,w
  4626     129E  1903               	btfsc	3,2
  4627     129F  2AA1               	goto	u357_21
  4628     12A0  2AA2               	goto	u357_20
  4629     12A1                     u357_21:
  4630     12A1  2AAD               	goto	i1l414
  4631     12A2                     u357_20:
  4632     12A2                     i1l2754:
  4633     12A2  09F1               	comf	___fltol@f1,f
  4634     12A3  09F2               	comf	___fltol@f1+1,f
  4635     12A4  09F3               	comf	___fltol@f1+2,f
  4636     12A5  09F4               	comf	___fltol@f1+3,f
  4637     12A6  0AF1               	incf	___fltol@f1,f
  4638     12A7  1903               	skipnz
  4639     12A8  0AF2               	incf	___fltol@f1+1,f
  4640     12A9  1903               	skipnz
  4641     12AA  0AF3               	incf	___fltol@f1+2,f
  4642     12AB  1903               	skipnz
  4643     12AC  0AF4               	incf	___fltol@f1+3,f
  4644     12AD                     i1l414:
  4645     12AD                     i1l404:
  4646     12AD  0008               	return
  4647     12AE                     __end_of___fltol:
  4648                           
  4649                           	psect	text19
  4650     1D94                     __ptext19:	
  4651 ;; *************** function ___flsub *****************
  4652 ;; Defined at:
  4653 ;;		line 242 in file "C:\Program Files\Microchip\xc8\v2.45\pic\sources\c99\common\sprcadd.c"
  4654 ;; Parameters:    Size  Location     Type
  4655 ;;  a               4   26[BANK0 ] long 
  4656 ;;  b               4   30[BANK0 ] long 
  4657 ;; Auto vars:     Size  Location     Type
  4658 ;;		None
  4659 ;; Return value:  Size  Location     Type
  4660 ;;                  4   26[BANK0 ] long 
  4661 ;; Registers used:
  4662 ;;		wreg, status,2, status,0, btemp+1, pclath, cstack
  4663 ;; Tracked objects:
  4664 ;;		On entry : 0/0
  4665 ;;		On exit  : 0/0
  4666 ;;		Unchanged: 0/0
  4667 ;; Data sizes:     COMMON   BANK0   BANK1   BANK3   BANK2
  4668 ;;      Params:         0       8       0       0       0
  4669 ;;      Locals:         0       0       0       0       0
  4670 ;;      Temps:          0       0       0       0       0
  4671 ;;      Totals:         0       8       0       0       0
  4672 ;;Total ram usage:        8 bytes
  4673 ;; Hardware stack levels used: 1
  4674 ;; Hardware stack levels required when called: 1
  4675 ;; This function calls:
  4676 ;;		___fladd
  4677 ;; This function is called by:
  4678 ;;		_efgtoa
  4679 ;; This function uses a non-reentrant model
  4680 ;;
  4681                           
  4682     1D94                     ___flsub:	
  4683                           ;psect for function ___flsub
  4684                           
  4685     1D94                     i1l2756:	
  4686                           ;incstack = 0
  4687 ;; hardware stack exceeded
  4688                           ; Regs used in ___flsub: [wreg+status,2+status,0+btemp+1+pclath+cstack]
  4689                           
  4690     1D94  3080               	movlw	128
  4691     1D95  1283               	bcf	3,5	;RP0=0, select bank0
  4692     1D96  1303               	bcf	3,6	;RP1=0, select bank0
  4693     1D97  06BD               	xorwf	___flsub@a+3,f
  4694     1D98                     i1l2758:
  4695     1D98  0841               	movf	___flsub@b+3,w
  4696     1D99  00F4               	movwf	___fladd@b+3
  4697     1D9A  0840               	movf	___flsub@b+2,w
  4698     1D9B  00F3               	movwf	___fladd@b+2
  4699     1D9C  083F               	movf	___flsub@b+1,w
  4700     1D9D  00F2               	movwf	___fladd@b+1
  4701     1D9E  083E               	movf	___flsub@b,w
  4702     1D9F  00F1               	movwf	___fladd@b
  4703     1DA0  083D               	movf	___flsub@a+3,w
  4704     1DA1  00F8               	movwf	___fladd@a+3
  4705     1DA2  083C               	movf	___flsub@a+2,w
  4706     1DA3  00F7               	movwf	___fladd@a+2
  4707     1DA4  083B               	movf	___flsub@a+1,w
  4708     1DA5  00F6               	movwf	___fladd@a+1
  4709     1DA6  083A               	movf	___flsub@a,w
  4710     1DA7  00F5               	movwf	___fladd@a
  4711     1DA8  120A  158A  2257  160A  158A  	fcall	___fladd
  4712     1DAD  0874               	movf	?___fladd+3,w
  4713     1DAE  1283               	bcf	3,5	;RP0=0, select bank0
  4714     1DAF  1303               	bcf	3,6	;RP1=0, select bank0
  4715     1DB0  00BD               	movwf	?___flsub+3
  4716     1DB1  0873               	movf	?___fladd+2,w
  4717     1DB2  00BC               	movwf	?___flsub+2
  4718     1DB3  0872               	movf	?___fladd+1,w
  4719     1DB4  00BB               	movwf	?___flsub+1
  4720     1DB5  0871               	movf	?___fladd,w
  4721     1DB6  00BA               	movwf	?___flsub
  4722     1DB7                     i1l557:
  4723     1DB7  0008               	return
  4724     1DB8                     __end_of___flsub:
  4725                           
  4726                           	psect	text20
  4727     0A57                     __ptext20:	
  4728 ;; *************** function ___fladd *****************
  4729 ;; Defined at:
  4730 ;;		line 10 in file "C:\Program Files\Microchip\xc8\v2.45\pic\sources\c99\common\sprcadd.c"
  4731 ;; Parameters:    Size  Location     Type
  4732 ;;  b               4    0[COMMON] long 
  4733 ;;  a               4    4[COMMON] long 
  4734 ;; Auto vars:     Size  Location     Type
  4735 ;;  grs             1   11[COMMON] unsigned char 
  4736 ;;  bexp            1   10[COMMON] unsigned char 
  4737 ;;  aexp            1    9[COMMON] unsigned char 
  4738 ;;  signs           1    8[COMMON] unsigned char 
  4739 ;; Return value:  Size  Location     Type
  4740 ;;                  4    0[COMMON] unsigned char 
  4741 ;; Registers used:
  4742 ;;		wreg, status,2, status,0, btemp+1
  4743 ;; Tracked objects:
  4744 ;;		On entry : 0/0
  4745 ;;		On exit  : 0/0
  4746 ;;		Unchanged: 0/0
  4747 ;; Data sizes:     COMMON   BANK0   BANK1   BANK3   BANK2
  4748 ;;      Params:         8       0       0       0       0
  4749 ;;      Locals:         4       0       0       0       0
  4750 ;;      Temps:          0       8       0       0       0
  4751 ;;      Totals:        12       8       0       0       0
  4752 ;;Total ram usage:       20 bytes
  4753 ;; Hardware stack levels used: 1
  4754 ;; This function calls:
  4755 ;;		Nothing
  4756 ;; This function is called by:
  4757 ;;		___flsub
  4758 ;;		_efgtoa
  4759 ;; This function uses a non-reentrant model
  4760 ;;
  4761                           
  4762     0A57                     ___fladd:	
  4763                           ;psect for function ___fladd
  4764                           
  4765     0A57                     i1l2360:	
  4766                           ;incstack = 0
  4767 ;; hardware stack exceeded
  4768                           ; Regs used in ___fladd: [wreg+status,2+status,0+btemp+1]
  4769                           
  4770     0A57  0874               	movf	___fladd@b+3,w
  4771     0A58  3980               	andlw	128
  4772     0A59  00F9               	movwf	___fladd@signs
  4773     0A5A                     i1l2362:
  4774     0A5A  0874               	movf	___fladd@b+3,w
  4775     0A5B  1283               	bcf	3,5	;RP0=0, select bank0
  4776     0A5C  1303               	bcf	3,6	;RP1=0, select bank0
  4777     0A5D  00A0               	movwf	??___fladd
  4778     0A5E  0720               	addwf	??___fladd,w
  4779     0A5F  00FB               	movwf	___fladd@bexp
  4780     0A60                     i1l2364:
  4781     0A60  1FF3               	btfss	___fladd@b+2,7
  4782     0A61  2A63               	goto	u264_21
  4783     0A62  2A64               	goto	u264_20
  4784     0A63                     u264_21:
  4785     0A63  2A65               	goto	i1l2368
  4786     0A64                     u264_20:
  4787     0A64                     i1l2366:
  4788     0A64  147B               	bsf	___fladd@bexp,0
  4789     0A65                     i1l2368:
  4790     0A65  087B               	movf	___fladd@bexp,w
  4791     0A66  1903               	btfsc	3,2
  4792     0A67  2A69               	goto	u265_21
  4793     0A68  2A6A               	goto	u265_20
  4794     0A69                     u265_21:
  4795     0A69  2A7A               	goto	i1l2378
  4796     0A6A                     u265_20:
  4797     0A6A                     i1l2370:
  4798     0A6A  0A7B               	incf	___fladd@bexp,w
  4799     0A6B  1D03               	btfss	3,2
  4800     0A6C  2A6E               	goto	u266_21
  4801     0A6D  2A6F               	goto	u266_20
  4802     0A6E                     u266_21:
  4803     0A6E  2A77               	goto	i1l2374
  4804     0A6F                     u266_20:
  4805     0A6F                     i1l2372:
  4806     0A6F  3000               	movlw	0
  4807     0A70  00F4               	movwf	___fladd@b+3
  4808     0A71  3000               	movlw	0
  4809     0A72  00F3               	movwf	___fladd@b+2
  4810     0A73  3000               	movlw	0
  4811     0A74  00F2               	movwf	___fladd@b+1
  4812     0A75  3000               	movlw	0
  4813     0A76  00F1               	movwf	___fladd@b
  4814     0A77                     i1l2374:
  4815     0A77  17F3               	bsf	___fladd@b+2,7
  4816     0A78                     i1l2376:
  4817     0A78  01F4               	clrf	___fladd@b+3
  4818     0A79  2A82               	goto	i1l2380
  4819     0A7A                     i1l2378:
  4820     0A7A  3000               	movlw	0
  4821     0A7B  00F4               	movwf	___fladd@b+3
  4822     0A7C  3000               	movlw	0
  4823     0A7D  00F3               	movwf	___fladd@b+2
  4824     0A7E  3000               	movlw	0
  4825     0A7F  00F2               	movwf	___fladd@b+1
  4826     0A80  3000               	movlw	0
  4827     0A81  00F1               	movwf	___fladd@b
  4828     0A82                     i1l2380:
  4829     0A82  0878               	movf	___fladd@a+3,w
  4830     0A83  3980               	andlw	128
  4831     0A84  00FA               	movwf	___fladd@aexp
  4832     0A85                     i1l2382:
  4833     0A85  087A               	movf	___fladd@aexp,w
  4834     0A86  0679               	xorwf	___fladd@signs,w
  4835     0A87  1903               	skipnz
  4836     0A88  2A8A               	goto	u267_21
  4837     0A89  2A8B               	goto	u267_20
  4838     0A8A                     u267_21:
  4839     0A8A  2A8C               	goto	i1l2386
  4840     0A8B                     u267_20:
  4841     0A8B                     i1l2384:
  4842     0A8B  1779               	bsf	___fladd@signs,6
  4843     0A8C                     i1l2386:
  4844     0A8C  0878               	movf	___fladd@a+3,w
  4845     0A8D  00A0               	movwf	??___fladd
  4846     0A8E  0720               	addwf	??___fladd,w
  4847     0A8F  00FA               	movwf	___fladd@aexp
  4848     0A90                     i1l2388:
  4849     0A90  1FF7               	btfss	___fladd@a+2,7
  4850     0A91  2A93               	goto	u268_21
  4851     0A92  2A94               	goto	u268_20
  4852     0A93                     u268_21:
  4853     0A93  2A95               	goto	i1l2392
  4854     0A94                     u268_20:
  4855     0A94                     i1l2390:
  4856     0A94  147A               	bsf	___fladd@aexp,0
  4857     0A95                     i1l2392:
  4858     0A95  087A               	movf	___fladd@aexp,w
  4859     0A96  1903               	btfsc	3,2
  4860     0A97  2A99               	goto	u269_21
  4861     0A98  2A9A               	goto	u269_20
  4862     0A99                     u269_21:
  4863     0A99  2AAA               	goto	i1l2402
  4864     0A9A                     u269_20:
  4865     0A9A                     i1l2394:
  4866     0A9A  0A7A               	incf	___fladd@aexp,w
  4867     0A9B  1D03               	btfss	3,2
  4868     0A9C  2A9E               	goto	u270_21
  4869     0A9D  2A9F               	goto	u270_20
  4870     0A9E                     u270_21:
  4871     0A9E  2AA7               	goto	i1l2398
  4872     0A9F                     u270_20:
  4873     0A9F                     i1l2396:
  4874     0A9F  3000               	movlw	0
  4875     0AA0  00F8               	movwf	___fladd@a+3
  4876     0AA1  3000               	movlw	0
  4877     0AA2  00F7               	movwf	___fladd@a+2
  4878     0AA3  3000               	movlw	0
  4879     0AA4  00F6               	movwf	___fladd@a+1
  4880     0AA5  3000               	movlw	0
  4881     0AA6  00F5               	movwf	___fladd@a
  4882     0AA7                     i1l2398:
  4883     0AA7  17F7               	bsf	___fladd@a+2,7
  4884     0AA8                     i1l2400:
  4885     0AA8  01F8               	clrf	___fladd@a+3
  4886     0AA9  2AB2               	goto	i1l511
  4887     0AAA                     i1l2402:
  4888     0AAA  3000               	movlw	0
  4889     0AAB  00F8               	movwf	___fladd@a+3
  4890     0AAC  3000               	movlw	0
  4891     0AAD  00F7               	movwf	___fladd@a+2
  4892     0AAE  3000               	movlw	0
  4893     0AAF  00F6               	movwf	___fladd@a+1
  4894     0AB0  3000               	movlw	0
  4895     0AB1  00F5               	movwf	___fladd@a
  4896     0AB2                     i1l511:
  4897     0AB2  087B               	movf	___fladd@bexp,w
  4898     0AB3  027A               	subwf	___fladd@aexp,w
  4899     0AB4  1803               	skipnc
  4900     0AB5  2AB7               	goto	u271_21
  4901     0AB6  2AB8               	goto	u271_20
  4902     0AB7                     u271_21:
  4903     0AB7  2ADE               	goto	i1l2438
  4904     0AB8                     u271_20:
  4905     0AB8                     i1l2404:
  4906     0AB8  1F79               	btfss	___fladd@signs,6
  4907     0AB9  2ABB               	goto	u272_21
  4908     0ABA  2ABC               	goto	u272_20
  4909     0ABB                     u272_21:
  4910     0ABB  2AC0               	goto	i1l2408
  4911     0ABC                     u272_20:
  4912     0ABC                     i1l2406:
  4913     0ABC  3080               	movlw	128
  4914     0ABD  00FF               	movwf	btemp+1
  4915     0ABE  087F               	movf	btemp+1,w
  4916     0ABF  06F9               	xorwf	___fladd@signs,f
  4917     0AC0                     i1l2408:
  4918     0AC0  087B               	movf	___fladd@bexp,w
  4919     0AC1  00FC               	movwf	___fladd@grs
  4920     0AC2                     i1l2410:
  4921     0AC2  087A               	movf	___fladd@aexp,w
  4922     0AC3  00FB               	movwf	___fladd@bexp
  4923     0AC4                     i1l2412:
  4924     0AC4  087C               	movf	___fladd@grs,w
  4925     0AC5  00FA               	movwf	___fladd@aexp
  4926     0AC6                     i1l2414:
  4927     0AC6  0871               	movf	___fladd@b,w
  4928     0AC7  00FC               	movwf	___fladd@grs
  4929     0AC8                     i1l2416:
  4930     0AC8  0875               	movf	___fladd@a,w
  4931     0AC9  00F1               	movwf	___fladd@b
  4932     0ACA                     i1l2418:
  4933     0ACA  087C               	movf	___fladd@grs,w
  4934     0ACB  00F5               	movwf	___fladd@a
  4935     0ACC                     i1l2420:
  4936     0ACC  0872               	movf	___fladd@b+1,w
  4937     0ACD  00FC               	movwf	___fladd@grs
  4938     0ACE                     i1l2422:
  4939     0ACE  0876               	movf	___fladd@a+1,w
  4940     0ACF  00F2               	movwf	___fladd@b+1
  4941     0AD0                     i1l2424:
  4942     0AD0  087C               	movf	___fladd@grs,w
  4943     0AD1  00F6               	movwf	___fladd@a+1
  4944     0AD2                     i1l2426:
  4945     0AD2  0873               	movf	___fladd@b+2,w
  4946     0AD3  00FC               	movwf	___fladd@grs
  4947     0AD4                     i1l2428:
  4948     0AD4  0877               	movf	___fladd@a+2,w
  4949     0AD5  00F3               	movwf	___fladd@b+2
  4950     0AD6                     i1l2430:
  4951     0AD6  087C               	movf	___fladd@grs,w
  4952     0AD7  00F7               	movwf	___fladd@a+2
  4953     0AD8                     i1l2432:
  4954     0AD8  0874               	movf	___fladd@b+3,w
  4955     0AD9  00FC               	movwf	___fladd@grs
  4956     0ADA                     i1l2434:
  4957     0ADA  0878               	movf	___fladd@a+3,w
  4958     0ADB  00F4               	movwf	___fladd@b+3
  4959     0ADC                     i1l2436:
  4960     0ADC  087C               	movf	___fladd@grs,w
  4961     0ADD  00F8               	movwf	___fladd@a+3
  4962     0ADE                     i1l2438:
  4963     0ADE  01FC               	clrf	___fladd@grs
  4964     0ADF                     i1l2440:
  4965     0ADF  087A               	movf	___fladd@aexp,w
  4966     0AE0  00A0               	movwf	??___fladd
  4967     0AE1  01A1               	clrf	??___fladd+1
  4968     0AE2  0821               	movf	??___fladd+1,w
  4969     0AE3  00A3               	movwf	??___fladd+3
  4970     0AE4  087B               	movf	___fladd@bexp,w
  4971     0AE5  0220               	subwf	??___fladd,w
  4972     0AE6  00A2               	movwf	??___fladd+2
  4973     0AE7  1C03               	skipc
  4974     0AE8  03A3               	decf	??___fladd+3,f
  4975     0AE9  0823               	movf	??___fladd+3,w
  4976     0AEA  3A80               	xorlw	128
  4977     0AEB  00FF               	movwf	btemp+1
  4978     0AEC  3080               	movlw	128
  4979     0AED  027F               	subwf	btemp+1,w
  4980     0AEE  1D03               	skipz
  4981     0AEF  2AF2               	goto	u273_25
  4982     0AF0  301A               	movlw	26
  4983     0AF1  0222               	subwf	??___fladd+2,w
  4984     0AF2                     u273_25:
  4985     0AF2  1C03               	skipc
  4986     0AF3  2AF5               	goto	u273_21
  4987     0AF4  2AF6               	goto	u273_20
  4988     0AF5                     u273_21:
  4989     0AF5  2B2F               	goto	i1l2456
  4990     0AF6                     u273_20:
  4991     0AF6                     i1l2442:
  4992     0AF6  0874               	movf	___fladd@b+3,w
  4993     0AF7  0473               	iorwf	___fladd@b+2,w
  4994     0AF8  0472               	iorwf	___fladd@b+1,w
  4995     0AF9  0471               	iorwf	___fladd@b,w
  4996     0AFA  1D03               	skipz
  4997     0AFB  2AFD               	goto	u274_21
  4998     0AFC  2AFF               	goto	u274_20
  4999     0AFD                     u274_21:
  5000     0AFD  3001               	movlw	1
  5001     0AFE  2B00               	goto	u275_20
  5002     0AFF                     u274_20:
  5003     0AFF  3000               	movlw	0
  5004     0B00                     u275_20:
  5005     0B00  00FC               	movwf	___fladd@grs
  5006     0B01  3000               	movlw	0
  5007     0B02  00F4               	movwf	___fladd@b+3
  5008     0B03  3000               	movlw	0
  5009     0B04  00F3               	movwf	___fladd@b+2
  5010     0B05  3000               	movlw	0
  5011     0B06  00F2               	movwf	___fladd@b+1
  5012     0B07  3000               	movlw	0
  5013     0B08  00F1               	movwf	___fladd@b
  5014     0B09  087A               	movf	___fladd@aexp,w
  5015     0B0A  00FB               	movwf	___fladd@bexp
  5016     0B0B  2B35               	goto	i1l515
  5017     0B0C                     i1l517:
  5018     0B0C  1C7C               	btfss	___fladd@grs,0
  5019     0B0D  2B0F               	goto	u276_21
  5020     0B0E  2B10               	goto	u276_20
  5021     0B0F                     u276_21:
  5022     0B0F  2B19               	goto	i1l2446
  5023     0B10                     u276_20:
  5024     0B10                     i1l2444:
  5025     0B10  087C               	movf	___fladd@grs,w
  5026     0B11  1283               	bcf	3,5	;RP0=0, select bank0
  5027     0B12  1303               	bcf	3,6	;RP1=0, select bank0
  5028     0B13  00A0               	movwf	??___fladd
  5029     0B14  1003               	clrc
  5030     0B15  0C20               	rrf	??___fladd,w
  5031     0B16  3801               	iorlw	1
  5032     0B17  00FC               	movwf	___fladd@grs
  5033     0B18  2B1B               	goto	i1l2448
  5034     0B19                     i1l2446:
  5035     0B19  1003               	clrc
  5036     0B1A  0CFC               	rrf	___fladd@grs,f
  5037     0B1B                     i1l2448:
  5038     0B1B  1C71               	btfss	___fladd@b,0
  5039     0B1C  2B1E               	goto	u277_21
  5040     0B1D  2B1F               	goto	u277_20
  5041     0B1E                     u277_21:
  5042     0B1E  2B20               	goto	i1l2452
  5043     0B1F                     u277_20:
  5044     0B1F                     i1l2450:
  5045     0B1F  17FC               	bsf	___fladd@grs,7
  5046     0B20                     i1l2452:
  5047     0B20  3001               	movlw	1
  5048     0B21  1283               	bcf	3,5	;RP0=0, select bank0
  5049     0B22  1303               	bcf	3,6	;RP1=0, select bank0
  5050     0B23  00A0               	movwf	??___fladd
  5051     0B24                     u278_25:
  5052     0B24  0D74               	rlf	___fladd@b+3,w
  5053     0B25  0CF4               	rrf	___fladd@b+3,f
  5054     0B26  0CF3               	rrf	___fladd@b+2,f
  5055     0B27  0CF2               	rrf	___fladd@b+1,f
  5056     0B28  0CF1               	rrf	___fladd@b,f
  5057     0B29  0BA0               	decfsz	??___fladd& (0+127),f
  5058     0B2A  2B24               	goto	u278_25
  5059     0B2B                     i1l2454:
  5060     0B2B  3001               	movlw	1
  5061     0B2C  00FF               	movwf	btemp+1
  5062     0B2D  087F               	movf	btemp+1,w
  5063     0B2E  07FB               	addwf	___fladd@bexp,f
  5064     0B2F                     i1l2456:
  5065     0B2F  087A               	movf	___fladd@aexp,w
  5066     0B30  027B               	subwf	___fladd@bexp,w
  5067     0B31  1C03               	skipc
  5068     0B32  2B34               	goto	u279_21
  5069     0B33  2B35               	goto	u279_20
  5070     0B34                     u279_21:
  5071     0B34  2B0C               	goto	i1l517
  5072     0B35                     u279_20:
  5073     0B35                     i1l515:
  5074     0B35  1B79               	btfsc	___fladd@signs,6
  5075     0B36  2B38               	goto	u280_21
  5076     0B37  2B39               	goto	u280_20
  5077     0B38                     u280_21:
  5078     0B38  2B86               	goto	i1l2482
  5079     0B39                     u280_20:
  5080     0B39                     i1l2458:
  5081     0B39  087B               	movf	___fladd@bexp,w
  5082     0B3A  1D03               	btfss	3,2
  5083     0B3B  2B3D               	goto	u281_21
  5084     0B3C  2B3E               	goto	u281_20
  5085     0B3D                     u281_21:
  5086     0B3D  2B47               	goto	i1l2464
  5087     0B3E                     u281_20:
  5088     0B3E                     i1l2460:
  5089     0B3E  3000               	movlw	0
  5090     0B3F  00F4               	movwf	?___fladd+3
  5091     0B40  3000               	movlw	0
  5092     0B41  00F3               	movwf	?___fladd+2
  5093     0B42  3000               	movlw	0
  5094     0B43  00F2               	movwf	?___fladd+1
  5095     0B44  3000               	movlw	0
  5096     0B45  00F1               	movwf	?___fladd
  5097     0B46  2CBA               	goto	i1l524
  5098     0B47                     i1l2464:
  5099     0B47  0875               	movf	___fladd@a,w
  5100     0B48  07F1               	addwf	___fladd@b,f
  5101     0B49  0876               	movf	___fladd@a+1,w
  5102     0B4A  1103               	clrz
  5103     0B4B  1803               	skipnc
  5104     0B4C  3E01               	addlw	1
  5105     0B4D  1903               	skipnz
  5106     0B4E  2B50               	goto	u282_21
  5107     0B4F  07F2               	addwf	___fladd@b+1,f
  5108     0B50                     u282_21:
  5109     0B50  0877               	movf	___fladd@a+2,w
  5110     0B51  1103               	clrz
  5111     0B52  1803               	skipnc
  5112     0B53  3E01               	addlw	1
  5113     0B54  1903               	skipnz
  5114     0B55  2B57               	goto	u282_22
  5115     0B56  07F3               	addwf	___fladd@b+2,f
  5116     0B57                     u282_22:
  5117     0B57  0878               	movf	___fladd@a+3,w
  5118     0B58  1103               	clrz
  5119     0B59  1803               	skipnc
  5120     0B5A  3E01               	addlw	1
  5121     0B5B  1903               	skipnz
  5122     0B5C  2B5E               	goto	u282_23
  5123     0B5D  07F4               	addwf	___fladd@b+3,f
  5124     0B5E                     u282_23:
  5125     0B5E                     i1l2466:
  5126     0B5E  1C74               	btfss	___fladd@b+3,0
  5127     0B5F  2B61               	goto	u283_21
  5128     0B60  2B62               	goto	u283_20
  5129     0B61                     u283_21:
  5130     0B61  2C3E               	goto	i1l2518
  5131     0B62                     u283_20:
  5132     0B62                     i1l2468:
  5133     0B62  1C7C               	btfss	___fladd@grs,0
  5134     0B63  2B65               	goto	u284_21
  5135     0B64  2B66               	goto	u284_20
  5136     0B65                     u284_21:
  5137     0B65  2B6F               	goto	i1l2472
  5138     0B66                     u284_20:
  5139     0B66                     i1l2470:
  5140     0B66  087C               	movf	___fladd@grs,w
  5141     0B67  1283               	bcf	3,5	;RP0=0, select bank0
  5142     0B68  1303               	bcf	3,6	;RP1=0, select bank0
  5143     0B69  00A0               	movwf	??___fladd
  5144     0B6A  1003               	clrc
  5145     0B6B  0C20               	rrf	??___fladd,w
  5146     0B6C  3801               	iorlw	1
  5147     0B6D  00FC               	movwf	___fladd@grs
  5148     0B6E  2B71               	goto	i1l2474
  5149     0B6F                     i1l2472:
  5150     0B6F  1003               	clrc
  5151     0B70  0CFC               	rrf	___fladd@grs,f
  5152     0B71                     i1l2474:
  5153     0B71  1C71               	btfss	___fladd@b,0
  5154     0B72  2B74               	goto	u285_21
  5155     0B73  2B75               	goto	u285_20
  5156     0B74                     u285_21:
  5157     0B74  2B76               	goto	i1l2478
  5158     0B75                     u285_20:
  5159     0B75                     i1l2476:
  5160     0B75  17FC               	bsf	___fladd@grs,7
  5161     0B76                     i1l2478:
  5162     0B76  3001               	movlw	1
  5163     0B77  1283               	bcf	3,5	;RP0=0, select bank0
  5164     0B78  1303               	bcf	3,6	;RP1=0, select bank0
  5165     0B79  00A0               	movwf	??___fladd
  5166     0B7A                     u286_25:
  5167     0B7A  0D74               	rlf	___fladd@b+3,w
  5168     0B7B  0CF4               	rrf	___fladd@b+3,f
  5169     0B7C  0CF3               	rrf	___fladd@b+2,f
  5170     0B7D  0CF2               	rrf	___fladd@b+1,f
  5171     0B7E  0CF1               	rrf	___fladd@b,f
  5172     0B7F  0BA0               	decfsz	??___fladd& (0+127),f
  5173     0B80  2B7A               	goto	u286_25
  5174     0B81                     i1l2480:
  5175     0B81  3001               	movlw	1
  5176     0B82  00FF               	movwf	btemp+1
  5177     0B83  087F               	movf	btemp+1,w
  5178     0B84  07FB               	addwf	___fladd@bexp,f
  5179     0B85  2C3E               	goto	i1l2518
  5180     0B86                     i1l2482:
  5181     0B86  0874               	movf	___fladd@b+3,w
  5182     0B87  3A80               	xorlw	128
  5183     0B88  00FF               	movwf	btemp+1
  5184     0B89  0878               	movf	___fladd@a+3,w
  5185     0B8A  3A80               	xorlw	128
  5186     0B8B  027F               	subwf	btemp+1,w
  5187     0B8C  1D03               	skipz
  5188     0B8D  2B98               	goto	u287_23
  5189     0B8E  0877               	movf	___fladd@a+2,w
  5190     0B8F  0273               	subwf	___fladd@b+2,w
  5191     0B90  1D03               	skipz
  5192     0B91  2B98               	goto	u287_23
  5193     0B92  0876               	movf	___fladd@a+1,w
  5194     0B93  0272               	subwf	___fladd@b+1,w
  5195     0B94  1D03               	skipz
  5196     0B95  2B98               	goto	u287_23
  5197     0B96  0875               	movf	___fladd@a,w
  5198     0B97  0271               	subwf	___fladd@b,w
  5199     0B98                     u287_23:
  5200     0B98  1803               	skipnc
  5201     0B99  2B9B               	goto	u287_21
  5202     0B9A  2B9C               	goto	u287_20
  5203     0B9B                     u287_21:
  5204     0B9B  2BF6               	goto	i1l2494
  5205     0B9C                     u287_20:
  5206     0B9C                     i1l2484:
  5207     0B9C  30FF               	movlw	255
  5208     0B9D  1283               	bcf	3,5	;RP0=0, select bank0
  5209     0B9E  1303               	bcf	3,6	;RP1=0, select bank0
  5210     0B9F  00A0               	movwf	??___fladd
  5211     0BA0  30FF               	movlw	255
  5212     0BA1  00A1               	movwf	??___fladd+1
  5213     0BA2  30FF               	movlw	255
  5214     0BA3  00A2               	movwf	??___fladd+2
  5215     0BA4  30FF               	movlw	255
  5216     0BA5  00A3               	movwf	??___fladd+3
  5217     0BA6  0875               	movf	___fladd@a,w
  5218     0BA7  00A4               	movwf	??___fladd+4
  5219     0BA8  0876               	movf	___fladd@a+1,w
  5220     0BA9  00A5               	movwf	??___fladd+5
  5221     0BAA  0877               	movf	___fladd@a+2,w
  5222     0BAB  00A6               	movwf	??___fladd+6
  5223     0BAC  0878               	movf	___fladd@a+3,w
  5224     0BAD  00A7               	movwf	??___fladd+7
  5225     0BAE  0871               	movf	___fladd@b,w
  5226     0BAF  02A4               	subwf	??___fladd+4,f
  5227     0BB0  0872               	movf	___fladd@b+1,w
  5228     0BB1  1C03               	skipc
  5229     0BB2  0F72               	incfsz	___fladd@b+1,w
  5230     0BB3  2BB5               	goto	u288_21
  5231     0BB4  2BB6               	goto	u288_22
  5232     0BB5                     u288_21:
  5233     0BB5  02A5               	subwf	??___fladd+5,f
  5234     0BB6                     u288_22:
  5235     0BB6  0873               	movf	___fladd@b+2,w
  5236     0BB7  1C03               	skipc
  5237     0BB8  0F73               	incfsz	___fladd@b+2,w
  5238     0BB9  2BBB               	goto	u288_23
  5239     0BBA  2BBC               	goto	u288_24
  5240     0BBB                     u288_23:
  5241     0BBB  02A6               	subwf	??___fladd+6,f
  5242     0BBC                     u288_24:
  5243     0BBC  0874               	movf	___fladd@b+3,w
  5244     0BBD  1C03               	skipc
  5245     0BBE  0F74               	incfsz	___fladd@b+3,w
  5246     0BBF  2BC1               	goto	u288_25
  5247     0BC0  2BC2               	goto	u288_26
  5248     0BC1                     u288_25:
  5249     0BC1  02A7               	subwf	??___fladd+7,f
  5250     0BC2                     u288_26:
  5251     0BC2  0824               	movf	??___fladd+4,w
  5252     0BC3  07A0               	addwf	??___fladd,f
  5253     0BC4  0825               	movf	??___fladd+5,w
  5254     0BC5  1803               	skipnc
  5255     0BC6  0F25               	incfsz	??___fladd+5,w
  5256     0BC7  2BC9               	goto	u289_20
  5257     0BC8  2BCA               	goto	u289_21
  5258     0BC9                     u289_20:
  5259     0BC9  07A1               	addwf	??___fladd+1,f
  5260     0BCA                     u289_21:
  5261     0BCA  0826               	movf	??___fladd+6,w
  5262     0BCB  1803               	skipnc
  5263     0BCC  0F26               	incfsz	??___fladd+6,w
  5264     0BCD  2BCF               	goto	u289_22
  5265     0BCE  2BD0               	goto	u289_23
  5266     0BCF                     u289_22:
  5267     0BCF  07A2               	addwf	??___fladd+2,f
  5268     0BD0                     u289_23:
  5269     0BD0  0827               	movf	??___fladd+7,w
  5270     0BD1  1803               	skipnc
  5271     0BD2  0A27               	incf	??___fladd+7,w
  5272     0BD3  07A3               	addwf	??___fladd+3,f
  5273     0BD4  0823               	movf	??___fladd+3,w
  5274     0BD5  00F4               	movwf	___fladd@b+3
  5275     0BD6  0822               	movf	??___fladd+2,w
  5276     0BD7  00F3               	movwf	___fladd@b+2
  5277     0BD8  0821               	movf	??___fladd+1,w
  5278     0BD9  00F2               	movwf	___fladd@b+1
  5279     0BDA  0820               	movf	??___fladd,w
  5280     0BDB  00F1               	movwf	___fladd@b
  5281     0BDC                     i1l2486:
  5282     0BDC  3080               	movlw	128
  5283     0BDD  00FF               	movwf	btemp+1
  5284     0BDE  087F               	movf	btemp+1,w
  5285     0BDF  06F9               	xorwf	___fladd@signs,f
  5286     0BE0                     i1l2488:
  5287     0BE0  09FC               	comf	___fladd@grs,f
  5288     0BE1  0AFC               	incf	___fladd@grs,f
  5289     0BE2                     i1l2490:
  5290     0BE2  087C               	movf	___fladd@grs,w
  5291     0BE3  1D03               	btfss	3,2
  5292     0BE4  2BE6               	goto	u290_21
  5293     0BE5  2BE7               	goto	u290_20
  5294     0BE6                     u290_21:
  5295     0BE6  2C04               	goto	i1l532
  5296     0BE7                     u290_20:
  5297     0BE7                     i1l2492:
  5298     0BE7  3001               	movlw	1
  5299     0BE8  07F1               	addwf	___fladd@b,f
  5300     0BE9  3000               	movlw	0
  5301     0BEA  1803               	skipnc
  5302     0BEB  3001               	movlw	1
  5303     0BEC  07F2               	addwf	___fladd@b+1,f
  5304     0BED  3000               	movlw	0
  5305     0BEE  1803               	skipnc
  5306     0BEF  3001               	movlw	1
  5307     0BF0  07F3               	addwf	___fladd@b+2,f
  5308     0BF1  3000               	movlw	0
  5309     0BF2  1803               	skipnc
  5310     0BF3  3001               	movlw	1
  5311     0BF4  07F4               	addwf	___fladd@b+3,f
  5312     0BF5  2C04               	goto	i1l532
  5313     0BF6                     i1l2494:
  5314     0BF6  0875               	movf	___fladd@a,w
  5315     0BF7  02F1               	subwf	___fladd@b,f
  5316     0BF8  0876               	movf	___fladd@a+1,w
  5317     0BF9  1C03               	skipc
  5318     0BFA  0F76               	incfsz	___fladd@a+1,w
  5319     0BFB  02F2               	subwf	___fladd@b+1,f
  5320     0BFC  0877               	movf	___fladd@a+2,w
  5321     0BFD  1C03               	skipc
  5322     0BFE  0F77               	incfsz	___fladd@a+2,w
  5323     0BFF  02F3               	subwf	___fladd@b+2,f
  5324     0C00  0878               	movf	___fladd@a+3,w
  5325     0C01  1C03               	skipc
  5326     0C02  0F78               	incfsz	___fladd@a+3,w
  5327     0C03  02F4               	subwf	___fladd@b+3,f
  5328     0C04                     i1l532:
  5329     0C04  0874               	movf	___fladd@b+3,w
  5330     0C05  0473               	iorwf	___fladd@b+2,w
  5331     0C06  0472               	iorwf	___fladd@b+1,w
  5332     0C07  0471               	iorwf	___fladd@b,w
  5333     0C08  1D03               	skipz
  5334     0C09  2C0B               	goto	u291_21
  5335     0C0A  2C0C               	goto	u291_20
  5336     0C0B                     u291_21:
  5337     0C0B  2C3A               	goto	i1l2516
  5338     0C0C                     u291_20:
  5339     0C0C                     i1l2496:
  5340     0C0C  087C               	movf	___fladd@grs,w
  5341     0C0D  1D03               	btfss	3,2
  5342     0C0E  2C10               	goto	u292_21
  5343     0C0F  2C11               	goto	u292_20
  5344     0C10                     u292_21:
  5345     0C10  2C3A               	goto	i1l2516
  5346     0C11                     u292_20:
  5347     0C11                     i1l2498:
  5348     0C11  3000               	movlw	0
  5349     0C12  00F4               	movwf	?___fladd+3
  5350     0C13  3000               	movlw	0
  5351     0C14  00F3               	movwf	?___fladd+2
  5352     0C15  3000               	movlw	0
  5353     0C16  00F2               	movwf	?___fladd+1
  5354     0C17  3000               	movlw	0
  5355     0C18  00F1               	movwf	?___fladd
  5356     0C19  2CBA               	goto	i1l524
  5357     0C1A                     i1l2502:
  5358     0C1A  3001               	movlw	1
  5359     0C1B  1283               	bcf	3,5	;RP0=0, select bank0
  5360     0C1C  1303               	bcf	3,6	;RP1=0, select bank0
  5361     0C1D  00A0               	movwf	??___fladd
  5362     0C1E                     u293_25:
  5363     0C1E  1003               	clrc
  5364     0C1F  0DF1               	rlf	___fladd@b,f
  5365     0C20  0DF2               	rlf	___fladd@b+1,f
  5366     0C21  0DF3               	rlf	___fladd@b+2,f
  5367     0C22  0DF4               	rlf	___fladd@b+3,f
  5368     0C23  0BA0               	decfsz	??___fladd,f
  5369     0C24  2C1E               	goto	u293_25
  5370     0C25                     i1l2504:
  5371     0C25  1FFC               	btfss	___fladd@grs,7
  5372     0C26  2C28               	goto	u294_21
  5373     0C27  2C29               	goto	u294_20
  5374     0C28                     u294_21:
  5375     0C28  2C2A               	goto	i1l536
  5376     0C29                     u294_20:
  5377     0C29                     i1l2506:
  5378     0C29  1471               	bsf	___fladd@b,0
  5379     0C2A                     i1l536:
  5380     0C2A  1C7C               	btfss	___fladd@grs,0
  5381     0C2B  2C2D               	goto	u295_21
  5382     0C2C  2C2E               	goto	u295_20
  5383     0C2D                     u295_21:
  5384     0C2D  2C31               	goto	i1l2510
  5385     0C2E                     u295_20:
  5386     0C2E                     i1l2508:
  5387     0C2E  1403               	setc
  5388     0C2F  0DFC               	rlf	___fladd@grs,f
  5389     0C30  2C33               	goto	i1l2512
  5390     0C31                     i1l2510:
  5391     0C31  1003               	clrc
  5392     0C32  0DFC               	rlf	___fladd@grs,f
  5393     0C33                     i1l2512:
  5394     0C33  087B               	movf	___fladd@bexp,w
  5395     0C34  1903               	btfsc	3,2
  5396     0C35  2C37               	goto	u296_21
  5397     0C36  2C38               	goto	u296_20
  5398     0C37                     u296_21:
  5399     0C37  2C3A               	goto	i1l2516
  5400     0C38                     u296_20:
  5401     0C38                     i1l2514:
  5402     0C38  3001               	movlw	1
  5403     0C39  02FB               	subwf	___fladd@bexp,f
  5404     0C3A                     i1l2516:
  5405     0C3A  1FF3               	btfss	___fladd@b+2,7
  5406     0C3B  2C3D               	goto	u297_21
  5407     0C3C  2C3E               	goto	u297_20
  5408     0C3D                     u297_21:
  5409     0C3D  2C1A               	goto	i1l2502
  5410     0C3E                     u297_20:
  5411     0C3E                     i1l2518:
  5412     0C3E  01FA               	clrf	___fladd@aexp
  5413     0C3F                     i1l2520:
  5414     0C3F  1FFC               	btfss	___fladd@grs,7
  5415     0C40  2C42               	goto	u298_21
  5416     0C41  2C43               	goto	u298_20
  5417     0C42                     u298_21:
  5418     0C42  2C51               	goto	i1l2528
  5419     0C43                     u298_20:
  5420     0C43                     i1l2522:
  5421     0C43  087C               	movf	___fladd@grs,w
  5422     0C44  397F               	andlw	127
  5423     0C45  1903               	btfsc	3,2
  5424     0C46  2C48               	goto	u299_21
  5425     0C47  2C49               	goto	u299_20
  5426     0C48                     u299_21:
  5427     0C48  2C4C               	goto	i1l542
  5428     0C49                     u299_20:
  5429     0C49                     i1l2524:
  5430     0C49  01FA               	clrf	___fladd@aexp
  5431     0C4A  0AFA               	incf	___fladd@aexp,f
  5432     0C4B  2C51               	goto	i1l2528
  5433     0C4C                     i1l542:
  5434     0C4C  1C71               	btfss	___fladd@b,0
  5435     0C4D  2C4F               	goto	u300_21
  5436     0C4E  2C50               	goto	u300_20
  5437     0C4F                     u300_21:
  5438     0C4F  2C51               	goto	i1l2528
  5439     0C50                     u300_20:
  5440     0C50  2C49               	goto	i1l2524
  5441     0C51                     i1l2528:
  5442     0C51  087A               	movf	___fladd@aexp,w
  5443     0C52  1903               	btfsc	3,2
  5444     0C53  2C55               	goto	u301_21
  5445     0C54  2C56               	goto	u301_20
  5446     0C55                     u301_21:
  5447     0C55  2C8C               	goto	i1l2538
  5448     0C56                     u301_20:
  5449     0C56                     i1l2530:
  5450     0C56  3001               	movlw	1
  5451     0C57  07F1               	addwf	___fladd@b,f
  5452     0C58  3000               	movlw	0
  5453     0C59  1803               	skipnc
  5454     0C5A  3001               	movlw	1
  5455     0C5B  07F2               	addwf	___fladd@b+1,f
  5456     0C5C  3000               	movlw	0
  5457     0C5D  1803               	skipnc
  5458     0C5E  3001               	movlw	1
  5459     0C5F  07F3               	addwf	___fladd@b+2,f
  5460     0C60  3000               	movlw	0
  5461     0C61  1803               	skipnc
  5462     0C62  3001               	movlw	1
  5463     0C63  07F4               	addwf	___fladd@b+3,f
  5464     0C64                     i1l2532:
  5465     0C64  1C74               	btfss	___fladd@b+3,0
  5466     0C65  2C67               	goto	u302_21
  5467     0C66  2C68               	goto	u302_20
  5468     0C67                     u302_21:
  5469     0C67  2C8C               	goto	i1l2538
  5470     0C68                     u302_20:
  5471     0C68                     i1l2534:
  5472     0C68  0871               	movf	___fladd@b,w
  5473     0C69  1283               	bcf	3,5	;RP0=0, select bank0
  5474     0C6A  1303               	bcf	3,6	;RP1=0, select bank0
  5475     0C6B  00A0               	movwf	??___fladd
  5476     0C6C  0872               	movf	___fladd@b+1,w
  5477     0C6D  00A1               	movwf	??___fladd+1
  5478     0C6E  0873               	movf	___fladd@b+2,w
  5479     0C6F  00A2               	movwf	??___fladd+2
  5480     0C70  0874               	movf	___fladd@b+3,w
  5481     0C71  00A3               	movwf	??___fladd+3
  5482     0C72  3001               	movlw	1
  5483     0C73  00A4               	movwf	??___fladd+4
  5484     0C74                     u303_25:
  5485     0C74  0D23               	rlf	??___fladd+3,w
  5486     0C75  0CA3               	rrf	??___fladd+3,f
  5487     0C76  0CA2               	rrf	??___fladd+2,f
  5488     0C77  0CA1               	rrf	??___fladd+1,f
  5489     0C78  0CA0               	rrf	??___fladd,f
  5490     0C79                     u303_20:
  5491     0C79  0BA4               	decfsz	??___fladd+4,f
  5492     0C7A  2C74               	goto	u303_25
  5493     0C7B  0823               	movf	??___fladd+3,w
  5494     0C7C  00F4               	movwf	___fladd@b+3
  5495     0C7D  0822               	movf	??___fladd+2,w
  5496     0C7E  00F3               	movwf	___fladd@b+2
  5497     0C7F  0821               	movf	??___fladd+1,w
  5498     0C80  00F2               	movwf	___fladd@b+1
  5499     0C81  0820               	movf	??___fladd,w
  5500     0C82  00F1               	movwf	___fladd@b
  5501     0C83  0A7B               	incf	___fladd@bexp,w
  5502     0C84  1903               	btfsc	3,2
  5503     0C85  2C87               	goto	u304_21
  5504     0C86  2C88               	goto	u304_20
  5505     0C87                     u304_21:
  5506     0C87  2C8C               	goto	i1l2538
  5507     0C88                     u304_20:
  5508     0C88                     i1l2536:
  5509     0C88  3001               	movlw	1
  5510     0C89  00FF               	movwf	btemp+1
  5511     0C8A  087F               	movf	btemp+1,w
  5512     0C8B  07FB               	addwf	___fladd@bexp,f
  5513     0C8C                     i1l2538:
  5514     0C8C  0A7B               	incf	___fladd@bexp,w
  5515     0C8D  1903               	btfsc	3,2
  5516     0C8E  2C90               	goto	u305_21
  5517     0C8F  2C91               	goto	u305_20
  5518     0C90                     u305_21:
  5519     0C90  2C96               	goto	i1l2542
  5520     0C91                     u305_20:
  5521     0C91                     i1l2540:
  5522     0C91  087B               	movf	___fladd@bexp,w
  5523     0C92  1D03               	btfss	3,2
  5524     0C93  2C95               	goto	u306_21
  5525     0C94  2C96               	goto	u306_20
  5526     0C95                     u306_21:
  5527     0C95  2CA4               	goto	i1l2548
  5528     0C96                     u306_20:
  5529     0C96                     i1l2542:
  5530     0C96  3000               	movlw	0
  5531     0C97  00F4               	movwf	___fladd@b+3
  5532     0C98  3000               	movlw	0
  5533     0C99  00F3               	movwf	___fladd@b+2
  5534     0C9A  3000               	movlw	0
  5535     0C9B  00F2               	movwf	___fladd@b+1
  5536     0C9C  3000               	movlw	0
  5537     0C9D  00F1               	movwf	___fladd@b
  5538     0C9E                     i1l2544:
  5539     0C9E  087B               	movf	___fladd@bexp,w
  5540     0C9F  1D03               	btfss	3,2
  5541     0CA0  2CA2               	goto	u307_21
  5542     0CA1  2CA3               	goto	u307_20
  5543     0CA2                     u307_21:
  5544     0CA2  2CA4               	goto	i1l2548
  5545     0CA3                     u307_20:
  5546     0CA3                     i1l2546:
  5547     0CA3  01F9               	clrf	___fladd@signs
  5548     0CA4                     i1l2548:
  5549     0CA4  1C7B               	btfss	___fladd@bexp,0
  5550     0CA5  2CA7               	goto	u308_21
  5551     0CA6  2CA8               	goto	u308_20
  5552     0CA7                     u308_21:
  5553     0CA7  2CAA               	goto	i1l2552
  5554     0CA8                     u308_20:
  5555     0CA8                     i1l2550:
  5556     0CA8  17F3               	bsf	___fladd@b+2,7
  5557     0CA9  2CAE               	goto	i1l2554
  5558     0CAA                     i1l2552:
  5559     0CAA  307F               	movlw	127
  5560     0CAB  00FF               	movwf	btemp+1
  5561     0CAC  087F               	movf	btemp+1,w
  5562     0CAD  05F3               	andwf	___fladd@b+2,f
  5563     0CAE                     i1l2554:
  5564     0CAE  087B               	movf	___fladd@bexp,w
  5565     0CAF  1283               	bcf	3,5	;RP0=0, select bank0
  5566     0CB0  1303               	bcf	3,6	;RP1=0, select bank0
  5567     0CB1  00A0               	movwf	??___fladd
  5568     0CB2  1003               	clrc
  5569     0CB3  0C20               	rrf	??___fladd,w
  5570     0CB4  00F4               	movwf	___fladd@b+3
  5571     0CB5                     i1l2556:
  5572     0CB5  1FF9               	btfss	___fladd@signs,7
  5573     0CB6  2CB8               	goto	u309_21
  5574     0CB7  2CB9               	goto	u309_20
  5575     0CB8                     u309_21:
  5576     0CB8  2CBA               	goto	i1l554
  5577     0CB9                     u309_20:
  5578     0CB9                     i1l2558:
  5579     0CB9  17F4               	bsf	___fladd@b+3,7
  5580     0CBA                     i1l554:
  5581     0CBA                     i1l524:
  5582     0CBA  0008               	return
  5583     0CBB                     __end_of___fladd:
  5584                           
  5585                           	psect	text21
  5586     1CC9                     __ptext21:	
  5587 ;; *************** function ___flneg *****************
  5588 ;; Defined at:
  5589 ;;		line 15 in file "C:\Program Files\Microchip\xc8\v2.45\pic\sources\c99\common\flneg.c"
  5590 ;; Parameters:    Size  Location     Type
  5591 ;;  f1              4    0[COMMON] unsigned char 
  5592 ;; Auto vars:     Size  Location     Type
  5593 ;;		None
  5594 ;; Return value:  Size  Location     Type
  5595 ;;                  4    0[COMMON] unsigned char 
  5596 ;; Registers used:
  5597 ;;		wreg
  5598 ;; Tracked objects:
  5599 ;;		On entry : 0/0
  5600 ;;		On exit  : 0/0
  5601 ;;		Unchanged: 0/0
  5602 ;; Data sizes:     COMMON   BANK0   BANK1   BANK3   BANK2
  5603 ;;      Params:         4       0       0       0       0
  5604 ;;      Locals:         0       0       0       0       0
  5605 ;;      Temps:          0       0       0       0       0
  5606 ;;      Totals:         4       0       0       0       0
  5607 ;;Total ram usage:        4 bytes
  5608 ;; Hardware stack levels used: 1
  5609 ;; This function calls:
  5610 ;;		Nothing
  5611 ;; This function is called by:
  5612 ;;		_efgtoa
  5613 ;; This function uses a non-reentrant model
  5614 ;;
  5615                           
  5616     1CC9                     ___flneg:	
  5617                           ;psect for function ___flneg
  5618                           
  5619     1CC9                     i1l2710:	
  5620                           ;incstack = 0
  5621                           ; Regs used in ___flneg: [wreg]
  5622                           
  5623     1CC9  0874               	movf	___flneg@f1+3,w
  5624     1CCA  0473               	iorwf	___flneg@f1+2,w
  5625     1CCB  0472               	iorwf	___flneg@f1+1,w
  5626     1CCC  0471               	iorwf	___flneg@f1,w
  5627     1CCD  1903               	skipnz
  5628     1CCE  2CD0               	goto	u347_21
  5629     1CCF  2CD1               	goto	u347_20
  5630     1CD0                     u347_21:
  5631     1CD0  2CD3               	goto	i1l2714
  5632     1CD1                     u347_20:
  5633     1CD1                     i1l2712:
  5634     1CD1  3080               	movlw	128
  5635     1CD2  06F4               	xorwf	___flneg@f1+3,f
  5636     1CD3                     i1l2714:
  5637     1CD3                     i1l400:
  5638     1CD3  0008               	return
  5639     1CD4                     __end_of___flneg:
  5640                           
  5641                           	psect	text22
  5642     0CBB                     __ptext22:	
  5643 ;; *************** function ___flmul *****************
  5644 ;; Defined at:
  5645 ;;		line 8 in file "C:\Program Files\Microchip\xc8\v2.45\pic\sources\c99\common\sprcmul.c"
  5646 ;; Parameters:    Size  Location     Type
  5647 ;;  b               4    0[BANK0 ] unsigned char 
  5648 ;;  a               4    4[BANK0 ] unsigned char 
  5649 ;; Auto vars:     Size  Location     Type
  5650 ;;  prod            4   20[BANK0 ] struct .
  5651 ;;  grs             4   14[BANK0 ] unsigned long 
  5652 ;;  temp            2   24[BANK0 ] struct .
  5653 ;;  bexp            1   19[BANK0 ] unsigned char 
  5654 ;;  aexp            1   18[BANK0 ] unsigned char 
  5655 ;;  sign            1   13[BANK0 ] unsigned char 
  5656 ;; Return value:  Size  Location     Type
  5657 ;;                  4    0[BANK0 ] unsigned char 
  5658 ;; Registers used:
  5659 ;;		wreg, status,2, status,0, btemp+1, pclath, cstack
  5660 ;; Tracked objects:
  5661 ;;		On entry : 0/0
  5662 ;;		On exit  : 0/0
  5663 ;;		Unchanged: 0/0
  5664 ;; Data sizes:     COMMON   BANK0   BANK1   BANK3   BANK2
  5665 ;;      Params:         0       8       0       0       0
  5666 ;;      Locals:         0      13       0       0       0
  5667 ;;      Temps:          0       5       0       0       0
  5668 ;;      Totals:         0      26       0       0       0
  5669 ;;Total ram usage:       26 bytes
  5670 ;; Hardware stack levels used: 1
  5671 ;; Hardware stack levels required when called: 1
  5672 ;; This function calls:
  5673 ;;		__Umul8_16
  5674 ;; This function is called by:
  5675 ;;		_efgtoa
  5676 ;; This function uses a non-reentrant model
  5677 ;;
  5678                           
  5679     0CBB                     ___flmul:	
  5680                           ;psect for function ___flmul
  5681                           
  5682     0CBB                     i1l2908:	
  5683                           ;incstack = 0
  5684 ;; hardware stack exceeded
  5685                           ; Regs used in ___flmul: [wreg+status,2+status,0+btemp+1+pclath+cstack]
  5686                           
  5687     0CBB  1283               	bcf	3,5	;RP0=0, select bank0
  5688     0CBC  1303               	bcf	3,6	;RP1=0, select bank0
  5689     0CBD  0823               	movf	___flmul@b+3,w
  5690     0CBE  3980               	andlw	128
  5691     0CBF  00AD               	movwf	___flmul@sign
  5692     0CC0                     i1l2910:
  5693     0CC0  0823               	movf	___flmul@b+3,w
  5694     0CC1  00A8               	movwf	??___flmul
  5695     0CC2  0728               	addwf	??___flmul,w
  5696     0CC3  00B3               	movwf	___flmul@bexp
  5697     0CC4                     i1l2912:
  5698     0CC4  1FA2               	btfss	___flmul@b+2,7
  5699     0CC5  2CC7               	goto	u388_21
  5700     0CC6  2CC8               	goto	u388_20
  5701     0CC7                     u388_21:
  5702     0CC7  2CC9               	goto	i1l2916
  5703     0CC8                     u388_20:
  5704     0CC8                     i1l2914:
  5705     0CC8  1433               	bsf	___flmul@bexp,0
  5706     0CC9                     i1l2916:
  5707     0CC9  0833               	movf	___flmul@bexp,w
  5708     0CCA  1903               	btfsc	3,2
  5709     0CCB  2CCD               	goto	u389_21
  5710     0CCC  2CCE               	goto	u389_20
  5711     0CCD                     u389_21:
  5712     0CCD  2CDD               	goto	i1l2924
  5713     0CCE                     u389_20:
  5714     0CCE                     i1l2918:
  5715     0CCE  0A33               	incf	___flmul@bexp,w
  5716     0CCF  1D03               	btfss	3,2
  5717     0CD0  2CD2               	goto	u390_21
  5718     0CD1  2CD3               	goto	u390_20
  5719     0CD2                     u390_21:
  5720     0CD2  2CDB               	goto	i1l2922
  5721     0CD3                     u390_20:
  5722     0CD3                     i1l2920:
  5723     0CD3  3000               	movlw	0
  5724     0CD4  00A3               	movwf	___flmul@b+3
  5725     0CD5  3000               	movlw	0
  5726     0CD6  00A2               	movwf	___flmul@b+2
  5727     0CD7  3000               	movlw	0
  5728     0CD8  00A1               	movwf	___flmul@b+1
  5729     0CD9  3000               	movlw	0
  5730     0CDA  00A0               	movwf	___flmul@b
  5731     0CDB                     i1l2922:
  5732     0CDB  17A2               	bsf	___flmul@b+2,7
  5733     0CDC  2CE5               	goto	i1l2926
  5734     0CDD                     i1l2924:
  5735     0CDD  3000               	movlw	0
  5736     0CDE  00A3               	movwf	___flmul@b+3
  5737     0CDF  3000               	movlw	0
  5738     0CE0  00A2               	movwf	___flmul@b+2
  5739     0CE1  3000               	movlw	0
  5740     0CE2  00A1               	movwf	___flmul@b+1
  5741     0CE3  3000               	movlw	0
  5742     0CE4  00A0               	movwf	___flmul@b
  5743     0CE5                     i1l2926:
  5744     0CE5  0827               	movf	___flmul@a+3,w
  5745     0CE6  3980               	andlw	128
  5746     0CE7  00FF               	movwf	btemp+1
  5747     0CE8  087F               	movf	btemp+1,w
  5748     0CE9  06AD               	xorwf	___flmul@sign,f
  5749     0CEA                     i1l2928:
  5750     0CEA  0827               	movf	___flmul@a+3,w
  5751     0CEB  00A8               	movwf	??___flmul
  5752     0CEC  0728               	addwf	??___flmul,w
  5753     0CED  00B2               	movwf	___flmul@aexp
  5754     0CEE                     i1l2930:
  5755     0CEE  1FA6               	btfss	___flmul@a+2,7
  5756     0CEF  2CF1               	goto	u391_21
  5757     0CF0  2CF2               	goto	u391_20
  5758     0CF1                     u391_21:
  5759     0CF1  2CF3               	goto	i1l2934
  5760     0CF2                     u391_20:
  5761     0CF2                     i1l2932:
  5762     0CF2  1432               	bsf	___flmul@aexp,0
  5763     0CF3                     i1l2934:
  5764     0CF3  0832               	movf	___flmul@aexp,w
  5765     0CF4  1903               	btfsc	3,2
  5766     0CF5  2CF7               	goto	u392_21
  5767     0CF6  2CF8               	goto	u392_20
  5768     0CF7                     u392_21:
  5769     0CF7  2D07               	goto	i1l2942
  5770     0CF8                     u392_20:
  5771     0CF8                     i1l2936:
  5772     0CF8  0A32               	incf	___flmul@aexp,w
  5773     0CF9  1D03               	btfss	3,2
  5774     0CFA  2CFC               	goto	u393_21
  5775     0CFB  2CFD               	goto	u393_20
  5776     0CFC                     u393_21:
  5777     0CFC  2D05               	goto	i1l2940
  5778     0CFD                     u393_20:
  5779     0CFD                     i1l2938:
  5780     0CFD  3000               	movlw	0
  5781     0CFE  00A7               	movwf	___flmul@a+3
  5782     0CFF  3000               	movlw	0
  5783     0D00  00A6               	movwf	___flmul@a+2
  5784     0D01  3000               	movlw	0
  5785     0D02  00A5               	movwf	___flmul@a+1
  5786     0D03  3000               	movlw	0
  5787     0D04  00A4               	movwf	___flmul@a
  5788     0D05                     i1l2940:
  5789     0D05  17A6               	bsf	___flmul@a+2,7
  5790     0D06  2D0F               	goto	i1l2944
  5791     0D07                     i1l2942:
  5792     0D07  3000               	movlw	0
  5793     0D08  00A7               	movwf	___flmul@a+3
  5794     0D09  3000               	movlw	0
  5795     0D0A  00A6               	movwf	___flmul@a+2
  5796     0D0B  3000               	movlw	0
  5797     0D0C  00A5               	movwf	___flmul@a+1
  5798     0D0D  3000               	movlw	0
  5799     0D0E  00A4               	movwf	___flmul@a
  5800     0D0F                     i1l2944:
  5801     0D0F  0832               	movf	___flmul@aexp,w
  5802     0D10  1903               	btfsc	3,2
  5803     0D11  2D13               	goto	u394_21
  5804     0D12  2D14               	goto	u394_20
  5805     0D13                     u394_21:
  5806     0D13  2D19               	goto	i1l2948
  5807     0D14                     u394_20:
  5808     0D14                     i1l2946:
  5809     0D14  0833               	movf	___flmul@bexp,w
  5810     0D15  1D03               	btfss	3,2
  5811     0D16  2D18               	goto	u395_21
  5812     0D17  2D19               	goto	u395_20
  5813     0D18                     u395_21:
  5814     0D18  2D22               	goto	i1l2952
  5815     0D19                     u395_20:
  5816     0D19                     i1l2948:
  5817     0D19  3000               	movlw	0
  5818     0D1A  00A3               	movwf	?___flmul+3
  5819     0D1B  3000               	movlw	0
  5820     0D1C  00A2               	movwf	?___flmul+2
  5821     0D1D  3000               	movlw	0
  5822     0D1E  00A1               	movwf	?___flmul+1
  5823     0D1F  3000               	movlw	0
  5824     0D20  00A0               	movwf	?___flmul
  5825     0D21  2FFF               	goto	i1l607
  5826     0D22                     i1l2952:
  5827     0D22  0820               	movf	___flmul@b,w
  5828     0D23  00F1               	movwf	__Umul8_16@multiplicand
  5829     0D24  0826               	movf	___flmul@a+2,w
  5830     0D25  160A  158A  2603  120A  158A  	fcall	__Umul8_16
  5831     0D2A  0872               	movf	?__Umul8_16+1,w
  5832     0D2B  1283               	bcf	3,5	;RP0=0, select bank0
  5833     0D2C  1303               	bcf	3,6	;RP1=0, select bank0
  5834     0D2D  00B9               	movwf	___flmul@temp+1
  5835     0D2E  0871               	movf	?__Umul8_16,w
  5836     0D2F  00B8               	movwf	___flmul@temp
  5837     0D30                     i1l2954:
  5838     0D30  0838               	movf	___flmul@temp,w
  5839     0D31  00A8               	movwf	??___flmul
  5840     0D32  01A9               	clrf	??___flmul+1
  5841     0D33  01AA               	clrf	??___flmul+2
  5842     0D34  01AB               	clrf	??___flmul+3
  5843     0D35  082B               	movf	??___flmul+3,w
  5844     0D36  00B1               	movwf	___flmul@grs+3
  5845     0D37  082A               	movf	??___flmul+2,w
  5846     0D38  00B0               	movwf	___flmul@grs+2
  5847     0D39  0829               	movf	??___flmul+1,w
  5848     0D3A  00AF               	movwf	___flmul@grs+1
  5849     0D3B  0828               	movf	??___flmul,w
  5850     0D3C  00AE               	movwf	___flmul@grs
  5851     0D3D                     i1l2956:
  5852     0D3D  0839               	movf	___flmul@temp+1,w
  5853     0D3E  00A8               	movwf	??___flmul
  5854     0D3F  01A9               	clrf	??___flmul+1
  5855     0D40  01AA               	clrf	??___flmul+2
  5856     0D41  01AB               	clrf	??___flmul+3
  5857     0D42  082B               	movf	??___flmul+3,w
  5858     0D43  00B7               	movwf	___flmul@prod+3
  5859     0D44  082A               	movf	??___flmul+2,w
  5860     0D45  00B6               	movwf	___flmul@prod+2
  5861     0D46  0829               	movf	??___flmul+1,w
  5862     0D47  00B5               	movwf	___flmul@prod+1
  5863     0D48  0828               	movf	??___flmul,w
  5864     0D49  00B4               	movwf	___flmul@prod
  5865     0D4A  0821               	movf	___flmul@b+1,w
  5866     0D4B  00F1               	movwf	__Umul8_16@multiplicand
  5867     0D4C  0825               	movf	___flmul@a+1,w
  5868     0D4D  160A  158A  2603  120A  158A  	fcall	__Umul8_16
  5869     0D52  0872               	movf	?__Umul8_16+1,w
  5870     0D53  1283               	bcf	3,5	;RP0=0, select bank0
  5871     0D54  1303               	bcf	3,6	;RP1=0, select bank0
  5872     0D55  00B9               	movwf	___flmul@temp+1
  5873     0D56  0871               	movf	?__Umul8_16,w
  5874     0D57  00B8               	movwf	___flmul@temp
  5875     0D58                     i1l2958:
  5876     0D58  0838               	movf	___flmul@temp,w
  5877     0D59  00A8               	movwf	??___flmul
  5878     0D5A  01A9               	clrf	??___flmul+1
  5879     0D5B  01AA               	clrf	??___flmul+2
  5880     0D5C  01AB               	clrf	??___flmul+3
  5881     0D5D  0828               	movf	??___flmul,w
  5882     0D5E  07AE               	addwf	___flmul@grs,f
  5883     0D5F  0829               	movf	??___flmul+1,w
  5884     0D60  1103               	clrz
  5885     0D61  1803               	skipnc
  5886     0D62  3E01               	addlw	1
  5887     0D63  1903               	skipnz
  5888     0D64  2D66               	goto	u396_21
  5889     0D65  07AF               	addwf	___flmul@grs+1,f
  5890     0D66                     u396_21:
  5891     0D66  082A               	movf	??___flmul+2,w
  5892     0D67  1103               	clrz
  5893     0D68  1803               	skipnc
  5894     0D69  3E01               	addlw	1
  5895     0D6A  1903               	skipnz
  5896     0D6B  2D6D               	goto	u396_22
  5897     0D6C  07B0               	addwf	___flmul@grs+2,f
  5898     0D6D                     u396_22:
  5899     0D6D  082B               	movf	??___flmul+3,w
  5900     0D6E  1103               	clrz
  5901     0D6F  1803               	skipnc
  5902     0D70  3E01               	addlw	1
  5903     0D71  1903               	skipnz
  5904     0D72  2D74               	goto	u396_23
  5905     0D73  07B1               	addwf	___flmul@grs+3,f
  5906     0D74                     u396_23:
  5907     0D74                     i1l2960:
  5908     0D74  0839               	movf	___flmul@temp+1,w
  5909     0D75  00A8               	movwf	??___flmul
  5910     0D76  01A9               	clrf	??___flmul+1
  5911     0D77  01AA               	clrf	??___flmul+2
  5912     0D78  01AB               	clrf	??___flmul+3
  5913     0D79  0828               	movf	??___flmul,w
  5914     0D7A  07B4               	addwf	___flmul@prod,f
  5915     0D7B  0829               	movf	??___flmul+1,w
  5916     0D7C  1103               	clrz
  5917     0D7D  1803               	skipnc
  5918     0D7E  3E01               	addlw	1
  5919     0D7F  1903               	skipnz
  5920     0D80  2D82               	goto	u397_21
  5921     0D81  07B5               	addwf	___flmul@prod+1,f
  5922     0D82                     u397_21:
  5923     0D82  082A               	movf	??___flmul+2,w
  5924     0D83  1103               	clrz
  5925     0D84  1803               	skipnc
  5926     0D85  3E01               	addlw	1
  5927     0D86  1903               	skipnz
  5928     0D87  2D89               	goto	u397_22
  5929     0D88  07B6               	addwf	___flmul@prod+2,f
  5930     0D89                     u397_22:
  5931     0D89  082B               	movf	??___flmul+3,w
  5932     0D8A  1103               	clrz
  5933     0D8B  1803               	skipnc
  5934     0D8C  3E01               	addlw	1
  5935     0D8D  1903               	skipnz
  5936     0D8E  2D90               	goto	u397_23
  5937     0D8F  07B7               	addwf	___flmul@prod+3,f
  5938     0D90                     u397_23:
  5939     0D90  0822               	movf	___flmul@b+2,w
  5940     0D91  00F1               	movwf	__Umul8_16@multiplicand
  5941     0D92  0824               	movf	___flmul@a,w
  5942     0D93  160A  158A  2603  120A  158A  	fcall	__Umul8_16
  5943     0D98  0872               	movf	?__Umul8_16+1,w
  5944     0D99  1283               	bcf	3,5	;RP0=0, select bank0
  5945     0D9A  1303               	bcf	3,6	;RP1=0, select bank0
  5946     0D9B  00B9               	movwf	___flmul@temp+1
  5947     0D9C  0871               	movf	?__Umul8_16,w
  5948     0D9D  00B8               	movwf	___flmul@temp
  5949     0D9E                     i1l2962:
  5950     0D9E  0838               	movf	___flmul@temp,w
  5951     0D9F  00A8               	movwf	??___flmul
  5952     0DA0  01A9               	clrf	??___flmul+1
  5953     0DA1  01AA               	clrf	??___flmul+2
  5954     0DA2  01AB               	clrf	??___flmul+3
  5955     0DA3  0828               	movf	??___flmul,w
  5956     0DA4  07AE               	addwf	___flmul@grs,f
  5957     0DA5  0829               	movf	??___flmul+1,w
  5958     0DA6  1103               	clrz
  5959     0DA7  1803               	skipnc
  5960     0DA8  3E01               	addlw	1
  5961     0DA9  1903               	skipnz
  5962     0DAA  2DAC               	goto	u398_21
  5963     0DAB  07AF               	addwf	___flmul@grs+1,f
  5964     0DAC                     u398_21:
  5965     0DAC  082A               	movf	??___flmul+2,w
  5966     0DAD  1103               	clrz
  5967     0DAE  1803               	skipnc
  5968     0DAF  3E01               	addlw	1
  5969     0DB0  1903               	skipnz
  5970     0DB1  2DB3               	goto	u398_22
  5971     0DB2  07B0               	addwf	___flmul@grs+2,f
  5972     0DB3                     u398_22:
  5973     0DB3  082B               	movf	??___flmul+3,w
  5974     0DB4  1103               	clrz
  5975     0DB5  1803               	skipnc
  5976     0DB6  3E01               	addlw	1
  5977     0DB7  1903               	skipnz
  5978     0DB8  2DBA               	goto	u398_23
  5979     0DB9  07B1               	addwf	___flmul@grs+3,f
  5980     0DBA                     u398_23:
  5981     0DBA                     i1l2964:
  5982     0DBA  0839               	movf	___flmul@temp+1,w
  5983     0DBB  00A8               	movwf	??___flmul
  5984     0DBC  01A9               	clrf	??___flmul+1
  5985     0DBD  01AA               	clrf	??___flmul+2
  5986     0DBE  01AB               	clrf	??___flmul+3
  5987     0DBF  0828               	movf	??___flmul,w
  5988     0DC0  07B4               	addwf	___flmul@prod,f
  5989     0DC1  0829               	movf	??___flmul+1,w
  5990     0DC2  1103               	clrz
  5991     0DC3  1803               	skipnc
  5992     0DC4  3E01               	addlw	1
  5993     0DC5  1903               	skipnz
  5994     0DC6  2DC8               	goto	u399_21
  5995     0DC7  07B5               	addwf	___flmul@prod+1,f
  5996     0DC8                     u399_21:
  5997     0DC8  082A               	movf	??___flmul+2,w
  5998     0DC9  1103               	clrz
  5999     0DCA  1803               	skipnc
  6000     0DCB  3E01               	addlw	1
  6001     0DCC  1903               	skipnz
  6002     0DCD  2DCF               	goto	u399_22
  6003     0DCE  07B6               	addwf	___flmul@prod+2,f
  6004     0DCF                     u399_22:
  6005     0DCF  082B               	movf	??___flmul+3,w
  6006     0DD0  1103               	clrz
  6007     0DD1  1803               	skipnc
  6008     0DD2  3E01               	addlw	1
  6009     0DD3  1903               	skipnz
  6010     0DD4  2DD6               	goto	u399_23
  6011     0DD5  07B7               	addwf	___flmul@prod+3,f
  6012     0DD6                     u399_23:
  6013     0DD6                     i1l2966:
  6014     0DD6  3008               	movlw	8
  6015     0DD7  00A8               	movwf	??___flmul
  6016     0DD8                     u400_25:
  6017     0DD8  1003               	clrc
  6018     0DD9  0DAE               	rlf	___flmul@grs,f
  6019     0DDA  0DAF               	rlf	___flmul@grs+1,f
  6020     0DDB  0DB0               	rlf	___flmul@grs+2,f
  6021     0DDC  0DB1               	rlf	___flmul@grs+3,f
  6022     0DDD  0BA8               	decfsz	??___flmul,f
  6023     0DDE  2DD8               	goto	u400_25
  6024     0DDF                     i1l2968:
  6025     0DDF  0821               	movf	___flmul@b+1,w
  6026     0DE0  00F1               	movwf	__Umul8_16@multiplicand
  6027     0DE1  0824               	movf	___flmul@a,w
  6028     0DE2  160A  158A  2603  120A  158A  	fcall	__Umul8_16
  6029     0DE7  0872               	movf	?__Umul8_16+1,w
  6030     0DE8  1283               	bcf	3,5	;RP0=0, select bank0
  6031     0DE9  1303               	bcf	3,6	;RP1=0, select bank0
  6032     0DEA  00B9               	movwf	___flmul@temp+1
  6033     0DEB  0871               	movf	?__Umul8_16,w
  6034     0DEC  00B8               	movwf	___flmul@temp
  6035     0DED                     i1l2970:
  6036     0DED  0838               	movf	___flmul@temp,w
  6037     0DEE  00A8               	movwf	??___flmul
  6038     0DEF  0839               	movf	___flmul@temp+1,w
  6039     0DF0  00A9               	movwf	??___flmul+1
  6040     0DF1  01AA               	clrf	??___flmul+2
  6041     0DF2  01AB               	clrf	??___flmul+3
  6042     0DF3  0828               	movf	??___flmul,w
  6043     0DF4  07AE               	addwf	___flmul@grs,f
  6044     0DF5  0829               	movf	??___flmul+1,w
  6045     0DF6  1103               	clrz
  6046     0DF7  1803               	skipnc
  6047     0DF8  3E01               	addlw	1
  6048     0DF9  1903               	skipnz
  6049     0DFA  2DFC               	goto	u401_21
  6050     0DFB  07AF               	addwf	___flmul@grs+1,f
  6051     0DFC                     u401_21:
  6052     0DFC  082A               	movf	??___flmul+2,w
  6053     0DFD  1103               	clrz
  6054     0DFE  1803               	skipnc
  6055     0DFF  3E01               	addlw	1
  6056     0E00  1903               	skipnz
  6057     0E01  2E03               	goto	u401_22
  6058     0E02  07B0               	addwf	___flmul@grs+2,f
  6059     0E03                     u401_22:
  6060     0E03  082B               	movf	??___flmul+3,w
  6061     0E04  1103               	clrz
  6062     0E05  1803               	skipnc
  6063     0E06  3E01               	addlw	1
  6064     0E07  1903               	skipnz
  6065     0E08  2E0A               	goto	u401_23
  6066     0E09  07B1               	addwf	___flmul@grs+3,f
  6067     0E0A                     u401_23:
  6068     0E0A                     i1l2972:
  6069     0E0A  0820               	movf	___flmul@b,w
  6070     0E0B  00F1               	movwf	__Umul8_16@multiplicand
  6071     0E0C  0825               	movf	___flmul@a+1,w
  6072     0E0D  160A  158A  2603  120A  158A  	fcall	__Umul8_16
  6073     0E12  0872               	movf	?__Umul8_16+1,w
  6074     0E13  1283               	bcf	3,5	;RP0=0, select bank0
  6075     0E14  1303               	bcf	3,6	;RP1=0, select bank0
  6076     0E15  00B9               	movwf	___flmul@temp+1
  6077     0E16  0871               	movf	?__Umul8_16,w
  6078     0E17  00B8               	movwf	___flmul@temp
  6079     0E18                     i1l2974:
  6080     0E18  0838               	movf	___flmul@temp,w
  6081     0E19  00A8               	movwf	??___flmul
  6082     0E1A  0839               	movf	___flmul@temp+1,w
  6083     0E1B  00A9               	movwf	??___flmul+1
  6084     0E1C  01AA               	clrf	??___flmul+2
  6085     0E1D  01AB               	clrf	??___flmul+3
  6086     0E1E  0828               	movf	??___flmul,w
  6087     0E1F  07AE               	addwf	___flmul@grs,f
  6088     0E20  0829               	movf	??___flmul+1,w
  6089     0E21  1103               	clrz
  6090     0E22  1803               	skipnc
  6091     0E23  3E01               	addlw	1
  6092     0E24  1903               	skipnz
  6093     0E25  2E27               	goto	u402_21
  6094     0E26  07AF               	addwf	___flmul@grs+1,f
  6095     0E27                     u402_21:
  6096     0E27  082A               	movf	??___flmul+2,w
  6097     0E28  1103               	clrz
  6098     0E29  1803               	skipnc
  6099     0E2A  3E01               	addlw	1
  6100     0E2B  1903               	skipnz
  6101     0E2C  2E2E               	goto	u402_22
  6102     0E2D  07B0               	addwf	___flmul@grs+2,f
  6103     0E2E                     u402_22:
  6104     0E2E  082B               	movf	??___flmul+3,w
  6105     0E2F  1103               	clrz
  6106     0E30  1803               	skipnc
  6107     0E31  3E01               	addlw	1
  6108     0E32  1903               	skipnz
  6109     0E33  2E35               	goto	u402_23
  6110     0E34  07B1               	addwf	___flmul@grs+3,f
  6111     0E35                     u402_23:
  6112     0E35                     i1l2976:
  6113     0E35  3008               	movlw	8
  6114     0E36  00A8               	movwf	??___flmul
  6115     0E37                     u403_25:
  6116     0E37  1003               	clrc
  6117     0E38  0DAE               	rlf	___flmul@grs,f
  6118     0E39  0DAF               	rlf	___flmul@grs+1,f
  6119     0E3A  0DB0               	rlf	___flmul@grs+2,f
  6120     0E3B  0DB1               	rlf	___flmul@grs+3,f
  6121     0E3C  0BA8               	decfsz	??___flmul,f
  6122     0E3D  2E37               	goto	u403_25
  6123     0E3E  0820               	movf	___flmul@b,w
  6124     0E3F  00F1               	movwf	__Umul8_16@multiplicand
  6125     0E40  0824               	movf	___flmul@a,w
  6126     0E41  160A  158A  2603  120A  158A  	fcall	__Umul8_16
  6127     0E46  0872               	movf	?__Umul8_16+1,w
  6128     0E47  1283               	bcf	3,5	;RP0=0, select bank0
  6129     0E48  1303               	bcf	3,6	;RP1=0, select bank0
  6130     0E49  00B9               	movwf	___flmul@temp+1
  6131     0E4A  0871               	movf	?__Umul8_16,w
  6132     0E4B  00B8               	movwf	___flmul@temp
  6133     0E4C                     i1l2978:
  6134     0E4C  0838               	movf	___flmul@temp,w
  6135     0E4D  00A8               	movwf	??___flmul
  6136     0E4E  0839               	movf	___flmul@temp+1,w
  6137     0E4F  00A9               	movwf	??___flmul+1
  6138     0E50  01AA               	clrf	??___flmul+2
  6139     0E51  01AB               	clrf	??___flmul+3
  6140     0E52  0828               	movf	??___flmul,w
  6141     0E53  07AE               	addwf	___flmul@grs,f
  6142     0E54  0829               	movf	??___flmul+1,w
  6143     0E55  1103               	clrz
  6144     0E56  1803               	skipnc
  6145     0E57  3E01               	addlw	1
  6146     0E58  1903               	skipnz
  6147     0E59  2E5B               	goto	u404_21
  6148     0E5A  07AF               	addwf	___flmul@grs+1,f
  6149     0E5B                     u404_21:
  6150     0E5B  082A               	movf	??___flmul+2,w
  6151     0E5C  1103               	clrz
  6152     0E5D  1803               	skipnc
  6153     0E5E  3E01               	addlw	1
  6154     0E5F  1903               	skipnz
  6155     0E60  2E62               	goto	u404_22
  6156     0E61  07B0               	addwf	___flmul@grs+2,f
  6157     0E62                     u404_22:
  6158     0E62  082B               	movf	??___flmul+3,w
  6159     0E63  1103               	clrz
  6160     0E64  1803               	skipnc
  6161     0E65  3E01               	addlw	1
  6162     0E66  1903               	skipnz
  6163     0E67  2E69               	goto	u404_23
  6164     0E68  07B1               	addwf	___flmul@grs+3,f
  6165     0E69                     u404_23:
  6166     0E69                     i1l2980:
  6167     0E69  0821               	movf	___flmul@b+1,w
  6168     0E6A  00F1               	movwf	__Umul8_16@multiplicand
  6169     0E6B  0826               	movf	___flmul@a+2,w
  6170     0E6C  160A  158A  2603  120A  158A  	fcall	__Umul8_16
  6171     0E71  0872               	movf	?__Umul8_16+1,w
  6172     0E72  1283               	bcf	3,5	;RP0=0, select bank0
  6173     0E73  1303               	bcf	3,6	;RP1=0, select bank0
  6174     0E74  00B9               	movwf	___flmul@temp+1
  6175     0E75  0871               	movf	?__Umul8_16,w
  6176     0E76  00B8               	movwf	___flmul@temp
  6177     0E77  0838               	movf	___flmul@temp,w
  6178     0E78  00A8               	movwf	??___flmul
  6179     0E79  0839               	movf	___flmul@temp+1,w
  6180     0E7A  00A9               	movwf	??___flmul+1
  6181     0E7B  01AA               	clrf	??___flmul+2
  6182     0E7C  01AB               	clrf	??___flmul+3
  6183     0E7D  0828               	movf	??___flmul,w
  6184     0E7E  07B4               	addwf	___flmul@prod,f
  6185     0E7F  0829               	movf	??___flmul+1,w
  6186     0E80  1103               	clrz
  6187     0E81  1803               	skipnc
  6188     0E82  3E01               	addlw	1
  6189     0E83  1903               	skipnz
  6190     0E84  2E86               	goto	u405_21
  6191     0E85  07B5               	addwf	___flmul@prod+1,f
  6192     0E86                     u405_21:
  6193     0E86  082A               	movf	??___flmul+2,w
  6194     0E87  1103               	clrz
  6195     0E88  1803               	skipnc
  6196     0E89  3E01               	addlw	1
  6197     0E8A  1903               	skipnz
  6198     0E8B  2E8D               	goto	u405_22
  6199     0E8C  07B6               	addwf	___flmul@prod+2,f
  6200     0E8D                     u405_22:
  6201     0E8D  082B               	movf	??___flmul+3,w
  6202     0E8E  1103               	clrz
  6203     0E8F  1803               	skipnc
  6204     0E90  3E01               	addlw	1
  6205     0E91  1903               	skipnz
  6206     0E92  2E94               	goto	u405_23
  6207     0E93  07B7               	addwf	___flmul@prod+3,f
  6208     0E94                     u405_23:
  6209     0E94                     i1l2982:
  6210     0E94  0822               	movf	___flmul@b+2,w
  6211     0E95  00F1               	movwf	__Umul8_16@multiplicand
  6212     0E96  0825               	movf	___flmul@a+1,w
  6213     0E97  160A  158A  2603  120A  158A  	fcall	__Umul8_16
  6214     0E9C  0872               	movf	?__Umul8_16+1,w
  6215     0E9D  1283               	bcf	3,5	;RP0=0, select bank0
  6216     0E9E  1303               	bcf	3,6	;RP1=0, select bank0
  6217     0E9F  00B9               	movwf	___flmul@temp+1
  6218     0EA0  0871               	movf	?__Umul8_16,w
  6219     0EA1  00B8               	movwf	___flmul@temp
  6220     0EA2                     i1l2984:
  6221     0EA2  0838               	movf	___flmul@temp,w
  6222     0EA3  00A8               	movwf	??___flmul
  6223     0EA4  0839               	movf	___flmul@temp+1,w
  6224     0EA5  00A9               	movwf	??___flmul+1
  6225     0EA6  01AA               	clrf	??___flmul+2
  6226     0EA7  01AB               	clrf	??___flmul+3
  6227     0EA8  0828               	movf	??___flmul,w
  6228     0EA9  07B4               	addwf	___flmul@prod,f
  6229     0EAA  0829               	movf	??___flmul+1,w
  6230     0EAB  1103               	clrz
  6231     0EAC  1803               	skipnc
  6232     0EAD  3E01               	addlw	1
  6233     0EAE  1903               	skipnz
  6234     0EAF  2EB1               	goto	u406_21
  6235     0EB0  07B5               	addwf	___flmul@prod+1,f
  6236     0EB1                     u406_21:
  6237     0EB1  082A               	movf	??___flmul+2,w
  6238     0EB2  1103               	clrz
  6239     0EB3  1803               	skipnc
  6240     0EB4  3E01               	addlw	1
  6241     0EB5  1903               	skipnz
  6242     0EB6  2EB8               	goto	u406_22
  6243     0EB7  07B6               	addwf	___flmul@prod+2,f
  6244     0EB8                     u406_22:
  6245     0EB8  082B               	movf	??___flmul+3,w
  6246     0EB9  1103               	clrz
  6247     0EBA  1803               	skipnc
  6248     0EBB  3E01               	addlw	1
  6249     0EBC  1903               	skipnz
  6250     0EBD  2EBF               	goto	u406_23
  6251     0EBE  07B7               	addwf	___flmul@prod+3,f
  6252     0EBF                     u406_23:
  6253     0EBF  0822               	movf	___flmul@b+2,w
  6254     0EC0  00F1               	movwf	__Umul8_16@multiplicand
  6255     0EC1  0826               	movf	___flmul@a+2,w
  6256     0EC2  160A  158A  2603  120A  158A  	fcall	__Umul8_16
  6257     0EC7  0872               	movf	?__Umul8_16+1,w
  6258     0EC8  1283               	bcf	3,5	;RP0=0, select bank0
  6259     0EC9  1303               	bcf	3,6	;RP1=0, select bank0
  6260     0ECA  00B9               	movwf	___flmul@temp+1
  6261     0ECB  0871               	movf	?__Umul8_16,w
  6262     0ECC  00B8               	movwf	___flmul@temp
  6263     0ECD                     i1l2986:
  6264     0ECD  0838               	movf	___flmul@temp,w
  6265     0ECE  00A8               	movwf	??___flmul
  6266     0ECF  0839               	movf	___flmul@temp+1,w
  6267     0ED0  00A9               	movwf	??___flmul+1
  6268     0ED1  01AA               	clrf	??___flmul+2
  6269     0ED2  01AB               	clrf	??___flmul+3
  6270     0ED3  3008               	movlw	8
  6271     0ED4                     u407_25:
  6272     0ED4  1003               	clrc
  6273     0ED5  0DA8               	rlf	??___flmul,f
  6274     0ED6  0DA9               	rlf	??___flmul+1,f
  6275     0ED7  0DAA               	rlf	??___flmul+2,f
  6276     0ED8  0DAB               	rlf	??___flmul+3,f
  6277     0ED9                     u407_20:
  6278     0ED9  3EFF               	addlw	-1
  6279     0EDA  1D03               	skipz
  6280     0EDB  2ED4               	goto	u407_25
  6281     0EDC  0828               	movf	??___flmul,w
  6282     0EDD  07B4               	addwf	___flmul@prod,f
  6283     0EDE  0829               	movf	??___flmul+1,w
  6284     0EDF  1103               	clrz
  6285     0EE0  1803               	skipnc
  6286     0EE1  3E01               	addlw	1
  6287     0EE2  1903               	skipnz
  6288     0EE3  2EE5               	goto	u408_21
  6289     0EE4  07B5               	addwf	___flmul@prod+1,f
  6290     0EE5                     u408_21:
  6291     0EE5  082A               	movf	??___flmul+2,w
  6292     0EE6  1103               	clrz
  6293     0EE7  1803               	skipnc
  6294     0EE8  3E01               	addlw	1
  6295     0EE9  1903               	skipnz
  6296     0EEA  2EEC               	goto	u408_22
  6297     0EEB  07B6               	addwf	___flmul@prod+2,f
  6298     0EEC                     u408_22:
  6299     0EEC  082B               	movf	??___flmul+3,w
  6300     0EED  1103               	clrz
  6301     0EEE  1803               	skipnc
  6302     0EEF  3E01               	addlw	1
  6303     0EF0  1903               	skipnz
  6304     0EF1  2EF3               	goto	u408_23
  6305     0EF2  07B7               	addwf	___flmul@prod+3,f
  6306     0EF3                     u408_23:
  6307     0EF3                     i1l2988:
  6308     0EF3  082E               	movf	___flmul@grs,w
  6309     0EF4  00A8               	movwf	??___flmul
  6310     0EF5  082F               	movf	___flmul@grs+1,w
  6311     0EF6  00A9               	movwf	??___flmul+1
  6312     0EF7  0830               	movf	___flmul@grs+2,w
  6313     0EF8  00AA               	movwf	??___flmul+2
  6314     0EF9  0831               	movf	___flmul@grs+3,w
  6315     0EFA  00AB               	movwf	??___flmul+3
  6316     0EFB  3018               	movlw	24
  6317     0EFC                     u409_25:
  6318     0EFC  1003               	clrc
  6319     0EFD  0CAB               	rrf	??___flmul+3,f
  6320     0EFE  0CAA               	rrf	??___flmul+2,f
  6321     0EFF  0CA9               	rrf	??___flmul+1,f
  6322     0F00  0CA8               	rrf	??___flmul,f
  6323     0F01                     u409_20:
  6324     0F01  3EFF               	addlw	-1
  6325     0F02  1D03               	skipz
  6326     0F03  2EFC               	goto	u409_25
  6327     0F04  0828               	movf	??___flmul,w
  6328     0F05  07B4               	addwf	___flmul@prod,f
  6329     0F06  0829               	movf	??___flmul+1,w
  6330     0F07  1103               	clrz
  6331     0F08  1803               	skipnc
  6332     0F09  3E01               	addlw	1
  6333     0F0A  1903               	skipnz
  6334     0F0B  2F0D               	goto	u410_21
  6335     0F0C  07B5               	addwf	___flmul@prod+1,f
  6336     0F0D                     u410_21:
  6337     0F0D  082A               	movf	??___flmul+2,w
  6338     0F0E  1103               	clrz
  6339     0F0F  1803               	skipnc
  6340     0F10  3E01               	addlw	1
  6341     0F11  1903               	skipnz
  6342     0F12  2F14               	goto	u410_22
  6343     0F13  07B6               	addwf	___flmul@prod+2,f
  6344     0F14                     u410_22:
  6345     0F14  082B               	movf	??___flmul+3,w
  6346     0F15  1103               	clrz
  6347     0F16  1803               	skipnc
  6348     0F17  3E01               	addlw	1
  6349     0F18  1903               	skipnz
  6350     0F19  2F1B               	goto	u410_23
  6351     0F1A  07B7               	addwf	___flmul@prod+3,f
  6352     0F1B                     u410_23:
  6353     0F1B                     i1l2990:
  6354     0F1B  3008               	movlw	8
  6355     0F1C  00A8               	movwf	??___flmul
  6356     0F1D                     u411_25:
  6357     0F1D  1003               	clrc
  6358     0F1E  0DAE               	rlf	___flmul@grs,f
  6359     0F1F  0DAF               	rlf	___flmul@grs+1,f
  6360     0F20  0DB0               	rlf	___flmul@grs+2,f
  6361     0F21  0DB1               	rlf	___flmul@grs+3,f
  6362     0F22  0BA8               	decfsz	??___flmul,f
  6363     0F23  2F1D               	goto	u411_25
  6364     0F24                     i1l2992:
  6365     0F24  0833               	movf	___flmul@bexp,w
  6366     0F25  0732               	addwf	___flmul@aexp,w
  6367     0F26  00A8               	movwf	??___flmul
  6368     0F27  01A9               	clrf	??___flmul+1
  6369     0F28  0DA9               	rlf	??___flmul+1,f
  6370     0F29  0828               	movf	??___flmul,w
  6371     0F2A  3E82               	addlw	130
  6372     0F2B  00B8               	movwf	___flmul@temp
  6373     0F2C  0829               	movf	??___flmul+1,w
  6374     0F2D  1803               	skipnc
  6375     0F2E  3E01               	addlw	1
  6376     0F2F  3EFF               	addlw	255
  6377     0F30  00B9               	movwf	___flmul@temp+1
  6378     0F31  2F4F               	goto	i1l3004
  6379     0F32                     i1l2994:
  6380     0F32  3001               	movlw	1
  6381     0F33  00A8               	movwf	??___flmul
  6382     0F34                     u412_25:
  6383     0F34  1003               	clrc
  6384     0F35  0DB4               	rlf	___flmul@prod,f
  6385     0F36  0DB5               	rlf	___flmul@prod+1,f
  6386     0F37  0DB6               	rlf	___flmul@prod+2,f
  6387     0F38  0DB7               	rlf	___flmul@prod+3,f
  6388     0F39  0BA8               	decfsz	??___flmul,f
  6389     0F3A  2F34               	goto	u412_25
  6390     0F3B                     i1l2996:
  6391     0F3B  1FB1               	btfss	___flmul@grs+3,7
  6392     0F3C  2F3E               	goto	u413_21
  6393     0F3D  2F3F               	goto	u413_20
  6394     0F3E                     u413_21:
  6395     0F3E  2F40               	goto	i1l3000
  6396     0F3F                     u413_20:
  6397     0F3F                     i1l2998:
  6398     0F3F  1434               	bsf	___flmul@prod,0
  6399     0F40                     i1l3000:
  6400     0F40  3001               	movlw	1
  6401     0F41  00A8               	movwf	??___flmul
  6402     0F42                     u414_25:
  6403     0F42  1003               	clrc
  6404     0F43  0DAE               	rlf	___flmul@grs,f
  6405     0F44  0DAF               	rlf	___flmul@grs+1,f
  6406     0F45  0DB0               	rlf	___flmul@grs+2,f
  6407     0F46  0DB1               	rlf	___flmul@grs+3,f
  6408     0F47  0BA8               	decfsz	??___flmul,f
  6409     0F48  2F42               	goto	u414_25
  6410     0F49                     i1l3002:
  6411     0F49  30FF               	movlw	255
  6412     0F4A  07B8               	addwf	___flmul@temp,f
  6413     0F4B  1803               	skipnc
  6414     0F4C  0AB9               	incf	___flmul@temp+1,f
  6415     0F4D  30FF               	movlw	255
  6416     0F4E  07B9               	addwf	___flmul@temp+1,f
  6417     0F4F                     i1l3004:
  6418     0F4F  1FB6               	btfss	___flmul@prod+2,7
  6419     0F50  2F52               	goto	u415_21
  6420     0F51  2F53               	goto	u415_20
  6421     0F52                     u415_21:
  6422     0F52  2F32               	goto	i1l2994
  6423     0F53                     u415_20:
  6424     0F53                     i1l3006:
  6425     0F53  01B2               	clrf	___flmul@aexp
  6426     0F54                     i1l3008:
  6427     0F54  1FB1               	btfss	___flmul@grs+3,7
  6428     0F55  2F57               	goto	u416_21
  6429     0F56  2F58               	goto	u416_20
  6430     0F57                     u416_21:
  6431     0F57  2F74               	goto	i1l3016
  6432     0F58                     u416_20:
  6433     0F58                     i1l3010:
  6434     0F58  30FF               	movlw	255
  6435     0F59  052E               	andwf	___flmul@grs,w
  6436     0F5A  00A8               	movwf	??___flmul
  6437     0F5B  30FF               	movlw	255
  6438     0F5C  052F               	andwf	___flmul@grs+1,w
  6439     0F5D  00A9               	movwf	??___flmul+1
  6440     0F5E  30FF               	movlw	255
  6441     0F5F  0530               	andwf	___flmul@grs+2,w
  6442     0F60  00AA               	movwf	??___flmul+2
  6443     0F61  307F               	movlw	127
  6444     0F62  0531               	andwf	___flmul@grs+3,w
  6445     0F63  00AB               	movwf	??___flmul+3
  6446     0F64  082B               	movf	??___flmul+3,w
  6447     0F65  042A               	iorwf	??___flmul+2,w
  6448     0F66  0429               	iorwf	??___flmul+1,w
  6449     0F67  0428               	iorwf	??___flmul,w
  6450     0F68  1903               	skipnz
  6451     0F69  2F6B               	goto	u417_21
  6452     0F6A  2F6C               	goto	u417_20
  6453     0F6B                     u417_21:
  6454     0F6B  2F6F               	goto	i1l613
  6455     0F6C                     u417_20:
  6456     0F6C                     i1l3012:
  6457     0F6C  01B2               	clrf	___flmul@aexp
  6458     0F6D  0AB2               	incf	___flmul@aexp,f
  6459     0F6E  2F74               	goto	i1l3016
  6460     0F6F                     i1l613:
  6461     0F6F  1C34               	btfss	___flmul@prod,0
  6462     0F70  2F72               	goto	u418_21
  6463     0F71  2F73               	goto	u418_20
  6464     0F72                     u418_21:
  6465     0F72  2F74               	goto	i1l3016
  6466     0F73                     u418_20:
  6467     0F73  2F6C               	goto	i1l3012
  6468     0F74                     i1l3016:
  6469     0F74  0832               	movf	___flmul@aexp,w
  6470     0F75  1903               	btfsc	3,2
  6471     0F76  2F78               	goto	u419_21
  6472     0F77  2F79               	goto	u419_20
  6473     0F78                     u419_21:
  6474     0F78  2FAA               	goto	i1l3026
  6475     0F79                     u419_20:
  6476     0F79                     i1l3018:
  6477     0F79  3001               	movlw	1
  6478     0F7A  07B4               	addwf	___flmul@prod,f
  6479     0F7B  3000               	movlw	0
  6480     0F7C  1803               	skipnc
  6481     0F7D  3001               	movlw	1
  6482     0F7E  07B5               	addwf	___flmul@prod+1,f
  6483     0F7F  3000               	movlw	0
  6484     0F80  1803               	skipnc
  6485     0F81  3001               	movlw	1
  6486     0F82  07B6               	addwf	___flmul@prod+2,f
  6487     0F83  3000               	movlw	0
  6488     0F84  1803               	skipnc
  6489     0F85  3001               	movlw	1
  6490     0F86  07B7               	addwf	___flmul@prod+3,f
  6491     0F87                     i1l3020:
  6492     0F87  1C37               	btfss	___flmul@prod+3,0
  6493     0F88  2F8A               	goto	u420_21
  6494     0F89  2F8B               	goto	u420_20
  6495     0F8A                     u420_21:
  6496     0F8A  2FAA               	goto	i1l3026
  6497     0F8B                     u420_20:
  6498     0F8B                     i1l3022:
  6499     0F8B  0834               	movf	___flmul@prod,w
  6500     0F8C  00A8               	movwf	??___flmul
  6501     0F8D  0835               	movf	___flmul@prod+1,w
  6502     0F8E  00A9               	movwf	??___flmul+1
  6503     0F8F  0836               	movf	___flmul@prod+2,w
  6504     0F90  00AA               	movwf	??___flmul+2
  6505     0F91  0837               	movf	___flmul@prod+3,w
  6506     0F92  00AB               	movwf	??___flmul+3
  6507     0F93  3001               	movlw	1
  6508     0F94  00AC               	movwf	??___flmul+4
  6509     0F95                     u421_25:
  6510     0F95  0D2B               	rlf	??___flmul+3,w
  6511     0F96  0CAB               	rrf	??___flmul+3,f
  6512     0F97  0CAA               	rrf	??___flmul+2,f
  6513     0F98  0CA9               	rrf	??___flmul+1,f
  6514     0F99  0CA8               	rrf	??___flmul,f
  6515     0F9A                     u421_20:
  6516     0F9A  0BAC               	decfsz	??___flmul+4,f
  6517     0F9B  2F95               	goto	u421_25
  6518     0F9C  082B               	movf	??___flmul+3,w
  6519     0F9D  00B7               	movwf	___flmul@prod+3
  6520     0F9E  082A               	movf	??___flmul+2,w
  6521     0F9F  00B6               	movwf	___flmul@prod+2
  6522     0FA0  0829               	movf	??___flmul+1,w
  6523     0FA1  00B5               	movwf	___flmul@prod+1
  6524     0FA2  0828               	movf	??___flmul,w
  6525     0FA3  00B4               	movwf	___flmul@prod
  6526     0FA4                     i1l3024:
  6527     0FA4  3001               	movlw	1
  6528     0FA5  07B8               	addwf	___flmul@temp,f
  6529     0FA6  1803               	skipnc
  6530     0FA7  0AB9               	incf	___flmul@temp+1,f
  6531     0FA8  3000               	movlw	0
  6532     0FA9  07B9               	addwf	___flmul@temp+1,f
  6533     0FAA                     i1l3026:
  6534     0FAA  0839               	movf	___flmul@temp+1,w
  6535     0FAB  3A80               	xorlw	128
  6536     0FAC  00FF               	movwf	btemp+1
  6537     0FAD  3080               	movlw	128
  6538     0FAE  027F               	subwf	btemp+1,w
  6539     0FAF  1D03               	skipz
  6540     0FB0  2FB3               	goto	u422_25
  6541     0FB1  30FF               	movlw	255
  6542     0FB2  0238               	subwf	___flmul@temp,w
  6543     0FB3                     u422_25:
  6544     0FB3  1C03               	skipc
  6545     0FB4  2FB6               	goto	u422_21
  6546     0FB5  2FB7               	goto	u422_20
  6547     0FB6                     u422_21:
  6548     0FB6  2FC2               	goto	i1l3030
  6549     0FB7                     u422_20:
  6550     0FB7                     i1l3028:
  6551     0FB7  307F               	movlw	127
  6552     0FB8  1283               	bcf	3,5	;RP0=0, select bank0
  6553     0FB9  1303               	bcf	3,6	;RP1=0, select bank0
  6554     0FBA  00B7               	movwf	___flmul@prod+3
  6555     0FBB  3080               	movlw	128
  6556     0FBC  00B6               	movwf	___flmul@prod+2
  6557     0FBD  3000               	movlw	0
  6558     0FBE  00B5               	movwf	___flmul@prod+1
  6559     0FBF  3000               	movlw	0
  6560     0FC0  00B4               	movwf	___flmul@prod
  6561     0FC1  2FF3               	goto	i1l3044
  6562     0FC2                     i1l3030:
  6563     0FC2  1283               	bcf	3,5	;RP0=0, select bank0
  6564     0FC3  1303               	bcf	3,6	;RP1=0, select bank0
  6565     0FC4  0839               	movf	___flmul@temp+1,w
  6566     0FC5  3A80               	xorlw	128
  6567     0FC6  00FF               	movwf	btemp+1
  6568     0FC7  3080               	movlw	128
  6569     0FC8  027F               	subwf	btemp+1,w
  6570     0FC9  1D03               	skipz
  6571     0FCA  2FCD               	goto	u423_25
  6572     0FCB  3001               	movlw	1
  6573     0FCC  0238               	subwf	___flmul@temp,w
  6574     0FCD                     u423_25:
  6575     0FCD  1803               	skipnc
  6576     0FCE  2FD0               	goto	u423_21
  6577     0FCF  2FD1               	goto	u423_20
  6578     0FD0                     u423_21:
  6579     0FD0  2FDD               	goto	i1l3036
  6580     0FD1                     u423_20:
  6581     0FD1                     i1l3032:
  6582     0FD1  3000               	movlw	0
  6583     0FD2  1283               	bcf	3,5	;RP0=0, select bank0
  6584     0FD3  1303               	bcf	3,6	;RP1=0, select bank0
  6585     0FD4  00B7               	movwf	___flmul@prod+3
  6586     0FD5  3000               	movlw	0
  6587     0FD6  00B6               	movwf	___flmul@prod+2
  6588     0FD7  3000               	movlw	0
  6589     0FD8  00B5               	movwf	___flmul@prod+1
  6590     0FD9  3000               	movlw	0
  6591     0FDA  00B4               	movwf	___flmul@prod
  6592     0FDB                     i1l3034:
  6593     0FDB  01AD               	clrf	___flmul@sign
  6594     0FDC  2FF3               	goto	i1l3044
  6595     0FDD                     i1l3036:
  6596     0FDD  1283               	bcf	3,5	;RP0=0, select bank0
  6597     0FDE  1303               	bcf	3,6	;RP1=0, select bank0
  6598     0FDF  0838               	movf	___flmul@temp,w
  6599     0FE0  00B3               	movwf	___flmul@bexp
  6600     0FE1  30FF               	movlw	255
  6601     0FE2  05B4               	andwf	___flmul@prod,f
  6602     0FE3  30FF               	movlw	255
  6603     0FE4  05B5               	andwf	___flmul@prod+1,f
  6604     0FE5  307F               	movlw	127
  6605     0FE6  05B6               	andwf	___flmul@prod+2,f
  6606     0FE7  3000               	movlw	0
  6607     0FE8  05B7               	andwf	___flmul@prod+3,f
  6608     0FE9                     i1l3038:
  6609     0FE9  1C33               	btfss	___flmul@bexp,0
  6610     0FEA  2FEC               	goto	u424_21
  6611     0FEB  2FED               	goto	u424_20
  6612     0FEC                     u424_21:
  6613     0FEC  2FEE               	goto	i1l3042
  6614     0FED                     u424_20:
  6615     0FED                     i1l3040:
  6616     0FED  17B6               	bsf	___flmul@prod+2,7
  6617     0FEE                     i1l3042:
  6618     0FEE  0833               	movf	___flmul@bexp,w
  6619     0FEF  00A8               	movwf	??___flmul
  6620     0FF0  1003               	clrc
  6621     0FF1  0C28               	rrf	??___flmul,w
  6622     0FF2  00B7               	movwf	___flmul@prod+3
  6623     0FF3                     i1l3044:
  6624     0FF3  082D               	movf	___flmul@sign,w
  6625     0FF4  00FF               	movwf	btemp+1
  6626     0FF5  087F               	movf	btemp+1,w
  6627     0FF6  04B7               	iorwf	___flmul@prod+3,f
  6628     0FF7                     i1l3046:
  6629     0FF7  0837               	movf	___flmul@prod+3,w
  6630     0FF8  00A3               	movwf	?___flmul+3
  6631     0FF9  0836               	movf	___flmul@prod+2,w
  6632     0FFA  00A2               	movwf	?___flmul+2
  6633     0FFB  0835               	movf	___flmul@prod+1,w
  6634     0FFC  00A1               	movwf	?___flmul+1
  6635     0FFD  0834               	movf	___flmul@prod,w
  6636     0FFE  00A0               	movwf	?___flmul
  6637     0FFF                     i1l607:
  6638     0FFF  0008               	return
  6639     1000                     __end_of___flmul:
  6640                           
  6641                           	psect	text23
  6642     1E03                     __ptext23:	
  6643 ;; *************** function __Umul8_16 *****************
  6644 ;; Defined at:
  6645 ;;		line 4 in file "C:\Program Files\Microchip\xc8\v2.45\pic\sources\c99\common\Umul8_16.c"
  6646 ;; Parameters:    Size  Location     Type
  6647 ;;  multiplier      1    wreg     unsigned char 
  6648 ;;  multiplicand    1    0[COMMON] unsigned char 
  6649 ;; Auto vars:     Size  Location     Type
  6650 ;;  multiplier      1    8[COMMON] unsigned char 
  6651 ;;  word_mpld       2    6[COMMON] unsigned short 
  6652 ;;  product         2    4[COMMON] unsigned short 
  6653 ;; Return value:  Size  Location     Type
  6654 ;;                  2    0[COMMON] unsigned int 
  6655 ;; Registers used:
  6656 ;;		wreg, status,2, status,0
  6657 ;; Tracked objects:
  6658 ;;		On entry : 0/0
  6659 ;;		On exit  : 0/0
  6660 ;;		Unchanged: 0/0
  6661 ;; Data sizes:     COMMON   BANK0   BANK1   BANK3   BANK2
  6662 ;;      Params:         2       0       0       0       0
  6663 ;;      Locals:         5       0       0       0       0
  6664 ;;      Temps:          2       0       0       0       0
  6665 ;;      Totals:         9       0       0       0       0
  6666 ;;Total ram usage:        9 bytes
  6667 ;; Hardware stack levels used: 1
  6668 ;; This function calls:
  6669 ;;		Nothing
  6670 ;; This function is called by:
  6671 ;;		___flmul
  6672 ;; This function uses a non-reentrant model
  6673 ;;
  6674                           
  6675     1E03                     __Umul8_16:	
  6676                           ;psect for function __Umul8_16
  6677                           
  6678                           
  6679                           ;incstack = 0
  6680 ;; hardware stack exceeded
  6681                           ; Regs used in __Umul8_16: [wreg+status,2+status,0]
  6682                           ;__Umul8_16@multiplier stored from wreg
  6683     1E03  00F9               	movwf	__Umul8_16@multiplier
  6684     1E04                     i1l2560:
  6685     1E04  01F5               	clrf	__Umul8_16@product
  6686     1E05  01F6               	clrf	__Umul8_16@product+1
  6687     1E06                     i1l2562:
  6688     1E06  0871               	movf	__Umul8_16@multiplicand,w
  6689     1E07  00F3               	movwf	??__Umul8_16
  6690     1E08  01F4               	clrf	??__Umul8_16+1
  6691     1E09  0873               	movf	??__Umul8_16,w
  6692     1E0A  00F7               	movwf	__Umul8_16@word_mpld
  6693     1E0B  0874               	movf	??__Umul8_16+1,w
  6694     1E0C  00F8               	movwf	__Umul8_16@word_mpld+1
  6695     1E0D                     i1l2564:
  6696     1E0D  1C79               	btfss	__Umul8_16@multiplier,0
  6697     1E0E  2E10               	goto	u310_21
  6698     1E0F  2E11               	goto	u310_20
  6699     1E10                     u310_21:
  6700     1E10  2E17               	goto	i1l626
  6701     1E11                     u310_20:
  6702     1E11                     i1l2566:
  6703     1E11  0877               	movf	__Umul8_16@word_mpld,w
  6704     1E12  07F5               	addwf	__Umul8_16@product,f
  6705     1E13  1803               	skipnc
  6706     1E14  0AF6               	incf	__Umul8_16@product+1,f
  6707     1E15  0878               	movf	__Umul8_16@word_mpld+1,w
  6708     1E16  07F6               	addwf	__Umul8_16@product+1,f
  6709     1E17                     i1l626:
  6710     1E17  3001               	movlw	1
  6711     1E18                     u311_25:
  6712     1E18  1003               	clrc
  6713     1E19  0DF7               	rlf	__Umul8_16@word_mpld,f
  6714     1E1A  0DF8               	rlf	__Umul8_16@word_mpld+1,f
  6715     1E1B  3EFF               	addlw	-1
  6716     1E1C  1D03               	skipz
  6717     1E1D  2E18               	goto	u311_25
  6718     1E1E  1003               	clrc
  6719     1E1F  0CF9               	rrf	__Umul8_16@multiplier,f
  6720     1E20                     i1l2568:
  6721     1E20  0879               	movf	__Umul8_16@multiplier,w
  6722     1E21  1D03               	btfss	3,2
  6723     1E22  2E24               	goto	u312_21
  6724     1E23  2E25               	goto	u312_20
  6725     1E24                     u312_21:
  6726     1E24  2E0D               	goto	i1l2564
  6727     1E25                     u312_20:
  6728     1E25                     i1l2570:
  6729     1E25  0876               	movf	__Umul8_16@product+1,w
  6730     1E26  00F2               	movwf	?__Umul8_16+1
  6731     1E27  0875               	movf	__Umul8_16@product,w
  6732     1E28  00F1               	movwf	?__Umul8_16
  6733     1E29                     i1l628:
  6734     1E29  0008               	return
  6735     1E2A                     __end_of__Umul8_16:
  6736                           
  6737                           	psect	text24
  6738     0030                     __ptext24:	
  6739 ;; *************** function ___flge *****************
  6740 ;; Defined at:
  6741 ;;		line 4 in file "C:\Program Files\Microchip\xc8\v2.45\pic\sources\c99\common\flge.c"
  6742 ;; Parameters:    Size  Location     Type
  6743 ;;  ff1             4   26[BANK0 ] unsigned int 
  6744 ;;  ff2             4   30[BANK0 ] unsigned int 
  6745 ;; Auto vars:     Size  Location     Type
  6746 ;;		None
  6747 ;; Return value:  Size  Location     Type
  6748 ;;		None               void
  6749 ;; Registers used:
  6750 ;;		wreg, status,2, status,0
  6751 ;; Tracked objects:
  6752 ;;		On entry : 0/0
  6753 ;;		On exit  : 0/0
  6754 ;;		Unchanged: 0/0
  6755 ;; Data sizes:     COMMON   BANK0   BANK1   BANK3   BANK2
  6756 ;;      Params:         0       8       0       0       0
  6757 ;;      Locals:         0       0       0       0       0
  6758 ;;      Temps:          4       0       0       0       0
  6759 ;;      Totals:         4       8       0       0       0
  6760 ;;Total ram usage:       12 bytes
  6761 ;; Hardware stack levels used: 1
  6762 ;; This function calls:
  6763 ;;		Nothing
  6764 ;; This function is called by:
  6765 ;;		_efgtoa
  6766 ;; This function uses a non-reentrant model
  6767 ;;
  6768                           
  6769     0030                     ___flge:	
  6770                           ;psect for function ___flge
  6771                           
  6772     0030                     i1l2690:	
  6773                           ;incstack = 0
  6774                           ; Regs used in ___flge: [wreg+status,2+status,0]
  6775                           
  6776     0030  3000               	movlw	0
  6777     0031  1283               	bcf	3,5	;RP0=0, select bank0
  6778     0032  1303               	bcf	3,6	;RP1=0, select bank0
  6779     0033  053A               	andwf	___flge@ff1,w
  6780     0034  00FA               	movwf	??___flge
  6781     0035  3000               	movlw	0
  6782     0036  053B               	andwf	___flge@ff1+1,w
  6783     0037  00FB               	movwf	??___flge+1
  6784     0038  3080               	movlw	128
  6785     0039  053C               	andwf	___flge@ff1+2,w
  6786     003A  00FC               	movwf	??___flge+2
  6787     003B  307F               	movlw	127
  6788     003C  053D               	andwf	___flge@ff1+3,w
  6789     003D  00FD               	movwf	??___flge+3
  6790     003E  087D               	movf	??___flge+3,w
  6791     003F  047C               	iorwf	??___flge+2,w
  6792     0040  047B               	iorwf	??___flge+1,w
  6793     0041  047A               	iorwf	??___flge,w
  6794     0042  1D03               	skipz
  6795     0043  2845               	goto	u340_21
  6796     0044  2846               	goto	u340_20
  6797     0045                     u340_21:
  6798     0045  284E               	goto	i1l388
  6799     0046                     u340_20:
  6800     0046                     i1l2692:
  6801     0046  3000               	movlw	0
  6802     0047  00BD               	movwf	___flge@ff1+3
  6803     0048  3000               	movlw	0
  6804     0049  00BC               	movwf	___flge@ff1+2
  6805     004A  3000               	movlw	0
  6806     004B  00BB               	movwf	___flge@ff1+1
  6807     004C  3000               	movlw	0
  6808     004D  00BA               	movwf	___flge@ff1
  6809     004E                     i1l388:
  6810     004E  3000               	movlw	0
  6811     004F  053E               	andwf	___flge@ff2,w
  6812     0050  00FA               	movwf	??___flge
  6813     0051  3000               	movlw	0
  6814     0052  053F               	andwf	___flge@ff2+1,w
  6815     0053  00FB               	movwf	??___flge+1
  6816     0054  3080               	movlw	128
  6817     0055  0540               	andwf	___flge@ff2+2,w
  6818     0056  00FC               	movwf	??___flge+2
  6819     0057  307F               	movlw	127
  6820     0058  0541               	andwf	___flge@ff2+3,w
  6821     0059  00FD               	movwf	??___flge+3
  6822     005A  087D               	movf	??___flge+3,w
  6823     005B  047C               	iorwf	??___flge+2,w
  6824     005C  047B               	iorwf	??___flge+1,w
  6825     005D  047A               	iorwf	??___flge,w
  6826     005E  1D03               	skipz
  6827     005F  2861               	goto	u341_21
  6828     0060  2862               	goto	u341_20
  6829     0061                     u341_21:
  6830     0061  286A               	goto	i1l2696
  6831     0062                     u341_20:
  6832     0062                     i1l2694:
  6833     0062  3000               	movlw	0
  6834     0063  00C1               	movwf	___flge@ff2+3
  6835     0064  3000               	movlw	0
  6836     0065  00C0               	movwf	___flge@ff2+2
  6837     0066  3000               	movlw	0
  6838     0067  00BF               	movwf	___flge@ff2+1
  6839     0068  3000               	movlw	0
  6840     0069  00BE               	movwf	___flge@ff2
  6841     006A                     i1l2696:
  6842     006A  1FBD               	btfss	___flge@ff1+3,7
  6843     006B  286D               	goto	u342_21
  6844     006C  286E               	goto	u342_20
  6845     006D                     u342_21:
  6846     006D  2892               	goto	i1l2700
  6847     006E                     u342_20:
  6848     006E                     i1l2698:
  6849     006E  3000               	movlw	0
  6850     006F  00FA               	movwf	??___flge
  6851     0070  3000               	movlw	0
  6852     0071  00FB               	movwf	??___flge+1
  6853     0072  3000               	movlw	0
  6854     0073  00FC               	movwf	??___flge+2
  6855     0074  3080               	movlw	128
  6856     0075  00FD               	movwf	??___flge+3
  6857     0076  083A               	movf	___flge@ff1,w
  6858     0077  02FA               	subwf	??___flge,f
  6859     0078  083B               	movf	___flge@ff1+1,w
  6860     0079  1C03               	skipc
  6861     007A  0F3B               	incfsz	___flge@ff1+1,w
  6862     007B  287D               	goto	u343_21
  6863     007C  287E               	goto	u343_22
  6864     007D                     u343_21:
  6865     007D  02FB               	subwf	??___flge+1,f
  6866     007E                     u343_22:
  6867     007E  083C               	movf	___flge@ff1+2,w
  6868     007F  1C03               	skipc
  6869     0080  0F3C               	incfsz	___flge@ff1+2,w
  6870     0081  2883               	goto	u343_23
  6871     0082  2884               	goto	u343_24
  6872     0083                     u343_23:
  6873     0083  02FC               	subwf	??___flge+2,f
  6874     0084                     u343_24:
  6875     0084  083D               	movf	___flge@ff1+3,w
  6876     0085  1C03               	skipc
  6877     0086  0F3D               	incfsz	___flge@ff1+3,w
  6878     0087  2889               	goto	u343_25
  6879     0088  288A               	goto	u343_26
  6880     0089                     u343_25:
  6881     0089  02FD               	subwf	??___flge+3,f
  6882     008A                     u343_26:
  6883     008A  087D               	movf	??___flge+3,w
  6884     008B  00BD               	movwf	___flge@ff1+3
  6885     008C  087C               	movf	??___flge+2,w
  6886     008D  00BC               	movwf	___flge@ff1+2
  6887     008E  087B               	movf	??___flge+1,w
  6888     008F  00BB               	movwf	___flge@ff1+1
  6889     0090  087A               	movf	??___flge,w
  6890     0091  00BA               	movwf	___flge@ff1
  6891     0092                     i1l2700:
  6892     0092  1FC1               	btfss	___flge@ff2+3,7
  6893     0093  2895               	goto	u344_21
  6894     0094  2896               	goto	u344_20
  6895     0095                     u344_21:
  6896     0095  28BA               	goto	i1l391
  6897     0096                     u344_20:
  6898     0096                     i1l2702:
  6899     0096  3000               	movlw	0
  6900     0097  00FA               	movwf	??___flge
  6901     0098  3000               	movlw	0
  6902     0099  00FB               	movwf	??___flge+1
  6903     009A  3000               	movlw	0
  6904     009B  00FC               	movwf	??___flge+2
  6905     009C  3080               	movlw	128
  6906     009D  00FD               	movwf	??___flge+3
  6907     009E  083E               	movf	___flge@ff2,w
  6908     009F  02FA               	subwf	??___flge,f
  6909     00A0  083F               	movf	___flge@ff2+1,w
  6910     00A1  1C03               	skipc
  6911     00A2  0F3F               	incfsz	___flge@ff2+1,w
  6912     00A3  28A5               	goto	u345_21
  6913     00A4  28A6               	goto	u345_22
  6914     00A5                     u345_21:
  6915     00A5  02FB               	subwf	??___flge+1,f
  6916     00A6                     u345_22:
  6917     00A6  0840               	movf	___flge@ff2+2,w
  6918     00A7  1C03               	skipc
  6919     00A8  0F40               	incfsz	___flge@ff2+2,w
  6920     00A9  28AB               	goto	u345_23
  6921     00AA  28AC               	goto	u345_24
  6922     00AB                     u345_23:
  6923     00AB  02FC               	subwf	??___flge+2,f
  6924     00AC                     u345_24:
  6925     00AC  0841               	movf	___flge@ff2+3,w
  6926     00AD  1C03               	skipc
  6927     00AE  0F41               	incfsz	___flge@ff2+3,w
  6928     00AF  28B1               	goto	u345_25
  6929     00B0  28B2               	goto	u345_26
  6930     00B1                     u345_25:
  6931     00B1  02FD               	subwf	??___flge+3,f
  6932     00B2                     u345_26:
  6933     00B2  087D               	movf	??___flge+3,w
  6934     00B3  00C1               	movwf	___flge@ff2+3
  6935     00B4  087C               	movf	??___flge+2,w
  6936     00B5  00C0               	movwf	___flge@ff2+2
  6937     00B6  087B               	movf	??___flge+1,w
  6938     00B7  00BF               	movwf	___flge@ff2+1
  6939     00B8  087A               	movf	??___flge,w
  6940     00B9  00BE               	movwf	___flge@ff2
  6941     00BA                     i1l391:
  6942     00BA  3080               	movlw	128
  6943     00BB  06BD               	xorwf	___flge@ff1+3,f
  6944     00BC  3080               	movlw	128
  6945     00BD  06C1               	xorwf	___flge@ff2+3,f
  6946     00BE  0841               	movf	___flge@ff2+3,w
  6947     00BF  023D               	subwf	___flge@ff1+3,w
  6948     00C0  1D03               	skipz
  6949     00C1  28CC               	goto	u346_25
  6950     00C2  0840               	movf	___flge@ff2+2,w
  6951     00C3  023C               	subwf	___flge@ff1+2,w
  6952     00C4  1D03               	skipz
  6953     00C5  28CC               	goto	u346_25
  6954     00C6  083F               	movf	___flge@ff2+1,w
  6955     00C7  023B               	subwf	___flge@ff1+1,w
  6956     00C8  1D03               	skipz
  6957     00C9  28CC               	goto	u346_25
  6958     00CA  083E               	movf	___flge@ff2,w
  6959     00CB  023A               	subwf	___flge@ff1,w
  6960     00CC                     u346_25:
  6961     00CC  1803               	skipnc
  6962     00CD  28CF               	goto	u346_21
  6963     00CE  28D0               	goto	u346_20
  6964     00CF                     u346_21:
  6965     00CF  28D2               	goto	i1l2706
  6966     00D0                     u346_20:
  6967     00D0                     i1l2704:
  6968     00D0  1003               	clrc
  6969     00D1  28D3               	goto	i1l396
  6970     00D2                     i1l2706:
  6971     00D2  1403               	setc
  6972     00D3                     i1l396:
  6973     00D3  0008               	return
  6974     00D4                     __end_of___flge:
  6975                           
  6976                           	psect	text25
  6977     107C                     __ptext25:	
  6978 ;; *************** function ___fleq *****************
  6979 ;; Defined at:
  6980 ;;		line 4 in file "C:\Program Files\Microchip\xc8\v2.45\pic\sources\c99\common\fleq.c"
  6981 ;; Parameters:    Size  Location     Type
  6982 ;;  ff1             4    0[COMMON] unsigned int 
  6983 ;;  ff2             4    4[COMMON] unsigned int 
  6984 ;; Auto vars:     Size  Location     Type
  6985 ;;		None
  6986 ;; Return value:  Size  Location     Type
  6987 ;;		None               void
  6988 ;; Registers used:
  6989 ;;		wreg, status,2, status,0
  6990 ;; Tracked objects:
  6991 ;;		On entry : 0/0
  6992 ;;		On exit  : 0/0
  6993 ;;		Unchanged: 0/0
  6994 ;; Data sizes:     COMMON   BANK0   BANK1   BANK3   BANK2
  6995 ;;      Params:         8       0       0       0       0
  6996 ;;      Locals:         0       0       0       0       0
  6997 ;;      Temps:          4       0       0       0       0
  6998 ;;      Totals:        12       0       0       0       0
  6999 ;;Total ram usage:       12 bytes
  7000 ;; Hardware stack levels used: 1
  7001 ;; This function calls:
  7002 ;;		Nothing
  7003 ;; This function is called by:
  7004 ;;		_efgtoa
  7005 ;; This function uses a non-reentrant model
  7006 ;;
  7007                           
  7008     107C                     ___fleq:	
  7009                           ;psect for function ___fleq
  7010                           
  7011     107C                     i1l2678:	
  7012                           ;incstack = 0
  7013                           ; Regs used in ___fleq: [wreg+status,2+status,0]
  7014                           
  7015     107C  3000               	movlw	0
  7016     107D  0571               	andwf	___fleq@ff1,w
  7017     107E  00F9               	movwf	??___fleq
  7018     107F  3000               	movlw	0
  7019     1080  0572               	andwf	___fleq@ff1+1,w
  7020     1081  00FA               	movwf	??___fleq+1
  7021     1082  3080               	movlw	128
  7022     1083  0573               	andwf	___fleq@ff1+2,w
  7023     1084  00FB               	movwf	??___fleq+2
  7024     1085  307F               	movlw	127
  7025     1086  0574               	andwf	___fleq@ff1+3,w
  7026     1087  00FC               	movwf	??___fleq+3
  7027     1088  087C               	movf	??___fleq+3,w
  7028     1089  047B               	iorwf	??___fleq+2,w
  7029     108A  047A               	iorwf	??___fleq+1,w
  7030     108B  0479               	iorwf	??___fleq,w
  7031     108C  1D03               	skipz
  7032     108D  288F               	goto	u337_21
  7033     108E  2890               	goto	u337_20
  7034     108F                     u337_21:
  7035     108F  2898               	goto	i1l379
  7036     1090                     u337_20:
  7037     1090                     i1l2680:
  7038     1090  3000               	movlw	0
  7039     1091  00F4               	movwf	___fleq@ff1+3
  7040     1092  3000               	movlw	0
  7041     1093  00F3               	movwf	___fleq@ff1+2
  7042     1094  3000               	movlw	0
  7043     1095  00F2               	movwf	___fleq@ff1+1
  7044     1096  3000               	movlw	0
  7045     1097  00F1               	movwf	___fleq@ff1
  7046     1098                     i1l379:
  7047     1098  3000               	movlw	0
  7048     1099  0575               	andwf	___fleq@ff2,w
  7049     109A  00F9               	movwf	??___fleq
  7050     109B  3000               	movlw	0
  7051     109C  0576               	andwf	___fleq@ff2+1,w
  7052     109D  00FA               	movwf	??___fleq+1
  7053     109E  3080               	movlw	128
  7054     109F  0577               	andwf	___fleq@ff2+2,w
  7055     10A0  00FB               	movwf	??___fleq+2
  7056     10A1  307F               	movlw	127
  7057     10A2  0578               	andwf	___fleq@ff2+3,w
  7058     10A3  00FC               	movwf	??___fleq+3
  7059     10A4  087C               	movf	??___fleq+3,w
  7060     10A5  047B               	iorwf	??___fleq+2,w
  7061     10A6  047A               	iorwf	??___fleq+1,w
  7062     10A7  0479               	iorwf	??___fleq,w
  7063     10A8  1D03               	skipz
  7064     10A9  28AB               	goto	u338_21
  7065     10AA  28AC               	goto	u338_20
  7066     10AB                     u338_21:
  7067     10AB  28B4               	goto	i1l380
  7068     10AC                     u338_20:
  7069     10AC                     i1l2682:
  7070     10AC  3000               	movlw	0
  7071     10AD  00F8               	movwf	___fleq@ff2+3
  7072     10AE  3000               	movlw	0
  7073     10AF  00F7               	movwf	___fleq@ff2+2
  7074     10B0  3000               	movlw	0
  7075     10B1  00F6               	movwf	___fleq@ff2+1
  7076     10B2  3000               	movlw	0
  7077     10B3  00F5               	movwf	___fleq@ff2
  7078     10B4                     i1l380:
  7079     10B4  0878               	movf	___fleq@ff2+3,w
  7080     10B5  0674               	xorwf	___fleq@ff1+3,w
  7081     10B6  1D03               	skipz
  7082     10B7  28C2               	goto	u339_25
  7083     10B8  0877               	movf	___fleq@ff2+2,w
  7084     10B9  0673               	xorwf	___fleq@ff1+2,w
  7085     10BA  1D03               	skipz
  7086     10BB  28C2               	goto	u339_25
  7087     10BC  0876               	movf	___fleq@ff2+1,w
  7088     10BD  0672               	xorwf	___fleq@ff1+1,w
  7089     10BE  1D03               	skipz
  7090     10BF  28C2               	goto	u339_25
  7091     10C0  0875               	movf	___fleq@ff2,w
  7092     10C1  0671               	xorwf	___fleq@ff1,w
  7093     10C2                     u339_25:
  7094     10C2  1903               	skipnz
  7095     10C3  28C5               	goto	u339_21
  7096     10C4  28C6               	goto	u339_20
  7097     10C5                     u339_21:
  7098     10C5  28C8               	goto	i1l2686
  7099     10C6                     u339_20:
  7100     10C6                     i1l2684:
  7101     10C6  1003               	clrc
  7102     10C7  28C9               	goto	i1l385
  7103     10C8                     i1l2686:
  7104     10C8  1403               	setc
  7105     10C9                     i1l385:
  7106     10C9  0008               	return
  7107     10CA                     __end_of___fleq:
  7108                           
  7109                           	psect	text26
  7110     162B                     __ptext26:	
  7111 ;; *************** function ___fldiv *****************
  7112 ;; Defined at:
  7113 ;;		line 8 in file "C:\Program Files\Microchip\xc8\v2.45\pic\sources\c99\common\sprcdiv.c"
  7114 ;; Parameters:    Size  Location     Type
  7115 ;;  a               4    0[COMMON] unsigned int 
  7116 ;;  b               4    4[COMMON] unsigned int 
  7117 ;; Auto vars:     Size  Location     Type
  7118 ;;  grs             4    7[BANK0 ] unsigned long 
  7119 ;;  rem             4    0[BANK0 ] unsigned long 
  7120 ;;  new_exp         2    5[BANK0 ] short 
  7121 ;;  aexp            1   12[BANK0 ] unsigned char 
  7122 ;;  bexp            1   11[BANK0 ] unsigned char 
  7123 ;;  sign            1    4[BANK0 ] unsigned char 
  7124 ;; Return value:  Size  Location     Type
  7125 ;;                  4    0[COMMON] unsigned char 
  7126 ;; Registers used:
  7127 ;;		wreg, status,2, status,0, btemp+1
  7128 ;; Tracked objects:
  7129 ;;		On entry : 0/0
  7130 ;;		On exit  : 0/0
  7131 ;;		Unchanged: 0/0
  7132 ;; Data sizes:     COMMON   BANK0   BANK1   BANK3   BANK2
  7133 ;;      Params:         8       0       0       0       0
  7134 ;;      Locals:         0      13       0       0       0
  7135 ;;      Temps:          5       0       0       0       0
  7136 ;;      Totals:        13      13       0       0       0
  7137 ;;Total ram usage:       26 bytes
  7138 ;; Hardware stack levels used: 1
  7139 ;; This function calls:
  7140 ;;		Nothing
  7141 ;; This function is called by:
  7142 ;;		_efgtoa
  7143 ;; This function uses a non-reentrant model
  7144 ;;
  7145                           
  7146     162B                     ___fldiv:	
  7147                           ;psect for function ___fldiv
  7148                           
  7149     162B                     i1l2762:	
  7150                           ;incstack = 0
  7151                           ; Regs used in ___fldiv: [wreg+status,2+status,0+btemp+1]
  7152                           
  7153     162B  0878               	movf	___fldiv@b+3,w
  7154     162C  3980               	andlw	128
  7155     162D  1283               	bcf	3,5	;RP0=0, select bank0
  7156     162E  1303               	bcf	3,6	;RP1=0, select bank0
  7157     162F  00A4               	movwf	___fldiv@sign
  7158     1630                     i1l2764:
  7159     1630  0878               	movf	___fldiv@b+3,w
  7160     1631  00F9               	movwf	??___fldiv
  7161     1632  0779               	addwf	??___fldiv,w
  7162     1633  00AB               	movwf	___fldiv@bexp
  7163     1634                     i1l2766:
  7164     1634  1FF7               	btfss	___fldiv@b+2,7
  7165     1635  2E37               	goto	u358_21
  7166     1636  2E38               	goto	u358_20
  7167     1637                     u358_21:
  7168     1637  2E39               	goto	i1l2770
  7169     1638                     u358_20:
  7170     1638                     i1l2768:
  7171     1638  142B               	bsf	___fldiv@bexp,0
  7172     1639                     i1l2770:
  7173     1639  082B               	movf	___fldiv@bexp,w
  7174     163A  1903               	btfsc	3,2
  7175     163B  2E3D               	goto	u359_21
  7176     163C  2E3E               	goto	u359_20
  7177     163D                     u359_21:
  7178     163D  2E4E               	goto	i1l2780
  7179     163E                     u359_20:
  7180     163E                     i1l2772:
  7181     163E  0A2B               	incf	___fldiv@bexp,w
  7182     163F  1D03               	btfss	3,2
  7183     1640  2E42               	goto	u360_21
  7184     1641  2E43               	goto	u360_20
  7185     1642                     u360_21:
  7186     1642  2E4B               	goto	i1l2776
  7187     1643                     u360_20:
  7188     1643                     i1l2774:
  7189     1643  3000               	movlw	0
  7190     1644  00F8               	movwf	___fldiv@b+3
  7191     1645  3000               	movlw	0
  7192     1646  00F7               	movwf	___fldiv@b+2
  7193     1647  3000               	movlw	0
  7194     1648  00F6               	movwf	___fldiv@b+1
  7195     1649  3000               	movlw	0
  7196     164A  00F5               	movwf	___fldiv@b
  7197     164B                     i1l2776:
  7198     164B  17F7               	bsf	___fldiv@b+2,7
  7199     164C                     i1l2778:
  7200     164C  01F8               	clrf	___fldiv@b+3
  7201     164D  2E56               	goto	i1l2782
  7202     164E                     i1l2780:
  7203     164E  3000               	movlw	0
  7204     164F  00F8               	movwf	___fldiv@b+3
  7205     1650  3000               	movlw	0
  7206     1651  00F7               	movwf	___fldiv@b+2
  7207     1652  3000               	movlw	0
  7208     1653  00F6               	movwf	___fldiv@b+1
  7209     1654  3000               	movlw	0
  7210     1655  00F5               	movwf	___fldiv@b
  7211     1656                     i1l2782:
  7212     1656  0874               	movf	___fldiv@a+3,w
  7213     1657  3980               	andlw	128
  7214     1658  00FF               	movwf	btemp+1
  7215     1659  087F               	movf	btemp+1,w
  7216     165A  06A4               	xorwf	___fldiv@sign,f
  7217     165B                     i1l2784:
  7218     165B  0874               	movf	___fldiv@a+3,w
  7219     165C  00F9               	movwf	??___fldiv
  7220     165D  0779               	addwf	??___fldiv,w
  7221     165E  00AC               	movwf	___fldiv@aexp
  7222     165F                     i1l2786:
  7223     165F  1FF3               	btfss	___fldiv@a+2,7
  7224     1660  2E62               	goto	u361_21
  7225     1661  2E63               	goto	u361_20
  7226     1662                     u361_21:
  7227     1662  2E64               	goto	i1l2790
  7228     1663                     u361_20:
  7229     1663                     i1l2788:
  7230     1663  142C               	bsf	___fldiv@aexp,0
  7231     1664                     i1l2790:
  7232     1664  082C               	movf	___fldiv@aexp,w
  7233     1665  1903               	btfsc	3,2
  7234     1666  2E68               	goto	u362_21
  7235     1667  2E69               	goto	u362_20
  7236     1668                     u362_21:
  7237     1668  2E79               	goto	i1l2800
  7238     1669                     u362_20:
  7239     1669                     i1l2792:
  7240     1669  0A2C               	incf	___fldiv@aexp,w
  7241     166A  1D03               	btfss	3,2
  7242     166B  2E6D               	goto	u363_21
  7243     166C  2E6E               	goto	u363_20
  7244     166D                     u363_21:
  7245     166D  2E76               	goto	i1l2796
  7246     166E                     u363_20:
  7247     166E                     i1l2794:
  7248     166E  3000               	movlw	0
  7249     166F  00F4               	movwf	___fldiv@a+3
  7250     1670  3000               	movlw	0
  7251     1671  00F3               	movwf	___fldiv@a+2
  7252     1672  3000               	movlw	0
  7253     1673  00F2               	movwf	___fldiv@a+1
  7254     1674  3000               	movlw	0
  7255     1675  00F1               	movwf	___fldiv@a
  7256     1676                     i1l2796:
  7257     1676  17F3               	bsf	___fldiv@a+2,7
  7258     1677                     i1l2798:
  7259     1677  01F4               	clrf	___fldiv@a+3
  7260     1678  2E81               	goto	i1l567
  7261     1679                     i1l2800:
  7262     1679  3000               	movlw	0
  7263     167A  00F4               	movwf	___fldiv@a+3
  7264     167B  3000               	movlw	0
  7265     167C  00F3               	movwf	___fldiv@a+2
  7266     167D  3000               	movlw	0
  7267     167E  00F2               	movwf	___fldiv@a+1
  7268     167F  3000               	movlw	0
  7269     1680  00F1               	movwf	___fldiv@a
  7270     1681                     i1l567:
  7271     1681  0874               	movf	___fldiv@a+3,w
  7272     1682  0473               	iorwf	___fldiv@a+2,w
  7273     1683  0472               	iorwf	___fldiv@a+1,w
  7274     1684  0471               	iorwf	___fldiv@a,w
  7275     1685  1D03               	skipz
  7276     1686  2E88               	goto	u364_21
  7277     1687  2E89               	goto	u364_20
  7278     1688                     u364_21:
  7279     1688  2EA2               	goto	i1l2810
  7280     1689                     u364_20:
  7281     1689                     i1l2802:
  7282     1689  3000               	movlw	0
  7283     168A  00F8               	movwf	___fldiv@b+3
  7284     168B  3000               	movlw	0
  7285     168C  00F7               	movwf	___fldiv@b+2
  7286     168D  3000               	movlw	0
  7287     168E  00F6               	movwf	___fldiv@b+1
  7288     168F  3000               	movlw	0
  7289     1690  00F5               	movwf	___fldiv@b
  7290     1691  3080               	movlw	128
  7291     1692  04F7               	iorwf	___fldiv@b+2,f
  7292     1693  307F               	movlw	127
  7293     1694  04F8               	iorwf	___fldiv@b+3,f
  7294     1695                     i1l2804:
  7295     1695  0824               	movf	___fldiv@sign,w
  7296     1696  00FF               	movwf	btemp+1
  7297     1697  087F               	movf	btemp+1,w
  7298     1698  04F8               	iorwf	___fldiv@b+3,f
  7299     1699                     i1l2806:
  7300     1699  0878               	movf	___fldiv@b+3,w
  7301     169A  00F4               	movwf	?___fldiv+3
  7302     169B  0877               	movf	___fldiv@b+2,w
  7303     169C  00F3               	movwf	?___fldiv+2
  7304     169D  0876               	movf	___fldiv@b+1,w
  7305     169E  00F2               	movwf	?___fldiv+1
  7306     169F  0875               	movf	___fldiv@b,w
  7307     16A0  00F1               	movwf	?___fldiv
  7308     16A1  2FFF               	goto	i1l569
  7309     16A2                     i1l2810:
  7310     16A2  082B               	movf	___fldiv@bexp,w
  7311     16A3  1D03               	btfss	3,2
  7312     16A4  2EA6               	goto	u365_21
  7313     16A5  2EA7               	goto	u365_20
  7314     16A6                     u365_21:
  7315     16A6  2EB0               	goto	i1l2816
  7316     16A7                     u365_20:
  7317     16A7                     i1l2812:
  7318     16A7  3000               	movlw	0
  7319     16A8  00F4               	movwf	?___fldiv+3
  7320     16A9  3000               	movlw	0
  7321     16AA  00F3               	movwf	?___fldiv+2
  7322     16AB  3000               	movlw	0
  7323     16AC  00F2               	movwf	?___fldiv+1
  7324     16AD  3000               	movlw	0
  7325     16AE  00F1               	movwf	?___fldiv
  7326     16AF  2FFF               	goto	i1l569
  7327     16B0                     i1l2816:
  7328     16B0  082B               	movf	___fldiv@bexp,w
  7329     16B1  00F9               	movwf	??___fldiv
  7330     16B2  01FA               	clrf	??___fldiv+1
  7331     16B3  087A               	movf	??___fldiv+1,w
  7332     16B4  00FC               	movwf	??___fldiv+3
  7333     16B5  082C               	movf	___fldiv@aexp,w
  7334     16B6  0279               	subwf	??___fldiv,w
  7335     16B7  00FB               	movwf	??___fldiv+2
  7336     16B8  1C03               	skipc
  7337     16B9  03FC               	decf	??___fldiv+3,f
  7338     16BA  087B               	movf	??___fldiv+2,w
  7339     16BB  3E7F               	addlw	127
  7340     16BC  00A5               	movwf	___fldiv@new_exp
  7341     16BD  087C               	movf	??___fldiv+3,w
  7342     16BE  1803               	skipnc
  7343     16BF  3E01               	addlw	1
  7344     16C0  3E00               	addlw	0
  7345     16C1  00A6               	movwf	___fldiv@new_exp+1
  7346     16C2                     i1l2818:
  7347     16C2  0878               	movf	___fldiv@b+3,w
  7348     16C3  00A3               	movwf	___fldiv@rem+3
  7349     16C4  0877               	movf	___fldiv@b+2,w
  7350     16C5  00A2               	movwf	___fldiv@rem+2
  7351     16C6  0876               	movf	___fldiv@b+1,w
  7352     16C7  00A1               	movwf	___fldiv@rem+1
  7353     16C8  0875               	movf	___fldiv@b,w
  7354     16C9  00A0               	movwf	___fldiv@rem
  7355     16CA                     i1l2820:
  7356     16CA  3000               	movlw	0
  7357     16CB  00F8               	movwf	___fldiv@b+3
  7358     16CC  3000               	movlw	0
  7359     16CD  00F7               	movwf	___fldiv@b+2
  7360     16CE  3000               	movlw	0
  7361     16CF  00F6               	movwf	___fldiv@b+1
  7362     16D0  3000               	movlw	0
  7363     16D1  00F5               	movwf	___fldiv@b
  7364     16D2                     i1l2822:
  7365     16D2  3000               	movlw	0
  7366     16D3  00AA               	movwf	___fldiv@grs+3
  7367     16D4  3000               	movlw	0
  7368     16D5  00A9               	movwf	___fldiv@grs+2
  7369     16D6  3000               	movlw	0
  7370     16D7  00A8               	movwf	___fldiv@grs+1
  7371     16D8  3000               	movlw	0
  7372     16D9  00A7               	movwf	___fldiv@grs
  7373     16DA                     i1l2824:
  7374     16DA  01AC               	clrf	___fldiv@aexp
  7375     16DB  2F2C               	goto	i1l2844
  7376     16DC                     i1l2826:
  7377     16DC  082C               	movf	___fldiv@aexp,w
  7378     16DD  1903               	btfsc	3,2
  7379     16DE  2EE0               	goto	u366_21
  7380     16DF  2EE1               	goto	u366_20
  7381     16E0                     u366_21:
  7382     16E0  2F01               	goto	i1l2836
  7383     16E1                     u366_20:
  7384     16E1                     i1l2828:
  7385     16E1  3001               	movlw	1
  7386     16E2  00F9               	movwf	??___fldiv
  7387     16E3                     u367_25:
  7388     16E3  1003               	clrc
  7389     16E4  0DA0               	rlf	___fldiv@rem,f
  7390     16E5  0DA1               	rlf	___fldiv@rem+1,f
  7391     16E6  0DA2               	rlf	___fldiv@rem+2,f
  7392     16E7  0DA3               	rlf	___fldiv@rem+3,f
  7393     16E8  0BF9               	decfsz	??___fldiv,f
  7394     16E9  2EE3               	goto	u367_25
  7395     16EA  3001               	movlw	1
  7396     16EB  00F9               	movwf	??___fldiv
  7397     16EC                     u368_25:
  7398     16EC  1003               	clrc
  7399     16ED  0DF5               	rlf	___fldiv@b,f
  7400     16EE  0DF6               	rlf	___fldiv@b+1,f
  7401     16EF  0DF7               	rlf	___fldiv@b+2,f
  7402     16F0  0DF8               	rlf	___fldiv@b+3,f
  7403     16F1  0BF9               	decfsz	??___fldiv,f
  7404     16F2  2EEC               	goto	u368_25
  7405     16F3                     i1l2830:
  7406     16F3  1FAA               	btfss	___fldiv@grs+3,7
  7407     16F4  2EF6               	goto	u369_21
  7408     16F5  2EF7               	goto	u369_20
  7409     16F6                     u369_21:
  7410     16F6  2EF8               	goto	i1l2834
  7411     16F7                     u369_20:
  7412     16F7                     i1l2832:
  7413     16F7  1475               	bsf	___fldiv@b,0
  7414     16F8                     i1l2834:
  7415     16F8  3001               	movlw	1
  7416     16F9  00F9               	movwf	??___fldiv
  7417     16FA                     u370_25:
  7418     16FA  1003               	clrc
  7419     16FB  0DA7               	rlf	___fldiv@grs,f
  7420     16FC  0DA8               	rlf	___fldiv@grs+1,f
  7421     16FD  0DA9               	rlf	___fldiv@grs+2,f
  7422     16FE  0DAA               	rlf	___fldiv@grs+3,f
  7423     16FF  0BF9               	decfsz	??___fldiv,f
  7424     1700  2EFA               	goto	u370_25
  7425     1701                     i1l2836:
  7426     1701  0874               	movf	___fldiv@a+3,w
  7427     1702  0223               	subwf	___fldiv@rem+3,w
  7428     1703  1D03               	skipz
  7429     1704  2F0F               	goto	u371_25
  7430     1705  0873               	movf	___fldiv@a+2,w
  7431     1706  0222               	subwf	___fldiv@rem+2,w
  7432     1707  1D03               	skipz
  7433     1708  2F0F               	goto	u371_25
  7434     1709  0872               	movf	___fldiv@a+1,w
  7435     170A  0221               	subwf	___fldiv@rem+1,w
  7436     170B  1D03               	skipz
  7437     170C  2F0F               	goto	u371_25
  7438     170D  0871               	movf	___fldiv@a,w
  7439     170E  0220               	subwf	___fldiv@rem,w
  7440     170F                     u371_25:
  7441     170F  1C03               	skipc
  7442     1710  2F12               	goto	u371_21
  7443     1711  2F13               	goto	u371_20
  7444     1712                     u371_21:
  7445     1712  2F28               	goto	i1l2842
  7446     1713                     u371_20:
  7447     1713                     i1l2838:
  7448     1713  172A               	bsf	___fldiv@grs+3,6
  7449     1714                     i1l2840:
  7450     1714  0871               	movf	___fldiv@a,w
  7451     1715  02A0               	subwf	___fldiv@rem,f
  7452     1716  0872               	movf	___fldiv@a+1,w
  7453     1717  1C03               	skipc
  7454     1718  0F72               	incfsz	___fldiv@a+1,w
  7455     1719  2F1B               	goto	u372_25
  7456     171A  2F1C               	goto	u372_26
  7457     171B                     u372_25:
  7458     171B  02A1               	subwf	___fldiv@rem+1,f
  7459     171C                     u372_26:
  7460     171C  0873               	movf	___fldiv@a+2,w
  7461     171D  1C03               	skipc
  7462     171E  0F73               	incfsz	___fldiv@a+2,w
  7463     171F  2F21               	goto	u372_27
  7464     1720  2F22               	goto	u372_28
  7465     1721                     u372_27:
  7466     1721  02A2               	subwf	___fldiv@rem+2,f
  7467     1722                     u372_28:
  7468     1722  0874               	movf	___fldiv@a+3,w
  7469     1723  1C03               	skipc
  7470     1724  0F74               	incfsz	___fldiv@a+3,w
  7471     1725  2F27               	goto	u372_29
  7472     1726  2F28               	goto	u372_20
  7473     1727                     u372_29:
  7474     1727  02A3               	subwf	___fldiv@rem+3,f
  7475     1728                     u372_20:
  7476     1728                     i1l2842:
  7477     1728  3001               	movlw	1
  7478     1729  00FF               	movwf	btemp+1
  7479     172A  087F               	movf	btemp+1,w
  7480     172B  07AC               	addwf	___fldiv@aexp,f
  7481     172C                     i1l2844:
  7482     172C  301A               	movlw	26
  7483     172D  022C               	subwf	___fldiv@aexp,w
  7484     172E  1C03               	skipc
  7485     172F  2F31               	goto	u373_21
  7486     1730  2F32               	goto	u373_20
  7487     1731                     u373_21:
  7488     1731  2EDC               	goto	i1l2826
  7489     1732                     u373_20:
  7490     1732                     i1l2846:
  7491     1732  0823               	movf	___fldiv@rem+3,w
  7492     1733  0422               	iorwf	___fldiv@rem+2,w
  7493     1734  0421               	iorwf	___fldiv@rem+1,w
  7494     1735  0420               	iorwf	___fldiv@rem,w
  7495     1736  1903               	skipnz
  7496     1737  2F39               	goto	u374_21
  7497     1738  2F3A               	goto	u374_20
  7498     1739                     u374_21:
  7499     1739  2F59               	goto	i1l2860
  7500     173A                     u374_20:
  7501     173A                     i1l2848:
  7502     173A  1427               	bsf	___fldiv@grs,0
  7503     173B  2F59               	goto	i1l2860
  7504     173C                     i1l2850:
  7505     173C  3001               	movlw	1
  7506     173D  00F9               	movwf	??___fldiv
  7507     173E                     u375_25:
  7508     173E  1003               	clrc
  7509     173F  0DF5               	rlf	___fldiv@b,f
  7510     1740  0DF6               	rlf	___fldiv@b+1,f
  7511     1741  0DF7               	rlf	___fldiv@b+2,f
  7512     1742  0DF8               	rlf	___fldiv@b+3,f
  7513     1743  0BF9               	decfsz	??___fldiv,f
  7514     1744  2F3E               	goto	u375_25
  7515     1745                     i1l2852:
  7516     1745  1FAA               	btfss	___fldiv@grs+3,7
  7517     1746  2F48               	goto	u376_21
  7518     1747  2F49               	goto	u376_20
  7519     1748                     u376_21:
  7520     1748  2F4A               	goto	i1l2856
  7521     1749                     u376_20:
  7522     1749                     i1l2854:
  7523     1749  1475               	bsf	___fldiv@b,0
  7524     174A                     i1l2856:
  7525     174A  3001               	movlw	1
  7526     174B  00F9               	movwf	??___fldiv
  7527     174C                     u377_25:
  7528     174C  1003               	clrc
  7529     174D  0DA7               	rlf	___fldiv@grs,f
  7530     174E  0DA8               	rlf	___fldiv@grs+1,f
  7531     174F  0DA9               	rlf	___fldiv@grs+2,f
  7532     1750  0DAA               	rlf	___fldiv@grs+3,f
  7533     1751  0BF9               	decfsz	??___fldiv,f
  7534     1752  2F4C               	goto	u377_25
  7535     1753                     i1l2858:
  7536     1753  30FF               	movlw	255
  7537     1754  07A5               	addwf	___fldiv@new_exp,f
  7538     1755  1803               	skipnc
  7539     1756  0AA6               	incf	___fldiv@new_exp+1,f
  7540     1757  30FF               	movlw	255
  7541     1758  07A6               	addwf	___fldiv@new_exp+1,f
  7542     1759                     i1l2860:
  7543     1759  1FF7               	btfss	___fldiv@b+2,7
  7544     175A  2F5C               	goto	u378_21
  7545     175B  2F5D               	goto	u378_20
  7546     175C                     u378_21:
  7547     175C  2F3C               	goto	i1l2850
  7548     175D                     u378_20:
  7549     175D                     i1l2862:
  7550     175D  01AC               	clrf	___fldiv@aexp
  7551     175E                     i1l2864:
  7552     175E  1FAA               	btfss	___fldiv@grs+3,7
  7553     175F  2F61               	goto	u379_21
  7554     1760  2F62               	goto	u379_20
  7555     1761                     u379_21:
  7556     1761  2F7E               	goto	i1l2872
  7557     1762                     u379_20:
  7558     1762                     i1l2866:
  7559     1762  30FF               	movlw	255
  7560     1763  0527               	andwf	___fldiv@grs,w
  7561     1764  00F9               	movwf	??___fldiv
  7562     1765  30FF               	movlw	255
  7563     1766  0528               	andwf	___fldiv@grs+1,w
  7564     1767  00FA               	movwf	??___fldiv+1
  7565     1768  30FF               	movlw	255
  7566     1769  0529               	andwf	___fldiv@grs+2,w
  7567     176A  00FB               	movwf	??___fldiv+2
  7568     176B  307F               	movlw	127
  7569     176C  052A               	andwf	___fldiv@grs+3,w
  7570     176D  00FC               	movwf	??___fldiv+3
  7571     176E  087C               	movf	??___fldiv+3,w
  7572     176F  047B               	iorwf	??___fldiv+2,w
  7573     1770  047A               	iorwf	??___fldiv+1,w
  7574     1771  0479               	iorwf	??___fldiv,w
  7575     1772  1903               	skipnz
  7576     1773  2F75               	goto	u380_21
  7577     1774  2F76               	goto	u380_20
  7578     1775                     u380_21:
  7579     1775  2F79               	goto	i1l583
  7580     1776                     u380_20:
  7581     1776                     i1l2868:
  7582     1776  01AC               	clrf	___fldiv@aexp
  7583     1777  0AAC               	incf	___fldiv@aexp,f
  7584     1778  2F7E               	goto	i1l2872
  7585     1779                     i1l583:
  7586     1779  1C75               	btfss	___fldiv@b,0
  7587     177A  2F7C               	goto	u381_21
  7588     177B  2F7D               	goto	u381_20
  7589     177C                     u381_21:
  7590     177C  2F7E               	goto	i1l2872
  7591     177D                     u381_20:
  7592     177D  2F76               	goto	i1l2868
  7593     177E                     i1l2872:
  7594     177E  082C               	movf	___fldiv@aexp,w
  7595     177F  1903               	btfsc	3,2
  7596     1780  2F82               	goto	u382_21
  7597     1781  2F83               	goto	u382_20
  7598     1782                     u382_21:
  7599     1782  2FB4               	goto	i1l2882
  7600     1783                     u382_20:
  7601     1783                     i1l2874:
  7602     1783  3001               	movlw	1
  7603     1784  07F5               	addwf	___fldiv@b,f
  7604     1785  3000               	movlw	0
  7605     1786  1803               	skipnc
  7606     1787  3001               	movlw	1
  7607     1788  07F6               	addwf	___fldiv@b+1,f
  7608     1789  3000               	movlw	0
  7609     178A  1803               	skipnc
  7610     178B  3001               	movlw	1
  7611     178C  07F7               	addwf	___fldiv@b+2,f
  7612     178D  3000               	movlw	0
  7613     178E  1803               	skipnc
  7614     178F  3001               	movlw	1
  7615     1790  07F8               	addwf	___fldiv@b+3,f
  7616     1791                     i1l2876:
  7617     1791  1C78               	btfss	___fldiv@b+3,0
  7618     1792  2F94               	goto	u383_21
  7619     1793  2F95               	goto	u383_20
  7620     1794                     u383_21:
  7621     1794  2FB4               	goto	i1l2882
  7622     1795                     u383_20:
  7623     1795                     i1l2878:
  7624     1795  0875               	movf	___fldiv@b,w
  7625     1796  00F9               	movwf	??___fldiv
  7626     1797  0876               	movf	___fldiv@b+1,w
  7627     1798  00FA               	movwf	??___fldiv+1
  7628     1799  0877               	movf	___fldiv@b+2,w
  7629     179A  00FB               	movwf	??___fldiv+2
  7630     179B  0878               	movf	___fldiv@b+3,w
  7631     179C  00FC               	movwf	??___fldiv+3
  7632     179D  3001               	movlw	1
  7633     179E  00FD               	movwf	??___fldiv+4
  7634     179F                     u384_25:
  7635     179F  0D7C               	rlf	??___fldiv+3,w
  7636     17A0  0CFC               	rrf	??___fldiv+3,f
  7637     17A1  0CFB               	rrf	??___fldiv+2,f
  7638     17A2  0CFA               	rrf	??___fldiv+1,f
  7639     17A3  0CF9               	rrf	??___fldiv,f
  7640     17A4                     u384_20:
  7641     17A4  0BFD               	decfsz	??___fldiv+4,f
  7642     17A5  2F9F               	goto	u384_25
  7643     17A6  087C               	movf	??___fldiv+3,w
  7644     17A7  00F8               	movwf	___fldiv@b+3
  7645     17A8  087B               	movf	??___fldiv+2,w
  7646     17A9  00F7               	movwf	___fldiv@b+2
  7647     17AA  087A               	movf	??___fldiv+1,w
  7648     17AB  00F6               	movwf	___fldiv@b+1
  7649     17AC  0879               	movf	??___fldiv,w
  7650     17AD  00F5               	movwf	___fldiv@b
  7651     17AE                     i1l2880:
  7652     17AE  3001               	movlw	1
  7653     17AF  07A5               	addwf	___fldiv@new_exp,f
  7654     17B0  1803               	skipnc
  7655     17B1  0AA6               	incf	___fldiv@new_exp+1,f
  7656     17B2  3000               	movlw	0
  7657     17B3  07A6               	addwf	___fldiv@new_exp+1,f
  7658     17B4                     i1l2882:
  7659     17B4  0826               	movf	___fldiv@new_exp+1,w
  7660     17B5  3A80               	xorlw	128
  7661     17B6  00FF               	movwf	btemp+1
  7662     17B7  3080               	movlw	128
  7663     17B8  027F               	subwf	btemp+1,w
  7664     17B9  1D03               	skipz
  7665     17BA  2FBD               	goto	u385_25
  7666     17BB  30FF               	movlw	255
  7667     17BC  0225               	subwf	___fldiv@new_exp,w
  7668     17BD                     u385_25:
  7669     17BD  1C03               	skipc
  7670     17BE  2FC0               	goto	u385_21
  7671     17BF  2FC1               	goto	u385_20
  7672     17C0                     u385_21:
  7673     17C0  2FCF               	goto	i1l2886
  7674     17C1                     u385_20:
  7675     17C1                     i1l2884:
  7676     17C1  30FF               	movlw	255
  7677     17C2  1283               	bcf	3,5	;RP0=0, select bank0
  7678     17C3  1303               	bcf	3,6	;RP1=0, select bank0
  7679     17C4  00A5               	movwf	___fldiv@new_exp
  7680     17C5  3000               	movlw	0
  7681     17C6  00A6               	movwf	___fldiv@new_exp+1
  7682     17C7  3000               	movlw	0
  7683     17C8  00F8               	movwf	___fldiv@b+3
  7684     17C9  3000               	movlw	0
  7685     17CA  00F7               	movwf	___fldiv@b+2
  7686     17CB  3000               	movlw	0
  7687     17CC  00F6               	movwf	___fldiv@b+1
  7688     17CD  3000               	movlw	0
  7689     17CE  00F5               	movwf	___fldiv@b
  7690     17CF                     i1l2886:
  7691     17CF  1283               	bcf	3,5	;RP0=0, select bank0
  7692     17D0  1303               	bcf	3,6	;RP1=0, select bank0
  7693     17D1  0826               	movf	___fldiv@new_exp+1,w
  7694     17D2  3A80               	xorlw	128
  7695     17D3  00FF               	movwf	btemp+1
  7696     17D4  3080               	movlw	128
  7697     17D5  027F               	subwf	btemp+1,w
  7698     17D6  1D03               	skipz
  7699     17D7  2FDA               	goto	u386_25
  7700     17D8  3001               	movlw	1
  7701     17D9  0225               	subwf	___fldiv@new_exp,w
  7702     17DA                     u386_25:
  7703     17DA  1803               	skipnc
  7704     17DB  2FDD               	goto	u386_21
  7705     17DC  2FDE               	goto	u386_20
  7706     17DD                     u386_21:
  7707     17DD  2FEB               	goto	i1l589
  7708     17DE                     u386_20:
  7709     17DE                     i1l2888:
  7710     17DE  1283               	bcf	3,5	;RP0=0, select bank0
  7711     17DF  1303               	bcf	3,6	;RP1=0, select bank0
  7712     17E0  01A5               	clrf	___fldiv@new_exp
  7713     17E1  01A6               	clrf	___fldiv@new_exp+1
  7714     17E2                     i1l2890:
  7715     17E2  3000               	movlw	0
  7716     17E3  00F8               	movwf	___fldiv@b+3
  7717     17E4  3000               	movlw	0
  7718     17E5  00F7               	movwf	___fldiv@b+2
  7719     17E6  3000               	movlw	0
  7720     17E7  00F6               	movwf	___fldiv@b+1
  7721     17E8  3000               	movlw	0
  7722     17E9  00F5               	movwf	___fldiv@b
  7723     17EA                     i1l2892:
  7724     17EA  01A4               	clrf	___fldiv@sign
  7725     17EB                     i1l589:
  7726     17EB  1283               	bcf	3,5	;RP0=0, select bank0
  7727     17EC  1303               	bcf	3,6	;RP1=0, select bank0
  7728     17ED  0825               	movf	___fldiv@new_exp,w
  7729     17EE  00AB               	movwf	___fldiv@bexp
  7730     17EF                     i1l2894:
  7731     17EF  1C2B               	btfss	___fldiv@bexp,0
  7732     17F0  2FF2               	goto	u387_21
  7733     17F1  2FF3               	goto	u387_20
  7734     17F2                     u387_21:
  7735     17F2  2FF5               	goto	i1l2898
  7736     17F3                     u387_20:
  7737     17F3                     i1l2896:
  7738     17F3  17F7               	bsf	___fldiv@b+2,7
  7739     17F4  2FF9               	goto	i1l2900
  7740     17F5                     i1l2898:
  7741     17F5  307F               	movlw	127
  7742     17F6  00FF               	movwf	btemp+1
  7743     17F7  087F               	movf	btemp+1,w
  7744     17F8  05F7               	andwf	___fldiv@b+2,f
  7745     17F9                     i1l2900:
  7746     17F9  082B               	movf	___fldiv@bexp,w
  7747     17FA  00F9               	movwf	??___fldiv
  7748     17FB  1003               	clrc
  7749     17FC  0C79               	rrf	??___fldiv,w
  7750     17FD  00F8               	movwf	___fldiv@b+3
  7751     17FE  2E95               	goto	i1l2804
  7752     17FF                     i1l569:
  7753     17FF  0008               	return
  7754     1800                     __end_of___fldiv:
  7755                           
  7756                           	psect	text27
  7757     1330                     __ptext27:	
  7758 ;; *************** function _dtoa *****************
  7759 ;; Defined at:
  7760 ;;		line 513 in file "C:\Program Files\Microchip\xc8\v2.45\pic\sources\c99\common\doprnt.c"
  7761 ;; Parameters:    Size  Location     Type
  7762 ;;  fp              1    wreg     PTR struct _IO_FILE
  7763 ;;		 -> NULL(0), 
  7764 ;;  d               2   10[BANK0 ] int 
  7765 ;; Auto vars:     Size  Location     Type
  7766 ;;  fp              1   18[BANK0 ] PTR struct _IO_FILE
  7767 ;;		 -> NULL(0), 
  7768 ;;  i               2   20[BANK0 ] int 
  7769 ;;  p               2   16[BANK0 ] int 
  7770 ;;  w               2   14[BANK0 ] int 
  7771 ;;  s               1   19[BANK0 ] unsigned char 
  7772 ;; Return value:  Size  Location     Type
  7773 ;;                  1    wreg      void 
  7774 ;; Registers used:
  7775 ;;		wreg, fsr0l, fsr0h, status,2, status,0, btemp+1, pclath, cstack
  7776 ;; Tracked objects:
  7777 ;;		On entry : 0/0
  7778 ;;		On exit  : 0/0
  7779 ;;		Unchanged: 0/0
  7780 ;; Data sizes:     COMMON   BANK0   BANK1   BANK3   BANK2
  7781 ;;      Params:         0       2       0       0       0
  7782 ;;      Locals:         0      10       0       0       0
  7783 ;;      Temps:          0       0       0       0       0
  7784 ;;      Totals:         0      12       0       0       0
  7785 ;;Total ram usage:       12 bytes
  7786 ;; Hardware stack levels used: 1
  7787 ;; Hardware stack levels required when called: 4
  7788 ;; This function calls:
  7789 ;;		___awdiv
  7790 ;;		___awmod
  7791 ;;		_abs
  7792 ;;		_pad
  7793 ;; This function is called by:
  7794 ;;		_vfpfcnvrt
  7795 ;; This function uses a non-reentrant model
  7796 ;;
  7797                           
  7798     1330                     _dtoa:	
  7799                           ;psect for function _dtoa
  7800                           
  7801                           
  7802                           ;incstack = 0
  7803 ;; hardware stack exceeded
  7804                           ; Regs used in _dtoa: [wreg-fsr0h+status,2+status,0+btemp+1+pclath+cstack]
  7805                           ;dtoa@fp stored from wreg
  7806     1330  1283               	bcf	3,5	;RP0=0, select bank0
  7807     1331  1303               	bcf	3,6	;RP1=0, select bank0
  7808     1332  00B2               	movwf	dtoa@fp
  7809     1333                     i1l3146:
  7810                           
  7811                           ;C:\Program Files\Microchip\xc8\v2.45\pic\sources\c99\common\doprnt.c: 513: static void 
      +                          dtoa(FILE *fp, vfpf_sint_t d);C:\Program Files\Microchip\xc8\v2.45\pic\sources\c99\commo
      +                          n\doprnt.c: 514: {;C:\Program Files\Microchip\xc8\v2.45\pic\sources\c99\common\doprnt.c:
      +                           515:  char s;;C:\Program Files\Microchip\xc8\v2.45\pic\sources\c99\common\doprnt.c: 516
      +                          :     int i, w;;C:\Program Files\Microchip\xc8\v2.45\pic\sources\c99\common\doprnt.c: 51
      +                          8:  int p;;C:\Program Files\Microchip\xc8\v2.45\pic\sources\c99\common\doprnt.c: 524:   
      +                            s = d < 0 ? 1 : 0;
  7812     1333  1BAB               	btfsc	dtoa@d+1,7
  7813     1334  2B36               	goto	u451_21
  7814     1335  2B38               	goto	u451_20
  7815     1336                     u451_21:
  7816     1336  3001               	movlw	1
  7817     1337  2B39               	goto	u452_20
  7818     1338                     u451_20:
  7819     1338  3000               	movlw	0
  7820     1339                     u452_20:
  7821     1339  00B3               	movwf	dtoa@s
  7822     133A                     i1l3148:
  7823                           
  7824                           ;C:\Program Files\Microchip\xc8\v2.45\pic\sources\c99\common\doprnt.c: 533:     p = (0 <
      +                          = prec) ? prec : 1;
  7825     133A  1FE9               	btfss	_prec+1,7
  7826     133B  2B3D               	goto	u453_21
  7827     133C  2B3E               	goto	u453_20
  7828     133D                     u453_21:
  7829     133D  2B43               	goto	i1l3152
  7830     133E                     u453_20:
  7831     133E                     i1l3150:
  7832     133E  3001               	movlw	1
  7833     133F  00B0               	movwf	dtoa@p
  7834     1340  3000               	movlw	0
  7835     1341  00B1               	movwf	dtoa@p+1
  7836     1342  2B47               	goto	i1l712
  7837     1343                     i1l3152:
  7838     1343  0869               	movf	_prec+1,w
  7839     1344  00B1               	movwf	dtoa@p+1
  7840     1345  0868               	movf	_prec,w
  7841     1346  00B0               	movwf	dtoa@p
  7842     1347                     i1l712:
  7843                           
  7844                           ;C:\Program Files\Microchip\xc8\v2.45\pic\sources\c99\common\doprnt.c: 535:     w = widt
      +                          h;
  7845     1347  0867               	movf	_width+1,w
  7846     1348  00AF               	movwf	dtoa@w+1
  7847     1349  0866               	movf	_width,w
  7848     134A  00AE               	movwf	dtoa@w
  7849     134B                     i1l3154:
  7850                           
  7851                           ;C:\Program Files\Microchip\xc8\v2.45\pic\sources\c99\common\doprnt.c: 536:     if (s
  7852     134B  0833               	movf	dtoa@s,w
  7853     134C  1903               	btfsc	3,2
  7854     134D  2B4F               	goto	u454_21
  7855     134E  2B50               	goto	u454_20
  7856     134F                     u454_21:
  7857     134F  2B66               	goto	i1l713
  7858     1350                     u454_20:
  7859     1350                     i1l3156:
  7860                           
  7861                           ;C:\Program Files\Microchip\xc8\v2.45\pic\sources\c99\common\doprnt.c: 540:     ) {;C:\P
      +                          rogram Files\Microchip\xc8\v2.45\pic\sources\c99\common\doprnt.c: 541:         --w;
  7862     1350  30FF               	movlw	255
  7863     1351  07AE               	addwf	dtoa@w,f
  7864     1352  1803               	skipnc
  7865     1353  0AAF               	incf	dtoa@w+1,f
  7866     1354  30FF               	movlw	255
  7867     1355  07AF               	addwf	dtoa@w+1,f
  7868     1356                     i1l3158:
  7869                           
  7870                           ;C:\Program Files\Microchip\xc8\v2.45\pic\sources\c99\common\doprnt.c: 542:   s = s ? '-
      +                          ' : '+';
  7871     1356  0833               	movf	dtoa@s,w
  7872     1357  1D03               	btfss	3,2
  7873     1358  2B5A               	goto	u455_21
  7874     1359  2B5B               	goto	u455_20
  7875     135A                     u455_21:
  7876     135A  2B60               	goto	i1l3162
  7877     135B                     u455_20:
  7878     135B                     i1l3160:
  7879     135B  302B               	movlw	43
  7880     135C  00AC               	movwf	_dtoa$973
  7881     135D  3000               	movlw	0
  7882     135E  00AD               	movwf	_dtoa$973+1
  7883     135F  2B64               	goto	i1l717
  7884     1360                     i1l3162:
  7885     1360  302D               	movlw	45
  7886     1361  00AC               	movwf	_dtoa$973
  7887     1362  3000               	movlw	0
  7888     1363  00AD               	movwf	_dtoa$973+1
  7889     1364                     i1l717:
  7890     1364  082C               	movf	_dtoa$973,w
  7891     1365  00B3               	movwf	dtoa@s
  7892     1366                     i1l713:	
  7893                           ;C:\Program Files\Microchip\xc8\v2.45\pic\sources\c99\common\doprnt.c: 543:     }
  7894                           
  7895                           
  7896                           ;C:\Program Files\Microchip\xc8\v2.45\pic\sources\c99\common\doprnt.c: 552:     i = size
      +                          of(dbuf) - 1;
  7897     1366  304F               	movlw	79
  7898     1367  00B4               	movwf	dtoa@i
  7899     1368  3000               	movlw	0
  7900     1369  00B5               	movwf	dtoa@i+1
  7901     136A                     i1l3164:
  7902                           
  7903                           ;C:\Program Files\Microchip\xc8\v2.45\pic\sources\c99\common\doprnt.c: 553:     dbuf[i] 
      +                          = '\0';
  7904     136A  1683               	bsf	3,5	;RP0=1, select bank3
  7905     136B  1703               	bsf	3,6	;RP1=1, select bank3
  7906     136C  01DF               	clrf	(_dbuf^(0+384)+79)
  7907                           
  7908                           ;C:\Program Files\Microchip\xc8\v2.45\pic\sources\c99\common\doprnt.c: 554:     while (!
      +                          (i < 1) && (d != 0
  7909     136D  2BB4               	goto	i1l3176
  7910     136E                     i1l3166:
  7911                           
  7912                           ;C:\Program Files\Microchip\xc8\v2.45\pic\sources\c99\common\doprnt.c: 563:     )) {;C:\
      +                          Program Files\Microchip\xc8\v2.45\pic\sources\c99\common\doprnt.c: 564:         --i;
  7913     136E  30FF               	movlw	255
  7914     136F  1283               	bcf	3,5	;RP0=0, select bank0
  7915     1370  1303               	bcf	3,6	;RP1=0, select bank0
  7916     1371  07B4               	addwf	dtoa@i,f
  7917     1372  1803               	skipnc
  7918     1373  0AB5               	incf	dtoa@i+1,f
  7919     1374  30FF               	movlw	255
  7920     1375  07B5               	addwf	dtoa@i+1,f
  7921     1376                     i1l3168:
  7922                           
  7923                           ;C:\Program Files\Microchip\xc8\v2.45\pic\sources\c99\common\doprnt.c: 565:         dbuf
      +                          [i] = (char)((int)'0' + abs(d % 10));
  7924     1376  0834               	movf	dtoa@i,w
  7925     1377  3E90               	addlw	(low (_dbuf| (0+256)))& (0+255)
  7926     1378  0084               	movwf	4
  7927     1379  300A               	movlw	10
  7928     137A  00F1               	movwf	___awmod@divisor
  7929     137B  3000               	movlw	0
  7930     137C  00F2               	movwf	___awmod@divisor+1
  7931     137D  082B               	movf	dtoa@d+1,w
  7932     137E  00F4               	movwf	___awmod@dividend+1
  7933     137F  082A               	movf	dtoa@d,w
  7934     1380  00F3               	movwf	___awmod@dividend
  7935     1381  160A  118A  2178  160A  118A  	fcall	___awmod
  7936     1386  0872               	movf	?___awmod+1,w
  7937     1387  00F8               	movwf	abs@a+1
  7938     1388  0871               	movf	?___awmod,w
  7939     1389  00F7               	movwf	abs@a
  7940     138A  160A  158A  24F2  160A  118A  	fcall	_abs
  7941     138F  0877               	movf	?_abs,w
  7942     1390  3E30               	addlw	48
  7943     1391  1783               	bsf	3,7	;select IRP bank3
  7944     1392  0080               	movwf	0
  7945     1393                     i1l3170:
  7946                           
  7947                           ;C:\Program Files\Microchip\xc8\v2.45\pic\sources\c99\common\doprnt.c: 567:         --p;
  7948     1393  30FF               	movlw	255
  7949     1394  1283               	bcf	3,5	;RP0=0, select bank0
  7950     1395  1303               	bcf	3,6	;RP1=0, select bank0
  7951     1396  07B0               	addwf	dtoa@p,f
  7952     1397  1803               	skipnc
  7953     1398  0AB1               	incf	dtoa@p+1,f
  7954     1399  30FF               	movlw	255
  7955     139A  07B1               	addwf	dtoa@p+1,f
  7956     139B                     i1l3172:
  7957                           
  7958                           ;C:\Program Files\Microchip\xc8\v2.45\pic\sources\c99\common\doprnt.c: 571:         --w;
  7959     139B  30FF               	movlw	255
  7960     139C  07AE               	addwf	dtoa@w,f
  7961     139D  1803               	skipnc
  7962     139E  0AAF               	incf	dtoa@w+1,f
  7963     139F  30FF               	movlw	255
  7964     13A0  07AF               	addwf	dtoa@w+1,f
  7965     13A1                     i1l3174:
  7966                           
  7967                           ;C:\Program Files\Microchip\xc8\v2.45\pic\sources\c99\common\doprnt.c: 572:         d = 
      +                          d / 10;
  7968     13A1  300A               	movlw	10
  7969     13A2  00F1               	movwf	___awdiv@divisor
  7970     13A3  3000               	movlw	0
  7971     13A4  00F2               	movwf	___awdiv@divisor+1
  7972     13A5  082B               	movf	dtoa@d+1,w
  7973     13A6  00F4               	movwf	___awdiv@dividend+1
  7974     13A7  082A               	movf	dtoa@d,w
  7975     13A8  00F3               	movwf	___awdiv@dividend
  7976     13A9  160A  118A  21D1  160A  118A  	fcall	___awdiv
  7977     13AE  0872               	movf	?___awdiv+1,w
  7978     13AF  1283               	bcf	3,5	;RP0=0, select bank0
  7979     13B0  1303               	bcf	3,6	;RP1=0, select bank0
  7980     13B1  00AB               	movwf	dtoa@d+1
  7981     13B2  0871               	movf	?___awdiv,w
  7982     13B3  00AA               	movwf	dtoa@d
  7983     13B4                     i1l3176:
  7984                           
  7985                           ;C:\Program Files\Microchip\xc8\v2.45\pic\sources\c99\common\doprnt.c: 554:     while (!
      +                          (i < 1) && (d != 0
  7986     13B4  1283               	bcf	3,5	;RP0=0, select bank0
  7987     13B5  1303               	bcf	3,6	;RP1=0, select bank0
  7988     13B6  0835               	movf	dtoa@i+1,w
  7989     13B7  3A80               	xorlw	128
  7990     13B8  00FF               	movwf	btemp+1
  7991     13B9  3080               	movlw	128
  7992     13BA  027F               	subwf	btemp+1,w
  7993     13BB  1D03               	skipz
  7994     13BC  2BBF               	goto	u456_25
  7995     13BD  3001               	movlw	1
  7996     13BE  0234               	subwf	dtoa@i,w
  7997     13BF                     u456_25:
  7998     13BF  1C03               	skipc
  7999     13C0  2BC2               	goto	u456_21
  8000     13C1  2BC3               	goto	u456_20
  8001     13C2                     u456_21:
  8002     13C2  2BD8               	goto	i1l3182
  8003     13C3                     u456_20:
  8004     13C3                     i1l3178:
  8005     13C3  1283               	bcf	3,5	;RP0=0, select bank0
  8006     13C4  1303               	bcf	3,6	;RP1=0, select bank0
  8007     13C5  082A               	movf	dtoa@d,w
  8008     13C6  042B               	iorwf	dtoa@d+1,w
  8009     13C7  1D03               	btfss	3,2
  8010     13C8  2BCA               	goto	u457_21
  8011     13C9  2BCB               	goto	u457_20
  8012     13CA                     u457_21:
  8013     13CA  2B6E               	goto	i1l3166
  8014     13CB                     u457_20:
  8015     13CB                     i1l3180:
  8016     13CB  0831               	movf	dtoa@p+1,w
  8017     13CC  3A80               	xorlw	128
  8018     13CD  00FF               	movwf	btemp+1
  8019     13CE  3080               	movlw	128
  8020     13CF  027F               	subwf	btemp+1,w
  8021     13D0  1D03               	skipz
  8022     13D1  2BD4               	goto	u458_25
  8023     13D2  3001               	movlw	1
  8024     13D3  0230               	subwf	dtoa@p,w
  8025     13D4                     u458_25:
  8026     13D4  1803               	skipnc
  8027     13D5  2BD7               	goto	u458_21
  8028     13D6  2BD8               	goto	u458_20
  8029     13D7                     u458_21:
  8030     13D7  2B6E               	goto	i1l3166
  8031     13D8                     u458_20:
  8032     13D8                     i1l3182:
  8033                           
  8034                           ;C:\Program Files\Microchip\xc8\v2.45\pic\sources\c99\common\doprnt.c: 576:     if (s !=
      +                           0) {
  8035     13D8  1283               	bcf	3,5	;RP0=0, select bank0
  8036     13D9  1303               	bcf	3,6	;RP1=0, select bank0
  8037     13DA  0833               	movf	dtoa@s,w
  8038     13DB  1903               	btfsc	3,2
  8039     13DC  2BDE               	goto	u459_21
  8040     13DD  2BDF               	goto	u459_20
  8041     13DE                     u459_21:
  8042     13DE  2BEB               	goto	i1l3188
  8043     13DF                     u459_20:
  8044     13DF                     i1l3184:
  8045                           
  8046                           ;C:\Program Files\Microchip\xc8\v2.45\pic\sources\c99\common\doprnt.c: 577:         --i;
  8047     13DF  30FF               	movlw	255
  8048     13E0  07B4               	addwf	dtoa@i,f
  8049     13E1  1803               	skipnc
  8050     13E2  0AB5               	incf	dtoa@i+1,f
  8051     13E3  30FF               	movlw	255
  8052     13E4  07B5               	addwf	dtoa@i+1,f
  8053     13E5                     i1l3186:
  8054                           
  8055                           ;C:\Program Files\Microchip\xc8\v2.45\pic\sources\c99\common\doprnt.c: 578:         dbuf
      +                          [i] = s;
  8056     13E5  0834               	movf	dtoa@i,w
  8057     13E6  3E90               	addlw	(low (_dbuf| (0+256)))& (0+255)
  8058     13E7  0084               	movwf	4
  8059     13E8  0833               	movf	dtoa@s,w
  8060     13E9  1783               	bsf	3,7	;select IRP bank3
  8061     13EA  0080               	movwf	0
  8062     13EB                     i1l3188:
  8063                           
  8064                           ;C:\Program Files\Microchip\xc8\v2.45\pic\sources\c99\common\doprnt.c: 582:     return (
      +                          void) pad(fp, &dbuf[i], w);
  8065     13EB  0834               	movf	dtoa@i,w
  8066     13EC  3E90               	addlw	(low (_dbuf| (0+256)))& (0+255)
  8067     13ED  00A4               	movwf	pad@buf
  8068     13EE  082F               	movf	dtoa@w+1,w
  8069     13EF  00A6               	movwf	pad@p+1
  8070     13F0  082E               	movf	dtoa@w,w
  8071     13F1  00A5               	movwf	pad@p
  8072     13F2  0832               	movf	dtoa@fp,w
  8073     13F3  160A  158A  268A  160A  118A  	fcall	_pad
  8074     13F8                     i1l724:
  8075     13F8  0008               	return
  8076     13F9                     __end_of_dtoa:
  8077                           
  8078                           	psect	text28
  8079     1E8A                     __ptext28:	
  8080 ;; *************** function _pad *****************
  8081 ;; Defined at:
  8082 ;;		line 193 in file "C:\Program Files\Microchip\xc8\v2.45\pic\sources\c99\common\doprnt.c"
  8083 ;; Parameters:    Size  Location     Type
  8084 ;;  fp              1    wreg     PTR struct _IO_FILE
  8085 ;;		 -> NULL(0), 
  8086 ;;  buf             1    4[BANK0 ] PTR unsigned char 
  8087 ;;		 -> dbuf(80), 
  8088 ;;  p               2    5[BANK0 ] int 
  8089 ;; Auto vars:     Size  Location     Type
  8090 ;;  fp              1    9[BANK0 ] PTR struct _IO_FILE
  8091 ;;		 -> NULL(0), 
  8092 ;;  i               2    7[BANK0 ] int 
  8093 ;; Return value:  Size  Location     Type
  8094 ;;                  1    wreg      void 
  8095 ;; Registers used:
  8096 ;;		wreg, fsr0l, fsr0h, status,2, status,0, pclath, cstack
  8097 ;; Tracked objects:
  8098 ;;		On entry : 0/0
  8099 ;;		On exit  : 0/0
  8100 ;;		Unchanged: 0/0
  8101 ;; Data sizes:     COMMON   BANK0   BANK1   BANK3   BANK2
  8102 ;;      Params:         0       3       0       0       0
  8103 ;;      Locals:         0       3       0       0       0
  8104 ;;      Temps:          1       0       0       0       0
  8105 ;;      Totals:         1       6       0       0       0
  8106 ;;Total ram usage:        7 bytes
  8107 ;; Hardware stack levels used: 1
  8108 ;; Hardware stack levels required when called: 3
  8109 ;; This function calls:
  8110 ;;		_fputc
  8111 ;;		_fputs
  8112 ;; This function is called by:
  8113 ;;		_dtoa
  8114 ;;		_efgtoa
  8115 ;; This function uses a non-reentrant model
  8116 ;;
  8117                           
  8118     1E8A                     _pad:	
  8119                           ;psect for function _pad
  8120                           
  8121                           
  8122                           ;incstack = 0
  8123 ;; hardware stack exceeded
  8124                           ; Regs used in _pad: [wreg-fsr0h+status,2+status,0+pclath+cstack]
  8125                           ;pad@fp stored from wreg
  8126     1E8A  1283               	bcf	3,5	;RP0=0, select bank0
  8127     1E8B  1303               	bcf	3,6	;RP1=0, select bank0
  8128     1E8C  00A9               	movwf	pad@fp
  8129     1E8D                     i1l3050:
  8130                           
  8131                           ;C:\Program Files\Microchip\xc8\v2.45\pic\sources\c99\common\doprnt.c: 193: static void 
      +                          pad(FILE *fp, char *buf, int p);C:\Program Files\Microchip\xc8\v2.45\pic\sources\c99\com
      +                          mon\doprnt.c: 194: {;C:\Program Files\Microchip\xc8\v2.45\pic\sources\c99\common\doprnt.
      +                          c: 195:     int i;;C:\Program Files\Microchip\xc8\v2.45\pic\sources\c99\common\doprnt.c:
      +                           205:  if (p < 0) {
  8132     1E8D  1FA6               	btfss	pad@p+1,7
  8133     1E8E  2E90               	goto	u425_21
  8134     1E8F  2E91               	goto	u425_20
  8135     1E90                     u425_21:
  8136     1E90  2E93               	goto	i1l702
  8137     1E91                     u425_20:
  8138     1E91                     i1l3052:
  8139                           
  8140                           ;C:\Program Files\Microchip\xc8\v2.45\pic\sources\c99\common\doprnt.c: 206:   p = 0;
  8141     1E91  01A5               	clrf	pad@p
  8142     1E92  01A6               	clrf	pad@p+1
  8143     1E93                     i1l702:	
  8144                           ;C:\Program Files\Microchip\xc8\v2.45\pic\sources\c99\common\doprnt.c: 207:  }
  8145                           
  8146                           
  8147                           ;C:\Program Files\Microchip\xc8\v2.45\pic\sources\c99\common\doprnt.c: 208:     i = 0;
  8148     1E93  01A7               	clrf	pad@i
  8149     1E94  01A8               	clrf	pad@i+1
  8150                           
  8151                           ;C:\Program Files\Microchip\xc8\v2.45\pic\sources\c99\common\doprnt.c: 209:     while (i
      +                           < p) {
  8152     1E95  2EAB               	goto	i1l3058
  8153     1E96                     i1l3054:
  8154                           
  8155                           ;C:\Program Files\Microchip\xc8\v2.45\pic\sources\c99\common\doprnt.c: 210:         fput
      +                          c(' ', fp);
  8156     1E96  3020               	movlw	32
  8157     1E97  00F2               	movwf	fputc@c
  8158     1E98  3000               	movlw	0
  8159     1E99  00F3               	movwf	fputc@c+1
  8160     1E9A  1283               	bcf	3,5	;RP0=0, select bank0
  8161     1E9B  1303               	bcf	3,6	;RP1=0, select bank0
  8162     1E9C  0829               	movf	pad@fp,w
  8163     1E9D  00F4               	movwf	fputc@fp
  8164     1E9E  160A  118A  20CA  160A  158A  	fcall	_fputc
  8165     1EA3                     i1l3056:
  8166                           
  8167                           ;C:\Program Files\Microchip\xc8\v2.45\pic\sources\c99\common\doprnt.c: 211:         ++i;
  8168     1EA3  3001               	movlw	1
  8169     1EA4  1283               	bcf	3,5	;RP0=0, select bank0
  8170     1EA5  1303               	bcf	3,6	;RP1=0, select bank0
  8171     1EA6  07A7               	addwf	pad@i,f
  8172     1EA7  1803               	skipnc
  8173     1EA8  0AA8               	incf	pad@i+1,f
  8174     1EA9  3000               	movlw	0
  8175     1EAA  07A8               	addwf	pad@i+1,f
  8176     1EAB                     i1l3058:
  8177                           
  8178                           ;C:\Program Files\Microchip\xc8\v2.45\pic\sources\c99\common\doprnt.c: 209:     while (i
      +                           < p) {
  8179     1EAB  0828               	movf	pad@i+1,w
  8180     1EAC  3A80               	xorlw	128
  8181     1EAD  00FD               	movwf	??_pad
  8182     1EAE  0826               	movf	pad@p+1,w
  8183     1EAF  3A80               	xorlw	128
  8184     1EB0  027D               	subwf	??_pad,w
  8185     1EB1  1D03               	skipz
  8186     1EB2  2EB5               	goto	u426_25
  8187     1EB3  0825               	movf	pad@p,w
  8188     1EB4  0227               	subwf	pad@i,w
  8189     1EB5                     u426_25:
  8190     1EB5  1C03               	skipc
  8191     1EB6  2EB8               	goto	u426_21
  8192     1EB7  2EB9               	goto	u426_20
  8193     1EB8                     u426_21:
  8194     1EB8  2E96               	goto	i1l3054
  8195     1EB9                     u426_20:
  8196     1EB9                     i1l3060:
  8197                           
  8198                           ;C:\Program Files\Microchip\xc8\v2.45\pic\sources\c99\common\doprnt.c: 218:         fput
      +                          s((const char *)buf, fp);
  8199     1EB9  1283               	bcf	3,5	;RP0=0, select bank0
  8200     1EBA  1303               	bcf	3,6	;RP1=0, select bank0
  8201     1EBB  0829               	movf	pad@fp,w
  8202     1EBC  00FA               	movwf	fputs@fp
  8203     1EBD  0824               	movf	pad@buf,w
  8204     1EBE  160A  158A  262A  160A  158A  	fcall	_fputs
  8205     1EC3                     i1l706:
  8206     1EC3  0008               	return
  8207     1EC4                     __end_of_pad:
  8208                           
  8209                           	psect	text29
  8210     1E2A                     __ptext29:	
  8211 ;; *************** function _fputs *****************
  8212 ;; Defined at:
  8213 ;;		line 8 in file "C:\Program Files\Microchip\xc8\v2.45\pic\sources\c99\common\nf_fputs.c"
  8214 ;; Parameters:    Size  Location     Type
  8215 ;;  s               1    wreg     PTR const unsigned char 
  8216 ;;		 -> dbuf(80), 
  8217 ;;  fp              1    9[COMMON] PTR struct _IO_FILE
  8218 ;;		 -> NULL(0), 
  8219 ;; Auto vars:     Size  Location     Type
  8220 ;;  s               1    3[BANK0 ] PTR const unsigned char 
  8221 ;;		 -> dbuf(80), 
  8222 ;;  i               2    1[BANK0 ] int 
  8223 ;;  c               1    0[BANK0 ] unsigned char 
  8224 ;; Return value:  Size  Location     Type
  8225 ;;                  2    9[COMMON] int 
  8226 ;; Registers used:
  8227 ;;		wreg, fsr0l, fsr0h, status,2, status,0, pclath, cstack
  8228 ;; Tracked objects:
  8229 ;;		On entry : 0/0
  8230 ;;		On exit  : 0/0
  8231 ;;		Unchanged: 0/0
  8232 ;; Data sizes:     COMMON   BANK0   BANK1   BANK3   BANK2
  8233 ;;      Params:         1       0       0       0       0
  8234 ;;      Locals:         0       4       0       0       0
  8235 ;;      Temps:          2       0       0       0       0
  8236 ;;      Totals:         3       4       0       0       0
  8237 ;;Total ram usage:        7 bytes
  8238 ;; Hardware stack levels used: 1
  8239 ;; Hardware stack levels required when called: 2
  8240 ;; This function calls:
  8241 ;;		_fputc
  8242 ;; This function is called by:
  8243 ;;		_pad
  8244 ;; This function uses a non-reentrant model
  8245 ;;
  8246                           
  8247     1E2A                     _fputs:	
  8248                           ;psect for function _fputs
  8249                           
  8250                           
  8251                           ;incstack = 0
  8252 ;; hardware stack exceeded
  8253                           ; Regs used in _fputs: [wreg-fsr0h+status,2+status,0+pclath+cstack]
  8254                           ;fputs@s stored from wreg
  8255     1E2A  1283               	bcf	3,5	;RP0=0, select bank0
  8256     1E2B  1303               	bcf	3,6	;RP1=0, select bank0
  8257     1E2C  00A3               	movwf	fputs@s
  8258     1E2D                     i1l2574:
  8259     1E2D  01A1               	clrf	fputs@i
  8260     1E2E  01A2               	clrf	fputs@i+1
  8261     1E2F  2E46               	goto	i1l2580
  8262     1E30                     i1l2576:
  8263     1E30  0820               	movf	fputs@c,w
  8264     1E31  00FB               	movwf	??_fputs
  8265     1E32  01FC               	clrf	??_fputs+1
  8266     1E33  087B               	movf	??_fputs,w
  8267     1E34  00F2               	movwf	fputc@c
  8268     1E35  087C               	movf	??_fputs+1,w
  8269     1E36  00F3               	movwf	fputc@c+1
  8270     1E37  087A               	movf	fputs@fp,w
  8271     1E38  00F4               	movwf	fputc@fp
  8272     1E39  160A  118A  20CA  160A  158A  	fcall	_fputc
  8273     1E3E                     i1l2578:
  8274     1E3E  3001               	movlw	1
  8275     1E3F  1283               	bcf	3,5	;RP0=0, select bank0
  8276     1E40  1303               	bcf	3,6	;RP1=0, select bank0
  8277     1E41  07A1               	addwf	fputs@i,f
  8278     1E42  1803               	skipnc
  8279     1E43  0AA2               	incf	fputs@i+1,f
  8280     1E44  3000               	movlw	0
  8281     1E45  07A2               	addwf	fputs@i+1,f
  8282     1E46                     i1l2580:
  8283     1E46  0821               	movf	fputs@i,w
  8284     1E47  0723               	addwf	fputs@s,w
  8285     1E48  00FB               	movwf	??_fputs
  8286     1E49  087B               	movf	??_fputs,w
  8287     1E4A  0084               	movwf	4
  8288     1E4B  1783               	bsf	3,7	;select IRP bank2
  8289     1E4C  0800               	movf	0,w
  8290     1E4D  00A0               	movwf	fputs@c
  8291     1E4E  0820               	movf	fputs@c,w
  8292     1E4F  1D03               	btfss	3,2
  8293     1E50  2E52               	goto	u313_21
  8294     1E51  2E53               	goto	u313_20
  8295     1E52                     u313_21:
  8296     1E52  2E30               	goto	i1l2576
  8297     1E53                     u313_20:
  8298     1E53                     i1l894:
  8299     1E53  0008               	return
  8300     1E54                     __end_of_fputs:
  8301                           
  8302                           	psect	text30
  8303     10CA                     __ptext30:	
  8304 ;; *************** function _fputc *****************
  8305 ;; Defined at:
  8306 ;;		line 8 in file "C:\Program Files\Microchip\xc8\v2.45\pic\sources\c99\common\nf_fputc.c"
  8307 ;; Parameters:    Size  Location     Type
  8308 ;;  c               2    1[COMMON] int 
  8309 ;;  fp              1    3[COMMON] PTR struct _IO_FILE
  8310 ;;		 -> NULL(0), 
  8311 ;; Auto vars:     Size  Location     Type
  8312 ;;		None
  8313 ;; Return value:  Size  Location     Type
  8314 ;;                  2    1[COMMON] int 
  8315 ;; Registers used:
  8316 ;;		wreg, fsr0l, fsr0h, status,2, status,0, pclath, cstack
  8317 ;; Tracked objects:
  8318 ;;		On entry : 0/0
  8319 ;;		On exit  : 0/0
  8320 ;;		Unchanged: 0/0
  8321 ;; Data sizes:     COMMON   BANK0   BANK1   BANK3   BANK2
  8322 ;;      Params:         3       0       0       0       0
  8323 ;;      Locals:         0       0       0       0       0
  8324 ;;      Temps:          5       0       0       0       0
  8325 ;;      Totals:         8       0       0       0       0
  8326 ;;Total ram usage:        8 bytes
  8327 ;; Hardware stack levels used: 1
  8328 ;; Hardware stack levels required when called: 1
  8329 ;; This function calls:
  8330 ;;		_putch
  8331 ;; This function is called by:
  8332 ;;		_pad
  8333 ;;		_stoa
  8334 ;;		_vfpfcnvrt
  8335 ;;		_fputs
  8336 ;; This function uses a non-reentrant model
  8337 ;;
  8338                           
  8339     10CA                     _fputc:	
  8340                           ;psect for function _fputc
  8341                           
  8342     10CA                     i1l2346:	
  8343                           ;incstack = 0
  8344 ;; hardware stack exceeded
  8345                           ; Regs used in _fputc: [wreg-fsr0h+status,2+status,0+pclath+cstack]
  8346                           
  8347     10CA  0874               	movf	fputc@fp,w
  8348     10CB  1903               	btfsc	3,2
  8349     10CC  28CE               	goto	u260_21
  8350     10CD  28CF               	goto	u260_20
  8351     10CE                     u260_21:
  8352     10CE  28D4               	goto	i1l2350
  8353     10CF                     u260_20:
  8354     10CF                     i1l2348:
  8355     10CF  0874               	movf	fputc@fp,w
  8356     10D0  1D03               	btfss	3,2
  8357     10D1  28D3               	goto	u261_21
  8358     10D2  28D4               	goto	u261_20
  8359     10D3                     u261_21:
  8360     10D3  28DB               	goto	i1l2352
  8361     10D4                     u261_20:
  8362     10D4                     i1l2350:
  8363     10D4  0872               	movf	fputc@c,w
  8364     10D5  160A  158A  24BF  160A  118A  	fcall	_putch
  8365     10DA  291F               	goto	i1l886
  8366     10DB                     i1l2352:
  8367     10DB  0874               	movf	fputc@fp,w
  8368     10DC  3E09               	addlw	9
  8369     10DD  0084               	movwf	4
  8370     10DE  1383               	bcf	3,7	;select IRP bank0
  8371     10DF  0800               	movf	0,w
  8372     10E0  00F5               	movwf	??_fputc
  8373     10E1  0A84               	incf	4,f
  8374     10E2  0800               	movf	0,w
  8375     10E3  00F6               	movwf	??_fputc+1
  8376     10E4  0875               	movf	??_fputc,w
  8377     10E5  0476               	iorwf	??_fputc+1,w
  8378     10E6  1903               	btfsc	3,2
  8379     10E7  28E9               	goto	u262_21
  8380     10E8  28EA               	goto	u262_20
  8381     10E9                     u262_21:
  8382     10E9  2908               	goto	i1l2356
  8383     10EA                     u262_20:
  8384     10EA                     i1l2354:
  8385     10EA  0874               	movf	fputc@fp,w
  8386     10EB  3E09               	addlw	9
  8387     10EC  0084               	movwf	4
  8388     10ED  0800               	movf	0,w
  8389     10EE  00F5               	movwf	??_fputc
  8390     10EF  0A84               	incf	4,f
  8391     10F0  0800               	movf	0,w
  8392     10F1  00F6               	movwf	??_fputc+1
  8393     10F2  0874               	movf	fputc@fp,w
  8394     10F3  3E02               	addlw	2
  8395     10F4  0084               	movwf	4
  8396     10F5  0800               	movf	0,w
  8397     10F6  00F7               	movwf	??_fputc+2
  8398     10F7  0A84               	incf	4,f
  8399     10F8  0800               	movf	0,w
  8400     10F9  00F8               	movwf	??_fputc+3
  8401     10FA  0878               	movf	??_fputc+3,w
  8402     10FB  3A80               	xorlw	128
  8403     10FC  00F9               	movwf	??_fputc+4
  8404     10FD  0876               	movf	??_fputc+1,w
  8405     10FE  3A80               	xorlw	128
  8406     10FF  0279               	subwf	??_fputc+4,w
  8407     1100  1D03               	skipz
  8408     1101  2904               	goto	u263_25
  8409     1102  0875               	movf	??_fputc,w
  8410     1103  0277               	subwf	??_fputc+2,w
  8411     1104                     u263_25:
  8412     1104  1803               	skipnc
  8413     1105  2907               	goto	u263_21
  8414     1106  2908               	goto	u263_20
  8415     1107                     u263_21:
  8416     1107  291F               	goto	i1l886
  8417     1108                     u263_20:
  8418     1108                     i1l2356:
  8419     1108  0874               	movf	fputc@fp,w
  8420     1109  3E02               	addlw	2
  8421     110A  0084               	movwf	4
  8422     110B  1383               	bcf	3,7	;select IRP bank0
  8423     110C  0800               	movf	0,w
  8424     110D  00F5               	movwf	??_fputc
  8425     110E  0874               	movf	fputc@fp,w
  8426     110F  0084               	movwf	4
  8427     1110  0800               	movf	0,w
  8428     1111  0775               	addwf	??_fputc,w
  8429     1112  00F6               	movwf	??_fputc+1
  8430     1113  0876               	movf	??_fputc+1,w
  8431     1114  0084               	movwf	4
  8432     1115  0872               	movf	fputc@c,w
  8433     1116  0080               	movwf	0
  8434     1117  0874               	movf	fputc@fp,w
  8435     1118  3E02               	addlw	2
  8436     1119  0084               	movwf	4
  8437     111A  3001               	movlw	1
  8438     111B  0780               	addwf	0,f
  8439     111C  0A84               	incf	4,f
  8440     111D  1803               	skipnc
  8441     111E  0A80               	incf	0,f
  8442     111F                     i1l886:
  8443     111F  0008               	return
  8444     1120                     __end_of_fputc:
  8445                           
  8446                           	psect	text31
  8447     1CBF                     __ptext31:	
  8448 ;; *************** function _putch *****************
  8449 ;; Defined at:
  8450 ;;		line 46 in file "src/protocols/uart.c"
  8451 ;; Parameters:    Size  Location     Type
  8452 ;;  data            1    wreg     unsigned char 
  8453 ;; Auto vars:     Size  Location     Type
  8454 ;;  data            1    0[COMMON] unsigned char 
  8455 ;; Return value:  Size  Location     Type
  8456 ;;                  1    wreg      void 
  8457 ;; Registers used:
  8458 ;;		wreg
  8459 ;; Tracked objects:
  8460 ;;		On entry : 0/0
  8461 ;;		On exit  : 0/0
  8462 ;;		Unchanged: 0/0
  8463 ;; Data sizes:     COMMON   BANK0   BANK1   BANK3   BANK2
  8464 ;;      Params:         0       0       0       0       0
  8465 ;;      Locals:         1       0       0       0       0
  8466 ;;      Temps:          0       0       0       0       0
  8467 ;;      Totals:         1       0       0       0       0
  8468 ;;Total ram usage:        1 bytes
  8469 ;; Hardware stack levels used: 1
  8470 ;; This function calls:
  8471 ;;		Nothing
  8472 ;; This function is called by:
  8473 ;;		_fputc
  8474 ;; This function uses a non-reentrant model
  8475 ;;
  8476                           
  8477     1CBF                     _putch:	
  8478                           ;psect for function _putch
  8479                           
  8480                           
  8481                           ;incstack = 0
  8482 ;; hardware stack exceeded
  8483                           ; Regs used in _putch: [wreg]
  8484                           ;putch@data stored from wreg
  8485     1CBF  00F1               	movwf	putch@data
  8486     1CC0                     i1l2342:
  8487     1CC0                     i1l121:	
  8488                           ;src/protocols/uart.c: 46: void putch (char data);src/protocols/uart.c: 47: {;src/protoc
      +                          ols/uart.c: 48:     while(!TXIF)
  8489                           
  8490                           
  8491                           ;src/protocols/uart.c: 48:     while(!TXIF)
  8492     1CC0  1283               	bcf	3,5	;RP0=0, select bank0
  8493     1CC1  1303               	bcf	3,6	;RP1=0, select bank0
  8494     1CC2  1E0C               	btfss	12,4	;volatile
  8495     1CC3  2CC5               	goto	u259_21
  8496     1CC4  2CC6               	goto	u259_20
  8497     1CC5                     u259_21:
  8498     1CC5  2CC0               	goto	i1l121
  8499     1CC6                     u259_20:
  8500     1CC6                     i1l2344:
  8501                           
  8502                           ;src/protocols/uart.c: 50:     TXREG = data;
  8503     1CC6  0871               	movf	putch@data,w
  8504     1CC7  0099               	movwf	25	;volatile
  8505     1CC8                     i1l124:
  8506     1CC8  0008               	return
  8507     1CC9                     __end_of_putch:
  8508                           
  8509                           	psect	text32
  8510     1CF2                     __ptext32:	
  8511 ;; *************** function _abs *****************
  8512 ;; Defined at:
  8513 ;;		line 1 in file "C:\Program Files\Microchip\xc8\v2.45\pic\sources\c99\common\abs.c"
  8514 ;; Parameters:    Size  Location     Type
  8515 ;;  a               2    6[COMMON] int 
  8516 ;; Auto vars:     Size  Location     Type
  8517 ;;		None
  8518 ;; Return value:  Size  Location     Type
  8519 ;;                  2    6[COMMON] int 
  8520 ;; Registers used:
  8521 ;;		wreg, status,2, status,0
  8522 ;; Tracked objects:
  8523 ;;		On entry : 0/0
  8524 ;;		On exit  : 0/0
  8525 ;;		Unchanged: 0/0
  8526 ;; Data sizes:     COMMON   BANK0   BANK1   BANK3   BANK2
  8527 ;;      Params:         2       0       0       0       0
  8528 ;;      Locals:         0       0       0       0       0
  8529 ;;      Temps:          2       0       0       0       0
  8530 ;;      Totals:         4       0       0       0       0
  8531 ;;Total ram usage:        4 bytes
  8532 ;; Hardware stack levels used: 1
  8533 ;; This function calls:
  8534 ;;		Nothing
  8535 ;; This function is called by:
  8536 ;;		_dtoa
  8537 ;; This function uses a non-reentrant model
  8538 ;;
  8539                           
  8540     1CF2                     _abs:	
  8541                           ;psect for function _abs
  8542                           
  8543     1CF2                     i1l3062:	
  8544                           ;incstack = 0
  8545                           ; Regs used in _abs: [wreg+status,2+status,0]
  8546                           
  8547     1CF2  1BF8               	btfsc	abs@a+1,7
  8548     1CF3  2CF5               	goto	u427_21
  8549     1CF4  2CF6               	goto	u427_20
  8550     1CF5                     u427_21:
  8551     1CF5  2CF7               	goto	i1l3066
  8552     1CF6                     u427_20:
  8553     1CF6                     i1l3064:
  8554     1CF6  2D02               	goto	i1l848
  8555     1CF7                     i1l3066:
  8556     1CF7  0977               	comf	abs@a,w
  8557     1CF8  00F9               	movwf	??_abs
  8558     1CF9  0978               	comf	abs@a+1,w
  8559     1CFA  00FA               	movwf	??_abs+1
  8560     1CFB  0AF9               	incf	??_abs,f
  8561     1CFC  1903               	skipnz
  8562     1CFD  0AFA               	incf	??_abs+1,f
  8563     1CFE  0879               	movf	??_abs,w
  8564     1CFF  00F7               	movwf	?_abs
  8565     1D00  087A               	movf	??_abs+1,w
  8566     1D01  00F8               	movwf	?_abs+1
  8567     1D02                     i1l848:
  8568     1D02  0008               	return
  8569     1D03                     __end_of_abs:
  8570                           
  8571                           	psect	text33
  8572     1178                     __ptext33:	
  8573 ;; *************** function ___awmod *****************
  8574 ;; Defined at:
  8575 ;;		line 5 in file "C:\Program Files\Microchip\xc8\v2.45\pic\sources\c99\common\awmod.c"
  8576 ;; Parameters:    Size  Location     Type
  8577 ;;  divisor         2    0[COMMON] int 
  8578 ;;  dividend        2    2[COMMON] int 
  8579 ;; Auto vars:     Size  Location     Type
  8580 ;;  sign            1    5[COMMON] unsigned char 
  8581 ;;  counter         1    4[COMMON] unsigned char 
  8582 ;; Return value:  Size  Location     Type
  8583 ;;                  2    0[COMMON] int 
  8584 ;; Registers used:
  8585 ;;		wreg, status,2, status,0, btemp+1
  8586 ;; Tracked objects:
  8587 ;;		On entry : 0/0
  8588 ;;		On exit  : 0/0
  8589 ;;		Unchanged: 0/0
  8590 ;; Data sizes:     COMMON   BANK0   BANK1   BANK3   BANK2
  8591 ;;      Params:         4       0       0       0       0
  8592 ;;      Locals:         2       0       0       0       0
  8593 ;;      Temps:          0       0       0       0       0
  8594 ;;      Totals:         6       0       0       0       0
  8595 ;;Total ram usage:        6 bytes
  8596 ;; Hardware stack levels used: 1
  8597 ;; This function calls:
  8598 ;;		Nothing
  8599 ;; This function is called by:
  8600 ;;		_dtoa
  8601 ;; This function uses a non-reentrant model
  8602 ;;
  8603                           
  8604     1178                     ___awmod:	
  8605                           ;psect for function ___awmod
  8606                           
  8607     1178                     i1l2640:	
  8608                           ;incstack = 0
  8609                           ; Regs used in ___awmod: [wreg+status,2+status,0+btemp+1]
  8610                           
  8611     1178  01F6               	clrf	___awmod@sign
  8612     1179                     i1l2642:
  8613     1179  1FF4               	btfss	___awmod@dividend+1,7
  8614     117A  297C               	goto	u328_21
  8615     117B  297D               	goto	u328_20
  8616     117C                     u328_21:
  8617     117C  2984               	goto	i1l2648
  8618     117D                     u328_20:
  8619     117D                     i1l2644:
  8620     117D  09F3               	comf	___awmod@dividend,f
  8621     117E  09F4               	comf	___awmod@dividend+1,f
  8622     117F  0AF3               	incf	___awmod@dividend,f
  8623     1180  1903               	skipnz
  8624     1181  0AF4               	incf	___awmod@dividend+1,f
  8625     1182                     i1l2646:
  8626     1182  01F6               	clrf	___awmod@sign
  8627     1183  0AF6               	incf	___awmod@sign,f
  8628     1184                     i1l2648:
  8629     1184  1FF2               	btfss	___awmod@divisor+1,7
  8630     1185  2987               	goto	u329_21
  8631     1186  2988               	goto	u329_20
  8632     1187                     u329_21:
  8633     1187  298D               	goto	i1l2652
  8634     1188                     u329_20:
  8635     1188                     i1l2650:
  8636     1188  09F1               	comf	___awmod@divisor,f
  8637     1189  09F2               	comf	___awmod@divisor+1,f
  8638     118A  0AF1               	incf	___awmod@divisor,f
  8639     118B  1903               	skipnz
  8640     118C  0AF2               	incf	___awmod@divisor+1,f
  8641     118D                     i1l2652:
  8642     118D  0871               	movf	___awmod@divisor,w
  8643     118E  0472               	iorwf	___awmod@divisor+1,w
  8644     118F  1903               	btfsc	3,2
  8645     1190  2992               	goto	u330_21
  8646     1191  2993               	goto	u330_20
  8647     1192                     u330_21:
  8648     1192  29C2               	goto	i1l2670
  8649     1193                     u330_20:
  8650     1193                     i1l2654:
  8651     1193  01F5               	clrf	___awmod@counter
  8652     1194  0AF5               	incf	___awmod@counter,f
  8653     1195  29A1               	goto	i1l2660
  8654     1196                     i1l2656:
  8655     1196  3001               	movlw	1
  8656     1197                     u331_25:
  8657     1197  1003               	clrc
  8658     1198  0DF1               	rlf	___awmod@divisor,f
  8659     1199  0DF2               	rlf	___awmod@divisor+1,f
  8660     119A  3EFF               	addlw	-1
  8661     119B  1D03               	skipz
  8662     119C  2997               	goto	u331_25
  8663     119D                     i1l2658:
  8664     119D  3001               	movlw	1
  8665     119E  00FF               	movwf	btemp+1
  8666     119F  087F               	movf	btemp+1,w
  8667     11A0  07F5               	addwf	___awmod@counter,f
  8668     11A1                     i1l2660:
  8669     11A1  1FF2               	btfss	___awmod@divisor+1,7
  8670     11A2  29A4               	goto	u332_21
  8671     11A3  29A5               	goto	u332_20
  8672     11A4                     u332_21:
  8673     11A4  2996               	goto	i1l2656
  8674     11A5                     u332_20:
  8675     11A5                     i1l2662:
  8676     11A5  0872               	movf	___awmod@divisor+1,w
  8677     11A6  0274               	subwf	___awmod@dividend+1,w
  8678     11A7  1D03               	skipz
  8679     11A8  29AB               	goto	u333_25
  8680     11A9  0871               	movf	___awmod@divisor,w
  8681     11AA  0273               	subwf	___awmod@dividend,w
  8682     11AB                     u333_25:
  8683     11AB  1C03               	skipc
  8684     11AC  29AE               	goto	u333_21
  8685     11AD  29AF               	goto	u333_20
  8686     11AE                     u333_21:
  8687     11AE  29B5               	goto	i1l2666
  8688     11AF                     u333_20:
  8689     11AF                     i1l2664:
  8690     11AF  0871               	movf	___awmod@divisor,w
  8691     11B0  02F3               	subwf	___awmod@dividend,f
  8692     11B1  0872               	movf	___awmod@divisor+1,w
  8693     11B2  1C03               	skipc
  8694     11B3  03F4               	decf	___awmod@dividend+1,f
  8695     11B4  02F4               	subwf	___awmod@dividend+1,f
  8696     11B5                     i1l2666:
  8697     11B5  3001               	movlw	1
  8698     11B6                     u334_25:
  8699     11B6  1003               	clrc
  8700     11B7  0CF2               	rrf	___awmod@divisor+1,f
  8701     11B8  0CF1               	rrf	___awmod@divisor,f
  8702     11B9  3EFF               	addlw	-1
  8703     11BA  1D03               	skipz
  8704     11BB  29B6               	goto	u334_25
  8705     11BC                     i1l2668:
  8706     11BC  3001               	movlw	1
  8707     11BD  02F5               	subwf	___awmod@counter,f
  8708     11BE  1D03               	btfss	3,2
  8709     11BF  29C1               	goto	u335_21
  8710     11C0  29C2               	goto	u335_20
  8711     11C1                     u335_21:
  8712     11C1  29A5               	goto	i1l2662
  8713     11C2                     u335_20:
  8714     11C2                     i1l2670:
  8715     11C2  0876               	movf	___awmod@sign,w
  8716     11C3  1903               	btfsc	3,2
  8717     11C4  29C6               	goto	u336_21
  8718     11C5  29C7               	goto	u336_20
  8719     11C6                     u336_21:
  8720     11C6  29CC               	goto	i1l2674
  8721     11C7                     u336_20:
  8722     11C7                     i1l2672:
  8723     11C7  09F3               	comf	___awmod@dividend,f
  8724     11C8  09F4               	comf	___awmod@dividend+1,f
  8725     11C9  0AF3               	incf	___awmod@dividend,f
  8726     11CA  1903               	skipnz
  8727     11CB  0AF4               	incf	___awmod@dividend+1,f
  8728     11CC                     i1l2674:
  8729     11CC  0874               	movf	___awmod@dividend+1,w
  8730     11CD  00F2               	movwf	?___awmod+1
  8731     11CE  0873               	movf	___awmod@dividend,w
  8732     11CF  00F1               	movwf	?___awmod
  8733     11D0                     i1l376:
  8734     11D0  0008               	return
  8735     11D1                     __end_of___awmod:
  8736                           
  8737                           	psect	text34
  8738     11D1                     __ptext34:	
  8739 ;; *************** function ___awdiv *****************
  8740 ;; Defined at:
  8741 ;;		line 5 in file "C:\Program Files\Microchip\xc8\v2.45\pic\sources\c99\common\awdiv.c"
  8742 ;; Parameters:    Size  Location     Type
  8743 ;;  divisor         2    0[COMMON] int 
  8744 ;;  dividend        2    2[COMMON] int 
  8745 ;; Auto vars:     Size  Location     Type
  8746 ;;  quotient        2    6[COMMON] int 
  8747 ;;  sign            1    5[COMMON] unsigned char 
  8748 ;;  counter         1    4[COMMON] unsigned char 
  8749 ;; Return value:  Size  Location     Type
  8750 ;;                  2    0[COMMON] int 
  8751 ;; Registers used:
  8752 ;;		wreg, status,2, status,0, btemp+1
  8753 ;; Tracked objects:
  8754 ;;		On entry : 0/0
  8755 ;;		On exit  : 0/0
  8756 ;;		Unchanged: 0/0
  8757 ;; Data sizes:     COMMON   BANK0   BANK1   BANK3   BANK2
  8758 ;;      Params:         4       0       0       0       0
  8759 ;;      Locals:         4       0       0       0       0
  8760 ;;      Temps:          0       0       0       0       0
  8761 ;;      Totals:         8       0       0       0       0
  8762 ;;Total ram usage:        8 bytes
  8763 ;; Hardware stack levels used: 1
  8764 ;; This function calls:
  8765 ;;		Nothing
  8766 ;; This function is called by:
  8767 ;;		_dtoa
  8768 ;; This function uses a non-reentrant model
  8769 ;;
  8770                           
  8771     11D1                     ___awdiv:	
  8772                           ;psect for function ___awdiv
  8773                           
  8774     11D1                     i1l2596:	
  8775                           ;incstack = 0
  8776                           ; Regs used in ___awdiv: [wreg+status,2+status,0+btemp+1]
  8777                           
  8778     11D1  01F6               	clrf	___awdiv@sign
  8779     11D2                     i1l2598:
  8780     11D2  1FF2               	btfss	___awdiv@divisor+1,7
  8781     11D3  29D5               	goto	u318_21
  8782     11D4  29D6               	goto	u318_20
  8783     11D5                     u318_21:
  8784     11D5  29DD               	goto	i1l2604
  8785     11D6                     u318_20:
  8786     11D6                     i1l2600:
  8787     11D6  09F1               	comf	___awdiv@divisor,f
  8788     11D7  09F2               	comf	___awdiv@divisor+1,f
  8789     11D8  0AF1               	incf	___awdiv@divisor,f
  8790     11D9  1903               	skipnz
  8791     11DA  0AF2               	incf	___awdiv@divisor+1,f
  8792     11DB                     i1l2602:
  8793     11DB  01F6               	clrf	___awdiv@sign
  8794     11DC  0AF6               	incf	___awdiv@sign,f
  8795     11DD                     i1l2604:
  8796     11DD  1FF4               	btfss	___awdiv@dividend+1,7
  8797     11DE  29E0               	goto	u319_21
  8798     11DF  29E1               	goto	u319_20
  8799     11E0                     u319_21:
  8800     11E0  29EA               	goto	i1l2610
  8801     11E1                     u319_20:
  8802     11E1                     i1l2606:
  8803     11E1  09F3               	comf	___awdiv@dividend,f
  8804     11E2  09F4               	comf	___awdiv@dividend+1,f
  8805     11E3  0AF3               	incf	___awdiv@dividend,f
  8806     11E4  1903               	skipnz
  8807     11E5  0AF4               	incf	___awdiv@dividend+1,f
  8808     11E6                     i1l2608:
  8809     11E6  3001               	movlw	1
  8810     11E7  00FF               	movwf	btemp+1
  8811     11E8  087F               	movf	btemp+1,w
  8812     11E9  06F6               	xorwf	___awdiv@sign,f
  8813     11EA                     i1l2610:
  8814     11EA  01F7               	clrf	___awdiv@quotient
  8815     11EB  01F8               	clrf	___awdiv@quotient+1
  8816     11EC                     i1l2612:
  8817     11EC  0871               	movf	___awdiv@divisor,w
  8818     11ED  0472               	iorwf	___awdiv@divisor+1,w
  8819     11EE  1903               	btfsc	3,2
  8820     11EF  29F1               	goto	u320_21
  8821     11F0  29F2               	goto	u320_20
  8822     11F1                     u320_21:
  8823     11F1  2A29               	goto	i1l2632
  8824     11F2                     u320_20:
  8825     11F2                     i1l2614:
  8826     11F2  01F5               	clrf	___awdiv@counter
  8827     11F3  0AF5               	incf	___awdiv@counter,f
  8828     11F4  2A00               	goto	i1l2620
  8829     11F5                     i1l2616:
  8830     11F5  3001               	movlw	1
  8831     11F6                     u321_25:
  8832     11F6  1003               	clrc
  8833     11F7  0DF1               	rlf	___awdiv@divisor,f
  8834     11F8  0DF2               	rlf	___awdiv@divisor+1,f
  8835     11F9  3EFF               	addlw	-1
  8836     11FA  1D03               	skipz
  8837     11FB  29F6               	goto	u321_25
  8838     11FC                     i1l2618:
  8839     11FC  3001               	movlw	1
  8840     11FD  00FF               	movwf	btemp+1
  8841     11FE  087F               	movf	btemp+1,w
  8842     11FF  07F5               	addwf	___awdiv@counter,f
  8843     1200                     i1l2620:
  8844     1200  1FF2               	btfss	___awdiv@divisor+1,7
  8845     1201  2A03               	goto	u322_21
  8846     1202  2A04               	goto	u322_20
  8847     1203                     u322_21:
  8848     1203  29F5               	goto	i1l2616
  8849     1204                     u322_20:
  8850     1204                     i1l2622:
  8851     1204  3001               	movlw	1
  8852     1205                     u323_25:
  8853     1205  1003               	clrc
  8854     1206  0DF7               	rlf	___awdiv@quotient,f
  8855     1207  0DF8               	rlf	___awdiv@quotient+1,f
  8856     1208  3EFF               	addlw	-1
  8857     1209  1D03               	skipz
  8858     120A  2A05               	goto	u323_25
  8859     120B  0872               	movf	___awdiv@divisor+1,w
  8860     120C  0274               	subwf	___awdiv@dividend+1,w
  8861     120D  1D03               	skipz
  8862     120E  2A11               	goto	u324_25
  8863     120F  0871               	movf	___awdiv@divisor,w
  8864     1210  0273               	subwf	___awdiv@dividend,w
  8865     1211                     u324_25:
  8866     1211  1C03               	skipc
  8867     1212  2A14               	goto	u324_21
  8868     1213  2A15               	goto	u324_20
  8869     1214                     u324_21:
  8870     1214  2A1C               	goto	i1l2628
  8871     1215                     u324_20:
  8872     1215                     i1l2624:
  8873     1215  0871               	movf	___awdiv@divisor,w
  8874     1216  02F3               	subwf	___awdiv@dividend,f
  8875     1217  0872               	movf	___awdiv@divisor+1,w
  8876     1218  1C03               	skipc
  8877     1219  03F4               	decf	___awdiv@dividend+1,f
  8878     121A  02F4               	subwf	___awdiv@dividend+1,f
  8879     121B                     i1l2626:
  8880     121B  1477               	bsf	___awdiv@quotient,0
  8881     121C                     i1l2628:
  8882     121C  3001               	movlw	1
  8883     121D                     u325_25:
  8884     121D  1003               	clrc
  8885     121E  0CF2               	rrf	___awdiv@divisor+1,f
  8886     121F  0CF1               	rrf	___awdiv@divisor,f
  8887     1220  3EFF               	addlw	-1
  8888     1221  1D03               	skipz
  8889     1222  2A1D               	goto	u325_25
  8890     1223                     i1l2630:
  8891     1223  3001               	movlw	1
  8892     1224  02F5               	subwf	___awdiv@counter,f
  8893     1225  1D03               	btfss	3,2
  8894     1226  2A28               	goto	u326_21
  8895     1227  2A29               	goto	u326_20
  8896     1228                     u326_21:
  8897     1228  2A04               	goto	i1l2622
  8898     1229                     u326_20:
  8899     1229                     i1l2632:
  8900     1229  0876               	movf	___awdiv@sign,w
  8901     122A  1903               	btfsc	3,2
  8902     122B  2A2D               	goto	u327_21
  8903     122C  2A2E               	goto	u327_20
  8904     122D                     u327_21:
  8905     122D  2A33               	goto	i1l2636
  8906     122E                     u327_20:
  8907     122E                     i1l2634:
  8908     122E  09F7               	comf	___awdiv@quotient,f
  8909     122F  09F8               	comf	___awdiv@quotient+1,f
  8910     1230  0AF7               	incf	___awdiv@quotient,f
  8911     1231  1903               	skipnz
  8912     1232  0AF8               	incf	___awdiv@quotient+1,f
  8913     1233                     i1l2636:
  8914     1233  0878               	movf	___awdiv@quotient+1,w
  8915     1234  00F2               	movwf	?___awdiv+1
  8916     1235  0877               	movf	___awdiv@quotient,w
  8917     1236  00F1               	movwf	?___awdiv
  8918     1237                     i1l363:
  8919     1237  0008               	return
  8920     1238                     __end_of___awdiv:
  8921                           
  8922                           	psect	text35
  8923     1EC4                     __ptext35:	
  8924 ;; *************** function _read_co2_environment *****************
  8925 ;; Defined at:
  8926 ;;		line 3 in file "src/sensors/co2.c"
  8927 ;; Parameters:    Size  Location     Type
  8928 ;;		None
  8929 ;; Auto vars:     Size  Location     Type
  8930 ;;  co2_value       2    8[COMMON] unsigned short 
  8931 ;;  ack             1    0        unsigned char 
  8932 ;; Return value:  Size  Location     Type
  8933 ;;                  2    2[COMMON] unsigned short 
  8934 ;; Registers used:
  8935 ;;		wreg, status,2, status,0, pclath, cstack
  8936 ;; Tracked objects:
  8937 ;;		On entry : 0/0
  8938 ;;		On exit  : 0/0
  8939 ;;		Unchanged: 0/0
  8940 ;; Data sizes:     COMMON   BANK0   BANK1   BANK3   BANK2
  8941 ;;      Params:         2       0       0       0       0
  8942 ;;      Locals:         2       0       0       0       0
  8943 ;;      Temps:          4       0       0       0       0
  8944 ;;      Totals:         8       0       0       0       0
  8945 ;;Total ram usage:        8 bytes
  8946 ;; Hardware stack levels used: 1
  8947 ;; Hardware stack levels required when called: 2
  8948 ;; This function calls:
  8949 ;;		_i2c_read
  8950 ;;		_i2c_start
  8951 ;;		_i2c_stop
  8952 ;;		_i2c_write
  8953 ;; This function is called by:
  8954 ;;		_co2_interruption
  8955 ;; This function uses a non-reentrant model
  8956 ;;
  8957                           
  8958     1EC4                     _read_co2_environment:	
  8959                           ;psect for function _read_co2_environment
  8960                           
  8961     1EC4                     i1l3642:	
  8962                           ;incstack = 0
  8963                           ; Regs used in _read_co2_environment: [wreg+status,2+status,0+pclath+cstack]
  8964                           
  8965     1EC4                     i1l3644:
  8966                           
  8967                           ;src/sensors/co2.c: 8:     i2c_start();
  8968     1EC4  160A  158A  24AD  160A  158A  	fcall	_i2c_start
  8969     1EC9                     i1l3646:
  8970                           
  8971                           ;src/sensors/co2.c: 9:     i2c_write(0xB5);
  8972     1EC9  30B5               	movlw	181
  8973     1ECA  160A  158A  24D4  160A  158A  	fcall	_i2c_write
  8974     1ECF                     i1l3648:
  8975                           
  8976                           ;src/sensors/co2.c: 10:     i2c_stop();
  8977     1ECF  160A  158A  24B6  160A  158A  	fcall	_i2c_stop
  8978     1ED4                     i1l3650:
  8979                           
  8980                           ;src/sensors/co2.c: 12:     i2c_start();
  8981     1ED4  160A  158A  24AD  160A  158A  	fcall	_i2c_start
  8982     1ED9                     i1l3652:
  8983                           
  8984                           ;src/sensors/co2.c: 13:     co2_value = i2c_read(ack);
  8985     1ED9  3001               	movlw	1
  8986     1EDA  160A  158A  2573  160A  158A  	fcall	_i2c_read
  8987     1EDF  00F5               	movwf	??_read_co2_environment
  8988     1EE0  01F6               	clrf	??_read_co2_environment+1
  8989     1EE1  0875               	movf	??_read_co2_environment,w
  8990     1EE2  00F9               	movwf	read_co2_environment@co2_value
  8991     1EE3  0876               	movf	??_read_co2_environment+1,w
  8992     1EE4  00FA               	movwf	read_co2_environment@co2_value+1
  8993     1EE5                     i1l3654:
  8994                           
  8995                           ;src/sensors/co2.c: 14:     co2_value = (co2_value << 8)| i2c_read(ack);
  8996     1EE5  3001               	movlw	1
  8997     1EE6  160A  158A  2573  160A  158A  	fcall	_i2c_read
  8998     1EEB  00F5               	movwf	??_read_co2_environment
  8999     1EEC  01F6               	clrf	??_read_co2_environment+1
  9000     1EED  0879               	movf	read_co2_environment@co2_value,w
  9001     1EEE  00F8               	movwf	??_read_co2_environment+3
  9002     1EEF  01F7               	clrf	??_read_co2_environment+2
  9003     1EF0  0875               	movf	??_read_co2_environment,w
  9004     1EF1  0477               	iorwf	??_read_co2_environment+2,w
  9005     1EF2  00F9               	movwf	read_co2_environment@co2_value
  9006     1EF3  0876               	movf	??_read_co2_environment+1,w
  9007     1EF4  0478               	iorwf	??_read_co2_environment+3,w
  9008     1EF5  00FA               	movwf	read_co2_environment@co2_value+1
  9009     1EF6                     i1l3656:
  9010                           
  9011                           ;src/sensors/co2.c: 16:     i2c_stop();
  9012     1EF6  160A  158A  24B6  160A  158A  	fcall	_i2c_stop
  9013     1EFB                     i1l3658:
  9014                           
  9015                           ;src/sensors/co2.c: 17:     return co2_value;
  9016     1EFB  087A               	movf	read_co2_environment@co2_value+1,w
  9017     1EFC  00F4               	movwf	?_read_co2_environment+1
  9018     1EFD  0879               	movf	read_co2_environment@co2_value,w
  9019     1EFE  00F3               	movwf	?_read_co2_environment
  9020     1EFF                     i1l50:
  9021     1EFF  0008               	return
  9022     1F00                     __end_of_read_co2_environment:
  9023                           
  9024                           	psect	text36
  9025     1CD4                     __ptext36:	
  9026 ;; *************** function _i2c_write *****************
  9027 ;; Defined at:
  9028 ;;		line 45 in file "src/protocols/i2c-v2.c"
  9029 ;; Parameters:    Size  Location     Type
  9030 ;;  I2C_data        1    wreg     unsigned char 
  9031 ;; Auto vars:     Size  Location     Type
  9032 ;;  I2C_data        1    0[COMMON] unsigned char 
  9033 ;; Return value:  Size  Location     Type
  9034 ;;                  1    wreg      unsigned char 
  9035 ;; Registers used:
  9036 ;;		wreg, status,2, status,0, pclath, cstack
  9037 ;; Tracked objects:
  9038 ;;		On entry : 0/0
  9039 ;;		On exit  : 0/0
  9040 ;;		Unchanged: 0/0
  9041 ;; Data sizes:     COMMON   BANK0   BANK1   BANK3   BANK2
  9042 ;;      Params:         0       0       0       0       0
  9043 ;;      Locals:         1       0       0       0       0
  9044 ;;      Temps:          0       0       0       0       0
  9045 ;;      Totals:         1       0       0       0       0
  9046 ;;Total ram usage:        1 bytes
  9047 ;; Hardware stack levels used: 1
  9048 ;; Hardware stack levels required when called: 1
  9049 ;; This function calls:
  9050 ;;		_wait_MSSP
  9051 ;; This function is called by:
  9052 ;;		_read_co2_environment
  9053 ;; This function uses a non-reentrant model
  9054 ;;
  9055                           
  9056     1CD4                     _i2c_write:	
  9057                           ;psect for function _i2c_write
  9058                           
  9059                           
  9060                           ;incstack = 0
  9061                           ; Regs used in _i2c_write: [wreg+status,2+status,0+pclath+cstack]
  9062                           ;i2c_write@I2C_data stored from wreg
  9063     1CD4  00F1               	movwf	i2c_write@I2C_data
  9064     1CD5                     i1l3568:
  9065                           
  9066                           ;src/protocols/i2c-v2.c: 45: unsigned char i2c_write(unsigned char I2C_data);src/protoco
      +                          ls/i2c-v2.c: 46: {;src/protocols/i2c-v2.c: 47:     SSPBUF = I2C_data;
  9067     1CD5  0871               	movf	i2c_write@I2C_data,w
  9068     1CD6  1283               	bcf	3,5	;RP0=0, select bank0
  9069     1CD7  1303               	bcf	3,6	;RP1=0, select bank0
  9070     1CD8  0093               	movwf	19	;volatile
  9071     1CD9                     i1l3570:
  9072                           
  9073                           ;src/protocols/i2c-v2.c: 48:     wait_MSSP();
  9074     1CD9  160A  158A  249D  160A  158A  	fcall	_wait_MSSP
  9075     1CDE                     i1l3572:
  9076                           
  9077                           ;src/protocols/i2c-v2.c: 49:     return((unsigned char)!SSPCON2bits.ACKSTAT);;	Return va
      +                          lue of _i2c_write is never used
  9078     1CDE  1683               	bsf	3,5	;RP0=1, select bank1
  9079     1CDF  1303               	bcf	3,6	;RP1=0, select bank1
  9080     1CE0  0811               	movf	17,w	;volatile
  9081     1CE1                     i1l79:
  9082     1CE1  0008               	return
  9083     1CE2                     __end_of_i2c_write:
  9084                           
  9085                           	psect	text37
  9086     1CB6                     __ptext37:	
  9087 ;; *************** function _i2c_stop *****************
  9088 ;; Defined at:
  9089 ;;		line 31 in file "src/protocols/i2c-v2.c"
  9090 ;; Parameters:    Size  Location     Type
  9091 ;;		None
  9092 ;; Auto vars:     Size  Location     Type
  9093 ;;		None
  9094 ;; Return value:  Size  Location     Type
  9095 ;;                  1    wreg      void 
  9096 ;; Registers used:
  9097 ;;		status,2, status,0, pclath, cstack
  9098 ;; Tracked objects:
  9099 ;;		On entry : 0/0
  9100 ;;		On exit  : 0/0
  9101 ;;		Unchanged: 0/0
  9102 ;; Data sizes:     COMMON   BANK0   BANK1   BANK3   BANK2
  9103 ;;      Params:         0       0       0       0       0
  9104 ;;      Locals:         0       0       0       0       0
  9105 ;;      Temps:          0       0       0       0       0
  9106 ;;      Totals:         0       0       0       0       0
  9107 ;;Total ram usage:        0 bytes
  9108 ;; Hardware stack levels used: 1
  9109 ;; Hardware stack levels required when called: 1
  9110 ;; This function calls:
  9111 ;;		_wait_MSSP
  9112 ;; This function is called by:
  9113 ;;		_read_co2_environment
  9114 ;; This function uses a non-reentrant model
  9115 ;;
  9116                           
  9117     1CB6                     _i2c_stop:	
  9118                           ;psect for function _i2c_stop
  9119                           
  9120     1CB6                     i1l3576:	
  9121                           ;incstack = 0
  9122                           ; Regs used in _i2c_stop: [status,2+status,0+pclath+cstack]
  9123                           
  9124                           
  9125                           ;src/protocols/i2c-v2.c: 33:     SSPCON2bits.PEN = 1;
  9126     1CB6  1683               	bsf	3,5	;RP0=1, select bank1
  9127     1CB7  1303               	bcf	3,6	;RP1=0, select bank1
  9128     1CB8  1511               	bsf	17,2	;volatile
  9129     1CB9                     i1l3578:
  9130                           
  9131                           ;src/protocols/i2c-v2.c: 34:     wait_MSSP();
  9132     1CB9  160A  158A  249D  160A  158A  	fcall	_wait_MSSP
  9133     1CBE                     i1l73:
  9134     1CBE  0008               	return
  9135     1CBF                     __end_of_i2c_stop:
  9136                           
  9137                           	psect	text38
  9138     1CAD                     __ptext38:	
  9139 ;; *************** function _i2c_start *****************
  9140 ;; Defined at:
  9141 ;;		line 24 in file "src/protocols/i2c-v2.c"
  9142 ;; Parameters:    Size  Location     Type
  9143 ;;		None
  9144 ;; Auto vars:     Size  Location     Type
  9145 ;;		None
  9146 ;; Return value:  Size  Location     Type
  9147 ;;                  1    wreg      void 
  9148 ;; Registers used:
  9149 ;;		status,2, status,0, pclath, cstack
  9150 ;; Tracked objects:
  9151 ;;		On entry : 0/0
  9152 ;;		On exit  : 0/0
  9153 ;;		Unchanged: 0/0
  9154 ;; Data sizes:     COMMON   BANK0   BANK1   BANK3   BANK2
  9155 ;;      Params:         0       0       0       0       0
  9156 ;;      Locals:         0       0       0       0       0
  9157 ;;      Temps:          0       0       0       0       0
  9158 ;;      Totals:         0       0       0       0       0
  9159 ;;Total ram usage:        0 bytes
  9160 ;; Hardware stack levels used: 1
  9161 ;; Hardware stack levels required when called: 1
  9162 ;; This function calls:
  9163 ;;		_wait_MSSP
  9164 ;; This function is called by:
  9165 ;;		_read_co2_environment
  9166 ;; This function uses a non-reentrant model
  9167 ;;
  9168                           
  9169     1CAD                     _i2c_start:	
  9170                           ;psect for function _i2c_start
  9171                           
  9172     1CAD                     i1l3562:	
  9173                           ;incstack = 0
  9174                           ; Regs used in _i2c_start: [status,2+status,0+pclath+cstack]
  9175                           
  9176                           
  9177                           ;src/protocols/i2c-v2.c: 26:     SSPCON2bits.SEN = 1;
  9178     1CAD  1683               	bsf	3,5	;RP0=1, select bank1
  9179     1CAE  1303               	bcf	3,6	;RP1=0, select bank1
  9180     1CAF  1411               	bsf	17,0	;volatile
  9181     1CB0                     i1l3564:
  9182                           
  9183                           ;src/protocols/i2c-v2.c: 27:     wait_MSSP();
  9184     1CB0  160A  158A  249D  160A  158A  	fcall	_wait_MSSP
  9185     1CB5                     i1l70:
  9186     1CB5  0008               	return
  9187     1CB6                     __end_of_i2c_start:
  9188                           
  9189                           	psect	text39
  9190     1D73                     __ptext39:	
  9191 ;; *************** function _i2c_read *****************
  9192 ;; Defined at:
  9193 ;;		line 55 in file "src/protocols/i2c-v2.c"
  9194 ;; Parameters:    Size  Location     Type
  9195 ;;  master_ack      1    wreg     unsigned char 
  9196 ;; Auto vars:     Size  Location     Type
  9197 ;;  master_ack      1    0[COMMON] unsigned char 
  9198 ;;  I2C_data        1    1[COMMON] unsigned char 
  9199 ;; Return value:  Size  Location     Type
  9200 ;;                  1    wreg      unsigned char 
  9201 ;; Registers used:
  9202 ;;		wreg, status,2, status,0, pclath, cstack
  9203 ;; Tracked objects:
  9204 ;;		On entry : 0/0
  9205 ;;		On exit  : 0/0
  9206 ;;		Unchanged: 0/0
  9207 ;; Data sizes:     COMMON   BANK0   BANK1   BANK3   BANK2
  9208 ;;      Params:         0       0       0       0       0
  9209 ;;      Locals:         2       0       0       0       0
  9210 ;;      Temps:          0       0       0       0       0
  9211 ;;      Totals:         2       0       0       0       0
  9212 ;;Total ram usage:        2 bytes
  9213 ;; Hardware stack levels used: 1
  9214 ;; Hardware stack levels required when called: 1
  9215 ;; This function calls:
  9216 ;;		_wait_MSSP
  9217 ;; This function is called by:
  9218 ;;		_read_co2_environment
  9219 ;; This function uses a non-reentrant model
  9220 ;;
  9221                           
  9222     1D73                     _i2c_read:	
  9223                           ;psect for function _i2c_read
  9224                           
  9225                           
  9226                           ;incstack = 0
  9227                           ; Regs used in _i2c_read: [wreg+status,2+status,0+pclath+cstack]
  9228                           ;i2c_read@master_ack stored from wreg
  9229     1D73  00F1               	movwf	i2c_read@master_ack
  9230     1D74                     i1l3582:
  9231                           
  9232                           ;src/protocols/i2c-v2.c: 55: unsigned char i2c_read(char master_ack);src/protocols/i2c-v
      +                          2.c: 56: {;src/protocols/i2c-v2.c: 57:     unsigned char I2C_data;;src/protocols/i2c-v2.
      +                          c: 59:     SSPCON2bits.RCEN = 1;
  9233     1D74  1683               	bsf	3,5	;RP0=1, select bank1
  9234     1D75  1303               	bcf	3,6	;RP1=0, select bank1
  9235     1D76  1591               	bsf	17,3	;volatile
  9236     1D77                     i1l3584:
  9237                           
  9238                           ;src/protocols/i2c-v2.c: 60:     wait_MSSP();
  9239     1D77  160A  158A  249D  160A  158A  	fcall	_wait_MSSP
  9240     1D7C                     i1l3586:
  9241                           
  9242                           ;src/protocols/i2c-v2.c: 62:     I2C_data = SSPBUF;
  9243     1D7C  1283               	bcf	3,5	;RP0=0, select bank0
  9244     1D7D  1303               	bcf	3,6	;RP1=0, select bank0
  9245     1D7E  0813               	movf	19,w	;volatile
  9246     1D7F  00F2               	movwf	i2c_read@I2C_data
  9247     1D80                     i1l3588:
  9248                           
  9249                           ;src/protocols/i2c-v2.c: 64:     if(master_ack)
  9250     1D80  0871               	movf	i2c_read@master_ack,w
  9251     1D81  1903               	btfsc	3,2
  9252     1D82  2D84               	goto	u515_21
  9253     1D83  2D85               	goto	u515_20
  9254     1D84                     u515_21:
  9255     1D84  2D89               	goto	i1l82
  9256     1D85                     u515_20:
  9257     1D85                     i1l3590:
  9258                           
  9259                           ;src/protocols/i2c-v2.c: 65:         SSPCON2bits.ACKDT = 0;
  9260     1D85  1683               	bsf	3,5	;RP0=1, select bank1
  9261     1D86  1303               	bcf	3,6	;RP1=0, select bank1
  9262     1D87  1291               	bcf	17,5	;volatile
  9263     1D88  2D8C               	goto	i1l83
  9264     1D89                     i1l82:	
  9265                           ;src/protocols/i2c-v2.c: 66:     else
  9266                           
  9267                           
  9268                           ;src/protocols/i2c-v2.c: 67:         SSPCON2bits.ACKDT = 1;
  9269     1D89  1683               	bsf	3,5	;RP0=1, select bank1
  9270     1D8A  1303               	bcf	3,6	;RP1=0, select bank1
  9271     1D8B  1691               	bsf	17,5	;volatile
  9272     1D8C                     i1l83:
  9273                           
  9274                           ;src/protocols/i2c-v2.c: 69:     SSPCON2bits.ACKEN = 1;
  9275     1D8C  1611               	bsf	17,4	;volatile
  9276     1D8D                     i1l3592:
  9277                           
  9278                           ;src/protocols/i2c-v2.c: 70:     wait_MSSP();
  9279     1D8D  160A  158A  249D  160A  158A  	fcall	_wait_MSSP
  9280     1D92                     i1l3594:
  9281                           
  9282                           ;src/protocols/i2c-v2.c: 71:     return(I2C_data);
  9283     1D92  0872               	movf	i2c_read@I2C_data,w
  9284     1D93                     i1l84:
  9285     1D93  0008               	return
  9286     1D94                     __end_of_i2c_read:
  9287                           
  9288                           	psect	text40
  9289     1C9D                     __ptext40:	
  9290 ;; *************** function _wait_MSSP *****************
  9291 ;; Defined at:
  9292 ;;		line 16 in file "src/protocols/i2c-v2.c"
  9293 ;; Parameters:    Size  Location     Type
  9294 ;;		None
  9295 ;; Auto vars:     Size  Location     Type
  9296 ;;		None
  9297 ;; Return value:  Size  Location     Type
  9298 ;;                  1    wreg      void 
  9299 ;; Registers used:
  9300 ;;		None
  9301 ;; Tracked objects:
  9302 ;;		On entry : 0/0
  9303 ;;		On exit  : 0/0
  9304 ;;		Unchanged: 0/0
  9305 ;; Data sizes:     COMMON   BANK0   BANK1   BANK3   BANK2
  9306 ;;      Params:         0       0       0       0       0
  9307 ;;      Locals:         0       0       0       0       0
  9308 ;;      Temps:          0       0       0       0       0
  9309 ;;      Totals:         0       0       0       0       0
  9310 ;;Total ram usage:        0 bytes
  9311 ;; Hardware stack levels used: 1
  9312 ;; This function calls:
  9313 ;;		Nothing
  9314 ;; This function is called by:
  9315 ;;		_i2c_start
  9316 ;;		_i2c_stop
  9317 ;;		_i2c_write
  9318 ;;		_i2c_read
  9319 ;;		_i2c_rstart
  9320 ;; This function uses a non-reentrant model
  9321 ;;
  9322                           
  9323     1C9D                     _wait_MSSP:	
  9324                           ;psect for function _wait_MSSP
  9325                           
  9326     1C9D                     i1l3550:	
  9327                           ;incstack = 0
  9328                           ; Regs used in _wait_MSSP: []
  9329                           
  9330     1C9D                     i1l64:	
  9331                           ;src/protocols/i2c-v2.c: 18:     while(!PIR1bits.SSPIF);
  9332                           
  9333     1C9D  1283               	bcf	3,5	;RP0=0, select bank0
  9334     1C9E  1303               	bcf	3,6	;RP1=0, select bank0
  9335     1C9F  1D8C               	btfss	12,3	;volatile
  9336     1CA0  2CA2               	goto	u513_21
  9337     1CA1  2CA3               	goto	u513_20
  9338     1CA2                     u513_21:
  9339     1CA2  2C9D               	goto	i1l64
  9340     1CA3                     u513_20:
  9341     1CA3                     i1l66:
  9342                           
  9343                           ;src/protocols/i2c-v2.c: 20:     PIR1bits.SSPIF = 0;
  9344     1CA3  118C               	bcf	12,3	;volatile
  9345     1CA4                     i1l67:	
  9346                           ;src/protocols/i2c-v2.c: 21:     return;
  9347                           
  9348     1CA4  0008               	return
  9349     1CA5                     __end_of_wait_MSSP:
  9350     007E                     btemp	set	126	;btemp
  9351     007E                     wtemp0	set	126
  9352                           
  9353                           	psect	config
  9354                           
  9355                           ;Config register CONFIG1 @ 0x2007
  9356                           ;	Oscillator Selection bits
  9357                           ;	FOSC = HS, HS oscillator: High-speed crystal/resonator on RA6/OSC2/CLKOUT and RA7/OSC1
      +                          /CLKIN
  9358                           ;	Watchdog Timer Enable bit
  9359                           ;	WDTE = OFF, WDT disabled and can be enabled by SWDTEN bit of the WDTCON register
  9360                           ;	Power-up Timer Enable bit
  9361                           ;	PWRTE = ON, PWRT enabled
  9362                           ;	RE3/MCLR pin function select bit
  9363                           ;	MCLRE = ON, RE3/MCLR pin function is MCLR
  9364                           ;	Code Protection bit
  9365                           ;	CP = OFF, Program memory code protection is disabled
  9366                           ;	Data Code Protection bit
  9367                           ;	CPD = OFF, Data memory code protection is disabled
  9368                           ;	Brown Out Reset Selection bits
  9369                           ;	BOREN = OFF, BOR disabled
  9370                           ;	Internal External Switchover bit
  9371                           ;	IESO = OFF, Internal/External Switchover mode is disabled
  9372                           ;	Fail-Safe Clock Monitor Enabled bit
  9373                           ;	FCMEN = OFF, Fail-Safe Clock Monitor is disabled
  9374                           ;	Low Voltage Programming Enable bit
  9375                           ;	LVP = OFF, RB3 pin has digital I/O, HV on MCLR must be used for programming
  9376                           ;	In-Circuit Debugger Mode bit
  9377                           ;	DEBUG = OFF, In-Circuit Debugger disabled, RB6/ICSPCLK and RB7/ICSPDAT are general pur
      +                          pose I/O pins
  9378     2007                     	org	8199
  9379     2007  20E2               	dw	8418
  9380                           
  9381                           ;Config register CONFIG2 @ 0x2008
  9382                           ;	Brown-out Reset Selection bit
  9383                           ;	BOR4V = BOR21V, Brown-out Reset set to 2.1V
  9384                           ;	Flash Program Memory Self Write Enable bits
  9385                           ;	WRT = OFF, Write protection off
  9386     2008                     	org	8200
  9387     2008  3EFF               	dw	16127
  9388                           
  9389                           	psect	text12_split_1
  9390     00D4                     i1l3242:
  9391                           
  9392                           ;C:\Program Files\Microchip\xc8\v2.45\pic\sources\c99\common\doprnt.c: 657:     u.f = 1.
      +                          0;
  9393     00D4  303F               	movlw	63
  9394     00D5  1683               	bsf	3,5	;RP0=1, select bank1
  9395     00D6  1303               	bcf	3,6	;RP1=0, select bank1
  9396     00D7  00CC               	movwf	(efgtoa@u+3)^(0+128)
  9397     00D8  3080               	movlw	128
  9398     00D9  00CB               	movwf	(efgtoa@u+2)^(0+128)
  9399     00DA  3000               	movlw	0
  9400     00DB  00CA               	movwf	(efgtoa@u+1)^(0+128)
  9401     00DC  3000               	movlw	0
  9402     00DD  00C9               	movwf	efgtoa@u^(0+128)
  9403     00DE                     i1l3244:
  9404                           
  9405                           ;C:\Program Files\Microchip\xc8\v2.45\pic\sources\c99\common\doprnt.c: 658:     e = 0;
  9406     00DE  01B0               	clrf	efgtoa@e^(0+128)
  9407     00DF  01B1               	clrf	(efgtoa@e+1)^(0+128)
  9408     00E0                     i1l3246:
  9409                           
  9410                           ;C:\Program Files\Microchip\xc8\v2.45\pic\sources\c99\common\doprnt.c: 659:  if (!(g.f =
      +                          = 0.0)) {
  9411     00E0  0848               	movf	(efgtoa@g+3)^(0+128),w
  9412     00E1  00F4               	movwf	___fleq@ff1+3
  9413     00E2  0847               	movf	(efgtoa@g+2)^(0+128),w
  9414     00E3  00F3               	movwf	___fleq@ff1+2
  9415     00E4  0846               	movf	(efgtoa@g+1)^(0+128),w
  9416     00E5  00F2               	movwf	___fleq@ff1+1
  9417     00E6  0845               	movf	efgtoa@g^(0+128),w
  9418     00E7  00F1               	movwf	___fleq@ff1
  9419     00E8  3000               	movlw	0
  9420     00E9  00F8               	movwf	___fleq@ff2+3
  9421     00EA  3000               	movlw	0
  9422     00EB  00F7               	movwf	___fleq@ff2+2
  9423     00EC  3000               	movlw	0
  9424     00ED  00F6               	movwf	___fleq@ff2+1
  9425     00EE  3000               	movlw	0
  9426     00EF  00F5               	movwf	___fleq@ff2
  9427     00F0  160A  118A  207C  120A  118A  	fcall	___fleq
  9428     00F5  1803               	btfsc	3,0
  9429     00F6  28F8               	goto	u467_21
  9430     00F7  28F9               	goto	u467_20
  9431     00F8                     u467_21:
  9432     00F8  2B0A               	goto	i1l3272
  9433     00F9                     u467_20:
  9434     00F9  290A               	goto	i1l3252
  9435     00FA                     i1l3250:
  9436                           
  9437                           ;C:\Program Files\Microchip\xc8\v2.45\pic\sources\c99\common\doprnt.c: 661:    u = ou;
  9438     00FA  1683               	bsf	3,5	;RP0=1, select bank1
  9439     00FB  1303               	bcf	3,6	;RP1=0, select bank1
  9440     00FC  0837               	movf	(efgtoa@ou+3)^(0+128),w
  9441     00FD  00CC               	movwf	(efgtoa@u+3)^(0+128)
  9442     00FE  0836               	movf	(efgtoa@ou+2)^(0+128),w
  9443     00FF  00CB               	movwf	(efgtoa@u+2)^(0+128)
  9444     0100  0835               	movf	(efgtoa@ou+1)^(0+128),w
  9445     0101  00CA               	movwf	(efgtoa@u+1)^(0+128)
  9446     0102  0834               	movf	efgtoa@ou^(0+128),w
  9447     0103  00C9               	movwf	efgtoa@u^(0+128)
  9448                           
  9449                           ;C:\Program Files\Microchip\xc8\v2.45\pic\sources\c99\common\doprnt.c: 662:    ++e;
  9450     0104  3001               	movlw	1
  9451     0105  07B0               	addwf	efgtoa@e^(0+128),f
  9452     0106  1803               	skipnc
  9453     0107  0AB1               	incf	(efgtoa@e+1)^(0+128),f
  9454     0108  3000               	movlw	0
  9455     0109  07B1               	addwf	(efgtoa@e+1)^(0+128),f
  9456     010A                     i1l3252:
  9457                           
  9458                           ;C:\Program Files\Microchip\xc8\v2.45\pic\sources\c99\common\doprnt.c: 660:   while ((la
      +                          bs((g).u-((ou.f = u.f*10.0,ou)).u) <= 1) || g.f > ou.f) {
  9459     010A  3041               	movlw	65
  9460     010B  1283               	bcf	3,5	;RP0=0, select bank0
  9461     010C  1303               	bcf	3,6	;RP1=0, select bank0
  9462     010D  00A3               	movwf	___flmul@b+3
  9463     010E  3020               	movlw	32
  9464     010F  00A2               	movwf	___flmul@b+2
  9465     0110  3000               	movlw	0
  9466     0111  00A1               	movwf	___flmul@b+1
  9467     0112  3000               	movlw	0
  9468     0113  00A0               	movwf	___flmul@b
  9469     0114  1683               	bsf	3,5	;RP0=1, select bank1
  9470     0115  1303               	bcf	3,6	;RP1=0, select bank1
  9471     0116  084C               	movf	(efgtoa@u+3)^(0+128),w
  9472     0117  1283               	bcf	3,5	;RP0=0, select bank0
  9473     0118  1303               	bcf	3,6	;RP1=0, select bank0
  9474     0119  00A7               	movwf	___flmul@a+3
  9475     011A  1683               	bsf	3,5	;RP0=1, select bank1
  9476     011B  1303               	bcf	3,6	;RP1=0, select bank1
  9477     011C  084B               	movf	(efgtoa@u+2)^(0+128),w
  9478     011D  1283               	bcf	3,5	;RP0=0, select bank0
  9479     011E  1303               	bcf	3,6	;RP1=0, select bank0
  9480     011F  00A6               	movwf	___flmul@a+2
  9481     0120  1683               	bsf	3,5	;RP0=1, select bank1
  9482     0121  1303               	bcf	3,6	;RP1=0, select bank1
  9483     0122  084A               	movf	(efgtoa@u+1)^(0+128),w
  9484     0123  1283               	bcf	3,5	;RP0=0, select bank0
  9485     0124  1303               	bcf	3,6	;RP1=0, select bank0
  9486     0125  00A5               	movwf	___flmul@a+1
  9487     0126  1683               	bsf	3,5	;RP0=1, select bank1
  9488     0127  1303               	bcf	3,6	;RP1=0, select bank1
  9489     0128  0849               	movf	efgtoa@u^(0+128),w
  9490     0129  1283               	bcf	3,5	;RP0=0, select bank0
  9491     012A  1303               	bcf	3,6	;RP1=0, select bank0
  9492     012B  00A4               	movwf	___flmul@a
  9493     012C  120A  158A  24BB  120A  118A  	fcall	___flmul
  9494     0131  1283               	bcf	3,5	;RP0=0, select bank0
  9495     0132  1303               	bcf	3,6	;RP1=0, select bank0
  9496     0133  0823               	movf	?___flmul+3,w
  9497     0134  1683               	bsf	3,5	;RP0=1, select bank1
  9498     0135  1303               	bcf	3,6	;RP1=0, select bank1
  9499     0136  00B7               	movwf	(efgtoa@ou+3)^(0+128)
  9500     0137  1283               	bcf	3,5	;RP0=0, select bank0
  9501     0138  1303               	bcf	3,6	;RP1=0, select bank0
  9502     0139  0822               	movf	?___flmul+2,w
  9503     013A  1683               	bsf	3,5	;RP0=1, select bank1
  9504     013B  1303               	bcf	3,6	;RP1=0, select bank1
  9505     013C  00B6               	movwf	(efgtoa@ou+2)^(0+128)
  9506     013D  1283               	bcf	3,5	;RP0=0, select bank0
  9507     013E  1303               	bcf	3,6	;RP1=0, select bank0
  9508     013F  0821               	movf	?___flmul+1,w
  9509     0140  1683               	bsf	3,5	;RP0=1, select bank1
  9510     0141  1303               	bcf	3,6	;RP1=0, select bank1
  9511     0142  00B5               	movwf	(efgtoa@ou+1)^(0+128)
  9512     0143  1283               	bcf	3,5	;RP0=0, select bank0
  9513     0144  1303               	bcf	3,6	;RP1=0, select bank0
  9514     0145  0820               	movf	?___flmul,w
  9515     0146  1683               	bsf	3,5	;RP0=1, select bank1
  9516     0147  1303               	bcf	3,6	;RP1=0, select bank1
  9517     0148  00B4               	movwf	efgtoa@ou^(0+128)
  9518     0149                     i1l3254:
  9519     0149  0845               	movf	efgtoa@g^(0+128),w
  9520     014A  1283               	bcf	3,5	;RP0=0, select bank0
  9521     014B  1303               	bcf	3,6	;RP1=0, select bank0
  9522     014C  00C7               	movwf	??_efgtoa
  9523     014D  1683               	bsf	3,5	;RP0=1, select bank1
  9524     014E  1303               	bcf	3,6	;RP1=0, select bank1
  9525     014F  0846               	movf	(efgtoa@g+1)^(0+128),w
  9526     0150  1283               	bcf	3,5	;RP0=0, select bank0
  9527     0151  1303               	bcf	3,6	;RP1=0, select bank0
  9528     0152  00C8               	movwf	??_efgtoa+1
  9529     0153  1683               	bsf	3,5	;RP0=1, select bank1
  9530     0154  1303               	bcf	3,6	;RP1=0, select bank1
  9531     0155  0847               	movf	(efgtoa@g+2)^(0+128),w
  9532     0156  1283               	bcf	3,5	;RP0=0, select bank0
  9533     0157  1303               	bcf	3,6	;RP1=0, select bank0
  9534     0158  00C9               	movwf	??_efgtoa+2
  9535     0159  1683               	bsf	3,5	;RP0=1, select bank1
  9536     015A  1303               	bcf	3,6	;RP1=0, select bank1
  9537     015B  0848               	movf	(efgtoa@g+3)^(0+128),w
  9538     015C  1283               	bcf	3,5	;RP0=0, select bank0
  9539     015D  1303               	bcf	3,6	;RP1=0, select bank0
  9540     015E  00CA               	movwf	??_efgtoa+3
  9541     015F  1683               	bsf	3,5	;RP0=1, select bank1
  9542     0160  1303               	bcf	3,6	;RP1=0, select bank1
  9543     0161  0834               	movf	efgtoa@ou^(0+128),w
  9544     0162  1283               	bcf	3,5	;RP0=0, select bank0
  9545     0163  1303               	bcf	3,6	;RP1=0, select bank0
  9546     0164  02C7               	subwf	??_efgtoa,f
  9547     0165  1683               	bsf	3,5	;RP0=1, select bank1
  9548     0166  1303               	bcf	3,6	;RP1=0, select bank1
  9549     0167  0835               	movf	(efgtoa@ou+1)^(0+128),w
  9550     0168  1C03               	skipc
  9551     0169  0F35               	incfsz	(efgtoa@ou+1)^(0+128),w
  9552     016A  296C               	goto	u468_21
  9553     016B  296F               	goto	u468_22
  9554     016C                     u468_21:
  9555     016C  1283               	bcf	3,5	;RP0=0, select bank0
  9556     016D  1303               	bcf	3,6	;RP1=0, select bank0
  9557     016E  02C8               	subwf	??_efgtoa+1,f
  9558     016F                     u468_22:
  9559     016F  1683               	bsf	3,5	;RP0=1, select bank1
  9560     0170  1303               	bcf	3,6	;RP1=0, select bank1
  9561     0171  0836               	movf	(efgtoa@ou+2)^(0+128),w
  9562     0172  1C03               	skipc
  9563     0173  0F36               	incfsz	(efgtoa@ou+2)^(0+128),w
  9564     0174  2976               	goto	u468_23
  9565     0175  2979               	goto	u468_24
  9566     0176                     u468_23:
  9567     0176  1283               	bcf	3,5	;RP0=0, select bank0
  9568     0177  1303               	bcf	3,6	;RP1=0, select bank0
  9569     0178  02C9               	subwf	??_efgtoa+2,f
  9570     0179                     u468_24:
  9571     0179  1683               	bsf	3,5	;RP0=1, select bank1
  9572     017A  1303               	bcf	3,6	;RP1=0, select bank1
  9573     017B  0837               	movf	(efgtoa@ou+3)^(0+128),w
  9574     017C  1C03               	skipc
  9575     017D  0F37               	incfsz	(efgtoa@ou+3)^(0+128),w
  9576     017E  2980               	goto	u468_25
  9577     017F  2983               	goto	u468_26
  9578     0180                     u468_25:
  9579     0180  1283               	bcf	3,5	;RP0=0, select bank0
  9580     0181  1303               	bcf	3,6	;RP1=0, select bank0
  9581     0182  02CA               	subwf	??_efgtoa+3,f
  9582     0183                     u468_26:
  9583     0183  1683               	bsf	3,5	;RP0=1, select bank1
  9584     0184  1303               	bcf	3,6	;RP1=0, select bank1
  9585     0185  1283               	bcf	3,5	;RP0=0, select bank0
  9586     0186  1303               	bcf	3,6	;RP1=0, select bank0
  9587     0187  084A               	movf	??_efgtoa+3,w
  9588     0188  00F4               	movwf	labs@a+3
  9589     0189  0849               	movf	??_efgtoa+2,w
  9590     018A  00F3               	movwf	labs@a+2
  9591     018B  0848               	movf	??_efgtoa+1,w
  9592     018C  00F2               	movwf	labs@a+1
  9593     018D  0847               	movf	??_efgtoa,w
  9594     018E  00F1               	movwf	labs@a
  9595     018F  160A  158A  2528  120A  118A  	fcall	_labs
  9596     0194  1BF4               	btfsc	?_labs+3,7
  9597     0195  29A6               	goto	u469_21
  9598     0196  0874               	movf	?_labs+3,w
  9599     0197  1D03               	btfss	3,2
  9600     0198  29A7               	goto	u469_20
  9601     0199  0873               	movf	?_labs+2,w
  9602     019A  1D03               	btfss	3,2
  9603     019B  29A7               	goto	u469_20
  9604     019C  0872               	movf	?_labs+1,w
  9605     019D  1D03               	btfss	3,2
  9606     019E  29A7               	goto	u469_20
  9607     019F  3002               	movlw	2
  9608     01A0  0271               	subwf	?_labs,w
  9609     01A1  1D03               	skipz
  9610     01A2  29A3               	goto	u469_23
  9611     01A3                     u469_23:
  9612     01A3  1C03               	btfss	3,0
  9613     01A4  29A6               	goto	u469_21
  9614     01A5  29A7               	goto	u469_20
  9615     01A6                     u469_21:
  9616     01A6  28FA               	goto	i1l3250
  9617     01A7                     u469_20:
  9618     01A7                     i1l3256:
  9619     01A7  1683               	bsf	3,5	;RP0=1, select bank1
  9620     01A8  1303               	bcf	3,6	;RP1=0, select bank1
  9621     01A9  0837               	movf	(efgtoa@ou+3)^(0+128),w
  9622     01AA  1283               	bcf	3,5	;RP0=0, select bank0
  9623     01AB  1303               	bcf	3,6	;RP1=0, select bank0
  9624     01AC  00BD               	movwf	___flge@ff1+3
  9625     01AD  1683               	bsf	3,5	;RP0=1, select bank1
  9626     01AE  1303               	bcf	3,6	;RP1=0, select bank1
  9627     01AF  0836               	movf	(efgtoa@ou+2)^(0+128),w
  9628     01B0  1283               	bcf	3,5	;RP0=0, select bank0
  9629     01B1  1303               	bcf	3,6	;RP1=0, select bank0
  9630     01B2  00BC               	movwf	___flge@ff1+2
  9631     01B3  1683               	bsf	3,5	;RP0=1, select bank1
  9632     01B4  1303               	bcf	3,6	;RP1=0, select bank1
  9633     01B5  0835               	movf	(efgtoa@ou+1)^(0+128),w
  9634     01B6  1283               	bcf	3,5	;RP0=0, select bank0
  9635     01B7  1303               	bcf	3,6	;RP1=0, select bank0
  9636     01B8  00BB               	movwf	___flge@ff1+1
  9637     01B9  1683               	bsf	3,5	;RP0=1, select bank1
  9638     01BA  1303               	bcf	3,6	;RP1=0, select bank1
  9639     01BB  0834               	movf	efgtoa@ou^(0+128),w
  9640     01BC  1283               	bcf	3,5	;RP0=0, select bank0
  9641     01BD  1303               	bcf	3,6	;RP1=0, select bank0
  9642     01BE  00BA               	movwf	___flge@ff1
  9643     01BF  1683               	bsf	3,5	;RP0=1, select bank1
  9644     01C0  1303               	bcf	3,6	;RP1=0, select bank1
  9645     01C1  0848               	movf	(efgtoa@g+3)^(0+128),w
  9646     01C2  1283               	bcf	3,5	;RP0=0, select bank0
  9647     01C3  1303               	bcf	3,6	;RP1=0, select bank0
  9648     01C4  00C1               	movwf	___flge@ff2+3
  9649     01C5  1683               	bsf	3,5	;RP0=1, select bank1
  9650     01C6  1303               	bcf	3,6	;RP1=0, select bank1
  9651     01C7  0847               	movf	(efgtoa@g+2)^(0+128),w
  9652     01C8  1283               	bcf	3,5	;RP0=0, select bank0
  9653     01C9  1303               	bcf	3,6	;RP1=0, select bank0
  9654     01CA  00C0               	movwf	___flge@ff2+2
  9655     01CB  1683               	bsf	3,5	;RP0=1, select bank1
  9656     01CC  1303               	bcf	3,6	;RP1=0, select bank1
  9657     01CD  0846               	movf	(efgtoa@g+1)^(0+128),w
  9658     01CE  1283               	bcf	3,5	;RP0=0, select bank0
  9659     01CF  1303               	bcf	3,6	;RP1=0, select bank0
  9660     01D0  00BF               	movwf	___flge@ff2+1
  9661     01D1  1683               	bsf	3,5	;RP0=1, select bank1
  9662     01D2  1303               	bcf	3,6	;RP1=0, select bank1
  9663     01D3  0845               	movf	efgtoa@g^(0+128),w
  9664     01D4  1283               	bcf	3,5	;RP0=0, select bank0
  9665     01D5  1303               	bcf	3,6	;RP1=0, select bank0
  9666     01D6  00BE               	movwf	___flge@ff2
  9667     01D7  120A  118A  2030  120A  118A  	fcall	___flge
  9668     01DC  1C03               	btfss	3,0
  9669     01DD  29DF               	goto	u470_21
  9670     01DE  29E0               	goto	u470_20
  9671     01DF                     u470_21:
  9672     01DF  28FA               	goto	i1l3250
  9673     01E0                     u470_20:
  9674     01E0                     i1l3258:
  9675                           
  9676                           ;C:\Program Files\Microchip\xc8\v2.45\pic\sources\c99\common\doprnt.c: 664:   if ((labs(
      +                          (g).u-(u).u) <= 1)) {
  9677     01E0  1683               	bsf	3,5	;RP0=1, select bank1
  9678     01E1  1303               	bcf	3,6	;RP1=0, select bank1
  9679     01E2  0845               	movf	efgtoa@g^(0+128),w
  9680     01E3  1283               	bcf	3,5	;RP0=0, select bank0
  9681     01E4  1303               	bcf	3,6	;RP1=0, select bank0
  9682     01E5  00C7               	movwf	??_efgtoa
  9683     01E6  1683               	bsf	3,5	;RP0=1, select bank1
  9684     01E7  1303               	bcf	3,6	;RP1=0, select bank1
  9685     01E8  0846               	movf	(efgtoa@g+1)^(0+128),w
  9686     01E9  1283               	bcf	3,5	;RP0=0, select bank0
  9687     01EA  1303               	bcf	3,6	;RP1=0, select bank0
  9688     01EB  00C8               	movwf	??_efgtoa+1
  9689     01EC  1683               	bsf	3,5	;RP0=1, select bank1
  9690     01ED  1303               	bcf	3,6	;RP1=0, select bank1
  9691     01EE  0847               	movf	(efgtoa@g+2)^(0+128),w
  9692     01EF  1283               	bcf	3,5	;RP0=0, select bank0
  9693     01F0  1303               	bcf	3,6	;RP1=0, select bank0
  9694     01F1  00C9               	movwf	??_efgtoa+2
  9695     01F2  1683               	bsf	3,5	;RP0=1, select bank1
  9696     01F3  1303               	bcf	3,6	;RP1=0, select bank1
  9697     01F4  0848               	movf	(efgtoa@g+3)^(0+128),w
  9698     01F5  1283               	bcf	3,5	;RP0=0, select bank0
  9699     01F6  1303               	bcf	3,6	;RP1=0, select bank0
  9700     01F7  00CA               	movwf	??_efgtoa+3
  9701     01F8  1683               	bsf	3,5	;RP0=1, select bank1
  9702     01F9  1303               	bcf	3,6	;RP1=0, select bank1
  9703     01FA  0849               	movf	efgtoa@u^(0+128),w
  9704     01FB  1283               	bcf	3,5	;RP0=0, select bank0
  9705     01FC  1303               	bcf	3,6	;RP1=0, select bank0
  9706     01FD  02C7               	subwf	??_efgtoa,f
  9707     01FE  1683               	bsf	3,5	;RP0=1, select bank1
  9708     01FF  1303               	bcf	3,6	;RP1=0, select bank1
  9709     0200  084A               	movf	(efgtoa@u+1)^(0+128),w
  9710     0201  1C03               	skipc
  9711     0202  0F4A               	incfsz	(efgtoa@u+1)^(0+128),w
  9712     0203  2A05               	goto	u471_21
  9713     0204  2A08               	goto	u471_22
  9714     0205                     u471_21:
  9715     0205  1283               	bcf	3,5	;RP0=0, select bank0
  9716     0206  1303               	bcf	3,6	;RP1=0, select bank0
  9717     0207  02C8               	subwf	??_efgtoa+1,f
  9718     0208                     u471_22:
  9719     0208  1683               	bsf	3,5	;RP0=1, select bank1
  9720     0209  1303               	bcf	3,6	;RP1=0, select bank1
  9721     020A  084B               	movf	(efgtoa@u+2)^(0+128),w
  9722     020B  1C03               	skipc
  9723     020C  0F4B               	incfsz	(efgtoa@u+2)^(0+128),w
  9724     020D  2A0F               	goto	u471_23
  9725     020E  2A12               	goto	u471_24
  9726     020F                     u471_23:
  9727     020F  1283               	bcf	3,5	;RP0=0, select bank0
  9728     0210  1303               	bcf	3,6	;RP1=0, select bank0
  9729     0211  02C9               	subwf	??_efgtoa+2,f
  9730     0212                     u471_24:
  9731     0212  1683               	bsf	3,5	;RP0=1, select bank1
  9732     0213  1303               	bcf	3,6	;RP1=0, select bank1
  9733     0214  084C               	movf	(efgtoa@u+3)^(0+128),w
  9734     0215  1C03               	skipc
  9735     0216  0F4C               	incfsz	(efgtoa@u+3)^(0+128),w
  9736     0217  2A19               	goto	u471_25
  9737     0218  2A1C               	goto	u471_26
  9738     0219                     u471_25:
  9739     0219  1283               	bcf	3,5	;RP0=0, select bank0
  9740     021A  1303               	bcf	3,6	;RP1=0, select bank0
  9741     021B  02CA               	subwf	??_efgtoa+3,f
  9742     021C                     u471_26:
  9743     021C  1683               	bsf	3,5	;RP0=1, select bank1
  9744     021D  1303               	bcf	3,6	;RP1=0, select bank1
  9745     021E  1283               	bcf	3,5	;RP0=0, select bank0
  9746     021F  1303               	bcf	3,6	;RP1=0, select bank0
  9747     0220  084A               	movf	??_efgtoa+3,w
  9748     0221  00F4               	movwf	labs@a+3
  9749     0222  0849               	movf	??_efgtoa+2,w
  9750     0223  00F3               	movwf	labs@a+2
  9751     0224  0848               	movf	??_efgtoa+1,w
  9752     0225  00F2               	movwf	labs@a+1
  9753     0226  0847               	movf	??_efgtoa,w
  9754     0227  00F1               	movwf	labs@a
  9755     0228  160A  158A  2528  120A  118A  	fcall	_labs
  9756     022D  1BF4               	btfsc	?_labs+3,7
  9757     022E  2A40               	goto	u472_20
  9758     022F  0874               	movf	?_labs+3,w
  9759     0230  1D03               	btfss	3,2
  9760     0231  2A3F               	goto	u472_21
  9761     0232  0873               	movf	?_labs+2,w
  9762     0233  1D03               	btfss	3,2
  9763     0234  2A3F               	goto	u472_21
  9764     0235  0872               	movf	?_labs+1,w
  9765     0236  1D03               	btfss	3,2
  9766     0237  2A3F               	goto	u472_21
  9767     0238  3002               	movlw	2
  9768     0239  0271               	subwf	?_labs,w
  9769     023A  1D03               	skipz
  9770     023B  2A3C               	goto	u472_23
  9771     023C                     u472_23:
  9772     023C  1803               	btfsc	3,0
  9773     023D  2A3F               	goto	u472_21
  9774     023E  2A40               	goto	u472_20
  9775     023F                     u472_21:
  9776     023F  2AD1               	goto	i1l3270
  9777     0240                     u472_20:
  9778     0240                     i1l3260:
  9779                           
  9780                           ;C:\Program Files\Microchip\xc8\v2.45\pic\sources\c99\common\doprnt.c: 665:    g = u;
  9781     0240  1683               	bsf	3,5	;RP0=1, select bank1
  9782     0241  1303               	bcf	3,6	;RP1=0, select bank1
  9783     0242  084C               	movf	(efgtoa@u+3)^(0+128),w
  9784     0243  00C8               	movwf	(efgtoa@g+3)^(0+128)
  9785     0244  084B               	movf	(efgtoa@u+2)^(0+128),w
  9786     0245  00C7               	movwf	(efgtoa@g+2)^(0+128)
  9787     0246  084A               	movf	(efgtoa@u+1)^(0+128),w
  9788     0247  00C6               	movwf	(efgtoa@g+1)^(0+128)
  9789     0248  0849               	movf	efgtoa@u^(0+128),w
  9790     0249  00C5               	movwf	efgtoa@g^(0+128)
  9791                           
  9792                           ;C:\Program Files\Microchip\xc8\v2.45\pic\sources\c99\common\doprnt.c: 666:   }
  9793     024A  2B0A               	goto	i1l3272
  9794     024B                     i1l3262:
  9795                           
  9796                           ;C:\Program Files\Microchip\xc8\v2.45\pic\sources\c99\common\doprnt.c: 669:     u.f = u.
      +                          f/10.0;
  9797     024B  3041               	movlw	65
  9798     024C  00F4               	movwf	___fldiv@a+3
  9799     024D  3020               	movlw	32
  9800     024E  00F3               	movwf	___fldiv@a+2
  9801     024F  3000               	movlw	0
  9802     0250  00F2               	movwf	___fldiv@a+1
  9803     0251  3000               	movlw	0
  9804     0252  00F1               	movwf	___fldiv@a
  9805     0253  1683               	bsf	3,5	;RP0=1, select bank1
  9806     0254  1303               	bcf	3,6	;RP1=0, select bank1
  9807     0255  084C               	movf	(efgtoa@u+3)^(0+128),w
  9808     0256  00F8               	movwf	___fldiv@b+3
  9809     0257  084B               	movf	(efgtoa@u+2)^(0+128),w
  9810     0258  00F7               	movwf	___fldiv@b+2
  9811     0259  084A               	movf	(efgtoa@u+1)^(0+128),w
  9812     025A  00F6               	movwf	___fldiv@b+1
  9813     025B  0849               	movf	efgtoa@u^(0+128),w
  9814     025C  00F5               	movwf	___fldiv@b
  9815     025D  160A  118A  262B  120A  118A  	fcall	___fldiv
  9816     0262  0874               	movf	?___fldiv+3,w
  9817     0263  1683               	bsf	3,5	;RP0=1, select bank1
  9818     0264  1303               	bcf	3,6	;RP1=0, select bank1
  9819     0265  00CC               	movwf	(efgtoa@u+3)^(0+128)
  9820     0266  0873               	movf	?___fldiv+2,w
  9821     0267  00CB               	movwf	(efgtoa@u+2)^(0+128)
  9822     0268  0872               	movf	?___fldiv+1,w
  9823     0269  00CA               	movwf	(efgtoa@u+1)^(0+128)
  9824     026A  0871               	movf	?___fldiv,w
  9825     026B  00C9               	movwf	efgtoa@u^(0+128)
  9826     026C                     i1l3264:
  9827                           
  9828                           ;C:\Program Files\Microchip\xc8\v2.45\pic\sources\c99\common\doprnt.c: 670:     --e;
  9829     026C  30FF               	movlw	255
  9830     026D  07B0               	addwf	efgtoa@e^(0+128),f
  9831     026E  1803               	skipnc
  9832     026F  0AB1               	incf	(efgtoa@e+1)^(0+128),f
  9833     0270  30FF               	movlw	255
  9834     0271  07B1               	addwf	(efgtoa@e+1)^(0+128),f
  9835     0272                     i1l3266:
  9836                           
  9837                           ;C:\Program Files\Microchip\xc8\v2.45\pic\sources\c99\common\doprnt.c: 671:     if ((lab
      +                          s((g).u-(u).u) <= 1)) {
  9838     0272  0845               	movf	efgtoa@g^(0+128),w
  9839     0273  1283               	bcf	3,5	;RP0=0, select bank0
  9840     0274  1303               	bcf	3,6	;RP1=0, select bank0
  9841     0275  00C7               	movwf	??_efgtoa
  9842     0276  1683               	bsf	3,5	;RP0=1, select bank1
  9843     0277  1303               	bcf	3,6	;RP1=0, select bank1
  9844     0278  0846               	movf	(efgtoa@g+1)^(0+128),w
  9845     0279  1283               	bcf	3,5	;RP0=0, select bank0
  9846     027A  1303               	bcf	3,6	;RP1=0, select bank0
  9847     027B  00C8               	movwf	??_efgtoa+1
  9848     027C  1683               	bsf	3,5	;RP0=1, select bank1
  9849     027D  1303               	bcf	3,6	;RP1=0, select bank1
  9850     027E  0847               	movf	(efgtoa@g+2)^(0+128),w
  9851     027F  1283               	bcf	3,5	;RP0=0, select bank0
  9852     0280  1303               	bcf	3,6	;RP1=0, select bank0
  9853     0281  00C9               	movwf	??_efgtoa+2
  9854     0282  1683               	bsf	3,5	;RP0=1, select bank1
  9855     0283  1303               	bcf	3,6	;RP1=0, select bank1
  9856     0284  0848               	movf	(efgtoa@g+3)^(0+128),w
  9857     0285  1283               	bcf	3,5	;RP0=0, select bank0
  9858     0286  1303               	bcf	3,6	;RP1=0, select bank0
  9859     0287  00CA               	movwf	??_efgtoa+3
  9860     0288  1683               	bsf	3,5	;RP0=1, select bank1
  9861     0289  1303               	bcf	3,6	;RP1=0, select bank1
  9862     028A  0849               	movf	efgtoa@u^(0+128),w
  9863     028B  1283               	bcf	3,5	;RP0=0, select bank0
  9864     028C  1303               	bcf	3,6	;RP1=0, select bank0
  9865     028D  02C7               	subwf	??_efgtoa,f
  9866     028E  1683               	bsf	3,5	;RP0=1, select bank1
  9867     028F  1303               	bcf	3,6	;RP1=0, select bank1
  9868     0290  084A               	movf	(efgtoa@u+1)^(0+128),w
  9869     0291  1C03               	skipc
  9870     0292  0F4A               	incfsz	(efgtoa@u+1)^(0+128),w
  9871     0293  2A95               	goto	u473_21
  9872     0294  2A98               	goto	u473_22
  9873     0295                     u473_21:
  9874     0295  1283               	bcf	3,5	;RP0=0, select bank0
  9875     0296  1303               	bcf	3,6	;RP1=0, select bank0
  9876     0297  02C8               	subwf	??_efgtoa+1,f
  9877     0298                     u473_22:
  9878     0298  1683               	bsf	3,5	;RP0=1, select bank1
  9879     0299  1303               	bcf	3,6	;RP1=0, select bank1
  9880     029A  084B               	movf	(efgtoa@u+2)^(0+128),w
  9881     029B  1C03               	skipc
  9882     029C  0F4B               	incfsz	(efgtoa@u+2)^(0+128),w
  9883     029D  2A9F               	goto	u473_23
  9884     029E  2AA2               	goto	u473_24
  9885     029F                     u473_23:
  9886     029F  1283               	bcf	3,5	;RP0=0, select bank0
  9887     02A0  1303               	bcf	3,6	;RP1=0, select bank0
  9888     02A1  02C9               	subwf	??_efgtoa+2,f
  9889     02A2                     u473_24:
  9890     02A2  1683               	bsf	3,5	;RP0=1, select bank1
  9891     02A3  1303               	bcf	3,6	;RP1=0, select bank1
  9892     02A4  084C               	movf	(efgtoa@u+3)^(0+128),w
  9893     02A5  1C03               	skipc
  9894     02A6  0F4C               	incfsz	(efgtoa@u+3)^(0+128),w
  9895     02A7  2AA9               	goto	u473_25
  9896     02A8  2AAC               	goto	u473_26
  9897     02A9                     u473_25:
  9898     02A9  1283               	bcf	3,5	;RP0=0, select bank0
  9899     02AA  1303               	bcf	3,6	;RP1=0, select bank0
  9900     02AB  02CA               	subwf	??_efgtoa+3,f
  9901     02AC                     u473_26:
  9902     02AC  1683               	bsf	3,5	;RP0=1, select bank1
  9903     02AD  1303               	bcf	3,6	;RP1=0, select bank1
  9904     02AE  1283               	bcf	3,5	;RP0=0, select bank0
  9905     02AF  1303               	bcf	3,6	;RP1=0, select bank0
  9906     02B0  084A               	movf	??_efgtoa+3,w
  9907     02B1  00F4               	movwf	labs@a+3
  9908     02B2  0849               	movf	??_efgtoa+2,w
  9909     02B3  00F3               	movwf	labs@a+2
  9910     02B4  0848               	movf	??_efgtoa+1,w
  9911     02B5  00F2               	movwf	labs@a+1
  9912     02B6  0847               	movf	??_efgtoa,w
  9913     02B7  00F1               	movwf	labs@a
  9914     02B8  160A  158A  2528  120A  118A  	fcall	_labs
  9915     02BD  1BF4               	btfsc	?_labs+3,7
  9916     02BE  2AD0               	goto	u474_20
  9917     02BF  0874               	movf	?_labs+3,w
  9918     02C0  1D03               	btfss	3,2
  9919     02C1  2ACF               	goto	u474_21
  9920     02C2  0873               	movf	?_labs+2,w
  9921     02C3  1D03               	btfss	3,2
  9922     02C4  2ACF               	goto	u474_21
  9923     02C5  0872               	movf	?_labs+1,w
  9924     02C6  1D03               	btfss	3,2
  9925     02C7  2ACF               	goto	u474_21
  9926     02C8  3002               	movlw	2
  9927     02C9  0271               	subwf	?_labs,w
  9928     02CA  1D03               	skipz
  9929     02CB  2ACC               	goto	u474_23
  9930     02CC                     u474_23:
  9931     02CC  1803               	btfsc	3,0
  9932     02CD  2ACF               	goto	u474_21
  9933     02CE  2AD0               	goto	u474_20
  9934     02CF                     u474_21:
  9935     02CF  2AD1               	goto	i1l3270
  9936     02D0                     u474_20:
  9937     02D0  2A40               	goto	i1l3260
  9938     02D1                     i1l3270:
  9939                           
  9940                           ;C:\Program Files\Microchip\xc8\v2.45\pic\sources\c99\common\doprnt.c: 668:    while (g.
      +                          f < u.f) {
  9941     02D1  1683               	bsf	3,5	;RP0=1, select bank1
  9942     02D2  1303               	bcf	3,6	;RP1=0, select bank1
  9943     02D3  0848               	movf	(efgtoa@g+3)^(0+128),w
  9944     02D4  1283               	bcf	3,5	;RP0=0, select bank0
  9945     02D5  1303               	bcf	3,6	;RP1=0, select bank0
  9946     02D6  00BD               	movwf	___flge@ff1+3
  9947     02D7  1683               	bsf	3,5	;RP0=1, select bank1
  9948     02D8  1303               	bcf	3,6	;RP1=0, select bank1
  9949     02D9  0847               	movf	(efgtoa@g+2)^(0+128),w
  9950     02DA  1283               	bcf	3,5	;RP0=0, select bank0
  9951     02DB  1303               	bcf	3,6	;RP1=0, select bank0
  9952     02DC  00BC               	movwf	___flge@ff1+2
  9953     02DD  1683               	bsf	3,5	;RP0=1, select bank1
  9954     02DE  1303               	bcf	3,6	;RP1=0, select bank1
  9955     02DF  0846               	movf	(efgtoa@g+1)^(0+128),w
  9956     02E0  1283               	bcf	3,5	;RP0=0, select bank0
  9957     02E1  1303               	bcf	3,6	;RP1=0, select bank0
  9958     02E2  00BB               	movwf	___flge@ff1+1
  9959     02E3  1683               	bsf	3,5	;RP0=1, select bank1
  9960     02E4  1303               	bcf	3,6	;RP1=0, select bank1
  9961     02E5  0845               	movf	efgtoa@g^(0+128),w
  9962     02E6  1283               	bcf	3,5	;RP0=0, select bank0
  9963     02E7  1303               	bcf	3,6	;RP1=0, select bank0
  9964     02E8  00BA               	movwf	___flge@ff1
  9965     02E9  1683               	bsf	3,5	;RP0=1, select bank1
  9966     02EA  1303               	bcf	3,6	;RP1=0, select bank1
  9967     02EB  084C               	movf	(efgtoa@u+3)^(0+128),w
  9968     02EC  1283               	bcf	3,5	;RP0=0, select bank0
  9969     02ED  1303               	bcf	3,6	;RP1=0, select bank0
  9970     02EE  00C1               	movwf	___flge@ff2+3
  9971     02EF  1683               	bsf	3,5	;RP0=1, select bank1
  9972     02F0  1303               	bcf	3,6	;RP1=0, select bank1
  9973     02F1  084B               	movf	(efgtoa@u+2)^(0+128),w
  9974     02F2  1283               	bcf	3,5	;RP0=0, select bank0
  9975     02F3  1303               	bcf	3,6	;RP1=0, select bank0
  9976     02F4  00C0               	movwf	___flge@ff2+2
  9977     02F5  1683               	bsf	3,5	;RP0=1, select bank1
  9978     02F6  1303               	bcf	3,6	;RP1=0, select bank1
  9979     02F7  084A               	movf	(efgtoa@u+1)^(0+128),w
  9980     02F8  1283               	bcf	3,5	;RP0=0, select bank0
  9981     02F9  1303               	bcf	3,6	;RP1=0, select bank0
  9982     02FA  00BF               	movwf	___flge@ff2+1
  9983     02FB  1683               	bsf	3,5	;RP0=1, select bank1
  9984     02FC  1303               	bcf	3,6	;RP1=0, select bank1
  9985     02FD  0849               	movf	efgtoa@u^(0+128),w
  9986     02FE  1283               	bcf	3,5	;RP0=0, select bank0
  9987     02FF  1303               	bcf	3,6	;RP1=0, select bank0
  9988     0300  00BE               	movwf	___flge@ff2
  9989     0301  120A  118A  2030  120A  118A  	fcall	___flge
  9990     0306  1C03               	btfss	3,0
  9991     0307  2B09               	goto	u475_21
  9992     0308  2B0A               	goto	u475_20
  9993     0309                     u475_21:
  9994     0309  2A4B               	goto	i1l3262
  9995     030A                     u475_20:
  9996     030A                     i1l3272:
  9997                           
  9998                           ;C:\Program Files\Microchip\xc8\v2.45\pic\sources\c99\common\doprnt.c: 683:  mode = c;
  9999     030A  1283               	bcf	3,5	;RP0=0, select bank0
 10000     030B  1303               	bcf	3,6	;RP1=0, select bank0
 10001     030C  0846               	movf	efgtoa@c,w
 10002     030D  1683               	bsf	3,5	;RP0=1, select bank1
 10003     030E  1303               	bcf	3,6	;RP1=0, select bank1
 10004     030F  00A9               	movwf	efgtoa@mode^(0+128)
 10005                           
 10006                           ;C:\Program Files\Microchip\xc8\v2.45\pic\sources\c99\common\doprnt.c: 685:     nmode = 
      +                          mode;
 10007     0310  0829               	movf	efgtoa@mode^(0+128),w
 10008     0311  00AA               	movwf	efgtoa@nmode^(0+128)
 10009     0312                     i1l3274:
 10010                           
 10011                           ;C:\Program Files\Microchip\xc8\v2.45\pic\sources\c99\common\doprnt.c: 695:  {;C:\Progra
      +                          m Files\Microchip\xc8\v2.45\pic\sources\c99\common\doprnt.c: 696:         p = (prec < 0)
      +                           ? 6 : prec;
 10012     0312  1283               	bcf	3,5	;RP0=0, select bank0
 10013     0313  1303               	bcf	3,6	;RP1=0, select bank0
 10014     0314  1BE9               	btfsc	_prec+1,7
 10015     0315  2B17               	goto	u476_21
 10016     0316  2B18               	goto	u476_20
 10017     0317                     u476_21:
 10018     0317  2B23               	goto	i1l3278
 10019     0318                     u476_20:
 10020     0318                     i1l3276:
 10021     0318  0869               	movf	_prec+1,w
 10022     0319  1683               	bsf	3,5	;RP0=1, select bank1
 10023     031A  1303               	bcf	3,6	;RP1=0, select bank1
 10024     031B  00A3               	movwf	(efgtoa@p+1)^(0+128)
 10025     031C  1283               	bcf	3,5	;RP0=0, select bank0
 10026     031D  1303               	bcf	3,6	;RP1=0, select bank0
 10027     031E  0868               	movf	_prec,w
 10028     031F  1683               	bsf	3,5	;RP0=1, select bank1
 10029     0320  1303               	bcf	3,6	;RP1=0, select bank1
 10030     0321  00A2               	movwf	efgtoa@p^(0+128)
 10031     0322  2B29               	goto	i1l751
 10032     0323                     i1l3278:
 10033     0323  3006               	movlw	6
 10034     0324  1683               	bsf	3,5	;RP0=1, select bank1
 10035     0325  1303               	bcf	3,6	;RP1=0, select bank1
 10036     0326  00A2               	movwf	efgtoa@p^(0+128)
 10037     0327  3000               	movlw	0
 10038     0328  00A3               	movwf	(efgtoa@p^(0+128)+1)
 10039     0329                     i1l751:
 10040                           
 10041                           ;C:\Program Files\Microchip\xc8\v2.45\pic\sources\c99\common\doprnt.c: 697:     };C:\Pro
      +                          gram Files\Microchip\xc8\v2.45\pic\sources\c99\common\doprnt.c: 711:     m = p;
 10042     0329  0823               	movf	(efgtoa@p+1)^(0+128),w
 10043     032A  00AE               	movwf	(efgtoa@m+1)^(0+128)
 10044     032B  0822               	movf	efgtoa@p^(0+128),w
 10045     032C  00AD               	movwf	efgtoa@m^(0+128)
 10046                           
 10047                           ;C:\Program Files\Microchip\xc8\v2.45\pic\sources\c99\common\doprnt.c: 715:  {;C:\Progra
      +                          m Files\Microchip\xc8\v2.45\pic\sources\c99\common\doprnt.c: 716:         ++m;
 10048     032D  3001               	movlw	1
 10049     032E  07AD               	addwf	efgtoa@m^(0+128),f
 10050     032F  1803               	skipnc
 10051     0330  0AAE               	incf	(efgtoa@m+1)^(0+128),f
 10052     0331  3000               	movlw	0
 10053     0332  07AE               	addwf	(efgtoa@m+1)^(0+128),f
 10054     0333                     i1l3280:
 10055                           
 10056                           ;C:\Program Files\Microchip\xc8\v2.45\pic\sources\c99\common\doprnt.c: 717:     };C:\Pro
      +                          gram Files\Microchip\xc8\v2.45\pic\sources\c99\common\doprnt.c: 721:     if (nmode == 'f
      +                          ') {
 10057     0333  3066               	movlw	102
 10058     0334  062A               	xorwf	efgtoa@nmode^(0+128),w
 10059     0335  1D03               	btfss	3,2
 10060     0336  2B3A               	goto	u477_21
 10061     0337  120A  118A  2B3D   	goto	u477_20
 10062     033A                     u477_21:
 10063     033A  120A  118A  2B57   	goto	i1l3292
 10064                           
 10065                           	psect	text12_split_2
 10066     033D                     u477_20:
 10067     033D                     i1l3282:
 10068                           
 10069                           ;C:\Program Files\Microchip\xc8\v2.45\pic\sources\c99\common\doprnt.c: 722:         if (
      +                          e < 0) {
 10070     033D  1FB1               	btfss	(efgtoa@e+1)^(0+128),7
 10071     033E  2B40               	goto	u478_21
 10072     033F  2B41               	goto	u478_20
 10073     0340                     u478_21:
 10074     0340  2B4B               	goto	i1l3288
 10075     0341                     u478_20:
 10076     0341                     i1l3284:
 10077                           
 10078                           ;C:\Program Files\Microchip\xc8\v2.45\pic\sources\c99\common\doprnt.c: 723:             
      +                          u.f = 1.0;
 10079     0341  303F               	movlw	63
 10080     0342  00CC               	movwf	(efgtoa@u+3)^(0+128)
 10081     0343  3080               	movlw	128
 10082     0344  00CB               	movwf	(efgtoa@u+2)^(0+128)
 10083     0345  3000               	movlw	0
 10084     0346  00CA               	movwf	(efgtoa@u+1)^(0+128)
 10085     0347  3000               	movlw	0
 10086     0348  00C9               	movwf	efgtoa@u^(0+128)
 10087     0349                     i1l3286:
 10088                           
 10089                           ;C:\Program Files\Microchip\xc8\v2.45\pic\sources\c99\common\doprnt.c: 724:             
      +                          e = 0;
 10090     0349  01B0               	clrf	efgtoa@e^(0+128)
 10091     034A  01B1               	clrf	(efgtoa@e+1)^(0+128)
 10092     034B                     i1l3288:
 10093                           
 10094                           ;C:\Program Files\Microchip\xc8\v2.45\pic\sources\c99\common\doprnt.c: 726:         if (
      +                          !(mode == 'g')) {
 10095     034B  3067               	movlw	103
 10096     034C  0629               	xorwf	efgtoa@mode^(0+128),w
 10097     034D  1903               	btfsc	3,2
 10098     034E  2B50               	goto	u479_21
 10099     034F  2B51               	goto	u479_20
 10100     0350                     u479_21:
 10101     0350  2B57               	goto	i1l3292
 10102     0351                     u479_20:
 10103     0351                     i1l3290:
 10104                           
 10105                           ;C:\Program Files\Microchip\xc8\v2.45\pic\sources\c99\common\doprnt.c: 727:             
      +                          m += e;
 10106     0351  0830               	movf	efgtoa@e^(0+128),w
 10107     0352  07AD               	addwf	efgtoa@m^(0+128),f
 10108     0353  1803               	skipnc
 10109     0354  0AAE               	incf	(efgtoa@m+1)^(0+128),f
 10110     0355  0831               	movf	(efgtoa@e+1)^(0+128),w
 10111     0356  07AE               	addwf	(efgtoa@m+1)^(0+128),f
 10112     0357                     i1l3292:
 10113                           
 10114                           ;C:\Program Files\Microchip\xc8\v2.45\pic\sources\c99\common\doprnt.c: 733:     i = 0;
 10115     0357  01B8               	clrf	efgtoa@i^(0+128)
 10116     0358  01B9               	clrf	(efgtoa@i+1)^(0+128)
 10117     0359                     i1l3294:
 10118                           
 10119                           ;C:\Program Files\Microchip\xc8\v2.45\pic\sources\c99\common\doprnt.c: 734:     h = g.f;
 10120     0359  0848               	movf	(efgtoa@g+3)^(0+128),w
 10121     035A  00BD               	movwf	(efgtoa@h+3)^(0+128)
 10122     035B  0847               	movf	(efgtoa@g+2)^(0+128),w
 10123     035C  00BC               	movwf	(efgtoa@h+2)^(0+128)
 10124     035D  0846               	movf	(efgtoa@g+1)^(0+128),w
 10125     035E  00BB               	movwf	(efgtoa@h+1)^(0+128)
 10126     035F  0845               	movf	efgtoa@g^(0+128),w
 10127     0360  00BA               	movwf	efgtoa@h^(0+128)
 10128     0361                     i1l3296:
 10129                           
 10130                           ;C:\Program Files\Microchip\xc8\v2.45\pic\sources\c99\common\doprnt.c: 735:     ou = u;
 10131     0361  084C               	movf	(efgtoa@u+3)^(0+128),w
 10132     0362  00B7               	movwf	(efgtoa@ou+3)^(0+128)
 10133     0363  084B               	movf	(efgtoa@u+2)^(0+128),w
 10134     0364  00B6               	movwf	(efgtoa@ou+2)^(0+128)
 10135     0365  084A               	movf	(efgtoa@u+1)^(0+128),w
 10136     0366  00B5               	movwf	(efgtoa@ou+1)^(0+128)
 10137     0367  0849               	movf	efgtoa@u^(0+128),w
 10138     0368  00B4               	movwf	efgtoa@ou^(0+128)
 10139                           
 10140                           ;C:\Program Files\Microchip\xc8\v2.45\pic\sources\c99\common\doprnt.c: 736:     while (i
      +                           < m) {
 10141     0369  2C52               	goto	i1l3302
 10142     036A                     i1l3298:
 10143                           
 10144                           ;C:\Program Files\Microchip\xc8\v2.45\pic\sources\c99\common\doprnt.c: 737:         l = 
      +                          floorf(h/u.f);
 10145     036A  1683               	bsf	3,5	;RP0=1, select bank1
 10146     036B  1303               	bcf	3,6	;RP1=0, select bank1
 10147     036C  084C               	movf	(efgtoa@u+3)^(0+128),w
 10148     036D  00F4               	movwf	___fldiv@a+3
 10149     036E  084B               	movf	(efgtoa@u+2)^(0+128),w
 10150     036F  00F3               	movwf	___fldiv@a+2
 10151     0370  084A               	movf	(efgtoa@u+1)^(0+128),w
 10152     0371  00F2               	movwf	___fldiv@a+1
 10153     0372  0849               	movf	efgtoa@u^(0+128),w
 10154     0373  00F1               	movwf	___fldiv@a
 10155     0374  083D               	movf	(efgtoa@h+3)^(0+128),w
 10156     0375  00F8               	movwf	___fldiv@b+3
 10157     0376  083C               	movf	(efgtoa@h+2)^(0+128),w
 10158     0377  00F7               	movwf	___fldiv@b+2
 10159     0378  083B               	movf	(efgtoa@h+1)^(0+128),w
 10160     0379  00F6               	movwf	___fldiv@b+1
 10161     037A  083A               	movf	efgtoa@h^(0+128),w
 10162     037B  00F5               	movwf	___fldiv@b
 10163     037C  160A  118A  262B  120A  118A  	fcall	___fldiv
 10164     0381  0874               	movf	?___fldiv+3,w
 10165     0382  1283               	bcf	3,5	;RP0=0, select bank0
 10166     0383  1303               	bcf	3,6	;RP1=0, select bank0
 10167     0384  00B0               	movwf	floorf@x+3
 10168     0385  0873               	movf	?___fldiv+2,w
 10169     0386  00AF               	movwf	floorf@x+2
 10170     0387  0872               	movf	?___fldiv+1,w
 10171     0388  00AE               	movwf	floorf@x+1
 10172     0389  0871               	movf	?___fldiv,w
 10173     038A  00AD               	movwf	floorf@x
 10174     038B  160A  118A  23F9  120A  118A  	fcall	_floorf
 10175     0390  1283               	bcf	3,5	;RP0=0, select bank0
 10176     0391  1303               	bcf	3,6	;RP1=0, select bank0
 10177     0392  0830               	movf	?_floorf+3,w
 10178     0393  1683               	bsf	3,5	;RP0=1, select bank1
 10179     0394  1303               	bcf	3,6	;RP1=0, select bank1
 10180     0395  00C1               	movwf	(efgtoa@l+3)^(0+128)
 10181     0396  1283               	bcf	3,5	;RP0=0, select bank0
 10182     0397  1303               	bcf	3,6	;RP1=0, select bank0
 10183     0398  082F               	movf	?_floorf+2,w
 10184     0399  1683               	bsf	3,5	;RP0=1, select bank1
 10185     039A  1303               	bcf	3,6	;RP1=0, select bank1
 10186     039B  00C0               	movwf	(efgtoa@l+2)^(0+128)
 10187     039C  1283               	bcf	3,5	;RP0=0, select bank0
 10188     039D  1303               	bcf	3,6	;RP1=0, select bank0
 10189     039E  082E               	movf	?_floorf+1,w
 10190     039F  1683               	bsf	3,5	;RP0=1, select bank1
 10191     03A0  1303               	bcf	3,6	;RP1=0, select bank1
 10192     03A1  00BF               	movwf	(efgtoa@l+1)^(0+128)
 10193     03A2  1283               	bcf	3,5	;RP0=0, select bank0
 10194     03A3  1303               	bcf	3,6	;RP1=0, select bank0
 10195     03A4  082D               	movf	?_floorf,w
 10196     03A5  1683               	bsf	3,5	;RP0=1, select bank1
 10197     03A6  1303               	bcf	3,6	;RP1=0, select bank1
 10198     03A7  00BE               	movwf	efgtoa@l^(0+128)
 10199                           
 10200                           ;C:\Program Files\Microchip\xc8\v2.45\pic\sources\c99\common\doprnt.c: 738:         d = 
      +                          (int)l;
 10201     03A8  0841               	movf	(efgtoa@l+3)^(0+128),w
 10202     03A9  00F4               	movwf	___fltol@f1+3
 10203     03AA  0840               	movf	(efgtoa@l+2)^(0+128),w
 10204     03AB  00F3               	movwf	___fltol@f1+2
 10205     03AC  083F               	movf	(efgtoa@l+1)^(0+128),w
 10206     03AD  00F2               	movwf	___fltol@f1+1
 10207     03AE  083E               	movf	efgtoa@l^(0+128),w
 10208     03AF  00F1               	movwf	___fltol@f1
 10209     03B0  160A  118A  2238  120A  118A  	fcall	___fltol
 10210     03B5  0872               	movf	?___fltol+1,w
 10211     03B6  1683               	bsf	3,5	;RP0=1, select bank1
 10212     03B7  1303               	bcf	3,6	;RP1=0, select bank1
 10213     03B8  00AC               	movwf	(efgtoa@d+1)^(0+128)
 10214     03B9  0871               	movf	?___fltol,w
 10215     03BA  00AB               	movwf	efgtoa@d^(0+128)
 10216                           
 10217                           ;C:\Program Files\Microchip\xc8\v2.45\pic\sources\c99\common\doprnt.c: 739:         h -=
      +                           l*u.f;
 10218     03BB  084C               	movf	(efgtoa@u+3)^(0+128),w
 10219     03BC  1283               	bcf	3,5	;RP0=0, select bank0
 10220     03BD  1303               	bcf	3,6	;RP1=0, select bank0
 10221     03BE  00A7               	movwf	___flmul@a+3
 10222     03BF  1683               	bsf	3,5	;RP0=1, select bank1
 10223     03C0  1303               	bcf	3,6	;RP1=0, select bank1
 10224     03C1  084B               	movf	(efgtoa@u+2)^(0+128),w
 10225     03C2  1283               	bcf	3,5	;RP0=0, select bank0
 10226     03C3  1303               	bcf	3,6	;RP1=0, select bank0
 10227     03C4  00A6               	movwf	___flmul@a+2
 10228     03C5  1683               	bsf	3,5	;RP0=1, select bank1
 10229     03C6  1303               	bcf	3,6	;RP1=0, select bank1
 10230     03C7  084A               	movf	(efgtoa@u+1)^(0+128),w
 10231     03C8  1283               	bcf	3,5	;RP0=0, select bank0
 10232     03C9  1303               	bcf	3,6	;RP1=0, select bank0
 10233     03CA  00A5               	movwf	___flmul@a+1
 10234     03CB  1683               	bsf	3,5	;RP0=1, select bank1
 10235     03CC  1303               	bcf	3,6	;RP1=0, select bank1
 10236     03CD  0849               	movf	efgtoa@u^(0+128),w
 10237     03CE  1283               	bcf	3,5	;RP0=0, select bank0
 10238     03CF  1303               	bcf	3,6	;RP1=0, select bank0
 10239     03D0  00A4               	movwf	___flmul@a
 10240     03D1  1683               	bsf	3,5	;RP0=1, select bank1
 10241     03D2  1303               	bcf	3,6	;RP1=0, select bank1
 10242     03D3  0841               	movf	(efgtoa@l+3)^(0+128),w
 10243     03D4  1283               	bcf	3,5	;RP0=0, select bank0
 10244     03D5  1303               	bcf	3,6	;RP1=0, select bank0
 10245     03D6  00A3               	movwf	___flmul@b+3
 10246     03D7  1683               	bsf	3,5	;RP0=1, select bank1
 10247     03D8  1303               	bcf	3,6	;RP1=0, select bank1
 10248     03D9  0840               	movf	(efgtoa@l+2)^(0+128),w
 10249     03DA  1283               	bcf	3,5	;RP0=0, select bank0
 10250     03DB  1303               	bcf	3,6	;RP1=0, select bank0
 10251     03DC  00A2               	movwf	___flmul@b+2
 10252     03DD  1683               	bsf	3,5	;RP0=1, select bank1
 10253     03DE  1303               	bcf	3,6	;RP1=0, select bank1
 10254     03DF  083F               	movf	(efgtoa@l+1)^(0+128),w
 10255     03E0  1283               	bcf	3,5	;RP0=0, select bank0
 10256     03E1  1303               	bcf	3,6	;RP1=0, select bank0
 10257     03E2  00A1               	movwf	___flmul@b+1
 10258     03E3  1683               	bsf	3,5	;RP0=1, select bank1
 10259     03E4  1303               	bcf	3,6	;RP1=0, select bank1
 10260     03E5  083E               	movf	efgtoa@l^(0+128),w
 10261     03E6  1283               	bcf	3,5	;RP0=0, select bank0
 10262     03E7  1303               	bcf	3,6	;RP1=0, select bank0
 10263     03E8  00A0               	movwf	___flmul@b
 10264     03E9  120A  158A  24BB  120A  118A  	fcall	___flmul
 10265     03EE  1283               	bcf	3,5	;RP0=0, select bank0
 10266     03EF  1303               	bcf	3,6	;RP1=0, select bank0
 10267     03F0  0823               	movf	?___flmul+3,w
 10268     03F1  00BD               	movwf	___flsub@a+3
 10269     03F2  0822               	movf	?___flmul+2,w
 10270     03F3  00BC               	movwf	___flsub@a+2
 10271     03F4  0821               	movf	?___flmul+1,w
 10272     03F5  00BB               	movwf	___flsub@a+1
 10273     03F6  0820               	movf	?___flmul,w
 10274     03F7  00BA               	movwf	___flsub@a
 10275     03F8  1683               	bsf	3,5	;RP0=1, select bank1
 10276     03F9  1303               	bcf	3,6	;RP1=0, select bank1
 10277     03FA  083D               	movf	(efgtoa@h+3)^(0+128),w
 10278     03FB  1283               	bcf	3,5	;RP0=0, select bank0
 10279     03FC  1303               	bcf	3,6	;RP1=0, select bank0
 10280     03FD  00C1               	movwf	___flsub@b+3
 10281     03FE  1683               	bsf	3,5	;RP0=1, select bank1
 10282     03FF  1303               	bcf	3,6	;RP1=0, select bank1
 10283     0400  083C               	movf	(efgtoa@h+2)^(0+128),w
 10284     0401  1283               	bcf	3,5	;RP0=0, select bank0
 10285     0402  1303               	bcf	3,6	;RP1=0, select bank0
 10286     0403  00C0               	movwf	___flsub@b+2
 10287     0404  1683               	bsf	3,5	;RP0=1, select bank1
 10288     0405  1303               	bcf	3,6	;RP1=0, select bank1
 10289     0406  083B               	movf	(efgtoa@h+1)^(0+128),w
 10290     0407  1283               	bcf	3,5	;RP0=0, select bank0
 10291     0408  1303               	bcf	3,6	;RP1=0, select bank0
 10292     0409  00BF               	movwf	___flsub@b+1
 10293     040A  1683               	bsf	3,5	;RP0=1, select bank1
 10294     040B  1303               	bcf	3,6	;RP1=0, select bank1
 10295     040C  083A               	movf	efgtoa@h^(0+128),w
 10296     040D  1283               	bcf	3,5	;RP0=0, select bank0
 10297     040E  1303               	bcf	3,6	;RP1=0, select bank0
 10298     040F  00BE               	movwf	___flsub@b
 10299     0410  160A  158A  2594  120A  118A  	fcall	___flsub
 10300     0415  1283               	bcf	3,5	;RP0=0, select bank0
 10301     0416  1303               	bcf	3,6	;RP1=0, select bank0
 10302     0417  083D               	movf	?___flsub+3,w
 10303     0418  1683               	bsf	3,5	;RP0=1, select bank1
 10304     0419  1303               	bcf	3,6	;RP1=0, select bank1
 10305     041A  00BD               	movwf	(efgtoa@h+3)^(0+128)
 10306     041B  1283               	bcf	3,5	;RP0=0, select bank0
 10307     041C  1303               	bcf	3,6	;RP1=0, select bank0
 10308     041D  083C               	movf	?___flsub+2,w
 10309     041E  1683               	bsf	3,5	;RP0=1, select bank1
 10310     041F  1303               	bcf	3,6	;RP1=0, select bank1
 10311     0420  00BC               	movwf	(efgtoa@h+2)^(0+128)
 10312     0421  1283               	bcf	3,5	;RP0=0, select bank0
 10313     0422  1303               	bcf	3,6	;RP1=0, select bank0
 10314     0423  083B               	movf	?___flsub+1,w
 10315     0424  1683               	bsf	3,5	;RP0=1, select bank1
 10316     0425  1303               	bcf	3,6	;RP1=0, select bank1
 10317     0426  00BB               	movwf	(efgtoa@h+1)^(0+128)
 10318     0427  1283               	bcf	3,5	;RP0=0, select bank0
 10319     0428  1303               	bcf	3,6	;RP1=0, select bank0
 10320     0429  083A               	movf	?___flsub,w
 10321     042A  1683               	bsf	3,5	;RP0=1, select bank1
 10322     042B  1303               	bcf	3,6	;RP1=0, select bank1
 10323     042C  00BA               	movwf	efgtoa@h^(0+128)
 10324                           
 10325                           ;C:\Program Files\Microchip\xc8\v2.45\pic\sources\c99\common\doprnt.c: 740:         u.f 
      +                          = u.f/10.0;
 10326     042D  3041               	movlw	65
 10327     042E  00F4               	movwf	___fldiv@a+3
 10328     042F  3020               	movlw	32
 10329     0430  00F3               	movwf	___fldiv@a+2
 10330     0431  3000               	movlw	0
 10331     0432  00F2               	movwf	___fldiv@a+1
 10332     0433  3000               	movlw	0
 10333     0434  00F1               	movwf	___fldiv@a
 10334     0435  084C               	movf	(efgtoa@u+3)^(0+128),w
 10335     0436  00F8               	movwf	___fldiv@b+3
 10336     0437  084B               	movf	(efgtoa@u+2)^(0+128),w
 10337     0438  00F7               	movwf	___fldiv@b+2
 10338     0439  084A               	movf	(efgtoa@u+1)^(0+128),w
 10339     043A  00F6               	movwf	___fldiv@b+1
 10340     043B  0849               	movf	efgtoa@u^(0+128),w
 10341     043C  00F5               	movwf	___fldiv@b
 10342     043D  160A  118A  262B  120A  118A  	fcall	___fldiv
 10343     0442  0874               	movf	?___fldiv+3,w
 10344     0443  1683               	bsf	3,5	;RP0=1, select bank1
 10345     0444  1303               	bcf	3,6	;RP1=0, select bank1
 10346     0445  00CC               	movwf	(efgtoa@u+3)^(0+128)
 10347     0446  0873               	movf	?___fldiv+2,w
 10348     0447  00CB               	movwf	(efgtoa@u+2)^(0+128)
 10349     0448  0872               	movf	?___fldiv+1,w
 10350     0449  00CA               	movwf	(efgtoa@u+1)^(0+128)
 10351     044A  0871               	movf	?___fldiv,w
 10352     044B  00C9               	movwf	efgtoa@u^(0+128)
 10353     044C                     i1l3300:
 10354                           
 10355                           ;C:\Program Files\Microchip\xc8\v2.45\pic\sources\c99\common\doprnt.c: 741:         ++i;
 10356     044C  3001               	movlw	1
 10357     044D  07B8               	addwf	efgtoa@i^(0+128),f
 10358     044E  1803               	skipnc
 10359     044F  0AB9               	incf	(efgtoa@i+1)^(0+128),f
 10360     0450  3000               	movlw	0
 10361     0451  07B9               	addwf	(efgtoa@i+1)^(0+128),f
 10362     0452                     i1l3302:
 10363                           
 10364                           ;C:\Program Files\Microchip\xc8\v2.45\pic\sources\c99\common\doprnt.c: 736:     while (i
      +                           < m) {
 10365     0452  0839               	movf	(efgtoa@i+1)^(0+128),w
 10366     0453  3A80               	xorlw	128
 10367     0454  1283               	bcf	3,5	;RP0=0, select bank0
 10368     0455  1303               	bcf	3,6	;RP1=0, select bank0
 10369     0456  00C7               	movwf	??_efgtoa
 10370     0457  1683               	bsf	3,5	;RP0=1, select bank1
 10371     0458  1303               	bcf	3,6	;RP1=0, select bank1
 10372     0459  082E               	movf	(efgtoa@m+1)^(0+128),w
 10373     045A  3A80               	xorlw	128
 10374     045B  1283               	bcf	3,5	;RP0=0, select bank0
 10375     045C  1303               	bcf	3,6	;RP1=0, select bank0
 10376     045D  0247               	subwf	??_efgtoa,w
 10377     045E  1D03               	skipz
 10378     045F  2C64               	goto	u480_25
 10379     0460  1683               	bsf	3,5	;RP0=1, select bank1
 10380     0461  1303               	bcf	3,6	;RP1=0, select bank1
 10381     0462  082D               	movf	efgtoa@m^(0+128),w
 10382     0463  0238               	subwf	efgtoa@i^(0+128),w
 10383     0464                     u480_25:
 10384     0464  1C03               	skipc
 10385     0465  2C67               	goto	u480_21
 10386     0466  2C68               	goto	u480_20
 10387     0467                     u480_21:
 10388     0467  2B6A               	goto	i1l3298
 10389     0468                     u480_20:
 10390     0468                     i1l3304:
 10391                           
 10392                           ;C:\Program Files\Microchip\xc8\v2.45\pic\sources\c99\common\doprnt.c: 745:     l = u.f*
      +                          5.0;
 10393     0468  3040               	movlw	64
 10394     0469  1283               	bcf	3,5	;RP0=0, select bank0
 10395     046A  1303               	bcf	3,6	;RP1=0, select bank0
 10396     046B  00A3               	movwf	___flmul@b+3
 10397     046C  30A0               	movlw	160
 10398     046D  00A2               	movwf	___flmul@b+2
 10399     046E  3000               	movlw	0
 10400     046F  00A1               	movwf	___flmul@b+1
 10401     0470  3000               	movlw	0
 10402     0471  00A0               	movwf	___flmul@b
 10403     0472  1683               	bsf	3,5	;RP0=1, select bank1
 10404     0473  1303               	bcf	3,6	;RP1=0, select bank1
 10405     0474  084C               	movf	(efgtoa@u+3)^(0+128),w
 10406     0475  1283               	bcf	3,5	;RP0=0, select bank0
 10407     0476  1303               	bcf	3,6	;RP1=0, select bank0
 10408     0477  00A7               	movwf	___flmul@a+3
 10409     0478  1683               	bsf	3,5	;RP0=1, select bank1
 10410     0479  1303               	bcf	3,6	;RP1=0, select bank1
 10411     047A  084B               	movf	(efgtoa@u+2)^(0+128),w
 10412     047B  1283               	bcf	3,5	;RP0=0, select bank0
 10413     047C  1303               	bcf	3,6	;RP1=0, select bank0
 10414     047D  00A6               	movwf	___flmul@a+2
 10415     047E  1683               	bsf	3,5	;RP0=1, select bank1
 10416     047F  1303               	bcf	3,6	;RP1=0, select bank1
 10417     0480  084A               	movf	(efgtoa@u+1)^(0+128),w
 10418     0481  1283               	bcf	3,5	;RP0=0, select bank0
 10419     0482  1303               	bcf	3,6	;RP1=0, select bank0
 10420     0483  00A5               	movwf	___flmul@a+1
 10421     0484  1683               	bsf	3,5	;RP0=1, select bank1
 10422     0485  1303               	bcf	3,6	;RP1=0, select bank1
 10423     0486  0849               	movf	efgtoa@u^(0+128),w
 10424     0487  1283               	bcf	3,5	;RP0=0, select bank0
 10425     0488  1303               	bcf	3,6	;RP1=0, select bank0
 10426     0489  00A4               	movwf	___flmul@a
 10427     048A  120A  158A  24BB  120A  118A  	fcall	___flmul
 10428     048F  1283               	bcf	3,5	;RP0=0, select bank0
 10429     0490  1303               	bcf	3,6	;RP1=0, select bank0
 10430     0491  0823               	movf	?___flmul+3,w
 10431     0492  1683               	bsf	3,5	;RP0=1, select bank1
 10432     0493  1303               	bcf	3,6	;RP1=0, select bank1
 10433     0494  00C1               	movwf	(efgtoa@l+3)^(0+128)
 10434     0495  1283               	bcf	3,5	;RP0=0, select bank0
 10435     0496  1303               	bcf	3,6	;RP1=0, select bank0
 10436     0497  0822               	movf	?___flmul+2,w
 10437     0498  1683               	bsf	3,5	;RP0=1, select bank1
 10438     0499  1303               	bcf	3,6	;RP1=0, select bank1
 10439     049A  00C0               	movwf	(efgtoa@l+2)^(0+128)
 10440     049B  1283               	bcf	3,5	;RP0=0, select bank0
 10441     049C  1303               	bcf	3,6	;RP1=0, select bank0
 10442     049D  0821               	movf	?___flmul+1,w
 10443     049E  1683               	bsf	3,5	;RP0=1, select bank1
 10444     049F  1303               	bcf	3,6	;RP1=0, select bank1
 10445     04A0  00BF               	movwf	(efgtoa@l+1)^(0+128)
 10446     04A1  1283               	bcf	3,5	;RP0=0, select bank0
 10447     04A2  1303               	bcf	3,6	;RP1=0, select bank0
 10448     04A3  0820               	movf	?___flmul,w
 10449     04A4  1683               	bsf	3,5	;RP0=1, select bank1
 10450     04A5  1303               	bcf	3,6	;RP1=0, select bank1
 10451     04A6  00BE               	movwf	efgtoa@l^(0+128)
 10452     04A7                     i1l3306:
 10453                           
 10454                           ;C:\Program Files\Microchip\xc8\v2.45\pic\sources\c99\common\doprnt.c: 746:     if (h < 
      +                          l) {
 10455     04A7  083D               	movf	(efgtoa@h+3)^(0+128),w
 10456     04A8  1283               	bcf	3,5	;RP0=0, select bank0
 10457     04A9  1303               	bcf	3,6	;RP1=0, select bank0
 10458     04AA  00BD               	movwf	___flge@ff1+3
 10459     04AB  1683               	bsf	3,5	;RP0=1, select bank1
 10460     04AC  1303               	bcf	3,6	;RP1=0, select bank1
 10461     04AD  083C               	movf	(efgtoa@h+2)^(0+128),w
 10462     04AE  1283               	bcf	3,5	;RP0=0, select bank0
 10463     04AF  1303               	bcf	3,6	;RP1=0, select bank0
 10464     04B0  00BC               	movwf	___flge@ff1+2
 10465     04B1  1683               	bsf	3,5	;RP0=1, select bank1
 10466     04B2  1303               	bcf	3,6	;RP1=0, select bank1
 10467     04B3  083B               	movf	(efgtoa@h+1)^(0+128),w
 10468     04B4  1283               	bcf	3,5	;RP0=0, select bank0
 10469     04B5  1303               	bcf	3,6	;RP1=0, select bank0
 10470     04B6  00BB               	movwf	___flge@ff1+1
 10471     04B7  1683               	bsf	3,5	;RP0=1, select bank1
 10472     04B8  1303               	bcf	3,6	;RP1=0, select bank1
 10473     04B9  083A               	movf	efgtoa@h^(0+128),w
 10474     04BA  1283               	bcf	3,5	;RP0=0, select bank0
 10475     04BB  1303               	bcf	3,6	;RP1=0, select bank0
 10476     04BC  00BA               	movwf	___flge@ff1
 10477     04BD  1683               	bsf	3,5	;RP0=1, select bank1
 10478     04BE  1303               	bcf	3,6	;RP1=0, select bank1
 10479     04BF  0841               	movf	(efgtoa@l+3)^(0+128),w
 10480     04C0  1283               	bcf	3,5	;RP0=0, select bank0
 10481     04C1  1303               	bcf	3,6	;RP1=0, select bank0
 10482     04C2  00C1               	movwf	___flge@ff2+3
 10483     04C3  1683               	bsf	3,5	;RP0=1, select bank1
 10484     04C4  1303               	bcf	3,6	;RP1=0, select bank1
 10485     04C5  0840               	movf	(efgtoa@l+2)^(0+128),w
 10486     04C6  1283               	bcf	3,5	;RP0=0, select bank0
 10487     04C7  1303               	bcf	3,6	;RP1=0, select bank0
 10488     04C8  00C0               	movwf	___flge@ff2+2
 10489     04C9  1683               	bsf	3,5	;RP0=1, select bank1
 10490     04CA  1303               	bcf	3,6	;RP1=0, select bank1
 10491     04CB  083F               	movf	(efgtoa@l+1)^(0+128),w
 10492     04CC  1283               	bcf	3,5	;RP0=0, select bank0
 10493     04CD  1303               	bcf	3,6	;RP1=0, select bank0
 10494     04CE  00BF               	movwf	___flge@ff2+1
 10495     04CF  1683               	bsf	3,5	;RP0=1, select bank1
 10496     04D0  1303               	bcf	3,6	;RP1=0, select bank1
 10497     04D1  083E               	movf	efgtoa@l^(0+128),w
 10498     04D2  1283               	bcf	3,5	;RP0=0, select bank0
 10499     04D3  1303               	bcf	3,6	;RP1=0, select bank0
 10500     04D4  00BE               	movwf	___flge@ff2
 10501     04D5  120A  118A  2030  120A  118A  	fcall	___flge
 10502     04DA  1803               	btfsc	3,0
 10503     04DB  2CDD               	goto	u481_21
 10504     04DC  2CDE               	goto	u481_20
 10505     04DD                     u481_21:
 10506     04DD  2CE9               	goto	i1l3310
 10507     04DE                     u481_20:
 10508     04DE                     i1l3308:
 10509                           
 10510                           ;C:\Program Files\Microchip\xc8\v2.45\pic\sources\c99\common\doprnt.c: 747:         l = 
      +                          0.0;
 10511     04DE  3000               	movlw	0
 10512     04DF  1683               	bsf	3,5	;RP0=1, select bank1
 10513     04E0  1303               	bcf	3,6	;RP1=0, select bank1
 10514     04E1  00C1               	movwf	(efgtoa@l+3)^(0+128)
 10515     04E2  3000               	movlw	0
 10516     04E3  00C0               	movwf	(efgtoa@l+2)^(0+128)
 10517     04E4  3000               	movlw	0
 10518     04E5  00BF               	movwf	(efgtoa@l+1)^(0+128)
 10519     04E6  3000               	movlw	0
 10520     04E7  00BE               	movwf	efgtoa@l^(0+128)
 10521                           
 10522                           ;C:\Program Files\Microchip\xc8\v2.45\pic\sources\c99\common\doprnt.c: 748:     } else {
 10523     04E8  2D12               	goto	i1l3316
 10524     04E9                     i1l3310:
 10525                           
 10526                           ;C:\Program Files\Microchip\xc8\v2.45\pic\sources\c99\common\doprnt.c: 750:         if (
      +                          (h == l) && !(d % 2)) {
 10527     04E9  1683               	bsf	3,5	;RP0=1, select bank1
 10528     04EA  1303               	bcf	3,6	;RP1=0, select bank1
 10529     04EB  083D               	movf	(efgtoa@h+3)^(0+128),w
 10530     04EC  00F4               	movwf	___fleq@ff1+3
 10531     04ED  083C               	movf	(efgtoa@h+2)^(0+128),w
 10532     04EE  00F3               	movwf	___fleq@ff1+2
 10533     04EF  083B               	movf	(efgtoa@h+1)^(0+128),w
 10534     04F0  00F2               	movwf	___fleq@ff1+1
 10535     04F1  083A               	movf	efgtoa@h^(0+128),w
 10536     04F2  00F1               	movwf	___fleq@ff1
 10537     04F3  0841               	movf	(efgtoa@l+3)^(0+128),w
 10538     04F4  00F8               	movwf	___fleq@ff2+3
 10539     04F5  0840               	movf	(efgtoa@l+2)^(0+128),w
 10540     04F6  00F7               	movwf	___fleq@ff2+2
 10541     04F7  083F               	movf	(efgtoa@l+1)^(0+128),w
 10542     04F8  00F6               	movwf	___fleq@ff2+1
 10543     04F9  083E               	movf	efgtoa@l^(0+128),w
 10544     04FA  00F5               	movwf	___fleq@ff2
 10545     04FB  160A  118A  207C  120A  118A  	fcall	___fleq
 10546     0500  1C03               	btfss	3,0
 10547     0501  2D03               	goto	u482_21
 10548     0502  2D04               	goto	u482_20
 10549     0503                     u482_21:
 10550     0503  2D12               	goto	i1l3316
 10551     0504                     u482_20:
 10552     0504                     i1l3312:
 10553     0504  1683               	bsf	3,5	;RP0=1, select bank1
 10554     0505  1303               	bcf	3,6	;RP1=0, select bank1
 10555     0506  182B               	btfsc	efgtoa@d^(0+128),0
 10556     0507  2D09               	goto	u483_21
 10557     0508  2D0A               	goto	u483_20
 10558     0509                     u483_21:
 10559     0509  2D12               	goto	i1l3316
 10560     050A                     u483_20:
 10561     050A                     i1l3314:
 10562                           
 10563                           ;C:\Program Files\Microchip\xc8\v2.45\pic\sources\c99\common\doprnt.c: 751:             
      +                          l = 0.0;
 10564     050A  3000               	movlw	0
 10565     050B  00C1               	movwf	(efgtoa@l+3)^(0+128)
 10566     050C  3000               	movlw	0
 10567     050D  00C0               	movwf	(efgtoa@l+2)^(0+128)
 10568     050E  3000               	movlw	0
 10569     050F  00BF               	movwf	(efgtoa@l+1)^(0+128)
 10570     0510  3000               	movlw	0
 10571     0511  00BE               	movwf	efgtoa@l^(0+128)
 10572     0512                     i1l3316:
 10573                           
 10574                           ;C:\Program Files\Microchip\xc8\v2.45\pic\sources\c99\common\doprnt.c: 756:     h = g.f 
      +                          + l;
 10575     0512  1683               	bsf	3,5	;RP0=1, select bank1
 10576     0513  1303               	bcf	3,6	;RP1=0, select bank1
 10577     0514  0841               	movf	(efgtoa@l+3)^(0+128),w
 10578     0515  00F4               	movwf	___fladd@b+3
 10579     0516  0840               	movf	(efgtoa@l+2)^(0+128),w
 10580     0517  00F3               	movwf	___fladd@b+2
 10581     0518  083F               	movf	(efgtoa@l+1)^(0+128),w
 10582     0519  00F2               	movwf	___fladd@b+1
 10583     051A  083E               	movf	efgtoa@l^(0+128),w
 10584     051B  00F1               	movwf	___fladd@b
 10585     051C  0848               	movf	(efgtoa@g+3)^(0+128),w
 10586     051D  00F8               	movwf	___fladd@a+3
 10587     051E  0847               	movf	(efgtoa@g+2)^(0+128),w
 10588     051F  00F7               	movwf	___fladd@a+2
 10589     0520  0846               	movf	(efgtoa@g+1)^(0+128),w
 10590     0521  00F6               	movwf	___fladd@a+1
 10591     0522  0845               	movf	efgtoa@g^(0+128),w
 10592     0523  00F5               	movwf	___fladd@a
 10593     0524  120A  158A  2257  120A  118A  	fcall	___fladd
 10594     0529  0874               	movf	?___fladd+3,w
 10595     052A  1683               	bsf	3,5	;RP0=1, select bank1
 10596     052B  1303               	bcf	3,6	;RP1=0, select bank1
 10597     052C  00BD               	movwf	(efgtoa@h+3)^(0+128)
 10598     052D  0873               	movf	?___fladd+2,w
 10599     052E  00BC               	movwf	(efgtoa@h+2)^(0+128)
 10600     052F  0872               	movf	?___fladd+1,w
 10601     0530  00BB               	movwf	(efgtoa@h+1)^(0+128)
 10602     0531  0871               	movf	?___fladd,w
 10603     0532  00BA               	movwf	efgtoa@h^(0+128)
 10604     0533                     i1l3318:
 10605                           
 10606                           ;C:\Program Files\Microchip\xc8\v2.45\pic\sources\c99\common\doprnt.c: 758:  if (h >= (o
      +                          u.f*10.0)) {
 10607     0533  083D               	movf	(efgtoa@h+3)^(0+128),w
 10608     0534  1283               	bcf	3,5	;RP0=0, select bank0
 10609     0535  1303               	bcf	3,6	;RP1=0, select bank0
 10610     0536  00BD               	movwf	___flge@ff1+3
 10611     0537  1683               	bsf	3,5	;RP0=1, select bank1
 10612     0538  1303               	bcf	3,6	;RP1=0, select bank1
 10613     0539  083C               	movf	(efgtoa@h+2)^(0+128),w
 10614     053A  1283               	bcf	3,5	;RP0=0, select bank0
 10615     053B  1303               	bcf	3,6	;RP1=0, select bank0
 10616     053C  00BC               	movwf	___flge@ff1+2
 10617     053D  1683               	bsf	3,5	;RP0=1, select bank1
 10618     053E  1303               	bcf	3,6	;RP1=0, select bank1
 10619     053F  083B               	movf	(efgtoa@h+1)^(0+128),w
 10620     0540  1283               	bcf	3,5	;RP0=0, select bank0
 10621     0541  1303               	bcf	3,6	;RP1=0, select bank0
 10622     0542  00BB               	movwf	___flge@ff1+1
 10623     0543  1683               	bsf	3,5	;RP0=1, select bank1
 10624     0544  1303               	bcf	3,6	;RP1=0, select bank1
 10625     0545  083A               	movf	efgtoa@h^(0+128),w
 10626     0546  1283               	bcf	3,5	;RP0=0, select bank0
 10627     0547  1303               	bcf	3,6	;RP1=0, select bank0
 10628     0548  00BA               	movwf	___flge@ff1
 10629     0549  3041               	movlw	65
 10630     054A  00A3               	movwf	___flmul@b+3
 10631     054B  3020               	movlw	32
 10632     054C  00A2               	movwf	___flmul@b+2
 10633     054D  3000               	movlw	0
 10634     054E  00A1               	movwf	___flmul@b+1
 10635     054F  3000               	movlw	0
 10636     0550  00A0               	movwf	___flmul@b
 10637     0551  1683               	bsf	3,5	;RP0=1, select bank1
 10638     0552  1303               	bcf	3,6	;RP1=0, select bank1
 10639     0553  0837               	movf	(efgtoa@ou+3)^(0+128),w
 10640     0554  1283               	bcf	3,5	;RP0=0, select bank0
 10641     0555  1303               	bcf	3,6	;RP1=0, select bank0
 10642     0556  00A7               	movwf	___flmul@a+3
 10643     0557  1683               	bsf	3,5	;RP0=1, select bank1
 10644     0558  1303               	bcf	3,6	;RP1=0, select bank1
 10645     0559  0836               	movf	(efgtoa@ou+2)^(0+128),w
 10646     055A  1283               	bcf	3,5	;RP0=0, select bank0
 10647     055B  1303               	bcf	3,6	;RP1=0, select bank0
 10648     055C  00A6               	movwf	___flmul@a+2
 10649     055D  1683               	bsf	3,5	;RP0=1, select bank1
 10650     055E  1303               	bcf	3,6	;RP1=0, select bank1
 10651     055F  0835               	movf	(efgtoa@ou+1)^(0+128),w
 10652     0560  1283               	bcf	3,5	;RP0=0, select bank0
 10653     0561  1303               	bcf	3,6	;RP1=0, select bank0
 10654     0562  00A5               	movwf	___flmul@a+1
 10655     0563  1683               	bsf	3,5	;RP0=1, select bank1
 10656     0564  1303               	bcf	3,6	;RP1=0, select bank1
 10657     0565  0834               	movf	efgtoa@ou^(0+128),w
 10658     0566  1283               	bcf	3,5	;RP0=0, select bank0
 10659     0567  1303               	bcf	3,6	;RP1=0, select bank0
 10660     0568  00A4               	movwf	___flmul@a
 10661     0569  120A  158A  24BB  120A  118A  	fcall	___flmul
 10662     056E  1283               	bcf	3,5	;RP0=0, select bank0
 10663     056F  1303               	bcf	3,6	;RP1=0, select bank0
 10664     0570  0823               	movf	?___flmul+3,w
 10665     0571  00C1               	movwf	___flge@ff2+3
 10666     0572  0822               	movf	?___flmul+2,w
 10667     0573  00C0               	movwf	___flge@ff2+2
 10668     0574  0821               	movf	?___flmul+1,w
 10669     0575  00BF               	movwf	___flge@ff2+1
 10670     0576  0820               	movf	?___flmul,w
 10671     0577  00BE               	movwf	___flge@ff2
 10672     0578  120A  118A  2030  120A  118A  	fcall	___flge
 10673     057D  1C03               	btfss	3,0
 10674     057E  2D80               	goto	u484_21
 10675     057F  2D81               	goto	u484_20
 10676     0580                     u484_21:
 10677     0580  2DD4               	goto	i1l761
 10678     0581                     u484_20:
 10679     0581                     i1l3320:
 10680                           
 10681                           ;C:\Program Files\Microchip\xc8\v2.45\pic\sources\c99\common\doprnt.c: 759:   e++;
 10682     0581  3001               	movlw	1
 10683     0582  1683               	bsf	3,5	;RP0=1, select bank1
 10684     0583  1303               	bcf	3,6	;RP1=0, select bank1
 10685     0584  07B0               	addwf	efgtoa@e^(0+128),f
 10686     0585  1803               	skipnc
 10687     0586  0AB1               	incf	(efgtoa@e+1)^(0+128),f
 10688     0587  3000               	movlw	0
 10689     0588  07B1               	addwf	(efgtoa@e+1)^(0+128),f
 10690     0589                     i1l3322:
 10691                           
 10692                           ;C:\Program Files\Microchip\xc8\v2.45\pic\sources\c99\common\doprnt.c: 760:   ou.f *= 10
      +                          .0;
 10693     0589  3041               	movlw	65
 10694     058A  1283               	bcf	3,5	;RP0=0, select bank0
 10695     058B  1303               	bcf	3,6	;RP1=0, select bank0
 10696     058C  00A3               	movwf	___flmul@b+3
 10697     058D  3020               	movlw	32
 10698     058E  00A2               	movwf	___flmul@b+2
 10699     058F  3000               	movlw	0
 10700     0590  00A1               	movwf	___flmul@b+1
 10701     0591  3000               	movlw	0
 10702     0592  00A0               	movwf	___flmul@b
 10703     0593  1683               	bsf	3,5	;RP0=1, select bank1
 10704     0594  1303               	bcf	3,6	;RP1=0, select bank1
 10705     0595  0837               	movf	(efgtoa@ou+3)^(0+128),w
 10706     0596  1283               	bcf	3,5	;RP0=0, select bank0
 10707     0597  1303               	bcf	3,6	;RP1=0, select bank0
 10708     0598  00A7               	movwf	___flmul@a+3
 10709     0599  1683               	bsf	3,5	;RP0=1, select bank1
 10710     059A  1303               	bcf	3,6	;RP1=0, select bank1
 10711     059B  0836               	movf	(efgtoa@ou+2)^(0+128),w
 10712     059C  1283               	bcf	3,5	;RP0=0, select bank0
 10713     059D  1303               	bcf	3,6	;RP1=0, select bank0
 10714     059E  00A6               	movwf	___flmul@a+2
 10715     059F  1683               	bsf	3,5	;RP0=1, select bank1
 10716     05A0  1303               	bcf	3,6	;RP1=0, select bank1
 10717     05A1  0835               	movf	(efgtoa@ou+1)^(0+128),w
 10718     05A2  1283               	bcf	3,5	;RP0=0, select bank0
 10719     05A3  1303               	bcf	3,6	;RP1=0, select bank0
 10720     05A4  00A5               	movwf	___flmul@a+1
 10721     05A5  1683               	bsf	3,5	;RP0=1, select bank1
 10722     05A6  1303               	bcf	3,6	;RP1=0, select bank1
 10723     05A7  0834               	movf	efgtoa@ou^(0+128),w
 10724     05A8  1283               	bcf	3,5	;RP0=0, select bank0
 10725     05A9  1303               	bcf	3,6	;RP1=0, select bank0
 10726     05AA  00A4               	movwf	___flmul@a
 10727     05AB  120A  158A  24BB  120A  118A  	fcall	___flmul
 10728     05B0  1283               	bcf	3,5	;RP0=0, select bank0
 10729     05B1  1303               	bcf	3,6	;RP1=0, select bank0
 10730     05B2  0823               	movf	?___flmul+3,w
 10731     05B3  1683               	bsf	3,5	;RP0=1, select bank1
 10732     05B4  1303               	bcf	3,6	;RP1=0, select bank1
 10733     05B5  00B7               	movwf	(efgtoa@ou+3)^(0+128)
 10734     05B6  1283               	bcf	3,5	;RP0=0, select bank0
 10735     05B7  1303               	bcf	3,6	;RP1=0, select bank0
 10736     05B8  0822               	movf	?___flmul+2,w
 10737     05B9  1683               	bsf	3,5	;RP0=1, select bank1
 10738     05BA  1303               	bcf	3,6	;RP1=0, select bank1
 10739     05BB  00B6               	movwf	(efgtoa@ou+2)^(0+128)
 10740     05BC  1283               	bcf	3,5	;RP0=0, select bank0
 10741     05BD  1303               	bcf	3,6	;RP1=0, select bank0
 10742     05BE  0821               	movf	?___flmul+1,w
 10743     05BF  1683               	bsf	3,5	;RP0=1, select bank1
 10744     05C0  1303               	bcf	3,6	;RP1=0, select bank1
 10745     05C1  00B5               	movwf	(efgtoa@ou+1)^(0+128)
 10746     05C2  1283               	bcf	3,5	;RP0=0, select bank0
 10747     05C3  1303               	bcf	3,6	;RP1=0, select bank0
 10748     05C4  0820               	movf	?___flmul,w
 10749     05C5  1683               	bsf	3,5	;RP0=1, select bank1
 10750     05C6  1303               	bcf	3,6	;RP1=0, select bank1
 10751     05C7  00B4               	movwf	efgtoa@ou^(0+128)
 10752     05C8                     i1l3324:
 10753                           
 10754                           ;C:\Program Files\Microchip\xc8\v2.45\pic\sources\c99\common\doprnt.c: 762:   if (nmode 
      +                          == 'f') {
 10755     05C8  3066               	movlw	102
 10756     05C9  062A               	xorwf	efgtoa@nmode^(0+128),w
 10757     05CA  1D03               	btfss	3,2
 10758     05CB  2DCD               	goto	u485_21
 10759     05CC  2DCE               	goto	u485_20
 10760     05CD                     u485_21:
 10761     05CD  2DD4               	goto	i1l761
 10762     05CE                     u485_20:
 10763     05CE                     i1l3326:
 10764                           
 10765                           ;C:\Program Files\Microchip\xc8\v2.45\pic\sources\c99\common\doprnt.c: 764:    m++;
 10766     05CE  3001               	movlw	1
 10767     05CF  07AD               	addwf	efgtoa@m^(0+128),f
 10768     05D0  1803               	skipnc
 10769     05D1  0AAE               	incf	(efgtoa@m+1)^(0+128),f
 10770     05D2  3000               	movlw	0
 10771     05D3  07AE               	addwf	(efgtoa@m+1)^(0+128),f
 10772     05D4                     i1l761:	
 10773                           ;C:\Program Files\Microchip\xc8\v2.45\pic\sources\c99\common\doprnt.c: 767:  }
 10774                           
 10775                           
 10776                           ;C:\Program Files\Microchip\xc8\v2.45\pic\sources\c99\common\doprnt.c: 770:     u = ou;
 10777     05D4  1683               	bsf	3,5	;RP0=1, select bank1
 10778     05D5  1303               	bcf	3,6	;RP1=0, select bank1
 10779     05D6  0837               	movf	(efgtoa@ou+3)^(0+128),w
 10780     05D7  00CC               	movwf	(efgtoa@u+3)^(0+128)
 10781     05D8  0836               	movf	(efgtoa@ou+2)^(0+128),w
 10782     05D9  00CB               	movwf	(efgtoa@u+2)^(0+128)
 10783     05DA  0835               	movf	(efgtoa@ou+1)^(0+128),w
 10784     05DB  00CA               	movwf	(efgtoa@u+1)^(0+128)
 10785     05DC  0834               	movf	efgtoa@ou^(0+128),w
 10786     05DD  00C9               	movwf	efgtoa@u^(0+128)
 10787                           
 10788                           ;C:\Program Files\Microchip\xc8\v2.45\pic\sources\c99\common\doprnt.c: 774:  ne = e;
 10789     05DE  0831               	movf	(efgtoa@e+1)^(0+128),w
 10790     05DF  00A1               	movwf	(efgtoa@ne+1)^(0+128)
 10791     05E0  0830               	movf	efgtoa@e^(0+128),w
 10792     05E1  00A0               	movwf	efgtoa@ne^(0+128)
 10793     05E2                     i1l3328:
 10794                           
 10795                           ;C:\Program Files\Microchip\xc8\v2.45\pic\sources\c99\common\doprnt.c: 776:     pp = 0;
 10796     05E2  01A8               	clrf	efgtoa@pp^(0+128)
 10797     05E3                     i1l3330:
 10798                           
 10799                           ;C:\Program Files\Microchip\xc8\v2.45\pic\sources\c99\common\doprnt.c: 777:     t = 0;
 10800     05E3  01A4               	clrf	efgtoa@t^(0+128)
 10801     05E4  01A5               	clrf	(efgtoa@t+1)^(0+128)
 10802     05E5                     i1l3332:
 10803                           
 10804                           ;C:\Program Files\Microchip\xc8\v2.45\pic\sources\c99\common\doprnt.c: 778:     i = 0;
 10805     05E5  01B8               	clrf	efgtoa@i^(0+128)
 10806     05E6  01B9               	clrf	(efgtoa@i+1)^(0+128)
 10807                           
 10808                           ;C:\Program Files\Microchip\xc8\v2.45\pic\sources\c99\common\doprnt.c: 779:     while ((
      +                          i < m) && (n < (80 - 5))) {
 10809     05E7  2F48               	goto	i1l3376
 10810     05E8                     i1l3334:
 10811                           
 10812                           ;C:\Program Files\Microchip\xc8\v2.45\pic\sources\c99\common\doprnt.c: 780:         l = 
      +                          floorf(h/u.f);
 10813     05E8  1683               	bsf	3,5	;RP0=1, select bank1
 10814     05E9  1303               	bcf	3,6	;RP1=0, select bank1
 10815     05EA  084C               	movf	(efgtoa@u+3)^(0+128),w
 10816     05EB  00F4               	movwf	___fldiv@a+3
 10817     05EC  084B               	movf	(efgtoa@u+2)^(0+128),w
 10818     05ED  00F3               	movwf	___fldiv@a+2
 10819     05EE  084A               	movf	(efgtoa@u+1)^(0+128),w
 10820     05EF  00F2               	movwf	___fldiv@a+1
 10821     05F0  0849               	movf	efgtoa@u^(0+128),w
 10822     05F1  00F1               	movwf	___fldiv@a
 10823     05F2  083D               	movf	(efgtoa@h+3)^(0+128),w
 10824     05F3  00F8               	movwf	___fldiv@b+3
 10825     05F4  083C               	movf	(efgtoa@h+2)^(0+128),w
 10826     05F5  00F7               	movwf	___fldiv@b+2
 10827     05F6  083B               	movf	(efgtoa@h+1)^(0+128),w
 10828     05F7  00F6               	movwf	___fldiv@b+1
 10829     05F8  083A               	movf	efgtoa@h^(0+128),w
 10830     05F9  00F5               	movwf	___fldiv@b
 10831     05FA  160A  118A  262B  120A  118A  	fcall	___fldiv
 10832     05FF  0874               	movf	?___fldiv+3,w
 10833     0600  1283               	bcf	3,5	;RP0=0, select bank0
 10834     0601  1303               	bcf	3,6	;RP1=0, select bank0
 10835     0602  00B0               	movwf	floorf@x+3
 10836     0603  0873               	movf	?___fldiv+2,w
 10837     0604  00AF               	movwf	floorf@x+2
 10838     0605  0872               	movf	?___fldiv+1,w
 10839     0606  00AE               	movwf	floorf@x+1
 10840     0607  0871               	movf	?___fldiv,w
 10841     0608  00AD               	movwf	floorf@x
 10842     0609  160A  118A  23F9  120A  118A  	fcall	_floorf
 10843     060E  1283               	bcf	3,5	;RP0=0, select bank0
 10844     060F  1303               	bcf	3,6	;RP1=0, select bank0
 10845     0610  0830               	movf	?_floorf+3,w
 10846     0611  1683               	bsf	3,5	;RP0=1, select bank1
 10847     0612  1303               	bcf	3,6	;RP1=0, select bank1
 10848     0613  00C1               	movwf	(efgtoa@l+3)^(0+128)
 10849     0614  1283               	bcf	3,5	;RP0=0, select bank0
 10850     0615  1303               	bcf	3,6	;RP1=0, select bank0
 10851     0616  082F               	movf	?_floorf+2,w
 10852     0617  1683               	bsf	3,5	;RP0=1, select bank1
 10853     0618  1303               	bcf	3,6	;RP1=0, select bank1
 10854     0619  00C0               	movwf	(efgtoa@l+2)^(0+128)
 10855     061A  1283               	bcf	3,5	;RP0=0, select bank0
 10856     061B  1303               	bcf	3,6	;RP1=0, select bank0
 10857     061C  082E               	movf	?_floorf+1,w
 10858     061D  1683               	bsf	3,5	;RP0=1, select bank1
 10859     061E  1303               	bcf	3,6	;RP1=0, select bank1
 10860     061F  00BF               	movwf	(efgtoa@l+1)^(0+128)
 10861     0620  1283               	bcf	3,5	;RP0=0, select bank0
 10862     0621  1303               	bcf	3,6	;RP1=0, select bank0
 10863     0622  082D               	movf	?_floorf,w
 10864     0623  1683               	bsf	3,5	;RP0=1, select bank1
 10865     0624  1303               	bcf	3,6	;RP1=0, select bank1
 10866     0625  00BE               	movwf	efgtoa@l^(0+128)
 10867                           
 10868                           ;C:\Program Files\Microchip\xc8\v2.45\pic\sources\c99\common\doprnt.c: 781:         d = 
      +                          (int)l > 9 ? 9 : (int)l;
 10869     0626  0841               	movf	(efgtoa@l+3)^(0+128),w
 10870     0627  00F4               	movwf	___fltol@f1+3
 10871     0628  0840               	movf	(efgtoa@l+2)^(0+128),w
 10872     0629  00F3               	movwf	___fltol@f1+2
 10873     062A  083F               	movf	(efgtoa@l+1)^(0+128),w
 10874     062B  00F2               	movwf	___fltol@f1+1
 10875     062C  083E               	movf	efgtoa@l^(0+128),w
 10876     062D  00F1               	movwf	___fltol@f1
 10877     062E  160A  118A  2238  120A  118A  	fcall	___fltol
 10878     0633  0872               	movf	?___fltol+1,w
 10879     0634  3A80               	xorlw	128
 10880     0635  00FF               	movwf	btemp+1
 10881     0636  3080               	movlw	128
 10882     0637  027F               	subwf	btemp+1,w
 10883     0638  1D03               	skipz
 10884     0639  2E3C               	goto	u486_25
 10885     063A  300A               	movlw	10
 10886     063B  0271               	subwf	?___fltol,w
 10887     063C                     u486_25:
 10888     063C  1803               	skipnc
 10889     063D  2E3F               	goto	u486_21
 10890     063E  2E40               	goto	u486_20
 10891     063F                     u486_21:
 10892     063F  2E56               	goto	i1l3338
 10893     0640                     u486_20:
 10894     0640                     i1l3336:
 10895     0640  1683               	bsf	3,5	;RP0=1, select bank1
 10896     0641  1303               	bcf	3,6	;RP1=0, select bank1
 10897     0642  0841               	movf	(efgtoa@l+3)^(0+128),w
 10898     0643  00F4               	movwf	___fltol@f1+3
 10899     0644  0840               	movf	(efgtoa@l+2)^(0+128),w
 10900     0645  00F3               	movwf	___fltol@f1+2
 10901     0646  083F               	movf	(efgtoa@l+1)^(0+128),w
 10902     0647  00F2               	movwf	___fltol@f1+1
 10903     0648  083E               	movf	efgtoa@l^(0+128),w
 10904     0649  00F1               	movwf	___fltol@f1
 10905     064A  160A  118A  2238  120A  118A  	fcall	___fltol
 10906     064F  0872               	movf	?___fltol+1,w
 10907     0650  1683               	bsf	3,5	;RP0=1, select bank1
 10908     0651  1303               	bcf	3,6	;RP1=0, select bank1
 10909     0652  00AC               	movwf	(efgtoa@d+1)^(0+128)
 10910     0653  0871               	movf	?___fltol,w
 10911     0654  00AB               	movwf	efgtoa@d^(0+128)
 10912     0655  2E5C               	goto	i1l3340
 10913     0656                     i1l3338:
 10914     0656  3009               	movlw	9
 10915     0657  1683               	bsf	3,5	;RP0=1, select bank1
 10916     0658  1303               	bcf	3,6	;RP1=0, select bank1
 10917     0659  00AB               	movwf	efgtoa@d^(0+128)
 10918     065A  3000               	movlw	0
 10919     065B  00AC               	movwf	(efgtoa@d^(0+128)+1)
 10920     065C                     i1l3340:
 10921                           
 10922                           ;C:\Program Files\Microchip\xc8\v2.45\pic\sources\c99\common\doprnt.c: 792:   {;C:\Progr
      +                          am Files\Microchip\xc8\v2.45\pic\sources\c99\common\doprnt.c: 793:             if (!pp &
      +                          & (ne < 0)) {
 10923     065C  0828               	movf	efgtoa@pp^(0+128),w
 10924     065D  1D03               	btfss	3,2
 10925     065E  2E60               	goto	u487_21
 10926     065F  2E61               	goto	u487_20
 10927     0660                     u487_21:
 10928     0660  2E92               	goto	i1l3360
 10929     0661                     u487_20:
 10930     0661                     i1l3342:
 10931     0661  1FA1               	btfss	(efgtoa@ne+1)^(0+128),7
 10932     0662  2E64               	goto	u488_21
 10933     0663  2E65               	goto	u488_20
 10934     0664                     u488_21:
 10935     0664  2E92               	goto	i1l3360
 10936     0665                     u488_20:
 10937     0665                     i1l3344:
 10938                           
 10939                           ;C:\Program Files\Microchip\xc8\v2.45\pic\sources\c99\common\doprnt.c: 794:             
      +                              dbuf[n++] = '.';
 10940     0665  0843               	movf	efgtoa@n^(0+128),w
 10941     0666  3E90               	addlw	(low (_dbuf| (0+256)))& (0+255)
 10942     0667  0084               	movwf	4
 10943     0668  302E               	movlw	46
 10944     0669  1783               	bsf	3,7	;select IRP bank3
 10945     066A  0080               	movwf	0
 10946     066B                     i1l3346:
 10947     066B  3001               	movlw	1
 10948     066C  07C3               	addwf	efgtoa@n^(0+128),f
 10949     066D  1803               	skipnc
 10950     066E  0AC4               	incf	(efgtoa@n+1)^(0+128),f
 10951     066F  3000               	movlw	0
 10952     0670  07C4               	addwf	(efgtoa@n+1)^(0+128),f
 10953     0671                     i1l3348:
 10954                           
 10955                           ;C:\Program Files\Microchip\xc8\v2.45\pic\sources\c99\common\doprnt.c: 795:             
      +                              --w;
 10956     0671  30FF               	movlw	255
 10957     0672  07B2               	addwf	efgtoa@w^(0+128),f
 10958     0673  1803               	skipnc
 10959     0674  0AB3               	incf	(efgtoa@w+1)^(0+128),f
 10960     0675  30FF               	movlw	255
 10961     0676  07B3               	addwf	(efgtoa@w+1)^(0+128),f
 10962     0677                     i1l3350:
 10963                           
 10964                           ;C:\Program Files\Microchip\xc8\v2.45\pic\sources\c99\common\doprnt.c: 796:             
      +                              pp = 1;
 10965     0677  01A8               	clrf	efgtoa@pp^(0+128)
 10966     0678  0AA8               	incf	efgtoa@pp^(0+128),f
 10967     0679  2E92               	goto	i1l3360
 10968     067A                     i1l3352:
 10969                           
 10970                           ;C:\Program Files\Microchip\xc8\v2.45\pic\sources\c99\common\doprnt.c: 799:             
      +                              dbuf[n++] = '0';
 10971     067A  0843               	movf	efgtoa@n^(0+128),w
 10972     067B  3E90               	addlw	(low (_dbuf| (0+256)))& (0+255)
 10973     067C  0084               	movwf	4
 10974     067D  3030               	movlw	48
 10975     067E  1783               	bsf	3,7	;select IRP bank3
 10976     067F  0080               	movwf	0
 10977     0680                     i1l3354:
 10978     0680  3001               	movlw	1
 10979     0681  07C3               	addwf	efgtoa@n^(0+128),f
 10980     0682  1803               	skipnc
 10981     0683  0AC4               	incf	(efgtoa@n+1)^(0+128),f
 10982     0684  3000               	movlw	0
 10983     0685  07C4               	addwf	(efgtoa@n+1)^(0+128),f
 10984     0686                     i1l3356:
 10985                           
 10986                           ;C:\Program Files\Microchip\xc8\v2.45\pic\sources\c99\common\doprnt.c: 800:             
      +                              --w;
 10987     0686  30FF               	movlw	255
 10988     0687  07B2               	addwf	efgtoa@w^(0+128),f
 10989     0688  1803               	skipnc
 10990     0689  0AB3               	incf	(efgtoa@w+1)^(0+128),f
 10991     068A  30FF               	movlw	255
 10992     068B  07B3               	addwf	(efgtoa@w+1)^(0+128),f
 10993     068C                     i1l3358:
 10994                           
 10995                           ;C:\Program Files\Microchip\xc8\v2.45\pic\sources\c99\common\doprnt.c: 801:             
      +                              --t;
 10996     068C  30FF               	movlw	255
 10997     068D  07A4               	addwf	efgtoa@t^(0+128),f
 10998     068E  1803               	skipnc
 10999     068F  0AA5               	incf	(efgtoa@t+1)^(0+128),f
 11000     0690  30FF               	movlw	255
 11001     0691  07A5               	addwf	(efgtoa@t+1)^(0+128),f
 11002     0692                     i1l3360:
 11003                           
 11004                           ;C:\Program Files\Microchip\xc8\v2.45\pic\sources\c99\common\doprnt.c: 798:             
      +                          while (t) {
 11005     0692  0824               	movf	efgtoa@t^(0+128),w
 11006     0693  0425               	iorwf	(efgtoa@t+1)^(0+128),w
 11007     0694  1D03               	btfss	3,2
 11008     0695  2E97               	goto	u489_21
 11009     0696  2E98               	goto	u489_20
 11010     0697                     u489_21:
 11011     0697  2E7A               	goto	i1l3352
 11012     0698                     u489_20:
 11013     0698                     i1l3362:
 11014                           
 11015                           ;C:\Program Files\Microchip\xc8\v2.45\pic\sources\c99\common\doprnt.c: 803:             
      +                          dbuf[n++] = (char)((int)'0' + d);
 11016     0698  0843               	movf	efgtoa@n^(0+128),w
 11017     0699  3E90               	addlw	(low (_dbuf| (0+256)))& (0+255)
 11018     069A  0084               	movwf	4
 11019     069B  082B               	movf	efgtoa@d^(0+128),w
 11020     069C  3E30               	addlw	48
 11021     069D  1783               	bsf	3,7	;select IRP bank3
 11022     069E  0080               	movwf	0
 11023     069F                     i1l3364:
 11024     069F  3001               	movlw	1
 11025     06A0  07C3               	addwf	efgtoa@n^(0+128),f
 11026     06A1  1803               	skipnc
 11027     06A2  0AC4               	incf	(efgtoa@n+1)^(0+128),f
 11028     06A3  3000               	movlw	0
 11029     06A4  07C4               	addwf	(efgtoa@n+1)^(0+128),f
 11030     06A5                     i1l3366:
 11031                           
 11032                           ;C:\Program Files\Microchip\xc8\v2.45\pic\sources\c99\common\doprnt.c: 804:             
      +                          --w;
 11033     06A5  30FF               	movlw	255
 11034     06A6  07B2               	addwf	efgtoa@w^(0+128),f
 11035     06A7  1803               	skipnc
 11036     06A8  0AB3               	incf	(efgtoa@w+1)^(0+128),f
 11037     06A9  30FF               	movlw	255
 11038     06AA  07B3               	addwf	(efgtoa@w+1)^(0+128),f
 11039     06AB                     i1l3368:
 11040                           
 11041                           ;C:\Program Files\Microchip\xc8\v2.45\pic\sources\c99\common\doprnt.c: 805:         };C:
      +                          \Program Files\Microchip\xc8\v2.45\pic\sources\c99\common\doprnt.c: 806:         h -= l*
      +                          u.f;
 11042     06AB  084C               	movf	(efgtoa@u+3)^(0+128),w
 11043     06AC  1283               	bcf	3,5	;RP0=0, select bank0
 11044     06AD  1303               	bcf	3,6	;RP1=0, select bank0
 11045     06AE  00A7               	movwf	___flmul@a+3
 11046     06AF  1683               	bsf	3,5	;RP0=1, select bank1
 11047     06B0  1303               	bcf	3,6	;RP1=0, select bank1
 11048     06B1  084B               	movf	(efgtoa@u+2)^(0+128),w
 11049     06B2  1283               	bcf	3,5	;RP0=0, select bank0
 11050     06B3  1303               	bcf	3,6	;RP1=0, select bank0
 11051     06B4  00A6               	movwf	___flmul@a+2
 11052     06B5  1683               	bsf	3,5	;RP0=1, select bank1
 11053     06B6  1303               	bcf	3,6	;RP1=0, select bank1
 11054     06B7  084A               	movf	(efgtoa@u+1)^(0+128),w
 11055     06B8  1283               	bcf	3,5	;RP0=0, select bank0
 11056     06B9  1303               	bcf	3,6	;RP1=0, select bank0
 11057     06BA  00A5               	movwf	___flmul@a+1
 11058     06BB  1683               	bsf	3,5	;RP0=1, select bank1
 11059     06BC  1303               	bcf	3,6	;RP1=0, select bank1
 11060     06BD  0849               	movf	efgtoa@u^(0+128),w
 11061     06BE  1283               	bcf	3,5	;RP0=0, select bank0
 11062     06BF  1303               	bcf	3,6	;RP1=0, select bank0
 11063     06C0  00A4               	movwf	___flmul@a
 11064     06C1  1683               	bsf	3,5	;RP0=1, select bank1
 11065     06C2  1303               	bcf	3,6	;RP1=0, select bank1
 11066     06C3  0841               	movf	(efgtoa@l+3)^(0+128),w
 11067     06C4  1283               	bcf	3,5	;RP0=0, select bank0
 11068     06C5  1303               	bcf	3,6	;RP1=0, select bank0
 11069     06C6  00A3               	movwf	___flmul@b+3
 11070     06C7  1683               	bsf	3,5	;RP0=1, select bank1
 11071     06C8  1303               	bcf	3,6	;RP1=0, select bank1
 11072     06C9  0840               	movf	(efgtoa@l+2)^(0+128),w
 11073     06CA  1283               	bcf	3,5	;RP0=0, select bank0
 11074     06CB  1303               	bcf	3,6	;RP1=0, select bank0
 11075     06CC  00A2               	movwf	___flmul@b+2
 11076     06CD  1683               	bsf	3,5	;RP0=1, select bank1
 11077     06CE  1303               	bcf	3,6	;RP1=0, select bank1
 11078     06CF  083F               	movf	(efgtoa@l+1)^(0+128),w
 11079     06D0  1283               	bcf	3,5	;RP0=0, select bank0
 11080     06D1  1303               	bcf	3,6	;RP1=0, select bank0
 11081     06D2  00A1               	movwf	___flmul@b+1
 11082     06D3  1683               	bsf	3,5	;RP0=1, select bank1
 11083     06D4  1303               	bcf	3,6	;RP1=0, select bank1
 11084     06D5  083E               	movf	efgtoa@l^(0+128),w
 11085     06D6  1283               	bcf	3,5	;RP0=0, select bank0
 11086     06D7  1303               	bcf	3,6	;RP1=0, select bank0
 11087     06D8  00A0               	movwf	___flmul@b
 11088     06D9  120A  158A  24BB  120A  118A  	fcall	___flmul
 11089     06DE  1283               	bcf	3,5	;RP0=0, select bank0
 11090     06DF  1303               	bcf	3,6	;RP1=0, select bank0
 11091     06E0  0823               	movf	?___flmul+3,w
 11092     06E1  00BD               	movwf	___flsub@a+3
 11093     06E2  0822               	movf	?___flmul+2,w
 11094     06E3  00BC               	movwf	___flsub@a+2
 11095     06E4  0821               	movf	?___flmul+1,w
 11096     06E5  00BB               	movwf	___flsub@a+1
 11097     06E6  0820               	movf	?___flmul,w
 11098     06E7  00BA               	movwf	___flsub@a
 11099     06E8  1683               	bsf	3,5	;RP0=1, select bank1
 11100     06E9  1303               	bcf	3,6	;RP1=0, select bank1
 11101     06EA  083D               	movf	(efgtoa@h+3)^(0+128),w
 11102     06EB  1283               	bcf	3,5	;RP0=0, select bank0
 11103     06EC  1303               	bcf	3,6	;RP1=0, select bank0
 11104     06ED  00C1               	movwf	___flsub@b+3
 11105     06EE  1683               	bsf	3,5	;RP0=1, select bank1
 11106     06EF  1303               	bcf	3,6	;RP1=0, select bank1
 11107     06F0  083C               	movf	(efgtoa@h+2)^(0+128),w
 11108     06F1  1283               	bcf	3,5	;RP0=0, select bank0
 11109     06F2  1303               	bcf	3,6	;RP1=0, select bank0
 11110     06F3  00C0               	movwf	___flsub@b+2
 11111     06F4  1683               	bsf	3,5	;RP0=1, select bank1
 11112     06F5  1303               	bcf	3,6	;RP1=0, select bank1
 11113     06F6  083B               	movf	(efgtoa@h+1)^(0+128),w
 11114     06F7  1283               	bcf	3,5	;RP0=0, select bank0
 11115     06F8  1303               	bcf	3,6	;RP1=0, select bank0
 11116     06F9  00BF               	movwf	___flsub@b+1
 11117     06FA  1683               	bsf	3,5	;RP0=1, select bank1
 11118     06FB  1303               	bcf	3,6	;RP1=0, select bank1
 11119     06FC  083A               	movf	efgtoa@h^(0+128),w
 11120     06FD  1283               	bcf	3,5	;RP0=0, select bank0
 11121     06FE  1303               	bcf	3,6	;RP1=0, select bank0
 11122     06FF  00BE               	movwf	___flsub@b
 11123     0700  160A  158A  2594  120A  118A  	fcall	___flsub
 11124     0705  1283               	bcf	3,5	;RP0=0, select bank0
 11125     0706  1303               	bcf	3,6	;RP1=0, select bank0
 11126     0707  083D               	movf	?___flsub+3,w
 11127     0708  1683               	bsf	3,5	;RP0=1, select bank1
 11128     0709  1303               	bcf	3,6	;RP1=0, select bank1
 11129     070A  00BD               	movwf	(efgtoa@h+3)^(0+128)
 11130     070B  1283               	bcf	3,5	;RP0=0, select bank0
 11131     070C  1303               	bcf	3,6	;RP1=0, select bank0
 11132     070D  083C               	movf	?___flsub+2,w
 11133     070E  1683               	bsf	3,5	;RP0=1, select bank1
 11134     070F  1303               	bcf	3,6	;RP1=0, select bank1
 11135     0710  00BC               	movwf	(efgtoa@h+2)^(0+128)
 11136     0711  1283               	bcf	3,5	;RP0=0, select bank0
 11137     0712  1303               	bcf	3,6	;RP1=0, select bank0
 11138     0713  083B               	movf	?___flsub+1,w
 11139     0714  1683               	bsf	3,5	;RP0=1, select bank1
 11140     0715  1303               	bcf	3,6	;RP1=0, select bank1
 11141     0716  00BB               	movwf	(efgtoa@h+1)^(0+128)
 11142     0717  1283               	bcf	3,5	;RP0=0, select bank0
 11143     0718  1303               	bcf	3,6	;RP1=0, select bank0
 11144     0719  083A               	movf	?___flsub,w
 11145     071A  1683               	bsf	3,5	;RP0=1, select bank1
 11146     071B  1303               	bcf	3,6	;RP1=0, select bank1
 11147     071C  00BA               	movwf	efgtoa@h^(0+128)
 11148     071D                     i1l3370:
 11149                           
 11150                           ;C:\Program Files\Microchip\xc8\v2.45\pic\sources\c99\common\doprnt.c: 807:         u.f 
      +                          = u.f/10.0;
 11151     071D  3041               	movlw	65
 11152     071E  00F4               	movwf	___fldiv@a+3
 11153     071F  3020               	movlw	32
 11154     0720  00F3               	movwf	___fldiv@a+2
 11155     0721  3000               	movlw	0
 11156     0722  00F2               	movwf	___fldiv@a+1
 11157     0723  3000               	movlw	0
 11158     0724  00F1               	movwf	___fldiv@a
 11159     0725  084C               	movf	(efgtoa@u+3)^(0+128),w
 11160     0726  00F8               	movwf	___fldiv@b+3
 11161     0727  084B               	movf	(efgtoa@u+2)^(0+128),w
 11162     0728  00F7               	movwf	___fldiv@b+2
 11163     0729  084A               	movf	(efgtoa@u+1)^(0+128),w
 11164     072A  00F6               	movwf	___fldiv@b+1
 11165     072B  0849               	movf	efgtoa@u^(0+128),w
 11166     072C  00F5               	movwf	___fldiv@b
 11167     072D  160A  118A  262B  120A  118A  	fcall	___fldiv
 11168     0732  0874               	movf	?___fldiv+3,w
 11169     0733  1683               	bsf	3,5	;RP0=1, select bank1
 11170     0734  1303               	bcf	3,6	;RP1=0, select bank1
 11171     0735  00CC               	movwf	(efgtoa@u+3)^(0+128)
 11172     0736  0873               	movf	?___fldiv+2,w
 11173     0737  00CB               	movwf	(efgtoa@u+2)^(0+128)
 11174     0738  0872               	movf	?___fldiv+1,w
 11175     0739  00CA               	movwf	(efgtoa@u+1)^(0+128)
 11176     073A  0871               	movf	?___fldiv,w
 11177     073B  00C9               	movwf	efgtoa@u^(0+128)
 11178     073C                     i1l3372:
 11179                           
 11180                           ;C:\Program Files\Microchip\xc8\v2.45\pic\sources\c99\common\doprnt.c: 808:         --ne
      +                          ;
 11181     073C  30FF               	movlw	255
 11182     073D  07A0               	addwf	efgtoa@ne^(0+128),f
 11183     073E  1803               	skipnc
 11184     073F  0AA1               	incf	(efgtoa@ne+1)^(0+128),f
 11185     0740  30FF               	movlw	255
 11186     0741  07A1               	addwf	(efgtoa@ne+1)^(0+128),f
 11187     0742                     i1l3374:
 11188                           
 11189                           ;C:\Program Files\Microchip\xc8\v2.45\pic\sources\c99\common\doprnt.c: 809:         ++i;
 11190     0742  3001               	movlw	1
 11191     0743  07B8               	addwf	efgtoa@i^(0+128),f
 11192     0744  1803               	skipnc
 11193     0745  0AB9               	incf	(efgtoa@i+1)^(0+128),f
 11194     0746  3000               	movlw	0
 11195     0747  07B9               	addwf	(efgtoa@i+1)^(0+128),f
 11196     0748                     i1l3376:
 11197                           
 11198                           ;C:\Program Files\Microchip\xc8\v2.45\pic\sources\c99\common\doprnt.c: 779:     while ((
      +                          i < m) && (n < (80 - 5))) {
 11199     0748  0839               	movf	(efgtoa@i+1)^(0+128),w
 11200     0749  3A80               	xorlw	128
 11201     074A  1283               	bcf	3,5	;RP0=0, select bank0
 11202     074B  1303               	bcf	3,6	;RP1=0, select bank0
 11203     074C  00C7               	movwf	??_efgtoa
 11204     074D  1683               	bsf	3,5	;RP0=1, select bank1
 11205     074E  1303               	bcf	3,6	;RP1=0, select bank1
 11206     074F  082E               	movf	(efgtoa@m+1)^(0+128),w
 11207     0750  3A80               	xorlw	128
 11208     0751  1283               	bcf	3,5	;RP0=0, select bank0
 11209     0752  1303               	bcf	3,6	;RP1=0, select bank0
 11210     0753  0247               	subwf	??_efgtoa,w
 11211     0754  1D03               	skipz
 11212     0755  2F5A               	goto	u490_25
 11213     0756  1683               	bsf	3,5	;RP0=1, select bank1
 11214     0757  1303               	bcf	3,6	;RP1=0, select bank1
 11215     0758  082D               	movf	efgtoa@m^(0+128),w
 11216     0759  0238               	subwf	efgtoa@i^(0+128),w
 11217     075A                     u490_25:
 11218     075A  1803               	skipnc
 11219     075B  2F5D               	goto	u490_21
 11220     075C  2F5E               	goto	u490_20
 11221     075D                     u490_21:
 11222     075D  2F6D               	goto	i1l3380
 11223     075E                     u490_20:
 11224     075E                     i1l3378:
 11225     075E  1683               	bsf	3,5	;RP0=1, select bank1
 11226     075F  1303               	bcf	3,6	;RP1=0, select bank1
 11227     0760  0844               	movf	(efgtoa@n+1)^(0+128),w
 11228     0761  3A80               	xorlw	128
 11229     0762  00FF               	movwf	btemp+1
 11230     0763  3080               	movlw	128
 11231     0764  027F               	subwf	btemp+1,w
 11232     0765  1D03               	skipz
 11233     0766  2F69               	goto	u491_25
 11234     0767  304B               	movlw	75
 11235     0768  0243               	subwf	efgtoa@n^(0+128),w
 11236     0769                     u491_25:
 11237     0769  1C03               	skipc
 11238     076A  2F6C               	goto	u491_21
 11239     076B  2F6D               	goto	u491_20
 11240     076C                     u491_21:
 11241     076C  2DE8               	goto	i1l3334
 11242     076D                     u491_20:
 11243     076D                     i1l3380:
 11244                           
 11245                           ;C:\Program Files\Microchip\xc8\v2.45\pic\sources\c99\common\doprnt.c: 816:  i = sizeof(
      +                          dbuf) - 1;
 11246     076D  304F               	movlw	79
 11247     076E  1683               	bsf	3,5	;RP0=1, select bank1
 11248     076F  1303               	bcf	3,6	;RP1=0, select bank1
 11249     0770  00B8               	movwf	efgtoa@i^(0+128)
 11250     0771  3000               	movlw	0
 11251     0772  00B9               	movwf	(efgtoa@i^(0+128)+1)
 11252     0773                     i1l3382:
 11253                           
 11254                           ;C:\Program Files\Microchip\xc8\v2.45\pic\sources\c99\common\doprnt.c: 817:     dbuf[i] 
      +                          = '\0';
 11255     0773  0838               	movf	efgtoa@i^(0+128),w
 11256     0774  3E90               	addlw	(low (_dbuf| (0+256)))& (0+255)
 11257     0775  0084               	movwf	4
 11258     0776  1783               	bsf	3,7	;select IRP bank3
 11259     0777  0180               	clrf	0
 11260     0778                     i1l3384:
 11261                           
 11262                           ;C:\Program Files\Microchip\xc8\v2.45\pic\sources\c99\common\doprnt.c: 848:  memcpy(&dbu
      +                          f[i-n], &dbuf[0], (size_t)n);
 11263     0778  3090               	movlw	(low (_dbuf| (0+256)))& (0+255)
 11264     0779  00F1               	movwf	memcpy@s1
 11265     077A  0844               	movf	(efgtoa@n+1)^(0+128),w
 11266     077B  00F3               	movwf	memcpy@n+1
 11267     077C  0843               	movf	efgtoa@n^(0+128),w
 11268     077D  00F2               	movwf	memcpy@n
 11269     077E  3090               	movlw	(low (_dbuf| (0+256)))& (0+255)
 11270     077F  1283               	bcf	3,5	;RP0=0, select bank0
 11271     0780  1303               	bcf	3,6	;RP1=0, select bank0
 11272     0781  00C7               	movwf	??_efgtoa
 11273     0782  1683               	bsf	3,5	;RP0=1, select bank1
 11274     0783  1303               	bcf	3,6	;RP1=0, select bank1
 11275     0784  0843               	movf	efgtoa@n^(0+128),w
 11276     0785  1283               	bcf	3,5	;RP0=0, select bank0
 11277     0786  1303               	bcf	3,6	;RP1=0, select bank0
 11278     0787  02C7               	subwf	??_efgtoa,f
 11279     0788  1683               	bsf	3,5	;RP0=1, select bank1
 11280     0789  1303               	bcf	3,6	;RP1=0, select bank1
 11281     078A  0838               	movf	efgtoa@i^(0+128),w
 11282     078B  1283               	bcf	3,5	;RP0=0, select bank0
 11283     078C  1303               	bcf	3,6	;RP1=0, select bank0
 11284     078D  0747               	addwf	??_efgtoa,w
 11285     078E  160A  158A  25DD  120A  118A  	fcall	_memcpy
 11286     0793                     i1l3386:
 11287                           
 11288                           ;C:\Program Files\Microchip\xc8\v2.45\pic\sources\c99\common\doprnt.c: 849:  n = i-n;
 11289     0793  1683               	bsf	3,5	;RP0=1, select bank1
 11290     0794  1303               	bcf	3,6	;RP1=0, select bank1
 11291     0795  0843               	movf	efgtoa@n^(0+128),w
 11292     0796  0238               	subwf	efgtoa@i^(0+128),w
 11293     0797  00C3               	movwf	efgtoa@n^(0+128)
 11294     0798  0844               	movf	(efgtoa@n+1)^(0+128),w
 11295     0799  1C03               	skipc
 11296     079A  0A44               	incf	(efgtoa@n+1)^(0+128),w
 11297     079B  0239               	subwf	(efgtoa@i+1)^(0+128),w
 11298     079C  00C4               	movwf	(efgtoa@n+1)^(0+128)
 11299     079D                     i1l3388:
 11300                           
 11301                           ;C:\Program Files\Microchip\xc8\v2.45\pic\sources\c99\common\doprnt.c: 850:  i = sign ==
      +                           0 ? 0 : 1;
 11302     079D  0842               	movf	efgtoa@sign^(0+128),w
 11303     079E  1D03               	btfss	3,2
 11304     079F  2FA1               	goto	u492_21
 11305     07A0  2FA3               	goto	u492_20
 11306     07A1                     u492_21:
 11307     07A1  3001               	movlw	1
 11308     07A2  2FA4               	goto	u493_20
 11309     07A3                     u492_20:
 11310     07A3  3000               	movlw	0
 11311     07A4                     u493_20:
 11312     07A4  1283               	bcf	3,5	;RP0=0, select bank0
 11313     07A5  1303               	bcf	3,6	;RP1=0, select bank0
 11314     07A6  00C7               	movwf	??_efgtoa
 11315     07A7  01C8               	clrf	??_efgtoa+1
 11316     07A8  0847               	movf	??_efgtoa,w
 11317     07A9  1683               	bsf	3,5	;RP0=1, select bank1
 11318     07AA  1303               	bcf	3,6	;RP1=0, select bank1
 11319     07AB  00B8               	movwf	efgtoa@i^(0+128)
 11320     07AC  1283               	bcf	3,5	;RP0=0, select bank0
 11321     07AD  1303               	bcf	3,6	;RP1=0, select bank0
 11322     07AE  0848               	movf	??_efgtoa+1,w
 11323     07AF  1683               	bsf	3,5	;RP0=1, select bank1
 11324     07B0  1303               	bcf	3,6	;RP1=0, select bank1
 11325     07B1  00B9               	movwf	(efgtoa@i+1)^(0+128)
 11326     07B2                     i1l3390:
 11327                           
 11328                           ;C:\Program Files\Microchip\xc8\v2.45\pic\sources\c99\common\doprnt.c: 861:  if (sign) {
 11329     07B2  0842               	movf	efgtoa@sign^(0+128),w
 11330     07B3  1903               	btfsc	3,2
 11331     07B4  2FB6               	goto	u494_21
 11332     07B5  2FB7               	goto	u494_20
 11333     07B6                     u494_21:
 11334     07B6  2FC3               	goto	i1l3394
 11335     07B7                     u494_20:
 11336     07B7                     i1l3392:
 11337                           
 11338                           ;C:\Program Files\Microchip\xc8\v2.45\pic\sources\c99\common\doprnt.c: 862:   dbuf[--n] 
      +                          = sign;
 11339     07B7  30FF               	movlw	255
 11340     07B8  07C3               	addwf	efgtoa@n^(0+128),f
 11341     07B9  1803               	skipnc
 11342     07BA  0AC4               	incf	(efgtoa@n+1)^(0+128),f
 11343     07BB  30FF               	movlw	255
 11344     07BC  07C4               	addwf	(efgtoa@n+1)^(0+128),f
 11345     07BD  0843               	movf	efgtoa@n^(0+128),w
 11346     07BE  3E90               	addlw	(low (_dbuf| (0+256)))& (0+255)
 11347     07BF  0084               	movwf	4
 11348     07C0  0842               	movf	efgtoa@sign^(0+128),w
 11349     07C1  1783               	bsf	3,7	;select IRP bank3
 11350     07C2  0080               	movwf	0
 11351     07C3                     i1l3394:
 11352                           
 11353                           ;C:\Program Files\Microchip\xc8\v2.45\pic\sources\c99\common\doprnt.c: 864:  w -= i;
 11354     07C3  0838               	movf	efgtoa@i^(0+128),w
 11355     07C4  02B2               	subwf	efgtoa@w^(0+128),f
 11356     07C5  0839               	movf	(efgtoa@i+1)^(0+128),w
 11357     07C6  1C03               	skipc
 11358     07C7  03B3               	decf	(efgtoa@w+1)^(0+128),f
 11359     07C8  02B3               	subwf	(efgtoa@w+1)^(0+128),f
 11360     07C9                     i1l3396:
 11361                           
 11362                           ;C:\Program Files\Microchip\xc8\v2.45\pic\sources\c99\common\doprnt.c: 867:     return (
      +                          void) pad(fp, &dbuf[n], w);
 11363     07C9  0843               	movf	efgtoa@n^(0+128),w
 11364     07CA  3E90               	addlw	(low (_dbuf| (0+256)))& (0+255)
 11365     07CB  1283               	bcf	3,5	;RP0=0, select bank0
 11366     07CC  1303               	bcf	3,6	;RP1=0, select bank0
 11367     07CD  00A4               	movwf	pad@buf
 11368     07CE  1683               	bsf	3,5	;RP0=1, select bank1
 11369     07CF  1303               	bcf	3,6	;RP1=0, select bank1
 11370     07D0  0833               	movf	(efgtoa@w+1)^(0+128),w
 11371     07D1  1283               	bcf	3,5	;RP0=0, select bank0
 11372     07D2  1303               	bcf	3,6	;RP1=0, select bank0
 11373     07D3  00A6               	movwf	pad@p+1
 11374     07D4  1683               	bsf	3,5	;RP0=1, select bank1
 11375     07D5  1303               	bcf	3,6	;RP1=0, select bank1
 11376     07D6  0832               	movf	efgtoa@w^(0+128),w
 11377     07D7  1283               	bcf	3,5	;RP0=0, select bank0
 11378     07D8  1303               	bcf	3,6	;RP1=0, select bank0
 11379     07D9  00A5               	movwf	pad@p
 11380     07DA  1683               	bsf	3,5	;RP0=1, select bank1
 11381     07DB  1303               	bcf	3,6	;RP1=0, select bank1
 11382     07DC  082F               	movf	efgtoa@fp^(0+128),w
 11383     07DD  160A  158A  268A  120A  118A  	fcall	_pad
 11384     07E2                     i1l735:
 11385     07E2  0008               	return
 11386     07E3                     __end_of_efgtoa:

Data Sizes:
    Strings     57
    Constant    0
    Data        0
    BSS         97
    Persistent  0
    Stack       0

Auto Spaces:
    Space          Size  Autos    Used
    COMMON           13     13      13
    BANK0            80     62      74
    BANK1            80     57      62
    BANK3            85      0      80
    BANK2            96      0       0

Pointer List with Targets:

    dtoa@fp	PTR struct _IO_FILE size(1) Largest target is 0
		 -> NULL(NULL[0]), 

    efgtoa@fp	PTR struct _IO_FILE size(1) Largest target is 0
		 -> NULL(NULL[0]), 

    fputc@fp	PTR struct _IO_FILE size(1) Largest target is 0
		 -> NULL(NULL[0]), 

    fputc@fp$.$buffer	PTR unsigned char  size(1) Largest target is 0

    fputc@fp$.$source	PTR const unsigned char  size(1) Largest target is 0

    fputs@fp	PTR struct _IO_FILE size(1) Largest target is 0
		 -> NULL(NULL[0]), 

    fputs@s	PTR const unsigned char  size(1) Largest target is 80
		 -> dbuf(BANK3[80]), 

    memcpy@d	PTR unsigned char  size(1) Largest target is 80
		 -> dbuf(BANK3[80]), 

    memcpy@d1	PTR void  size(1) Largest target is 80
		 -> dbuf(BANK3[80]), 

    memcpy@s	PTR const unsigned char  size(1) Largest target is 80
		 -> dbuf(BANK3[80]), 

    memcpy@s1	PTR const void  size(1) Largest target is 80
		 -> dbuf(BANK3[80]), 

    pad@buf	PTR unsigned char  size(1) Largest target is 80
		 -> dbuf(BANK3[80]), 

    pad@fp	PTR struct _IO_FILE size(1) Largest target is 0
		 -> NULL(NULL[0]), 

    printf@ap	PTR void [1] size(1) Largest target is 2
		 -> ?_printf(BANK1[2]), 

    printf@fmt	PTR const unsigned char  size(1) Largest target is 20
		 -> STR_2(CODE[18]), STR_3(CODE[20]), 

    read_prec_or_width@ap	PTR PTR void [1] size(1) Largest target is 1
		 -> printf@ap(BANK0[1]), 

    read_prec_or_width@fmt	PTR PTR const unsigned char  size(1) Largest target is 1
		 -> vfprintf@cfmt(BANK0[1]), 

    S876$buffer	PTR unsigned char  size(1) Largest target is 0

    S876$source	PTR const unsigned char  size(1) Largest target is 0

    send_uint16t_to_uart@name	PTR unsigned char  size(1) Largest target is 4
		 -> STR_1(CODE[4]), 

    sp__memcpy	PTR void  size(1) Largest target is 80
		 -> dbuf(BANK3[80]), 

    sp__strcpy	PTR unsigned char  size(1) Largest target is 80
		 -> dbuf(BANK3[80]), 

    stoa@cp	PTR unsigned char  size(2) Largest target is 7
		 -> ?_printf(BANK1[2]), STR_1(CODE[4]), STR_10(CODE[7]), 

    stoa@fp	PTR struct _IO_FILE size(1) Largest target is 0
		 -> NULL(NULL[0]), 

    stoa@s	PTR unsigned char  size(2) Largest target is 4
		 -> ?_printf(BANK1[2]), STR_1(CODE[4]), 

    strcpy@d	PTR unsigned char  size(1) Largest target is 80
		 -> dbuf(BANK3[80]), 

    strcpy@dest	PTR unsigned char  size(1) Largest target is 80
		 -> dbuf(BANK3[80]), 

    strcpy@src	PTR const unsigned char  size(1) Largest target is 4
		 -> STR_4(CODE[4]), STR_7(CODE[4]), 

    vfpfcnvrt@ap	PTR PTR void  size(1) Largest target is 1
		 -> printf@ap(BANK0[1]), 

    vfpfcnvrt@cp	PTR unsigned char  size(1) Largest target is 20
		 -> STR_2(CODE[18]), STR_3(CODE[20]), 

    vfpfcnvrt@fmt	PTR PTR unsigned char  size(1) Largest target is 1
		 -> vfprintf@cfmt(BANK0[1]), 

    vfpfcnvrt@fp	PTR struct _IO_FILE size(1) Largest target is 0
		 -> NULL(NULL[0]), 

    vfprintf@ap	PTR PTR void  size(1) Largest target is 1
		 -> printf@ap(BANK0[1]), 

    vfprintf@cfmt	PTR unsigned char  size(1) Largest target is 20
		 -> STR_2(CODE[18]), STR_3(CODE[20]), 

    vfprintf@fmt	PTR const unsigned char  size(1) Largest target is 20
		 -> STR_2(CODE[18]), STR_3(CODE[20]), 

    vfprintf@fp	PTR struct _IO_FILE size(1) Largest target is 0
		 -> NULL(NULL[0]), 


Critical Paths under _main in COMMON

    None.

Critical Paths under _co2_interruption in COMMON

    _stoa->_fputc
    _read_prec_or_width->___wmul
    _efgtoa->___fldiv
    _efgtoa->___flge
    _efgtoa->_pad
    _floorf->___fldiv
    ___flsub->___fladd
    ___flmul->__Umul8_16
    _dtoa->_pad
    _pad->_fputs
    _fputs->_fputc
    _fputc->_putch
    _abs->___awmod
    _read_co2_environment->_i2c_read

Critical Paths under _main in BANK0

    None.

Critical Paths under _co2_interruption in BANK0

    _co2_interruption->_send_uint16t_to_uart
    _send_uint16t_to_uart->_printf
    _printf->_vfprintf
    _vfprintf->_vfpfcnvrt
    _vfpfcnvrt->_efgtoa
    _efgtoa->___flge
    _efgtoa->___flsub
    _floorf->___fldiv
    ___flsub->___flmul
    ___flge->___flmul
    _dtoa->_pad
    _pad->_fputs

Critical Paths under _main in BANK1

    None.

Critical Paths under _co2_interruption in BANK1

    _co2_interruption->_send_uint16t_to_uart
    _send_uint16t_to_uart->_printf
    _printf->_vfprintf
    _vfprintf->_vfpfcnvrt
    _vfpfcnvrt->_efgtoa

Critical Paths under _main in BANK3

    None.

Critical Paths under _co2_interruption in BANK3

    None.

Critical Paths under _main in BANK2

    None.

Critical Paths under _co2_interruption in BANK2

    None.

Call Graph Tables:

 ---------------------------------------------------------------------------------
 (Depth) Function   	        Calls       Base Space   Used Autos Params    Refs
 ---------------------------------------------------------------------------------
 (0) _main                                                 0     0      0       0
                        _config_tmr0
                        _config_uart
                         _i2c_config
 ---------------------------------------------------------------------------------
 (1) _i2c_config                                           0     0      0       0
 ---------------------------------------------------------------------------------
 (1) _config_uart                                          0     0      0       0
 ---------------------------------------------------------------------------------
 (1) _config_tmr0                                          0     0      0       0
 ---------------------------------------------------------------------------------
 Estimated maximum stack depth 1
 ---------------------------------------------------------------------------------
 (Depth) Function   	        Calls       Base Space   Used Autos Params    Refs
 ---------------------------------------------------------------------------------
 (2) _co2_interruption                                     4     4      0   27754
                                             58 BANK0      4     4      0
               _read_co2_environment
               _send_uint16t_to_uart
 ---------------------------------------------------------------------------------
 (3) _send_uint16t_to_uart                                 3     1      2   27596
                                             57 BANK0      1     1      0
                                             55 BANK1      2     0      2
                             _printf
 ---------------------------------------------------------------------------------
 (4) _printf                                              10     4      6   27443
                                             55 BANK0      2     2      0
                                             49 BANK1      6     0      6
                           _vfprintf
 ---------------------------------------------------------------------------------
 (5) _vfprintf                                             4     2      2   27315
                                             53 BANK0      2     2      0
                                             47 BANK1      2     0      2
                          _vfpfcnvrt
 ---------------------------------------------------------------------------------
 (6) _vfpfcnvrt                                           12    10      2   26971
                                             43 BANK0     10    10      0
                                             45 BANK1      2     0      2
                               _dtoa
                             _efgtoa
                              _fputc
                 _read_prec_or_width
                               _stoa
 ---------------------------------------------------------------------------------
 (7) _stoa                                                12    10      2    1193
                                              9 COMMON     2     0      2
                                              0 BANK0     10    10      0
                              _fputc
 ---------------------------------------------------------------------------------
 (7) _read_prec_or_width                                   6     4      2     533
                                              6 COMMON     6     4      2
                             ___wmul
 ---------------------------------------------------------------------------------
 (8) ___wmul                                               6     2      4     244
                                              0 COMMON     6     2      4
 ---------------------------------------------------------------------------------
 (7) _efgtoa                                              55    50      5   18878
                                             34 BANK0      9     4      5
                                              0 BANK1     45    45      0
                            ___fladd
                            ___fldiv
                             ___fleq
                             ___flge
                            ___flmul
                            ___flneg
                            ___flsub
                            ___fltol
                      ___fpclassifyf
                             _floorf
                               _labs
                             _memcpy
                                _pad
                             _strcpy
 ---------------------------------------------------------------------------------
 (9) _strcpy                                               3     2      1     291
                                              0 COMMON     3     2      1
 ---------------------------------------------------------------------------------
 (8) _memcpy                                               7     4      3     328
                                              0 COMMON     7     4      3
 ---------------------------------------------------------------------------------
 (8) _labs                                                 4     0      4     294
                                              0 COMMON     4     0      4
 ---------------------------------------------------------------------------------
 (8) _floorf                                              20    16      4     490
                                             13 BANK0     20    16      4
                            ___fldiv (ARG)
 ---------------------------------------------------------------------------------
 (8) ___fpclassifyf                                       16    12      4     287
                                              0 COMMON    10     6      4
                                              0 BANK0      6     6      0
 ---------------------------------------------------------------------------------
 (8) ___fltol                                             10     6      4     457
                                              0 COMMON    10     6      4
 ---------------------------------------------------------------------------------
 (8) ___flsub                                              8     0      8    2637
                                             26 BANK0      8     0      8
                            ___fladd
                            ___flmul (ARG)
 ---------------------------------------------------------------------------------
 (9) ___fladd                                             20    12      8    2288
                                              0 COMMON    12     4      8
                                              0 BANK0      8     8      0
 ---------------------------------------------------------------------------------
 (8) ___flneg                                              4     0      4     121
                                              0 COMMON     4     0      4
 ---------------------------------------------------------------------------------
 (8) ___flmul                                             26    18      8    3177
                                              0 BANK0     26    18      8
                          __Umul8_16
 ---------------------------------------------------------------------------------
 (9) __Umul8_16                                            9     7      2     799
                                              0 COMMON     9     7      2
 ---------------------------------------------------------------------------------
 (8) ___flge                                              12     4      8     942
                                              9 COMMON     4     4      0
                                             26 BANK0      8     0      8
                            ___flmul (ARG)
 ---------------------------------------------------------------------------------
 (8) ___fleq                                              12     4      8     394
                                              0 COMMON    12     4      8
 ---------------------------------------------------------------------------------
 (8) ___fldiv                                             26    18      8    1881
                                              0 COMMON    13     5      8
                                              0 BANK0     13    13      0
 ---------------------------------------------------------------------------------
 (7) _dtoa                                                12    10      2    4417
                                             10 BANK0     12    10      2
                            ___awdiv
                            ___awmod
                                _abs
                                _pad
 ---------------------------------------------------------------------------------
 (8) _pad                                                  7     4      3    2861
                                             12 COMMON     1     1      0
                                              4 BANK0      6     3      3
                              _fputc
                              _fputs
 ---------------------------------------------------------------------------------
 (9) _fputs                                                7     6      1    1062
                                              9 COMMON     3     2      1
                                              0 BANK0      4     4      0
                              _fputc
 ---------------------------------------------------------------------------------
 (8) _fputc                                                8     5      3     856
                                              1 COMMON     8     5      3
                              _putch
 ---------------------------------------------------------------------------------
 (9) _putch                                                1     1      0      22
                                              0 COMMON     1     1      0
 ---------------------------------------------------------------------------------
 (8) _abs                                                  4     2      2     142
                                              6 COMMON     4     2      2
                            ___awmod (ARG)
 ---------------------------------------------------------------------------------
 (8) ___awmod                                              6     2      4     448
                                              0 COMMON     6     2      4
 ---------------------------------------------------------------------------------
 (8) ___awdiv                                              8     4      4     452
                                              0 COMMON     8     4      4
 ---------------------------------------------------------------------------------
 (3) _read_co2_environment                                 9     7      2     158
                                              2 COMMON     8     6      2
                           _i2c_read
                          _i2c_start
                           _i2c_stop
                          _i2c_write
 ---------------------------------------------------------------------------------
 (4) _i2c_write                                            1     1      0      22
                                              0 COMMON     1     1      0
                          _wait_MSSP
 ---------------------------------------------------------------------------------
 (4) _i2c_stop                                             0     0      0       0
                          _wait_MSSP
 ---------------------------------------------------------------------------------
 (4) _i2c_start                                            0     0      0       0
                          _wait_MSSP
 ---------------------------------------------------------------------------------
 (4) _i2c_read                                             2     2      0      45
                                              0 COMMON     2     2      0
                          _wait_MSSP
 ---------------------------------------------------------------------------------
 (5) _wait_MSSP                                            0     0      0       0
 ---------------------------------------------------------------------------------
 Estimated maximum stack depth 9
 ---------------------------------------------------------------------------------

 Call Graph Graphs:

 _main (ROOT)
   _config_tmr0
   _config_uart
   _i2c_config

 _co2_interruption (ROOT)
   _read_co2_environment
     _i2c_read
       _wait_MSSP
     _i2c_start
       _wait_MSSP
     _i2c_stop
       _wait_MSSP
     _i2c_write
       _wait_MSSP
   _send_uint16t_to_uart
     _printf
       _vfprintf
         _vfpfcnvrt
           _dtoa
             ___awdiv
             ___awmod
             _abs
               ___awmod (ARG)
             _pad
               _fputc
                 _putch
               _fputs
                 _fputc
           _efgtoa
             ___fladd
             ___fldiv
             ___fleq
             ___flge
               ___flmul (ARG)
                 __Umul8_16
             ___flmul
             ___flneg
             ___flsub
               ___fladd
               ___flmul (ARG)
             ___fltol
             ___fpclassifyf
             _floorf
               ___fldiv (ARG)
             _labs
             _memcpy
             _pad
             _strcpy
           _fputc
           _read_prec_or_width
             ___wmul
           _stoa
             _fputc

 Address spaces:
Name               Size   Autos  Total    Cost      Usage
BITCOMMON            D      0       0       0        0.0%
EEDATA             100      0       0       0        0.0%
NULL                 0      0       0       0        0.0%
CODE                 0      0       0       0        0.0%
COMMON               D      D       D       1      100.0%
BITSFR0              0      0       0       1        0.0%
SFR0                 0      0       0       1        0.0%
BITSFR1              0      0       0       2        0.0%
SFR1                 0      0       0       2        0.0%
STACK                0      0       0       2        0.0%
ABS                  0      0      E5       3        0.0%
BITBANK0            50      0       0       4        0.0%
BITSFR3              0      0       0       4        0.0%
SFR3                 0      0       0       4        0.0%
BANK0               50     3E      4A       5       92.5%
BITSFR2              0      0       0       5        0.0%
SFR2                 0      0       0       5        0.0%
BITBANK1            50      0       0       6        0.0%
BANK1               50     39      3E       7       77.5%
BITBANK3            55      0       0       8        0.0%
BANK3               55      0      50       9       94.1%
BITBANK2            60      0       0      10        0.0%
BANK2               60      0       0      11        0.0%
DATA                 0      0      E5      12        0.0%


Microchip Technology PIC Macro Assembler V2.45 build 20230818022343 
Symbol Table                                                                                   Fri Dec 22 19:17:37 2023

                 ___fldiv@aexp 002C                   ___fldiv@bexp 002B                              pc 0002  
                 ___fldiv@sign 0024                             l21 1D24                             l22 1D24  
                           l61 1CAC                             l39 1CF1                   ___awdiv@sign 0076  
                           fsr 0004            ___wmul@multiplicand 0073            __Umul8_16@word_mpld 0077  
                          l109 1D72                            _co2 00DB                            _abs 1CF2  
                          _pad 1E8A                            fsr0 0004                            indf 0000  
                 ___awmod@sign 0076                   ___flmul@aexp 0032                   ___flmul@bexp 0033  
                 ___flmul@sign 002D                   ___flmul@temp 0038                   ___flmul@prod 0034  
                 ___fltol@exp1 007A                           ?_abs 0077                           l3610 1CF0  
                         l3604 1CE2                           l3620 1D5C                           l3612 1CA5  
                         l3606 1CE8                           l3630 1D66                           l3622 1D5E  
                         l3614 1CAB                           l3608 1CEC                           l3640 1D71  
                         l3632 1D67                           l3624 1D5F                           l3616 1D53  
                         l3634 1D6A                           l3626 1D60                           l3618 1D59  
                         l3636 1D6D                           l3628 1D63                           l3638 1D6E  
                         ?_pad 0024                           l3664 1D15                           STR_1 1045  
                         STR_2 1024                           STR_3 1010                           STR_4 103D  
                         STR_7 1041                           i1l30 1E7D                           i1l50 1EFF  
                         i1l70 1CB5                           i1l64 1C9D                           i1l73 1CBE  
                         i1l66 1CA3                           i1l82 1D89                           i1l67 1CA4  
                         i1l83 1D8C                           i1l84 1D93                           i1l79 1CE1  
                         _TMR0 0001                           _TXIF 0064                           abs@a 0077  
                         _dbuf 0190                           _labs 1D28                           _cont 00D9  
                         _main 1D15                           _dtoa 1330                           _prec 0068  
                         pad@i 0027                           pad@p 0025                           _stoa 12AE  
                         btemp 007E                  ___fpclassifyf 0802                           start 0012  
              ___fldiv@new_exp 0025                          ??_abs 0079                          ??_pad 007D  
                ___fltol@sign1 0079                          ?_labs 0071                __end_of___fladd 0CBB  
                        ?_main 0071                          ?_dtoa 002A                __end_of___fldiv 1800  
              __end_of___awdiv 1238                __end_of___flneg 1CD4                          STR_10 1036  
              __end_of___awmod 11D1                __end_of___flmul 1000                __end_of___flsub 1DB8  
              __end_of___fltol 12AE                          ?_stoa 007A                ___awdiv@divisor 0071  
                        i1l112 1D52                          i1l121 1CC0                          i1l210 1DC4  
                        i1l124 1CC8                          i1l212 1DDC                          i1l400 1CD3  
                        i1l411 1298                          i1l404 12AD                          i1l414 12AD  
                        i1l511 0AB2                          i1l363 1237                          i1l515 0B35  
                        i1l380 10B4                          i1l532 0C04                          i1l524 0CBA  
                        i1l613 0F6F                          i1l517 0B0C                          i1l702 1E93  
                        i1l542 0C4C                          i1l391 00BA                          i1l607 0FFF  
                        i1l376 11D0                          i1l712 1347                          i1l536 0C2A  
                        i1l713 1366                          i1l385 10C9                          i1l706 1EC3  
                        i1l626 1E17                          i1l554 0CBA                          i1l379 1098  
                        i1l724 13F8                          i1l396 00D3                          i1l388 004E  
                        i1l628 1E29                          i1l900 002F                          i1l732 157B  
                        i1l804 0A56                          i1l717 1364                          i1l557 1DB7  
                        i1l830 107B                          i1l583 1779                          i1l567 1681  
                        i1l751 0329                          i1l735 07E2                          i1l840 0880  
                        i1l569 17FF                          i1l761 05D4                          i1l673 1D14  
                        i1l589 17EB                          i1l853 1438                          i1l854 14F9  
                        i1l783 12E4                          i1l848 1D02                          i1l784 12FC  
                        i1l858 14F1                          i1l874 1E02                          i1l868 1D3C  
                        i1l796 1177                          i1l788 132F                          i1l886 111F  
                        i1l894 1E53                ___awdiv@counter 0075                          _RCREG 001A  
                 vfpfcnvrt@fmt 00CD                          _SPBRG 0099                          _TXREG 0019  
                        _flags 00DD            read_prec_or_width@c 0079            read_prec_or_width@n 007A  
                        _fputc 10CA                          _fputs 1E2A                          labs@a 0071  
                        pad@fp 0029                          _width 0066                          _putch 1CBF  
                        dtoa@d 002A                          dtoa@i 0034                          dtoa@p 0030  
                        dtoa@s 0033                          dtoa@w 002E                          pclath 000A  
                        stoa@l 0028                          stoa@p 0023                          stoa@s 007A  
                        status 0003                          wtemp0 007E                 ?___fpclassifyf 0071  
             _co2_interruption 1E54                     _i2c_config 1CA5                __initialization 07E3  
                 __end_of_labs 1D3D                   __end_of_main 1D28                   __end_of_dtoa 13F9  
                 __end_of_stoa 1330               __end_of_i2c_read 1D94               __end_of_i2c_stop 1CBF  
                       ??_labs 0075                         ??_main 0000                         ??_dtoa 007E  
                       ??_stoa 0020      send_uint16t_to_uart@value 00D7     __end_of_read_prec_or_width 1178  
                       ?_fputc 0072                         ?_fputs 007A               ___awdiv@dividend 0073  
                       ?_putch 0071                         i1l3000 0F40                         i1l3010 0F58  
                       i1l3002 0F49                         i1l3020 0F87                         i1l3012 0F6C  
                       i1l3004 0F4F                         i1l3100 1D2C                         i1l3030 0FC2  
                       i1l3022 0F8B                         i1l3006 0F53                         i1l3110 142A  
                       i1l3102 1D2D                         i1l3040 0FED                         i1l3032 0FD1  
                       i1l3024 0FA4                         i1l3016 0F74                         i1l3008 0F54  
                       i1l2400 0AA8                         i1l3120 146D                         i1l3112 1437  
                       i1l3200 1541                         i1l3050 1E8D                         i1l3042 0FEE  
                       i1l3034 0FDB                         i1l3018 0F79                         i1l3026 0FAA  
                       i1l2410 0AC2                         i1l2402 0AAA                         i1l3130 14D0  
                       i1l3122 1486                         i1l3114 143E                         i1l3106 13F9  
                       i1l3210 1572                         i1l3202 1558                         i1l3060 1EB9  
                       i1l3052 1E91                         i1l3036 0FDD                         i1l3044 0FF3  
                       i1l3028 0FB7                         i1l2420 0ACC                         i1l2412 0AC4  
                       i1l2404 0AB8                         i1l3132 14E9                         i1l3124 149D  
                       i1l3116 1458                         i1l3108 140B                         i1l3140 1DE8  
                       i1l3300 044C                         i1l3220 15A7                         i1l3212 1577  
                       i1l3204 155C                         i1l3062 1CF2                         i1l2342 1CC0  
                       i1l2350 10D4                         i1l3054 1E96                         i1l3150 133E  
                       i1l3046 0FF7                         i1l3038 0FE9                         i1l2510 0C31  
                       i1l2502 0C1A                         i1l2430 0AD6                         i1l2422 0ACE  
                       i1l2414 0AC6                         i1l2406 0ABC                         i1l3070 0802  
                       i1l3126 14AE                         i1l3142 1DEC                         i1l3310 04E9  
                       i1l3302 0452                         i1l3230 15EA                         i1l3222 15B0  
                       i1l3214 157D                         i1l3206 1568                         i1l2600 11D6  
                       i1l3064 1CF6                         i1l2344 1CC6                         i1l2352 10DB  
                       i1l3056 1EA3                         i1l3160 135B                         i1l3152 1343  
                       i1l2520 0C3F                         i1l2512 0C33                         i1l2504 0C25  
                       i1l2440 0ADF                         i1l2432 0AD8                         i1l2424 0AD0  
                       i1l2416 0AC8                         i1l2408 0AC0                         i1l2360 0A57  
                       i1l3080 084F                         i1l3072 0814                         i1l3128 14C7  
                       i1l3144 1DF4                         i1l3136 1DDE                         i1l3320 0581  
                       i1l3312 0504                         i1l3304 0468                         i1l3232 15F1  
                       i1l3224 15B8                         i1l3216 1590                         i1l3208 156D  
                       i1l3400 12B1                         i1l2610 11EA                         i1l2602 11DB  
                       i1l3066 1CF7                         i1l2354 10EA                         i1l2346 10CA  
                       i1l3058 1EAB                         i1l3170 1393                         i1l3162 1360  
                       i1l3154 134B                         i1l3146 1333                         i1l2530 0C56  
                       i1l2522 0C43                         i1l2514 0C38                         i1l2506 0C29  
                       i1l2450 0B1F                         i1l2442 0AF6                         i1l2434 0ADA  
                       i1l2426 0AD2                         i1l2418 0ACA                         i1l2370 0A6A  
                       i1l2362 0A5A                         i1l3090 087C                         i1l3074 082B  
                       i1l3138 1DE3                         i1l3330 05E3                         i1l3322 0589  
                       i1l3314 050A                         i1l3306 04A7                         i1l3250 00FA  
                       i1l3234 1601                         i1l3242 00D4                         i1l3218 1597  
                       i1l3410 12E8                         i1l3402 12BB                         i1l2620 1200  
                       i1l2612 11EC                         i1l2604 11DD                         i1l2356 1108  
                       i1l2348 10CF                         i1l3180 13CB                         i1l3172 139B  
                       i1l3164 136A                         i1l3156 1350                         i1l3148 133A  
                       i1l2700 0092                         i1l2540 0C91                         i1l2532 0C64  
                       i1l2524 0C49                         i1l2508 0C2E                         i1l2516 0C3A  
                       i1l2460 0B3E                         i1l2452 0B20                         i1l2444 0B10  
                       i1l2436 0ADC                         i1l2428 0AD4                         i1l2380 0A82  
                       i1l2372 0A6F                         i1l2364 0A60                         i1l3076 0831  
                       i1l3084 0854                         i1l3340 065C                         i1l3332 05E5  
                       i1l3324 05C8                         i1l3316 0512                         i1l3308 04DE  
                       i1l3260 0240                         i1l3252 010A                         i1l3244 00DE  
                       i1l3236 160A                         i1l3228 15D3                         i1l3420 1121  
                       i1l3412 12F6                         i1l3404 12BF                         i1l3500 099F  
                       i1l2630 1223                         i1l2622 1204                         i1l2614 11F2  
                       i1l2606 11E1                         i1l3182 13D8                         i1l3174 13A1  
                       i1l3166 136E                         i1l3158 1356                         i1l2702 0096  
                       i1l2710 1CC9                         i1l2550 0CA8                         i1l2542 0C96  
                       i1l2534 0C68                         i1l2470 0B66                         i1l2518 0C3E  
                       i1l2454 0B2B                         i1l2446 0B19                         i1l2438 0ADE  
                       i1l2390 0A94                         i1l2382 0A85                         i1l2374 0A77  
                       i1l2366 0A64                         i1l3086 085A                         i1l3078 084A  
                       i1l3094 0016                         i1l3350 0677                         i1l3342 0661  
                       i1l3334 05E8                         i1l3326 05CE                         i1l3318 0533  
                       i1l3262 024B                         i1l3270 02D1                         i1l3254 0149  
                       i1l3246 00E0                         i1l3238 1612                         i1l3430 1162  
                       i1l3422 1123                         i1l3414 1303                         i1l3406 12C2  
                       i1l3510 09EF                         i1l3502 09B2                         i1l2624 1215  
                       i1l2616 11F5                         i1l2632 1229                         i1l2608 11E6  
                       i1l2640 1178                         i1l3184 13DF                         i1l3168 1376  
                       i1l3176 13B4                         i1l2800 1679                         i1l2704 00D0  
                       i1l2560 1E04                         i1l2712 1CD1                         i1l2552 0CAA  
                       i1l2544 0C9E                         i1l2536 0C88                         i1l2528 0C51  
                       i1l2480 0B81                         i1l2472 0B6F                         i1l2464 0B47  
                       i1l2448 0B1B                         i1l2456 0B2F                         i1l2392 0A95  
                       i1l2384 0A8B                         i1l2376 0A78                         i1l2368 0A65  
                       i1l2720 1241                         i1l3096 0018                         i1l3352 067A  
                       i1l3344 0665                         i1l3360 0692                         i1l3336 0640  
                       i1l3328 05E2                         i1l3280 0333                         i1l3264 026C  
                       i1l3256 01A7                         i1l3272 030A                         i1l3192 14FD  
                       i1l3432 1173                         i1l3424 1132                         i1l3416 1319  
                       i1l3408 12C8                         i1l3520 0A20                         i1l3512 09FF  
                       i1l3504 09BF                         i1l3440 089B                         i1l3600 1D08  
                       i1l2634 122E                         i1l2626 121B                         i1l2618 11FC  
                       i1l2650 1188                         i1l2642 1179                         i1l3186 13E5  
                       i1l3178 13C3                         i1l2802 1689                         i1l2810 16A2  
                       i1l2706 00D2                         i1l2570 1E25                         i1l2562 1E06  
                       i1l2714 1CD3                         i1l2554 0CAE                         i1l2546 0CA3  
                       i1l2538 0C8C                         i1l2490 0BE2                         i1l2474 0B71  
                       i1l2466 0B5E                         i1l2458 0B39                         i1l2482 0B86  
                       i1l2394 0A9A                         i1l2386 0A8C                         i1l2378 0A7A  
                       i1l2730 1266                         i1l3098 1D28                         i1l3370 071D  
                       i1l3362 0698                         i1l3354 0680                         i1l3346 066B  
                       i1l3338 0656                         i1l3290 0351                         i1l3282 033D  
                       i1l3274 0312                         i1l3266 0272                         i1l3258 01E0  
                       i1l3194 14FE                         i1l3426 1146                         i1l3418 1321  
                       i1l3514 0A09                         i1l3506 09D7                         i1l3522 0A33  
                       i1l3450 08D0                         i1l3442 08A6                         i1l2636 1233  
                       i1l2628 121C                         i1l2660 11A1                         i1l2652 118D  
                       i1l2644 117D                         i1l2580 1E46                         i1l3188 13EB  
                       i1l2900 17F9                         i1l2820 16CA                         i1l2812 16A7  
                       i1l2804 1695                         i1l2564 1E0D                         i1l2556 0CB5  
                       i1l2548 0CA4                         i1l2492 0BE7                         i1l2484 0B9C  
                       i1l2476 0B75                         i1l2468 0B62                         i1l2396 0A9F  
                       i1l2388 0A90                         i1l2740 1274                         i1l2732 1268  
                       i1l2724 124A                         i1l3380 076D                         i1l3372 073C  
                       i1l3364 069F                         i1l3356 0686                         i1l3348 0671  
                       i1l3284 0341                         i1l3292 0357                         i1l3276 0318  
                       i1l3196 1516                         i1l3428 115B                         i1l3460 090B  
                       i1l3452 08D9                         i1l3444 08AC                         i1l3436 0884  
                       i1l3550 1C9D                         i1l2662 11A5                         i1l2654 1193  
                       i1l2670 11C2                         i1l2646 1182                         i1l2574 1E2D  
                       i1l2830 16F3                         i1l2822 16D2                         i1l2806 1699  
                       i1l2566 1E11                         i1l2910 0CC0                         i1l2558 0CB9  
                       i1l2486 0BDC                         i1l2494 0BF6                         i1l2478 0B76  
                       i1l2398 0AA7                         i1l2750 128D                         i1l2742 127D  
                       i1l2734 126C                         i1l2726 125D                         i1l2718 1238  
                       i1l3390 07B2                         i1l3382 0773                         i1l3374 0742  
                       i1l3366 06A5                         i1l3358 068C                         i1l3294 0359  
                       i1l3286 0349                         i1l3278 0323                         i1l3198 153D  
                       i1l2590 1DD2                         i1l2582 1DB8                         i1l3470 092D  
                       i1l3454 08E5                         i1l3446 08BC                         i1l3438 0895  
                       i1l3526 0A3D                         i1l2672 11C7                         i1l2664 11AF  
                       i1l2656 1196                         i1l2648 1184                         i1l2576 1E30  
                       i1l2840 1714                         i1l2832 16F7                         i1l2824 16DA  
                       i1l2816 16B0                         i1l2680 1090                         i1l2568 1E20  
                       i1l2920 0CD3                         i1l2912 0CC4                         i1l2496 0C0C  
                       i1l2488 0BE0                         i1l2752 129D                         i1l2744 1286  
                       i1l2728 125E                         i1l3392 07B7                         i1l3384 0778  
                       i1l3368 06AB                         i1l3376 0748                         i1l3296 0361  
                       i1l3288 034B                         i1l2592 1DD8                         i1l2584 1DBA  
                       i1l3472 0932                         i1l3464 0916                         i1l3456 08F1  
                       i1l3448 08C2                         i1l3552 1054                         i1l3562 1CAD  
                       i1l3570 1CD9                         i1l3650 1ED4                         i1l3642 1EC4  
                       i1l2674 11CC                         i1l2666 11B5                         i1l2658 119D  
                       i1l2578 1E3E                         i1l2850 173C                         i1l2842 1728  
                       i1l2834 16F8                         i1l2826 16DC                         i1l2818 16C2  
                       i1l2770 1639                         i1l2762 162B                         i1l2682 10AC  
                       i1l2690 0030                         i1l2930 0CEE                         i1l2922 0CDB  
                       i1l2914 0CC8                         i1l2498 0C11                         i1l2754 12A2  
                       i1l3394 07C3                         i1l3386 0793                         i1l3378 075E  
                       i1l3298 036A                         i1l2586 1DBE                         i1l3490 098C  
                       i1l3474 0940                         i1l3482 0965                         i1l3466 0917  
                       i1l3458 0902                         i1l3554 105B                         i1l3564 1CB0  
                       i1l3572 1CDE                         i1l3652 1ED9                         i1l3644 1EC4  
                       i1l2596 11D1                         i1l2668 11BC                         i1l2852 1745  
                       i1l2860 1759                         i1l2828 16E1                         i1l2836 1701  
                       i1l2844 172C                         i1l2772 163E                         i1l2780 164E  
                       i1l2764 1630                         i1l2684 10C6                         i1l2692 0046  
                       i1l2940 0D05                         i1l2932 0CF2                         i1l2924 0CDD  
                       i1l2916 0CC9                         i1l2908 0CBB                         i1l2756 1D94  
                       i1l3396 07C9                         i1l3388 079D                         i1l2588 1DCB  
                       i1l3492 0995                         i1l3484 096B                         i1l3476 094F  
                       i1l3468 0927                         i1l3556 1069                         i1l3590 1D85  
                       i1l3582 1D74                         i1l3654 1EE5                         i1l3646 1EC9  
                       i1l2598 11D2                         i1l2862 175D                         i1l2854 1749  
                       i1l2846 1732                         i1l2838 1713                         i1l2790 1664  
                       i1l2782 1656                         i1l2774 1643                         i1l2766 1634  
                       i1l2686 10C8                         i1l2678 107C                         i1l2694 0062  
                       i1l2942 0D07                         i1l2934 0CF3                         i1l2926 0CE5  
                       i1l2918 0CCE                         i1l2758 1D98                         i1l3494 099A  
                       i1l3478 095E                         i1l3558 1077                         i1l3662 1D40  
                       i1l3670 1E5E                         i1l3592 1D8D                         i1l3584 1D77  
                       i1l3576 1CB6                         i1l3568 1CD5                         i1l3656 1EF6  
                       i1l3648 1ECF                         i1l2880 17AE                         i1l2872 177E  
                       i1l2864 175E                         i1l2856 174A                         i1l2848 173A  
                       i1l2792 1669                         i1l2784 165B                         i1l2776 164B  
                       i1l2768 1638                         i1l2696 006A                         i1l2960 0D74  
                       i1l2952 0D22                         i1l2944 0D0F                         i1l2936 0CF8  
                       i1l2928 0CEA                         u300_20 0C50                         i1l3496 099D  
                       i1l3488 0984                         i1l3672 1E69                         u300_21 0C4F  
                       i1l3594 1D92                         i1l3586 1D7C                         i1l3578 1CB9  
                       i1l3658 1EFB                         i1l2890 17E2                         i1l2874 1783  
                       i1l2882 17B4                         i1l2866 1762                         i1l2858 1753  
                       i1l2794 166E                         i1l2786 165F                         i1l2778 164C  
                       i1l2698 006E                         i1l2970 0DED                         i1l2962 0D9E  
                       i1l2954 0D30                         i1l2946 0D14                         i1l2938 0CFD  
                       i1l3674 1E73                         i1l3666 1E54                         i1l3588 1D80  
                       i1l2892 17EA                         i1l2884 17C1                         i1l2876 1791  
                       i1l2868 1776                         i1l2796 1676                         i1l2788 1663  
                       i1l2980 0E69                         i1l2972 0E0A                         i1l2964 0DBA  
                       i1l2956 0D3D                         i1l2948 0D19                         i1l3780 0A2E  
                       i1l3676 1E77                         i1l3668 1E55                         i1l2894 17EF  
                       i1l2886 17CF                         i1l2878 1795                         i1l2798 1677  
                       i1l2990 0F1B                         i1l2982 0E94                         i1l2974 0E18  
                       i1l2966 0DD6                         i1l2958 0D58                         i1l3598 1D06  
                       i1l2896 17F3                         i1l2888 17DE                         i1l2992 0F24  
                       i1l2984 0EA2                         i1l2976 0E35                         i1l2968 0DDF  
                       u301_20 0C56                         i1l3776 09A7                         u301_21 0C55  
                       i1l2898 17F5                         i1l2994 0F32                         i1l2986 0ECD  
                       i1l2978 0E4C                         i1l3778 09F7                         i1l2996 0F3B  
                       i1l2988 0EF3                         i1l2998 0F3F                         u310_20 1E11  
                       u302_20 0C68                         u310_21 1E10                         u302_21 0C67  
                       u303_20 0C79                         u311_25 1E18                         u303_25 0C74  
                       u320_20 11F2                         u312_20 1E25                         u304_20 0C88  
                       u320_21 11F1                         u312_21 1E24                         u304_21 0C87  
                       u400_25 0DD8                         u313_20 1E53                         u305_20 0C91  
                       u313_21 1E52                         u401_21 0DFC                         u305_21 0C90  
                       u401_22 0E03                         u401_23 0E0A                         u321_25 11F6  
                       u322_20 1204                         u330_20 1193                         u306_20 0C96  
                       u314_20 1DBE                         u322_21 1203                         u330_21 1192  
                       u410_21 0F0D                         u402_21 0E27                         u306_21 0C95  
                       u314_21 1DBD                         u410_22 0F14                         u402_22 0E2E  
                       u410_23 0F1B                         u402_23 0E35                         u307_20 0CA3  
                       u307_21 0CA2                         u323_25 1205                         u331_25 1197  
                       u411_25 0F1D                         u403_25 0E37                         u315_25 1DC5  
                       u324_20 1215                         u332_20 11A5                         u260_20 10CF  
                       u340_20 0046                         u420_20 0F8B                         u308_20 0CA8  
                       u500_20 132F                         u324_21 1214                         u332_21 11A4  
                       u260_21 10CE                         u340_21 0045                         u420_21 0F8A  
                       u404_21 0E5B                         u308_21 0CA7                         u500_21 132E  
                       u404_22 0E62                         u404_23 0E69                         u324_25 1211  
                       u412_25 0F34                         u316_25 1DCC                         u333_20 11AF  
                       u261_20 10D4                         u341_20 0062                         u421_20 0F9A  
                       u413_20 0F3F                         u309_20 0CB9                         u317_20 1DD8  
                       u501_20 1132                         u333_21 11AE                         u261_21 10D3  
                       u341_21 0061                         u413_21 0F3E                         u405_21 0E86  
                       u309_21 0CB8                         u317_21 1DD7                         u501_21 1131  
                       u405_22 0E8D                         u405_23 0E94                         u325_25 121D  
                       u333_25 11AB                         u421_25 0F95                         u326_20 1229  
                       u318_20 11D6                         u262_20 10EA                         u342_20 006E  
                       u422_20 0FB7                         u270_20 0A9F                         u350_20 126C  
                       u430_20 083F                         u502_20 1173                         u510_20 095E  
                       u326_21 1228                         u318_21 11D5                         u262_21 10E9  
                       u342_21 006D                         u422_21 0FB6                         u406_21 0EB1  
                       u270_21 0A9E                         u350_21 126B                         u502_21 1172  
                       u510_21 095D                         u406_22 0EB8                         u406_23 0EBF  
                       u334_25 11B6                         u422_25 0FB3                         u414_25 0F42  
                       u430_25 083A                         u327_20 122E                         u319_20 11E1  
                       u335_20 11C2                         u263_20 1108                         u423_20 0FD1  
                       u415_20 0F53                         u407_20 0ED9                         u271_20 0AB8  
                       u351_20 1273                         u431_20 084A                         u511_20 096B  
                       u503_20 0895                         u327_21 122D                         u319_21 11E0  
                       u335_21 11C1                         u263_21 1107                         u343_21 007D  
                       u423_21 0FD0                         u415_21 0F52                         u271_21 0AB7  
                       u351_21 1272                         u431_21 0849                         u511_21 096A  
                       u503_21 0894                         u343_22 007E                         u343_23 0083  
                       u343_24 0084                         u263_25 1104                         u343_25 0089  
                       u423_25 0FCD                         u407_25 0ED4                         u343_26 008A  
                       u336_20 11C7                         u328_20 117D                         u360_20 1643  
                       u344_20 0096                         u424_20 0FED                         u416_20 0F58  
                       u280_20 0B39                         u272_20 0ABC                         u264_20 0A64  
                       u432_20 085A                         u440_20 143E                         u512_20 09BE  
                       u504_20 08BC                         u336_21 11C6                         u328_21 117C  
                       u360_21 1642                         u344_21 0095                         u424_21 0FEC  
                       u416_21 0F57                         u408_21 0EE5                         u280_21 0B38  
                       u272_21 0ABB                         u264_21 0A63                         u432_21 0859  
                       u440_21 143D                         u512_21 09BD                         u504_21 08BB  
                       u408_22 0EEC                         u408_23 0EF3                         u352_25 1275  
                       u513_20 1CA3                         u329_20 1188                         u425_20 1E91  
                       u361_20 1663                         u337_20 1090                         u417_20 0F6C  
                       u409_20 0F01                         u281_20 0B3E                         u273_20 0AF6  
                       u265_20 0A6A                         u353_20 1285                         u433_20 0868  
                       u441_20 144E                         u505_20 08E5                         u513_21 1CA2  
                       u329_21 1187                         u425_21 1E90                         u361_21 1662  
                       u337_21 108F                         u345_21 00A5                         u417_21 0F6B  
                       u281_21 0B3D                         u273_21 0AF5                         u265_21 0A69  
                       u353_21 1284                         u505_21 08E4                         u345_22 00A6  
                       u345_23 00AB                         u345_24 00AC                         u345_25 00B1  
                       u409_25 0EFC                         u273_25 0AF2                         u433_25 0863  
                       u441_25 1449                         u345_26 00B2                         u426_20 1EB9  
                       u362_20 1669                         u338_20 10AC                         u346_20 00D0  
                       u418_20 0F73                         u290_20 0BE7                         u274_20 0AFF  
                       u266_20 0A6F                         u354_20 128C                         u434_20 0874  
                       u442_20 146C                         u450_20 1E02                         u506_20 08F1  
                       u514_20 1077                         u426_21 1EB8                         u362_21 1668  
                       u338_21 10AB                         u346_21 00CF                         u418_21 0F72  
                       u290_21 0BE6                         u282_21 0B50                         u274_21 0AFD  
                       u266_21 0A6E                         u354_21 128B                         u434_21 0872  
                       u442_21 146B                         u450_21 1E01                         u506_21 08F0  
                       u514_21 1076                         u282_22 0B57                         u282_23 0B5E  
                       u426_25 1EB5                         u370_25 16FA                         u346_25 00CC  
                       u515_20 1D85                         u427_20 1CF6                         u259_20 1CC6  
                       u451_20 1338                         u371_20 1713                         u363_20 166E  
                       u339_20 10C6                         u419_20 0F79                         u347_20 1CD1  
                       u291_20 0C0C                         u283_20 0B62                         u275_20 0B00  
                       u267_20 0A8B                         u435_20 0875                         u443_20 147B  
                       u507_20 0927                         u515_21 1D84                         u427_21 1CF5  
                       u259_21 1CC5                         u451_21 1336                         u371_21 1712  
                       u363_21 166D                         u339_21 10C5                         u419_21 0F78  
                       u347_21 1CD0                         u291_21 0C0B                         u283_21 0B61  
                       u267_21 0A8A                         u507_21 0926                         u371_25 170F  
                       u339_25 10C2                         u355_25 128F                         u443_25 1476  
                       u452_20 1339                         u380_20 1776                         u372_20 1728  
                       u364_20 1689                         u292_20 0C11                         u284_20 0B66  
                       u276_20 0B10                         u268_20 0A94                         u356_20 129D  
                       u348_20 1241                         u428_20 0822                         u444_20 1486  
                       u436_20 002F                         u460_20 153D                         u508_20 0940  
                       u516_20 1E5E                         u380_21 1775                         u364_21 1688  
                       u292_21 0C10                         u284_21 0B65                         u276_21 0B0F  
                       u268_21 0A93                         u356_21 129C                         u348_21 1240  
                       u444_21 1485                         u436_21 002E                         u460_21 153C  
                       u508_21 093F                         u516_21 1E5D                         u372_25 171B  
                       u428_25 081D                         u372_26 171C                         u372_27 1721  
                       u453_20 133E                         u381_20 177D                         u373_20 1732  
                       u372_28 1722                         u365_20 16A7                         u285_20 0B75  
                       u277_20 0B1F                         u269_20 0A9A                         u357_20 12A2  
                       u349_20 1258                         u429_20 0831                         u437_20 1D2C  
                       u461_20 156D                         u509_20 094F                         u453_21 133D  
                       u381_21 177C                         u373_21 1731                         u372_29 1727  
                       u365_21 16A6                         u285_21 0B74                         u277_21 0B1E  
                       u269_21 0A99                         u357_21 12A1                         u429_21 0830  
                       u445_21 148F                         u437_21 1D2B                         u461_21 156C  
                       u509_21 094E                         u445_22 1496                         u445_23 149D  
                       u293_25 0C1E                         u349_25 1253                         u454_20 1350  
                       u382_20 1783                         u374_20 173A                         u366_20 16E1  
                       u358_20 1638                         u390_20 0CD3                         u294_20 0C29  
                       u446_20 14BC                         u438_20 1419                         u470_20 01E0  
                       u462_20 1572                         u454_21 134F                         u382_21 1782  
                       u374_21 1739                         u366_21 16E0                         u358_21 1637  
                       u390_21 0CD2                         u294_21 0C28                         u470_21 01DF  
                       u462_21 1571                         u286_25 0B7A                         u278_25 0B24  
                       u446_25 14B7                         u438_25 1414                         u455_20 135B  
                       u383_20 1795                         u359_20 163E                         u391_20 0CF2  
                       u295_20 0C2E                         u287_20 0B9C                         u279_20 0B35  
                       u447_20 14C7                         u439_20 1437                         u463_20 1590  
                       u455_21 135A                         u383_21 1794                         u359_21 163D  
                       u391_21 0CF1                         u295_21 0C2D                         u287_21 0B9B  
                       u279_21 0B34                         u447_21 14C6                         u439_21 1436  
                       u471_21 0205                         u463_21 158F                         u471_22 0208  
                       u287_23 0B98                         u471_23 020F                         u471_24 0212  
                       u375_25 173E                         u367_25 16E3                         u439_25 1433  
                       u471_25 0219                         u471_26 021C                         u456_20 13C3  
                       u384_20 17A4                         u376_20 1749                         u392_20 0CF8  
                       u296_20 0C38                         u448_20 14DE                         u480_20 0468  
                       u472_20 0240                         u464_20 1597                         u456_21 13C2  
                       u376_21 1748                         u392_21 0CF7                         u296_21 0C37  
                       u288_21 0BB5                         u480_21 0467                         u472_21 023F  
                       u464_21 1596                         u288_22 0BB6                         u288_23 0BBB  
                       u472_23 023C                         u288_24 0BBC                         u456_25 13BF  
                       u384_25 179F                         u368_25 16EC                         u288_25 0BC1  
                       u448_25 14D9                         u480_25 0464                         u288_26 0BC2  
                       u457_20 13CB                         u385_20 17C1                         u369_20 16F7  
                       u393_20 0CFD                         u297_20 0C3E                         u289_20 0BC9  
                       u449_20 14E9                         u481_20 04DE                         u465_20 15EA  
                       u457_21 13CA                         u385_21 17C0                         u369_21 16F6  
                       u393_21 0CFC                         u297_21 0C3D                         u289_21 0BCA  
                       u449_21 14E8                         u481_21 04DD                         u473_21 0295  
                       u465_21 15E7                         u289_22 0BCF                         u473_22 0298  
                       u289_23 0BD0                         u473_23 029F                         u473_24 02A2  
                       u385_25 17BD                         u377_25 174C                         u473_25 02A9  
                       u473_26 02AC                         u458_20 13D8                         u386_20 17DE  
                       u378_20 175D                         u394_20 0D14                         u298_20 0C43  
                       u490_20 075E                         u482_20 0504                         u474_20 02D0  
                       u466_20 15F1                         u458_21 13D7                         u386_21 17DD  
                       u378_21 175C                         u394_21 0D13                         u298_21 0C42  
                       u490_21 075D                         u482_21 0503                         u474_21 02CF  
                       u466_21 15F0                         u474_23 02CC                         u458_25 13D4  
                       u386_25 17DA                         u490_25 075A                         u459_20 13DF  
                       u387_20 17F3                         u379_20 1762                         u395_20 0D19  
                       u299_20 0C49                         u491_20 076D                         u483_20 050A  
                       u475_20 030A                         u467_20 00F9                         u459_21 13DE  
                       u387_21 17F2                         u379_21 1761                         u395_21 0D18  
                       u299_21 0C48                         u491_21 076C                         u483_21 0509  
                       u475_21 0309                         u467_21 00F8                         u491_25 0769  
                       u388_20 0CC8                         u492_20 07A3                         u484_20 0581  
                       u476_20 0318                         u396_21 0D66                         u388_21 0CC7  
                       u492_21 07A1                         u484_21 0580                         u476_21 0317  
                       u468_21 016C                         u396_22 0D6D                         u468_22 016F  
                       u396_23 0D74                         u468_23 0176                         u468_24 0179  
                       u468_25 0180                         u468_26 0183                         u389_20 0CCE  
                       u493_20 07A4                         u485_20 05CE                         u477_20 033D  
                       u469_20 01A7                         u397_21 0D82                         u389_21 0CCD  
                       u485_21 05CD                         u477_21 033A                         u469_21 01A6  
                       u397_22 0D89                         u397_23 0D90                         u469_23 01A3  
                       u494_20 07B7                         u486_20 0640                         u478_20 0341  
                       u398_21 0DAC                         u494_21 07B6                         u486_21 063F  
                       u478_21 0340                         u398_22 0DB3                         u398_23 0DBA  
                       u486_25 063C                         u487_20 0661                         u479_20 0351  
                       u495_20 12BB                         u399_21 0DC8                         u487_21 0660  
                       u479_21 0350                         u495_21 12BA                         u399_22 0DCF  
                       u399_23 0DD6                         u488_20 0665                         u496_20 12D2  
                       u488_21 0664                  vfpfcnvrt@done 004D                         u489_20 0698  
                       u497_20 12E4                         u489_21 0697                         u497_21 12E3  
                       u498_20 12E8                         u498_21 12E7                         u499_20 12F6  
                       u499_21 12F5                         u499_25 12F2                         _SPBRGH 009A  
                       _SSPBUF 0013                   vfprintf@cfmt 0056                         ___flge 0030  
                       ___fleq 107C                      ??___fladd 0020                         ___wmul 1DB8  
                    ??___fldiv 0079                      ??___awdiv 0075                      ??___flneg 0075  
                    ??___awmod 0075                      ??___flmul 0028                      ??___flsub 007D  
                    ??___fltol 0075                         _efgtoa 14FA                         _floorf 13F9  
                       _memcpy 1DDD           read_prec_or_width@ap 0077               ___awdiv@quotient 0077  
              ___awmod@divisor 0071                ___awmod@counter 0075                         _printf 1D03  
                       pad@buf 0024                         dtoa@fp 0032                         _strcpy 0015  
                       fputc@c 0072                         fputs@c 0020                         fputs@i 0021  
                       fputs@s 0023                ___fpclassifyf@e 0020                ___fpclassifyf@u 0022  
              ___fpclassifyf@x 0071                         saved_w 007E                         stoa@cp 0026  
                       stoa@fp 0025               __end_of_vfprintf 107C                     ___flge@ff1 003A  
                   ___flge@ff2 003E                ??___fpclassifyf 0075                     ___fleq@ff1 0071  
                   ___fleq@ff2 0075        __end_of__initialization 07FC                     ___flneg@f1 0071  
                   ___fltol@f1 0071                    ?_i2c_config 0071   __end_of_read_co2_environment 1F00  
               __pcstackCOMMON 0071                  __end_of_fputc 1120                  __end_of_fputs 1E54  
                __end_of_putch 1CC9       send_uint16t_to_uart@name 0059              __end_of_i2c_start 1CB6  
            __end_of_i2c_write 1CE2                 _OPTION_REGbits 0081                        ??_fputc 0075  
                      ??_fputs 007B                        ??_putch 0071                     __pbssBANK0 005E  
                   __pbssBANK1 00D9                     __pbssBANK3 0190                      ?_i2c_read 0071  
                    ?_i2c_stop 0071              __end_of__Umul8_16 1E2A                     __pmaintext 1D15  
                      ?___flge 003A                        ?___fleq 0071                        ?___wmul 0071  
                   __pintentry 0004                        ?_efgtoa 0042                        ?_floorf 002D  
                      ?_memcpy 0071                        ?_printf 00D1                        ?_strcpy 0071  
     __end_of_co2_interruption 1E8A                     __stringtab 1000                     ??_i2c_read 0071  
                   ??_i2c_stop 0071                        ___fladd 0A57                        ___fldiv 162B  
                      ___awdiv 11D1                        ___flneg 1CC9                        ___awmod 1178  
                      ___flmul 0CBB                        ___flsub 1D94                        ___fltol 1238  
                    ?_vfprintf 00CF                        __ptext1 1CA5                        __ptext2 1D53  
                      __ptext3 1CE2                        __ptext4 1E54                        __ptext5 1D3D  
                      __ptext6 1D03                        __ptext7 1051                        __ptext8 0881  
                      __ptext9 12AE          read_prec_or_width@fmt 007C               ___awmod@dividend 0073  
                      efgtoa@c 0046                        efgtoa@d 00AB                        efgtoa@e 00B0  
                      efgtoa@f 0042                        efgtoa@g 00C5                        efgtoa@h 00BA  
                      efgtoa@i 00B8                        efgtoa@l 00BE                        efgtoa@m 00AD  
                      efgtoa@n 00C3                        efgtoa@p 00A2                        efgtoa@t 00A4  
                      efgtoa@u 00C9                        efgtoa@w 00B2           _read_co2_environment 1EC4  
                      clrloop0 104A           end_of_initialization 07FC                        floorf@e 003B  
                      floorf@m 0037                        floorf@u 003D                        floorf@x 002D  
                      memcpy@d 0076                        memcpy@n 0072                        memcpy@s 0077  
                      fputc@fp 0074              __end_of_wait_MSSP 1CA5                        fputs@fp 007A  
           _read_prec_or_width 1120             i2c_read@master_ack 0071              __end_of_vfpfcnvrt 0A57  
                   efgtoa@mode 00A9                     efgtoa@sign 00C2                      _RCSTAbits 0018  
          ?_read_prec_or_width 0077                        psplit$0 190037                        psplit$1 370038  
             vfpfcnvrt@convarg 004E                     ??_vfprintf 007E                        strcpy@d 0072  
                  ___fladd@grs 007C          ?_read_co2_environment 0073           ??_read_prec_or_width 0079  
                  ___fldiv@grs 0027                    ___fldiv@rem 0020                    ___flmul@grs 002E  
                    _TXSTAbits 0098                   ??_i2c_config 0000                  ??_config_tmr0 0000  
                ??_config_uart 0000                 __end_of___flge 00D4                 __end_of___fleq 10CA  
                  vfpfcnvrt@ap 00CE                    vfpfcnvrt@cp 0054                    vfpfcnvrt@fp 0053  
               __end_of___wmul 1DDD                 __end_of_efgtoa 07E3                    _BAUDCTLbits 0187  
               __end_of_floorf 14FA   __end_of_send_uint16t_to_uart 1D53                 __end_of_memcpy 1E03  
                   floorf@F521 005E                 __end_of_printf 1D15                 __end_of_strcpy 0030  
          start_initialization 07E3                    __end_of_abs 1D03                      _i2c_start 1CAD  
                  __end_of_pad 1EC4             __end_of_i2c_config 1CAD                      _i2c_write 1CD4  
read_co2_environment@co2_value 0079          __end_of___fpclassifyf 0881                    vfprintf@fmt 00CF  
                     ??___flge 007A                       ??___fleq 0079                       ??___wmul 0075  
                     ??_efgtoa 0047                      __Umul8_16 1E03                       ??_floorf 0031  
                     ??_memcpy 0074            __end_of_config_tmr0 1CF2            __end_of_config_uart 1D73  
                     ??_printf 007E                       ??_strcpy 0072                      ___fladd@a 0075  
                    ___fladd@b 0071                      ___fldiv@a 0071                      ___fldiv@b 0075  
            ?_co2_interruption 0071                      ___flmul@a 0024                      ___flmul@b 0020  
       ??_read_co2_environment 0075                      ___flsub@a 003A                      ___flsub@b 003E  
                    ___latbits 0002                  __pcstackBANK0 0020                  __pcstackBANK1 00A0  
                __pcstackBANK3 0000             ??_co2_interruption 005A                     ?_i2c_start 0071  
                   ?_i2c_write 0071                    _efgtoa$1004 00A6                       ?___fladd 0071  
                     ?___fldiv 0071                       ?___awdiv 0071                       ?___flneg 0071  
                     ?___awmod 0071                       ?___flmul 0020                       ?___flsub 003A  
                     ?___fltol 0071                     ?__Umul8_16 0071                      __pstrings 1000  
                   pnum$text12 0019               i2c_read@I2C_data 0072              interrupt_function 0004  
               ___wmul@product 0075           _send_uint16t_to_uart 1D3D                      clear_ram0 1049  
                     _PIE1bits 008C                      _wait_MSSP 1C9D                       _PIR1bits 000C  
                  _config_tmr0 1CE2                    _config_uart 1D53                      _vfpfcnvrt 0881  
                  __stringbase 100F              ___wmul@multiplier 0071                    ??_i2c_start 0071  
                  ??_i2c_write 0071                     vfpfcnvrt@c 0052                       _i2c_read 1D73  
                     _i2c_stop 1CB6          ?_send_uint16t_to_uart 00D7                     ?_wait_MSSP 0071  
                    memcpy@tmp 0074                     vfprintf@ap 00D0                     vfprintf@fp 0055  
            i2c_write@I2C_data 0071                    ??__Umul8_16 0073                     ?_vfpfcnvrt 00CD  
           __end_of__stringtab 1010             ___fpclassifyf@F465 0062                       _dtoa$973 002C  
                     __ptext10 1120                       __ptext11 1DB8                       __ptext20 0A57  
                     __ptext12 14FA                       __ptext21 1CC9                       __ptext13 0015  
                     __ptext30 10CA                       __ptext22 0CBB                       __ptext14 1DDD  
                     __ptext31 1CBF                       __ptext23 1E03                       __ptext15 1D28  
                     __ptext40 1C9D                       __ptext32 1CF2                       __ptext24 0030  
                     __ptext16 13F9                       __ptext33 1178                       __ptext25 107C  
                     __ptext17 0802                       __ptext34 11D1                       __ptext26 162B  
                     __ptext18 1238                       __ptext35 1EC4                       __ptext27 1330  
                     __ptext19 1D94                       __ptext36 1CD4                       __ptext28 1E8A  
                     __ptext37 1CB6                       __ptext29 1E2A                       __ptext38 1CAD  
                     __ptext39 1D73                     strcpy@dest 0073                       efgtoa@fp 00AF  
                     efgtoa@ne 00A0                       efgtoa@pp 00A8                       efgtoa@ou 00B4  
           pnum$text12_split_1 0037             pnum$text12_split_2 0038                       _vfprintf 1051  
                    printf@fmt 0057                      putch@data 0071                     _INTCONbits 000B  
                     memcpy@d1 0075                       memcpy@s1 0071                       intlevel1 0000  
       ??_send_uint16t_to_uart 007E                      strcpy@src 0071                      stringcode 100A  
                  ??_wait_MSSP 0071                    efgtoa@nmode 00AA                       printf@ap 0058  
                  ??_vfpfcnvrt 004B         __Umul8_16@multiplicand 0071                       stringdir 100A  
                     stringtab 1000                    _SSPCON2bits 0091                  ___fladd@signs 0079  
                 ___fladd@aexp 007A                   ___fladd@bexp 007B           __Umul8_16@multiplier 0079  
                   _SSPCONbits 0014                   ?_config_tmr0 0071                   ?_config_uart 0071  
            __Umul8_16@product 0075  
