

Microchip MPLAB XC8 Assembler V2.45 build 20230818022343 
                                                                                               Fri Dec 22 12:56:50 2023

Microchip MPLAB XC8 C Compiler v2.45 (Free license) build 20230818022343 Og1 
     1                           	processor	16F886
     2                           	pagewidth 120
     3                           	opt	flic
     4                           	psect	strings,global,class=STRING,delta=2,noexec
     5                           	psect	cinit,global,class=CODE,merge=1,delta=2
     6                           	psect	bssBANK0,global,class=BANK0,space=1,delta=1,noexec
     7                           	psect	bssBANK1,global,class=BANK1,space=1,delta=1,noexec
     8                           	psect	bssBANK3,global,class=BANK3,space=1,delta=1,noexec
     9                           	psect	clrtext,global,class=CODE,delta=2
    10                           	psect	cstackBANK3,global,class=BANK3,space=1,delta=1,noexec
    11                           	psect	cstackBANK1,global,class=BANK1,space=1,delta=1,noexec
    12                           	psect	cstackCOMMON,global,class=COMMON,space=1,delta=1,noexec
    13                           	psect	cstackBANK0,global,class=BANK0,space=1,delta=1,noexec
    14                           	psect	maintext,global,class=CODE,split=1,delta=2
    15                           	psect	text1,local,class=CODE,merge=1,delta=2
    16                           	psect	text2,local,class=CODE,merge=1,delta=2
    17                           	psect	text3,local,class=CODE,merge=1,delta=2
    18                           	psect	text4,local,class=CODE,merge=1,delta=2
    19                           	psect	intentry,global,class=CODE,delta=2
    20                           	psect	text5,local,class=CODE,merge=1,delta=2
    21                           	psect	text6,local,class=CODE,merge=1,delta=2,group=3
    22                           	psect	text7,local,class=CODE,merge=1,delta=2,group=1
    23                           	psect	text8,local,class=CODE,merge=1,delta=2,group=1
    24                           	psect	text9,local,class=CODE,merge=1,delta=2,group=1
    25                           	psect	text10,local,class=CODE,merge=1,delta=2,group=1
    26                           	psect	text11,local,class=CODE,merge=1,delta=2,group=2
    27                           	psect	text12,local,class=CODE,merge=1,delta=2,group=1
    28                           	psect	text13,local,class=CODE,merge=1,delta=2,group=3
    29                           	psect	text14,local,class=CODE,merge=1,delta=2,group=3
    30                           	psect	text15,local,class=CODE,merge=1,delta=2,group=3
    31                           	psect	text16,local,class=CODE,merge=1,delta=2,group=3
    32                           	psect	text17,local,class=CODE,merge=1,delta=2,group=3
    33                           	psect	text18,local,class=CODE,merge=1,delta=2,group=2
    34                           	psect	text19,local,class=CODE,merge=1,delta=2,group=2
    35                           	psect	text20,local,class=CODE,merge=1,delta=2,group=2
    36                           	psect	text21,local,class=CODE,merge=1,delta=2,group=2
    37                           	psect	text22,local,class=CODE,merge=1,delta=2,group=2
    38                           	psect	text23,local,class=CODE,merge=1,delta=2,group=2
    39                           	psect	text24,local,class=CODE,merge=1,delta=2,group=2
    40                           	psect	text25,local,class=CODE,merge=1,delta=2,group=2
    41                           	psect	text26,local,class=CODE,merge=1,delta=2,group=2
    42                           	psect	text27,local,class=CODE,merge=1,delta=2,group=1
    43                           	psect	text28,local,class=CODE,merge=1,delta=2,group=1
    44                           	psect	text29,local,class=CODE,merge=1,delta=2,group=3
    45                           	psect	text30,local,class=CODE,merge=1,delta=2,group=3
    46                           	psect	text31,local,class=CODE,merge=1,delta=2
    47                           	psect	text32,local,class=CODE,merge=1,delta=2,group=3
    48                           	psect	text33,local,class=CODE,merge=1,delta=2,group=2
    49                           	psect	text34,local,class=CODE,merge=1,delta=2,group=2
    50                           	psect	text35,local,class=CODE,merge=1,delta=2
    51                           	psect	text36,local,class=CODE,merge=1,delta=2
    52                           	psect	config,global,abs,ovrld,class=CONFIG,space=4,delta=2,noexec
    53                           	psect	text12_split_1,local,class=CODE,merge=1,delta=2
    54                           	dabs	1,0x7E,2
    55     0000                     
    56                           ; Generated 22/03/2023 GMT
    57                           ; 
    58                           ; Copyright © 2023, Microchip Technology Inc. and its subsidiaries ("Microchip")
    59                           ; All rights reserved.
    60                           ; 
    61                           ; This software is developed by Microchip Technology Inc. and its subsidiaries ("Microch
      +                          ip").
    62                           ; 
    63                           ; Redistribution and use in source and binary forms, with or without modification, are
    64                           ; permitted provided that the following conditions are met:
    65                           ; 
    66                           ;     1. Redistributions of source code must retain the above copyright notice, this lis
      +                          t of
    67                           ;        conditions and the following disclaimer.
    68                           ; 
    69                           ;     2. Redistributions in binary form must reproduce the above copyright notice, this 
      +                          list
    70                           ;        of conditions and the following disclaimer in the documentation and/or other
    71                           ;        materials provided with the distribution. Publication is not required when
    72                           ;        this file is used in an embedded application.
    73                           ; 
    74                           ;     3. Microchip's name may not be used to endorse or promote products derived from th
      +                          is
    75                           ;        software without specific prior written permission.
    76                           ; 
    77                           ; THIS SOFTWARE IS PROVIDED BY MICROCHIP "AS IS" AND ANY EXPRESS OR IMPLIED WARRANTIES,
    78                           ; INCLUDING, BUT NOT LIMITED TO, THE IMPLIED WARRANTIES OF MERCHANTABILITY AND FITNESS F
      +                          OR
    79                           ; PURPOSE ARE DISCLAIMED.  IN NO EVENT SHALL MICROCHIP BE LIABLE FOR ANY DIRECT, INDIREC
      +                          T,
    80                           ; INCIDENTAL, SPECIAL, EXEMPLARY, OR CONSEQUENTIAL DAMAGES (INCLUDING BUT NOT LIMITED TO
    81                           ; PROCUREMENT OF SUBSTITUTE GOODS OR SERVICES; LOSS OF USE, DATA OR PROFITS; OR BUSINESS
    82                           ; INTERRUPTION) HOWSOEVER CAUSED AND ON ANY THEORY OF LIABILITY, WHETHER IN CONTRACT, ST
      +                          RICT
    83                           ; LIABILITY, OR TORT (INCLUDING NEGLIGENCE OR OTHERWISE) ARISING IN ANY WAY OUT OF THE U
      +                          SE OF
    84                           ; THIS SOFTWARE, EVEN IF ADVISED OF THE POSSIBILITY OF SUCH DAMAGE.
    85                           ; 
    86                           ; 
    87                           ; Code-generator required, PIC16F886 Definitions
    88                           ; 
    89                           ; SFR Addresses
    90     0000                     	;# 
    91     0001                     	;# 
    92     0002                     	;# 
    93     0003                     	;# 
    94     0004                     	;# 
    95     0005                     	;# 
    96     0006                     	;# 
    97     0007                     	;# 
    98     0009                     	;# 
    99     000A                     	;# 
   100     000B                     	;# 
   101     000C                     	;# 
   102     000D                     	;# 
   103     000E                     	;# 
   104     000E                     	;# 
   105     000F                     	;# 
   106     0010                     	;# 
   107     0011                     	;# 
   108     0012                     	;# 
   109     0013                     	;# 
   110     0014                     	;# 
   111     0015                     	;# 
   112     0015                     	;# 
   113     0016                     	;# 
   114     0017                     	;# 
   115     0018                     	;# 
   116     0019                     	;# 
   117     001A                     	;# 
   118     001B                     	;# 
   119     001B                     	;# 
   120     001C                     	;# 
   121     001D                     	;# 
   122     001E                     	;# 
   123     001F                     	;# 
   124     0081                     	;# 
   125     0085                     	;# 
   126     0086                     	;# 
   127     0087                     	;# 
   128     0089                     	;# 
   129     008C                     	;# 
   130     008D                     	;# 
   131     008E                     	;# 
   132     008F                     	;# 
   133     0090                     	;# 
   134     0091                     	;# 
   135     0092                     	;# 
   136     0093                     	;# 
   137     0093                     	;# 
   138     0093                     	;# 
   139     0094                     	;# 
   140     0095                     	;# 
   141     0096                     	;# 
   142     0097                     	;# 
   143     0098                     	;# 
   144     0099                     	;# 
   145     009A                     	;# 
   146     009B                     	;# 
   147     009C                     	;# 
   148     009D                     	;# 
   149     009E                     	;# 
   150     009F                     	;# 
   151     0105                     	;# 
   152     0107                     	;# 
   153     0108                     	;# 
   154     0109                     	;# 
   155     010C                     	;# 
   156     010C                     	;# 
   157     010D                     	;# 
   158     010E                     	;# 
   159     010F                     	;# 
   160     0185                     	;# 
   161     0187                     	;# 
   162     0188                     	;# 
   163     0189                     	;# 
   164     018C                     	;# 
   165     018D                     	;# 
   166     0000                     	;# 
   167     0001                     	;# 
   168     0002                     	;# 
   169     0003                     	;# 
   170     0004                     	;# 
   171     0005                     	;# 
   172     0006                     	;# 
   173     0007                     	;# 
   174     0009                     	;# 
   175     000A                     	;# 
   176     000B                     	;# 
   177     000C                     	;# 
   178     000D                     	;# 
   179     000E                     	;# 
   180     000E                     	;# 
   181     000F                     	;# 
   182     0010                     	;# 
   183     0011                     	;# 
   184     0012                     	;# 
   185     0013                     	;# 
   186     0014                     	;# 
   187     0015                     	;# 
   188     0015                     	;# 
   189     0016                     	;# 
   190     0017                     	;# 
   191     0018                     	;# 
   192     0019                     	;# 
   193     001A                     	;# 
   194     001B                     	;# 
   195     001B                     	;# 
   196     001C                     	;# 
   197     001D                     	;# 
   198     001E                     	;# 
   199     001F                     	;# 
   200     0081                     	;# 
   201     0085                     	;# 
   202     0086                     	;# 
   203     0087                     	;# 
   204     0089                     	;# 
   205     008C                     	;# 
   206     008D                     	;# 
   207     008E                     	;# 
   208     008F                     	;# 
   209     0090                     	;# 
   210     0091                     	;# 
   211     0092                     	;# 
   212     0093                     	;# 
   213     0093                     	;# 
   214     0093                     	;# 
   215     0094                     	;# 
   216     0095                     	;# 
   217     0096                     	;# 
   218     0097                     	;# 
   219     0098                     	;# 
   220     0099                     	;# 
   221     009A                     	;# 
   222     009B                     	;# 
   223     009C                     	;# 
   224     009D                     	;# 
   225     009E                     	;# 
   226     009F                     	;# 
   227     0105                     	;# 
   228     0107                     	;# 
   229     0108                     	;# 
   230     0109                     	;# 
   231     010C                     	;# 
   232     010C                     	;# 
   233     010D                     	;# 
   234     010E                     	;# 
   235     010F                     	;# 
   236     0185                     	;# 
   237     0187                     	;# 
   238     0188                     	;# 
   239     0189                     	;# 
   240     018C                     	;# 
   241     018D                     	;# 
   242     0000                     	;# 
   243     0001                     	;# 
   244     0002                     	;# 
   245     0003                     	;# 
   246     0004                     	;# 
   247     0005                     	;# 
   248     0006                     	;# 
   249     0007                     	;# 
   250     0009                     	;# 
   251     000A                     	;# 
   252     000B                     	;# 
   253     000C                     	;# 
   254     000D                     	;# 
   255     000E                     	;# 
   256     000E                     	;# 
   257     000F                     	;# 
   258     0010                     	;# 
   259     0011                     	;# 
   260     0012                     	;# 
   261     0013                     	;# 
   262     0014                     	;# 
   263     0015                     	;# 
   264     0015                     	;# 
   265     0016                     	;# 
   266     0017                     	;# 
   267     0018                     	;# 
   268     0019                     	;# 
   269     001A                     	;# 
   270     001B                     	;# 
   271     001B                     	;# 
   272     001C                     	;# 
   273     001D                     	;# 
   274     001E                     	;# 
   275     001F                     	;# 
   276     0081                     	;# 
   277     0085                     	;# 
   278     0086                     	;# 
   279     0087                     	;# 
   280     0089                     	;# 
   281     008C                     	;# 
   282     008D                     	;# 
   283     008E                     	;# 
   284     008F                     	;# 
   285     0090                     	;# 
   286     0091                     	;# 
   287     0092                     	;# 
   288     0093                     	;# 
   289     0093                     	;# 
   290     0093                     	;# 
   291     0094                     	;# 
   292     0095                     	;# 
   293     0096                     	;# 
   294     0097                     	;# 
   295     0098                     	;# 
   296     0099                     	;# 
   297     009A                     	;# 
   298     009B                     	;# 
   299     009C                     	;# 
   300     009D                     	;# 
   301     009E                     	;# 
   302     009F                     	;# 
   303     0105                     	;# 
   304     0107                     	;# 
   305     0108                     	;# 
   306     0109                     	;# 
   307     010C                     	;# 
   308     010C                     	;# 
   309     010D                     	;# 
   310     010E                     	;# 
   311     010F                     	;# 
   312     0185                     	;# 
   313     0187                     	;# 
   314     0188                     	;# 
   315     0189                     	;# 
   316     018C                     	;# 
   317     018D                     	;# 
   318     0000                     	;# 
   319     0001                     	;# 
   320     0002                     	;# 
   321     0003                     	;# 
   322     0004                     	;# 
   323     0005                     	;# 
   324     0006                     	;# 
   325     0007                     	;# 
   326     0009                     	;# 
   327     000A                     	;# 
   328     000B                     	;# 
   329     000C                     	;# 
   330     000D                     	;# 
   331     000E                     	;# 
   332     000E                     	;# 
   333     000F                     	;# 
   334     0010                     	;# 
   335     0011                     	;# 
   336     0012                     	;# 
   337     0013                     	;# 
   338     0014                     	;# 
   339     0015                     	;# 
   340     0015                     	;# 
   341     0016                     	;# 
   342     0017                     	;# 
   343     0018                     	;# 
   344     0019                     	;# 
   345     001A                     	;# 
   346     001B                     	;# 
   347     001B                     	;# 
   348     001C                     	;# 
   349     001D                     	;# 
   350     001E                     	;# 
   351     001F                     	;# 
   352     0081                     	;# 
   353     0085                     	;# 
   354     0086                     	;# 
   355     0087                     	;# 
   356     0089                     	;# 
   357     008C                     	;# 
   358     008D                     	;# 
   359     008E                     	;# 
   360     008F                     	;# 
   361     0090                     	;# 
   362     0091                     	;# 
   363     0092                     	;# 
   364     0093                     	;# 
   365     0093                     	;# 
   366     0093                     	;# 
   367     0094                     	;# 
   368     0095                     	;# 
   369     0096                     	;# 
   370     0097                     	;# 
   371     0098                     	;# 
   372     0099                     	;# 
   373     009A                     	;# 
   374     009B                     	;# 
   375     009C                     	;# 
   376     009D                     	;# 
   377     009E                     	;# 
   378     009F                     	;# 
   379     0105                     	;# 
   380     0107                     	;# 
   381     0108                     	;# 
   382     0109                     	;# 
   383     010C                     	;# 
   384     010C                     	;# 
   385     010D                     	;# 
   386     010E                     	;# 
   387     010F                     	;# 
   388     0185                     	;# 
   389     0187                     	;# 
   390     0188                     	;# 
   391     0189                     	;# 
   392     018C                     	;# 
   393     018D                     	;# 
   394     0000                     	;# 
   395     0001                     	;# 
   396     0002                     	;# 
   397     0003                     	;# 
   398     0004                     	;# 
   399     0005                     	;# 
   400     0006                     	;# 
   401     0007                     	;# 
   402     0009                     	;# 
   403     000A                     	;# 
   404     000B                     	;# 
   405     000C                     	;# 
   406     000D                     	;# 
   407     000E                     	;# 
   408     000E                     	;# 
   409     000F                     	;# 
   410     0010                     	;# 
   411     0011                     	;# 
   412     0012                     	;# 
   413     0013                     	;# 
   414     0014                     	;# 
   415     0015                     	;# 
   416     0015                     	;# 
   417     0016                     	;# 
   418     0017                     	;# 
   419     0018                     	;# 
   420     0019                     	;# 
   421     001A                     	;# 
   422     001B                     	;# 
   423     001B                     	;# 
   424     001C                     	;# 
   425     001D                     	;# 
   426     001E                     	;# 
   427     001F                     	;# 
   428     0081                     	;# 
   429     0085                     	;# 
   430     0086                     	;# 
   431     0087                     	;# 
   432     0089                     	;# 
   433     008C                     	;# 
   434     008D                     	;# 
   435     008E                     	;# 
   436     008F                     	;# 
   437     0090                     	;# 
   438     0091                     	;# 
   439     0092                     	;# 
   440     0093                     	;# 
   441     0093                     	;# 
   442     0093                     	;# 
   443     0094                     	;# 
   444     0095                     	;# 
   445     0096                     	;# 
   446     0097                     	;# 
   447     0098                     	;# 
   448     0099                     	;# 
   449     009A                     	;# 
   450     009B                     	;# 
   451     009C                     	;# 
   452     009D                     	;# 
   453     009E                     	;# 
   454     009F                     	;# 
   455     0105                     	;# 
   456     0107                     	;# 
   457     0108                     	;# 
   458     0109                     	;# 
   459     010C                     	;# 
   460     010C                     	;# 
   461     010D                     	;# 
   462     010E                     	;# 
   463     010F                     	;# 
   464     0185                     	;# 
   465     0187                     	;# 
   466     0188                     	;# 
   467     0189                     	;# 
   468     018C                     	;# 
   469     018D                     	;# 
   470     0000                     	;# 
   471     0001                     	;# 
   472     0002                     	;# 
   473     0003                     	;# 
   474     0004                     	;# 
   475     0005                     	;# 
   476     0006                     	;# 
   477     0007                     	;# 
   478     0009                     	;# 
   479     000A                     	;# 
   480     000B                     	;# 
   481     000C                     	;# 
   482     000D                     	;# 
   483     000E                     	;# 
   484     000E                     	;# 
   485     000F                     	;# 
   486     0010                     	;# 
   487     0011                     	;# 
   488     0012                     	;# 
   489     0013                     	;# 
   490     0014                     	;# 
   491     0015                     	;# 
   492     0015                     	;# 
   493     0016                     	;# 
   494     0017                     	;# 
   495     0018                     	;# 
   496     0019                     	;# 
   497     001A                     	;# 
   498     001B                     	;# 
   499     001B                     	;# 
   500     001C                     	;# 
   501     001D                     	;# 
   502     001E                     	;# 
   503     001F                     	;# 
   504     0081                     	;# 
   505     0085                     	;# 
   506     0086                     	;# 
   507     0087                     	;# 
   508     0089                     	;# 
   509     008C                     	;# 
   510     008D                     	;# 
   511     008E                     	;# 
   512     008F                     	;# 
   513     0090                     	;# 
   514     0091                     	;# 
   515     0092                     	;# 
   516     0093                     	;# 
   517     0093                     	;# 
   518     0093                     	;# 
   519     0094                     	;# 
   520     0095                     	;# 
   521     0096                     	;# 
   522     0097                     	;# 
   523     0098                     	;# 
   524     0099                     	;# 
   525     009A                     	;# 
   526     009B                     	;# 
   527     009C                     	;# 
   528     009D                     	;# 
   529     009E                     	;# 
   530     009F                     	;# 
   531     0105                     	;# 
   532     0107                     	;# 
   533     0108                     	;# 
   534     0109                     	;# 
   535     010C                     	;# 
   536     010C                     	;# 
   537     010D                     	;# 
   538     010E                     	;# 
   539     010F                     	;# 
   540     0185                     	;# 
   541     0187                     	;# 
   542     0188                     	;# 
   543     0189                     	;# 
   544     018C                     	;# 
   545     018D                     	;# 
   546     0001                     _TMR0	set	1
   547     000B                     _INTCONbits	set	11
   548     0019                     _TXREG	set	25
   549     001A                     _RCREG	set	26
   550     000C                     _PIR1bits	set	12
   551     0018                     _RCSTAbits	set	24
   552     001E                     _ADRESH	set	30
   553     001F                     _ADCON0bits	set	31
   554     0064                     _TXIF	set	100
   555     0081                     _OPTION_REGbits	set	129
   556     008C                     _PIE1bits	set	140
   557     0099                     _SPBRG	set	153
   558     009A                     _SPBRGH	set	154
   559     0098                     _TXSTAbits	set	152
   560     009E                     _ADRESL	set	158
   561     009F                     _ADCON1bits	set	159
   562     0187                     _BAUDCTLbits	set	391
   563                           
   564                           	psect	strings
   565     1000                     __pstrings:
   566     1000                     stringtab:
   567     1000                     __stringtab:
   568                           
   569                           ;	String table - string pointers are 1 byte each
   570     1000  1BFF               	btfsc	btemp+1,7
   571     1001  280A               	ljmp	stringcode
   572     1002  1383               	bcf	3,7
   573     1003  187F               	btfsc	btemp+1,0
   574     1004  1783               	bsf	3,7
   575     1005  0800               	movf	0,w
   576     1006  0A84               	incf	4,f
   577     1007  1903               	skipnz
   578     1008  0AFF               	incf	btemp+1,f
   579     1009  0008               	return
   580     100A                     stringcode:
   581     100A                     stringdir:
   582     100A  3010               	movlw	high stringdir
   583     100B  008A               	movwf	10
   584     100C  0804               	movf	4,w
   585     100D  0A84               	incf	4,f
   586     100E  0782               	addwf	2,f
   587     100F                     __stringbase:
   588     100F  3400               	retlw	0
   589     1010                     __end_of__stringtab:
   590     1010                     STR_1:
   591     1010  346E               	retlw	110	;'n'
   592     1011  346F               	retlw	111	;'o'
   593     1012  3469               	retlw	105	;'i'
   594     1013  3473               	retlw	115	;'s'
   595     1014  3465               	retlw	101	;'e'
   596     1015  3420               	retlw	32	;' '
   597     1016  3476               	retlw	118	;'v'
   598     1017  3461               	retlw	97	;'a'
   599     1018  346C               	retlw	108	;'l'
   600     1019  3475               	retlw	117	;'u'
   601     101A  3465               	retlw	101	;'e'
   602     101B  343A               	retlw	58	;':'
   603     101C  3420               	retlw	32	;' '
   604     101D  345B               	retlw	91	;'['
   605     101E  3425               	retlw	37	;'%'
   606     101F  3469               	retlw	105	;'i'
   607     1020  345D               	retlw	93	;']'
   608     1021  3420               	retlw	32	;' '
   609     1022  340D               	retlw	13
   610     1023  340A               	retlw	10
   611     1024  3400               	retlw	0
   612     1025                     STR_2:
   613     1025  3425               	retlw	37	;'%'
   614     1026  3473               	retlw	115	;'s'
   615     1027  3420               	retlw	32	;' '
   616     1028  3476               	retlw	118	;'v'
   617     1029  3461               	retlw	97	;'a'
   618     102A  346C               	retlw	108	;'l'
   619     102B  3475               	retlw	117	;'u'
   620     102C  3465               	retlw	101	;'e'
   621     102D  343A               	retlw	58	;':'
   622     102E  3420               	retlw	32	;' '
   623     102F  345B               	retlw	91	;'['
   624     1030  3425               	retlw	37	;'%'
   625     1031  342E               	retlw	46	;'.'
   626     1032  3432               	retlw	50	;'2'
   627     1033  3466               	retlw	102	;'f'
   628     1034  345D               	retlw	93	;']'
   629     1035  3420               	retlw	32	;' '
   630     1036  340D               	retlw	13
   631     1037  340A               	retlw	10
   632     1038  3400               	retlw	0
   633     1039                     STR_9:
   634     1039  3428               	retlw	40	;'('
   635     103A  346E               	retlw	110	;'n'
   636     103B  3475               	retlw	117	;'u'
   637     103C  346C               	retlw	108	;'l'
   638     103D  346C               	retlw	108	;'l'
   639     103E  3429               	retlw	41	;')'
   640     103F  3400               	retlw	0
   641     1040                     STR_3:
   642     1040  3469               	retlw	105	;'i'
   643     1041  346E               	retlw	110	;'n'
   644     1042  3466               	retlw	102	;'f'
   645     1043  3400               	retlw	0
   646     1044                     STR_6:
   647     1044  346E               	retlw	110	;'n'
   648     1045  3461               	retlw	97	;'a'
   649     1046  346E               	retlw	110	;'n'
   650     1047  3400               	retlw	0
   651     1040                     
   652                           	psect	cinit
   653     0015                     start_initialization:	
   654                           ; #config settings
   655                           
   656     0015                     __initialization:
   657                           
   658                           ; Clear objects allocated to BANK0
   659     0015  1383               	bcf	3,7	;select IRP bank0
   660     0016  305C               	movlw	low __pbssBANK0
   661     0017  0084               	movwf	4
   662     0018  306A               	movlw	low (__pbssBANK0+14)
   663     0019  160A  158A  25D4  120A  118A  	fcall	clear_ram0
   664                           
   665                           ; Clear objects allocated to BANK1
   666     001E  1683               	bsf	3,5	;RP0=1, select bank1
   667     001F  1303               	bcf	3,6	;RP1=0, select bank1
   668     0020  01D8               	clrf	__pbssBANK1& (0+127)
   669     0021  01D9               	clrf	(__pbssBANK1+1)& (0+127)
   670     0022  01DA               	clrf	(__pbssBANK1+2)& (0+127)
   671     0023  01DB               	clrf	(__pbssBANK1+3)& (0+127)
   672     0024  01DC               	clrf	(__pbssBANK1+4)& (0+127)
   673                           
   674                           ; Clear objects allocated to BANK3
   675     0025  1783               	bsf	3,7	;select IRP bank2
   676     0026  3090               	movlw	low __pbssBANK3
   677     0027  0084               	movwf	4
   678     0028  30E0               	movlw	low (__pbssBANK3+80)
   679     0029  160A  158A  25D4  120A  118A  	fcall	clear_ram0
   680     002E                     end_of_initialization:	
   681                           ;End of C runtime variable initialization code
   682                           
   683     002E                     __end_of__initialization:
   684     002E  0183               	clrf	3
   685     002F  160A  158A  2E50   	ljmp	_main	;jump to C main() function
   686                           
   687                           	psect	bssBANK0
   688     005C                     __pbssBANK0:
   689     005C                     floorf@F521:
   690     005C                     	ds	4
   691     0060                     ___fpclassifyf@F465:
   692     0060                     	ds	4
   693     0064                     _width:
   694     0064                     	ds	2
   695     0066                     _prec:
   696     0066                     	ds	2
   697     0068                     _best_noise:
   698     0068                     	ds	2
   699                           
   700                           	psect	bssBANK1
   701     00D8                     __pbssBANK1:
   702     00D8                     _counter:
   703     00D8                     	ds	2
   704     00DA                     _noise:
   705     00DA                     	ds	2
   706     00DC                     _flags:
   707     00DC                     	ds	1
   708                           
   709                           	psect	bssBANK3
   710     0190                     __pbssBANK3:
   711     0190                     _dbuf:
   712     0190                     	ds	80
   713                           
   714                           	psect	clrtext
   715     1DD4                     clear_ram0:	
   716                           ;	Called with FSR containing the base address, and
   717                           ;	W with the last address+1
   718                           
   719     1DD4  0064               	clrwdt	;clear the watchdog before getting into this loop
   720     1DD5                     clrloop0:
   721     1DD5  0180               	clrf	0	;clear RAM location pointed to by FSR
   722     1DD6  0A84               	incf	4,f	;increment pointer
   723     1DD7  0604               	xorwf	4,w	;XOR with final address
   724     1DD8  1903               	btfsc	3,2	;have we reached the end yet?
   725     1DD9  3400               	retlw	0	;all done for this memory range, return
   726     1DDA  0604               	xorwf	4,w	;XOR again to restore value
   727     1DDB  2DD5               	goto	clrloop0	;do the next byte
   728                           
   729                           	psect	cstackBANK3
   730     0000                     __pcstackBANK3:
   731     0000                     ??_config_adc_channel:
   732     0000                     ??_config_uart:	
   733                           ; 1 bytes @ 0x0
   734                           
   735     0000                     ??_config_tmr0:	
   736                           ; 1 bytes @ 0x0
   737                           
   738     0000                     ??_main:	
   739                           ; 1 bytes @ 0x0
   740                           
   741                           
   742                           	psect	cstackBANK1
   743     00A0                     __pcstackBANK1:	
   744                           ; 1 bytes @ 0x0
   745                           
   746     00A0                     efgtoa@ne:
   747                           
   748                           ; 2 bytes @ 0x0
   749     00A0                     	ds	2
   750     00A2                     efgtoa@p:
   751                           
   752                           ; 2 bytes @ 0x2
   753     00A2                     	ds	2
   754     00A4                     efgtoa@t:
   755                           
   756                           ; 2 bytes @ 0x4
   757     00A4                     	ds	2
   758     00A6                     _efgtoa$1003:
   759                           
   760                           ; 2 bytes @ 0x6
   761     00A6                     	ds	2
   762     00A8                     efgtoa@pp:
   763                           
   764                           ; 1 bytes @ 0x8
   765     00A8                     	ds	1
   766     00A9                     efgtoa@mode:
   767                           
   768                           ; 1 bytes @ 0x9
   769     00A9                     	ds	1
   770     00AA                     efgtoa@nmode:
   771                           
   772                           ; 1 bytes @ 0xA
   773     00AA                     	ds	1
   774     00AB                     efgtoa@d:
   775                           
   776                           ; 2 bytes @ 0xB
   777     00AB                     	ds	2
   778     00AD                     efgtoa@m:
   779                           
   780                           ; 2 bytes @ 0xD
   781     00AD                     	ds	2
   782     00AF                     efgtoa@fp:
   783                           
   784                           ; 1 bytes @ 0xF
   785     00AF                     	ds	1
   786     00B0                     efgtoa@e:
   787                           
   788                           ; 2 bytes @ 0x10
   789     00B0                     	ds	2
   790     00B2                     efgtoa@w:
   791                           
   792                           ; 2 bytes @ 0x12
   793     00B2                     	ds	2
   794     00B4                     efgtoa@ou:
   795                           
   796                           ; 4 bytes @ 0x14
   797     00B4                     	ds	4
   798     00B8                     efgtoa@i:
   799                           
   800                           ; 2 bytes @ 0x18
   801     00B8                     	ds	2
   802     00BA                     efgtoa@h:
   803                           
   804                           ; 4 bytes @ 0x1A
   805     00BA                     	ds	4
   806     00BE                     efgtoa@l:
   807                           
   808                           ; 4 bytes @ 0x1E
   809     00BE                     	ds	4
   810     00C2                     efgtoa@sign:
   811                           
   812                           ; 1 bytes @ 0x22
   813     00C2                     	ds	1
   814     00C3                     efgtoa@n:
   815                           
   816                           ; 2 bytes @ 0x23
   817     00C3                     	ds	2
   818     00C5                     efgtoa@g:
   819                           
   820                           ; 4 bytes @ 0x25
   821     00C5                     	ds	4
   822     00C9                     efgtoa@u:
   823                           
   824                           ; 4 bytes @ 0x29
   825     00C9                     	ds	4
   826     00CD                     ?_vfpfcnvrt:
   827     00CD                     vfpfcnvrt@fmt:	
   828                           ; 1 bytes @ 0x2D
   829                           
   830                           
   831                           ; 1 bytes @ 0x2D
   832     00CD                     	ds	1
   833     00CE                     vfpfcnvrt@ap:
   834                           
   835                           ; 1 bytes @ 0x2E
   836     00CE                     	ds	1
   837     00CF                     ?_vfprintf:
   838     00CF                     vfprintf@fmt:	
   839                           ; 2 bytes @ 0x2F
   840                           
   841                           
   842                           ; 1 bytes @ 0x2F
   843     00CF                     	ds	1
   844     00D0                     vfprintf@ap:
   845                           
   846                           ; 1 bytes @ 0x30
   847     00D0                     	ds	1
   848     00D1                     ?_printf:
   849                           
   850                           ; 2 bytes @ 0x31
   851     00D1                     	ds	5
   852     00D6                     ?_send_noise_to_uart:
   853     00D6                     send_noise_to_uart@value:	
   854                           ; 1 bytes @ 0x36
   855                           
   856                           
   857                           ; 2 bytes @ 0x36
   858     00D6                     	ds	2
   859                           
   860                           	psect	cstackCOMMON
   861     0070                     __pcstackCOMMON:
   862     0070                     ?___fleq:
   863     0070                     ?_strcpy:	
   864                           ; 1 bit 
   865                           
   866     0070                     ?_memcpy:	
   867                           ; 1 bytes @ 0x0
   868                           
   869     0070                     ?_config_adc_channel:	
   870                           ; 1 bytes @ 0x0
   871                           
   872     0070                     ?_config_uart:	
   873                           ; 1 bytes @ 0x0
   874                           
   875     0070                     ?_putch:	
   876                           ; 1 bytes @ 0x0
   877                           
   878     0070                     ??_putch:	
   879                           ; 1 bytes @ 0x0
   880                           
   881     0070                     ?_config_tmr0:	
   882                           ; 1 bytes @ 0x0
   883                           
   884     0070                     ?_main:	
   885                           ; 1 bytes @ 0x0
   886                           
   887     0070                     ?_noise_interruption:	
   888                           ; 1 bytes @ 0x0
   889                           
   890     0070                     ?__Umul8_16:	
   891                           ; 1 bytes @ 0x0
   892                           
   893     0070                     ?___fpclassifyf:	
   894                           ; 2 bytes @ 0x0
   895                           
   896     0070                     ?_read_adc_channel:	
   897                           ; 2 bytes @ 0x0
   898                           
   899     0070                     ?___wmul:	
   900                           ; 2 bytes @ 0x0
   901                           
   902     0070                     ?___awdiv:	
   903                           ; 2 bytes @ 0x0
   904                           
   905     0070                     ?___awmod:	
   906                           ; 2 bytes @ 0x0
   907                           
   908     0070                     ?_labs:	
   909                           ; 2 bytes @ 0x0
   910                           
   911     0070                     ?___flneg:	
   912                           ; 4 bytes @ 0x0
   913                           
   914     0070                     ?___fltol:	
   915                           ; 4 bytes @ 0x0
   916                           
   917     0070                     ?___fladd:	
   918                           ; 4 bytes @ 0x0
   919                           
   920     0070                     ?___fldiv:	
   921                           ; 4 bytes @ 0x0
   922                           
   923     0070                     putch@data:	
   924                           ; 4 bytes @ 0x0
   925                           
   926     0070                     __Umul8_16@multiplicand:	
   927                           ; 1 bytes @ 0x0
   928                           
   929     0070                     memcpy@s1:	
   930                           ; 1 bytes @ 0x0
   931                           
   932     0070                     strcpy@src:	
   933                           ; 1 bytes @ 0x0
   934                           
   935     0070                     ___wmul@multiplier:	
   936                           ; 1 bytes @ 0x0
   937                           
   938     0070                     ___awdiv@divisor:	
   939                           ; 2 bytes @ 0x0
   940                           
   941     0070                     ___awmod@divisor:	
   942                           ; 2 bytes @ 0x0
   943                           
   944     0070                     ___fleq@ff1:	
   945                           ; 2 bytes @ 0x0
   946                           
   947     0070                     ___flneg@f1:	
   948                           ; 4 bytes @ 0x0
   949                           
   950     0070                     ___fltol@f1:	
   951                           ; 4 bytes @ 0x0
   952                           
   953     0070                     ___fladd@b:	
   954                           ; 4 bytes @ 0x0
   955                           
   956     0070                     ___fldiv@a:	
   957                           ; 4 bytes @ 0x0
   958                           
   959     0070                     ___fpclassifyf@x:	
   960                           ; 4 bytes @ 0x0
   961                           
   962     0070                     labs@a:	
   963                           ; 4 bytes @ 0x0
   964                           
   965                           
   966                           ; 4 bytes @ 0x0
   967     0070                     	ds	1
   968     0071                     ??_strcpy:
   969     0071                     ?_fputc:	
   970                           ; 1 bytes @ 0x1
   971                           
   972     0071                     memcpy@n:	
   973                           ; 2 bytes @ 0x1
   974                           
   975     0071                     fputc@c:	
   976                           ; 2 bytes @ 0x1
   977                           
   978                           
   979                           ; 2 bytes @ 0x1
   980     0071                     	ds	1
   981     0072                     ??__Umul8_16:
   982     0072                     ??_read_adc_channel:	
   983                           ; 1 bytes @ 0x2
   984                           
   985     0072                     strcpy@d:	
   986                           ; 1 bytes @ 0x2
   987                           
   988     0072                     ___wmul@multiplicand:	
   989                           ; 1 bytes @ 0x2
   990                           
   991     0072                     ___awdiv@dividend:	
   992                           ; 2 bytes @ 0x2
   993                           
   994     0072                     ___awmod@dividend:	
   995                           ; 2 bytes @ 0x2
   996                           
   997                           
   998                           ; 2 bytes @ 0x2
   999     0072                     	ds	1
  1000     0073                     ??_memcpy:
  1001     0073                     fputc@fp:	
  1002                           ; 1 bytes @ 0x3
  1003                           
  1004     0073                     strcpy@dest:	
  1005                           ; 1 bytes @ 0x3
  1006                           
  1007                           
  1008                           ; 1 bytes @ 0x3
  1009     0073                     	ds	1
  1010     0074                     ??_fputc:
  1011     0074                     ??___fpclassifyf:	
  1012                           ; 1 bytes @ 0x4
  1013                           
  1014     0074                     ??_labs:	
  1015                           ; 1 bytes @ 0x4
  1016                           
  1017     0074                     ??___wmul:	
  1018                           ; 1 bytes @ 0x4
  1019                           
  1020     0074                     ??___awdiv:	
  1021                           ; 1 bytes @ 0x4
  1022                           
  1023     0074                     ??___awmod:	
  1024                           ; 1 bytes @ 0x4
  1025                           
  1026     0074                     ??___flneg:	
  1027                           ; 1 bytes @ 0x4
  1028                           
  1029     0074                     ??___fltol:	
  1030                           ; 1 bytes @ 0x4
  1031                           
  1032     0074                     memcpy@tmp:	
  1033                           ; 1 bytes @ 0x4
  1034                           
  1035     0074                     ___wmul@product:	
  1036                           ; 1 bytes @ 0x4
  1037                           
  1038     0074                     __Umul8_16@product:	
  1039                           ; 2 bytes @ 0x4
  1040                           
  1041     0074                     ___fleq@ff2:	
  1042                           ; 2 bytes @ 0x4
  1043                           
  1044     0074                     ___fladd@a:	
  1045                           ; 4 bytes @ 0x4
  1046                           
  1047     0074                     ___fldiv@b:	
  1048                           ; 4 bytes @ 0x4
  1049                           
  1050                           
  1051                           ; 4 bytes @ 0x4
  1052     0074                     	ds	1
  1053     0075                     ___awdiv@counter:
  1054     0075                     ___awmod@counter:	
  1055                           ; 1 bytes @ 0x5
  1056                           
  1057     0075                     memcpy@d1:	
  1058                           ; 1 bytes @ 0x5
  1059                           
  1060                           
  1061                           ; 1 bytes @ 0x5
  1062     0075                     	ds	1
  1063     0076                     ?_read_prec_or_width:
  1064     0076                     ___awdiv@sign:	
  1065                           ; 2 bytes @ 0x6
  1066                           
  1067     0076                     ___awmod@sign:	
  1068                           ; 1 bytes @ 0x6
  1069                           
  1070     0076                     read_prec_or_width@ap:	
  1071                           ; 1 bytes @ 0x6
  1072                           
  1073     0076                     memcpy@d:	
  1074                           ; 1 bytes @ 0x6
  1075                           
  1076     0076                     __Umul8_16@word_mpld:	
  1077                           ; 1 bytes @ 0x6
  1078                           
  1079                           
  1080                           ; 2 bytes @ 0x6
  1081     0076                     	ds	1
  1082     0077                     ?_abs:
  1083     0077                     memcpy@s:	
  1084                           ; 2 bytes @ 0x7
  1085                           
  1086     0077                     ___awdiv@quotient:	
  1087                           ; 1 bytes @ 0x7
  1088                           
  1089     0077                     abs@a:	
  1090                           ; 2 bytes @ 0x7
  1091                           
  1092                           
  1093                           ; 2 bytes @ 0x7
  1094     0077                     	ds	1
  1095     0078                     ??___fleq:
  1096     0078                     ??___fldiv:	
  1097                           ; 1 bytes @ 0x8
  1098                           
  1099     0078                     ??_read_prec_or_width:	
  1100                           ; 1 bytes @ 0x8
  1101                           
  1102     0078                     ___fltol@sign1:	
  1103                           ; 1 bytes @ 0x8
  1104                           
  1105     0078                     ___fladd@signs:	
  1106                           ; 1 bytes @ 0x8
  1107                           
  1108     0078                     __Umul8_16@multiplier:	
  1109                           ; 1 bytes @ 0x8
  1110                           
  1111     0078                     read_adc_channel@adc_value:	
  1112                           ; 1 bytes @ 0x8
  1113                           
  1114                           
  1115                           ; 2 bytes @ 0x8
  1116     0078                     	ds	1
  1117     0079                     ??_abs:
  1118     0079                     ??___flmul:	
  1119                           ; 1 bytes @ 0x9
  1120                           
  1121     0079                     ?_stoa:	
  1122                           ; 1 bytes @ 0x9
  1123                           
  1124     0079                     ?_fputs:	
  1125                           ; 1 bytes @ 0x9
  1126                           
  1127     0079                     ___fltol@exp1:	
  1128                           ; 2 bytes @ 0x9
  1129                           
  1130     0079                     ___fladd@aexp:	
  1131                           ; 1 bytes @ 0x9
  1132                           
  1133     0079                     stoa@s:	
  1134                           ; 1 bytes @ 0x9
  1135                           
  1136     0079                     read_prec_or_width@c:	
  1137                           ; 1 bytes @ 0x9
  1138                           
  1139     0079                     fputs@fp:	
  1140                           ; 1 bytes @ 0x9
  1141                           
  1142                           
  1143                           ; 1 bytes @ 0x9
  1144     0079                     	ds	1
  1145     007A                     ??_fputs:
  1146     007A                     ??_stoa:	
  1147                           ; 1 bytes @ 0xA
  1148                           
  1149     007A                     ?_read_noise_channel:	
  1150                           ; 1 bytes @ 0xA
  1151                           
  1152     007A                     ___fladd@bexp:	
  1153                           ; 2 bytes @ 0xA
  1154                           
  1155     007A                     read_prec_or_width@n:	
  1156                           ; 1 bytes @ 0xA
  1157                           
  1158                           
  1159                           ; 2 bytes @ 0xA
  1160     007A                     	ds	1
  1161     007B                     ___fladd@grs:
  1162                           
  1163                           ; 1 bytes @ 0xB
  1164     007B                     	ds	1
  1165     007C                     ??_read_noise_channel:
  1166     007C                     ??_pad:	
  1167                           ; 1 bytes @ 0xC
  1168                           
  1169     007C                     read_prec_or_width@fmt:	
  1170                           ; 1 bytes @ 0xC
  1171                           
  1172                           
  1173                           ; 1 bytes @ 0xC
  1174     007C                     	ds	1
  1175     007D                     ??_dtoa:
  1176                           
  1177                           ; 1 bytes @ 0xD
  1178     007D                     	ds	1
  1179     007E                     ??_printf:
  1180     007E                     ??_vfprintf:	
  1181                           ; 1 bytes @ 0xE
  1182                           
  1183     007E                     ??_send_noise_to_uart:	
  1184                           ; 1 bytes @ 0xE
  1185                           
  1186     007E                     ??___flsub:	
  1187                           ; 1 bytes @ 0xE
  1188                           
  1189                           
  1190                           	psect	cstackBANK0
  1191     0020                     __pcstackBANK0:	
  1192                           ; 1 bytes @ 0xE
  1193                           
  1194     0020                     ??___fladd:
  1195     0020                     ?___flmul:	
  1196                           ; 1 bytes @ 0x0
  1197                           
  1198     0020                     fputs@c:	
  1199                           ; 4 bytes @ 0x0
  1200                           
  1201     0020                     stoa@p:	
  1202                           ; 1 bytes @ 0x0
  1203                           
  1204     0020                     ___fpclassifyf@e:	
  1205                           ; 2 bytes @ 0x0
  1206                           
  1207     0020                     ___fldiv@rem:	
  1208                           ; 2 bytes @ 0x0
  1209                           
  1210     0020                     ___flmul@b:	
  1211                           ; 4 bytes @ 0x0
  1212                           
  1213                           
  1214                           ; 4 bytes @ 0x0
  1215     0020                     	ds	1
  1216     0021                     fputs@i:
  1217                           
  1218                           ; 2 bytes @ 0x1
  1219     0021                     	ds	1
  1220     0022                     stoa@fp:
  1221     0022                     ___fpclassifyf@u:	
  1222                           ; 1 bytes @ 0x2
  1223                           
  1224                           
  1225                           ; 4 bytes @ 0x2
  1226     0022                     	ds	1
  1227     0023                     fputs@s:
  1228     0023                     stoa@cp:	
  1229                           ; 1 bytes @ 0x3
  1230                           
  1231                           
  1232                           ; 2 bytes @ 0x3
  1233     0023                     	ds	1
  1234     0024                     ?_pad:
  1235     0024                     ___fldiv@sign:	
  1236                           ; 1 bytes @ 0x4
  1237                           
  1238     0024                     pad@buf:	
  1239                           ; 1 bytes @ 0x4
  1240                           
  1241     0024                     ___flmul@a:	
  1242                           ; 1 bytes @ 0x4
  1243                           
  1244                           
  1245                           ; 4 bytes @ 0x4
  1246     0024                     	ds	1
  1247     0025                     ___fldiv@new_exp:
  1248     0025                     pad@p:	
  1249                           ; 2 bytes @ 0x5
  1250                           
  1251     0025                     stoa@l:	
  1252                           ; 2 bytes @ 0x5
  1253                           
  1254                           
  1255                           ; 2 bytes @ 0x5
  1256     0025                     	ds	2
  1257     0027                     pad@i:
  1258     0027                     ___fldiv@grs:	
  1259                           ; 2 bytes @ 0x7
  1260                           
  1261                           
  1262                           ; 4 bytes @ 0x7
  1263     0027                     	ds	1
  1264     0028                     ___flmul@sign:
  1265                           
  1266                           ; 1 bytes @ 0x8
  1267     0028                     	ds	1
  1268     0029                     pad@fp:
  1269     0029                     ___flmul@grs:	
  1270                           ; 1 bytes @ 0x9
  1271                           
  1272                           
  1273                           ; 4 bytes @ 0x9
  1274     0029                     	ds	1
  1275     002A                     ?_dtoa:
  1276     002A                     dtoa@d:	
  1277                           ; 1 bytes @ 0xA
  1278                           
  1279                           
  1280                           ; 2 bytes @ 0xA
  1281     002A                     	ds	1
  1282     002B                     ___fldiv@bexp:
  1283                           
  1284                           ; 1 bytes @ 0xB
  1285     002B                     	ds	1
  1286     002C                     ___fldiv@aexp:
  1287     002C                     _dtoa$972:	
  1288                           ; 1 bytes @ 0xC
  1289                           
  1290                           
  1291                           ; 2 bytes @ 0xC
  1292     002C                     	ds	1
  1293     002D                     ?_floorf:
  1294     002D                     ___flmul@aexp:	
  1295                           ; 4 bytes @ 0xD
  1296                           
  1297     002D                     floorf@x:	
  1298                           ; 1 bytes @ 0xD
  1299                           
  1300                           
  1301                           ; 4 bytes @ 0xD
  1302     002D                     	ds	1
  1303     002E                     ___flmul@bexp:
  1304     002E                     dtoa@w:	
  1305                           ; 1 bytes @ 0xE
  1306                           
  1307                           
  1308                           ; 2 bytes @ 0xE
  1309     002E                     	ds	1
  1310     002F                     ___flmul@prod:
  1311                           
  1312                           ; 4 bytes @ 0xF
  1313     002F                     	ds	1
  1314     0030                     dtoa@p:
  1315                           
  1316                           ; 2 bytes @ 0x10
  1317     0030                     	ds	1
  1318     0031                     ??_floorf:
  1319                           
  1320                           ; 1 bytes @ 0x11
  1321     0031                     	ds	1
  1322     0032                     dtoa@fp:
  1323                           
  1324                           ; 1 bytes @ 0x12
  1325     0032                     	ds	1
  1326     0033                     dtoa@s:
  1327     0033                     ___flmul@temp:	
  1328                           ; 1 bytes @ 0x13
  1329                           
  1330                           
  1331                           ; 2 bytes @ 0x13
  1332     0033                     	ds	1
  1333     0034                     dtoa@i:
  1334                           
  1335                           ; 2 bytes @ 0x14
  1336     0034                     	ds	1
  1337     0035                     ?___flge:
  1338     0035                     ?___flsub:	
  1339                           ; 1 bit 
  1340                           
  1341     0035                     ___flge@ff1:	
  1342                           ; 4 bytes @ 0x15
  1343                           
  1344     0035                     ___flsub@a:	
  1345                           ; 4 bytes @ 0x15
  1346                           
  1347                           
  1348                           ; 4 bytes @ 0x15
  1349     0035                     	ds	2
  1350     0037                     floorf@m:
  1351                           
  1352                           ; 4 bytes @ 0x17
  1353     0037                     	ds	2
  1354     0039                     ___flge@ff2:
  1355     0039                     ___flsub@b:	
  1356                           ; 4 bytes @ 0x19
  1357                           
  1358                           
  1359                           ; 4 bytes @ 0x19
  1360     0039                     	ds	2
  1361     003B                     floorf@e:
  1362                           
  1363                           ; 2 bytes @ 0x1B
  1364     003B                     	ds	2
  1365     003D                     ??___flge:
  1366     003D                     floorf@u:	
  1367                           ; 1 bytes @ 0x1D
  1368                           
  1369                           
  1370                           ; 4 bytes @ 0x1D
  1371     003D                     	ds	4
  1372     0041                     ?_efgtoa:
  1373     0041                     efgtoa@f:	
  1374                           ; 1 bytes @ 0x21
  1375                           
  1376                           
  1377                           ; 4 bytes @ 0x21
  1378     0041                     	ds	4
  1379     0045                     efgtoa@c:
  1380                           
  1381                           ; 1 bytes @ 0x25
  1382     0045                     	ds	1
  1383     0046                     ??_efgtoa:
  1384                           
  1385                           ; 1 bytes @ 0x26
  1386     0046                     	ds	4
  1387     004A                     ??_vfpfcnvrt:
  1388                           
  1389                           ; 1 bytes @ 0x2A
  1390     004A                     	ds	2
  1391     004C                     vfpfcnvrt@done:
  1392                           
  1393                           ; 1 bytes @ 0x2C
  1394     004C                     	ds	1
  1395     004D                     vfpfcnvrt@convarg:
  1396                           
  1397                           ; 4 bytes @ 0x2D
  1398     004D                     	ds	4
  1399     0051                     vfpfcnvrt@c:
  1400                           
  1401                           ; 1 bytes @ 0x31
  1402     0051                     	ds	1
  1403     0052                     vfpfcnvrt@fp:
  1404                           
  1405                           ; 1 bytes @ 0x32
  1406     0052                     	ds	1
  1407     0053                     vfpfcnvrt@cp:
  1408                           
  1409                           ; 1 bytes @ 0x33
  1410     0053                     	ds	1
  1411     0054                     vfprintf@fp:
  1412                           
  1413                           ; 1 bytes @ 0x34
  1414     0054                     	ds	1
  1415     0055                     vfprintf@cfmt:
  1416                           
  1417                           ; 1 bytes @ 0x35
  1418     0055                     	ds	1
  1419     0056                     printf@fmt:
  1420                           
  1421                           ; 1 bytes @ 0x36
  1422     0056                     	ds	1
  1423     0057                     printf@ap:
  1424                           
  1425                           ; 1 bytes @ 0x37
  1426     0057                     	ds	1
  1427     0058                     ??_noise_interruption:
  1428                           
  1429                           ; 1 bytes @ 0x38
  1430     0058                     	ds	4
  1431                           
  1432                           	psect	maintext
  1433     1E50                     __pmaintext:	
  1434 ;;
  1435 ;;Main: autosize = 0, tempsize = 0, incstack = 0, save=0
  1436 ;;
  1437 ;; *************** function _main *****************
  1438 ;; Defined at:
  1439 ;;		line 19 in file "noise_test.c"
  1440 ;; Parameters:    Size  Location     Type
  1441 ;;		None
  1442 ;; Auto vars:     Size  Location     Type
  1443 ;;		None
  1444 ;; Return value:  Size  Location     Type
  1445 ;;                  1    wreg      void 
  1446 ;; Registers used:
  1447 ;;		wreg, status,2, status,0, pclath, cstack
  1448 ;; Tracked objects:
  1449 ;;		On entry : B00/0
  1450 ;;		On exit  : 0/0
  1451 ;;		Unchanged: 0/0
  1452 ;; Data sizes:     COMMON   BANK0   BANK1   BANK3   BANK2
  1453 ;;      Params:         0       0       0       0       0
  1454 ;;      Locals:         0       0       0       0       0
  1455 ;;      Temps:          0       0       0       0       0
  1456 ;;      Totals:         0       0       0       0       0
  1457 ;;Total ram usage:        0 bytes
  1458 ;; Hardware stack levels required when called: 11
  1459 ;; This function calls:
  1460 ;;		_config_adc_channel
  1461 ;;		_config_tmr0
  1462 ;;		_config_uart
  1463 ;; This function is called by:
  1464 ;;		Startup code after reset
  1465 ;; This function uses a non-reentrant model
  1466 ;;
  1467                           
  1468     1E50                     _main:	
  1469                           ;psect for function _main
  1470                           
  1471     1E50                     l3535:	
  1472                           ;incstack = 0
  1473 ;; hardware stack exceeded
  1474                           ; Regs used in _main: [wreg+status,2+status,0+pclath+cstack]
  1475                           
  1476                           
  1477                           ;noise_test.c: 20:     config_adc_channel ();
  1478     1E50  160A  158A  25FE  160A  158A  	fcall	_config_adc_channel
  1479                           
  1480                           ;noise_test.c: 21:     config_tmr0 ();
  1481     1E55  160A  158A  261D  160A  158A  	fcall	_config_tmr0
  1482                           
  1483                           ;noise_test.c: 22:     config_uart ();
  1484     1E5A  160A  158A  2663  160A  158A  	fcall	_config_uart
  1485     1E5F                     l102:	
  1486                           ;noise_test.c: 24:     while(1);
  1487                           
  1488     1E5F                     l103:
  1489     1E5F  2E5F               	goto	l102
  1490     1E60  120A  118A  2812   	ljmp	start
  1491     1E63                     __end_of_main:
  1492                           
  1493                           	psect	text1
  1494     1E63                     __ptext1:	
  1495 ;; *************** function _config_uart *****************
  1496 ;; Defined at:
  1497 ;;		line 3 in file "src/protocols/uart.c"
  1498 ;; Parameters:    Size  Location     Type
  1499 ;;		None
  1500 ;; Auto vars:     Size  Location     Type
  1501 ;;		None
  1502 ;; Return value:  Size  Location     Type
  1503 ;;                  1    wreg      void 
  1504 ;; Registers used:
  1505 ;;		wreg, status,2
  1506 ;; Tracked objects:
  1507 ;;		On entry : 0/0
  1508 ;;		On exit  : 0/0
  1509 ;;		Unchanged: 0/0
  1510 ;; Data sizes:     COMMON   BANK0   BANK1   BANK3   BANK2
  1511 ;;      Params:         0       0       0       0       0
  1512 ;;      Locals:         0       0       0       0       0
  1513 ;;      Temps:          0       0       0       0       0
  1514 ;;      Totals:         0       0       0       0       0
  1515 ;;Total ram usage:        0 bytes
  1516 ;; Hardware stack levels used: 1
  1517 ;; Hardware stack levels required when called: 10
  1518 ;; This function calls:
  1519 ;;		Nothing
  1520 ;; This function is called by:
  1521 ;;		_main
  1522 ;; This function uses a non-reentrant model
  1523 ;;
  1524                           
  1525     1E63                     _config_uart:	
  1526                           ;psect for function _config_uart
  1527                           
  1528     1E63                     l3485:	
  1529                           ;incstack = 0
  1530 ;; hardware stack exceeded
  1531                           ; Regs used in _config_uart: [wreg+status,2]
  1532                           
  1533                           
  1534                           ;src/protocols/uart.c: 5:   TXSTAbits.BRGH = 0;
  1535     1E63  1683               	bsf	3,5	;RP0=1, select bank1
  1536     1E64  1303               	bcf	3,6	;RP1=0, select bank1
  1537     1E65  1118               	bcf	24,2	;volatile
  1538                           
  1539                           ;src/protocols/uart.c: 6:   BAUDCTLbits.BRG16 = 0;
  1540     1E66  1683               	bsf	3,5	;RP0=1, select bank3
  1541     1E67  1703               	bsf	3,6	;RP1=1, select bank3
  1542     1E68  1187               	bcf	7,3	;volatile
  1543     1E69                     l3487:
  1544                           
  1545                           ;src/protocols/uart.c: 9:   SPBRGH = 0;
  1546     1E69  1683               	bsf	3,5	;RP0=1, select bank1
  1547     1E6A  1303               	bcf	3,6	;RP1=0, select bank1
  1548     1E6B  019A               	clrf	26	;volatile
  1549     1E6C                     l3489:
  1550                           
  1551                           ;src/protocols/uart.c: 10:   SPBRG = 32;
  1552     1E6C  3020               	movlw	32
  1553     1E6D  0099               	movwf	25	;volatile
  1554     1E6E                     l3491:
  1555                           
  1556                           ;src/protocols/uart.c: 12:   TXSTAbits.SYNC = 0;
  1557     1E6E  1218               	bcf	24,4	;volatile
  1558     1E6F                     l3493:
  1559                           
  1560                           ;src/protocols/uart.c: 13:   TXSTAbits.TX9 = 0;
  1561     1E6F  1318               	bcf	24,6	;volatile
  1562     1E70                     l3495:
  1563                           
  1564                           ;src/protocols/uart.c: 14:   RCSTAbits.RX9 = 0;
  1565     1E70  1283               	bcf	3,5	;RP0=0, select bank0
  1566     1E71  1303               	bcf	3,6	;RP1=0, select bank0
  1567     1E72  1318               	bcf	24,6	;volatile
  1568     1E73                     l3497:
  1569                           
  1570                           ;src/protocols/uart.c: 16:   PIE1bits.TXIE = 0;
  1571     1E73  1683               	bsf	3,5	;RP0=1, select bank1
  1572     1E74  1303               	bcf	3,6	;RP1=0, select bank1
  1573     1E75  120C               	bcf	12,4	;volatile
  1574     1E76                     l3499:
  1575                           
  1576                           ;src/protocols/uart.c: 17:   PIE1bits.RCIE = 1;
  1577     1E76  168C               	bsf	12,5	;volatile
  1578     1E77                     l3501:
  1579                           
  1580                           ;src/protocols/uart.c: 19:   RCSTAbits.SPEN = 1;
  1581     1E77  1283               	bcf	3,5	;RP0=0, select bank0
  1582     1E78  1303               	bcf	3,6	;RP1=0, select bank0
  1583     1E79  1798               	bsf	24,7	;volatile
  1584     1E7A                     l3503:
  1585                           
  1586                           ;src/protocols/uart.c: 21:   TXSTAbits.TXEN = 0;
  1587     1E7A  1683               	bsf	3,5	;RP0=1, select bank1
  1588     1E7B  1303               	bcf	3,6	;RP1=0, select bank1
  1589     1E7C  1298               	bcf	24,5	;volatile
  1590     1E7D                     l3505:
  1591                           
  1592                           ;src/protocols/uart.c: 22:   TXSTAbits.TXEN = 1;
  1593     1E7D  1698               	bsf	24,5	;volatile
  1594     1E7E                     l3507:
  1595                           
  1596                           ;src/protocols/uart.c: 24:   RCSTAbits.CREN = 0;
  1597     1E7E  1283               	bcf	3,5	;RP0=0, select bank0
  1598     1E7F  1303               	bcf	3,6	;RP1=0, select bank0
  1599     1E80  1218               	bcf	24,4	;volatile
  1600     1E81                     l3509:
  1601                           
  1602                           ;src/protocols/uart.c: 25:   RCSTAbits.CREN = 1;
  1603     1E81  1618               	bsf	24,4	;volatile
  1604     1E82                     l39:
  1605     1E82  0008               	return
  1606     1E83                     __end_of_config_uart:
  1607                           
  1608                           	psect	text2
  1609     1E1D                     __ptext2:	
  1610 ;; *************** function _config_tmr0 *****************
  1611 ;; Defined at:
  1612 ;;		line 3 in file "src/timers/tmr0.c"
  1613 ;; Parameters:    Size  Location     Type
  1614 ;;		None
  1615 ;; Auto vars:     Size  Location     Type
  1616 ;;		None
  1617 ;; Return value:  Size  Location     Type
  1618 ;;                  1    wreg      void 
  1619 ;; Registers used:
  1620 ;;		wreg, status,2, status,0
  1621 ;; Tracked objects:
  1622 ;;		On entry : 0/0
  1623 ;;		On exit  : 0/0
  1624 ;;		Unchanged: 0/0
  1625 ;; Data sizes:     COMMON   BANK0   BANK1   BANK3   BANK2
  1626 ;;      Params:         0       0       0       0       0
  1627 ;;      Locals:         0       0       0       0       0
  1628 ;;      Temps:          0       0       0       0       0
  1629 ;;      Totals:         0       0       0       0       0
  1630 ;;Total ram usage:        0 bytes
  1631 ;; Hardware stack levels used: 1
  1632 ;; Hardware stack levels required when called: 10
  1633 ;; This function calls:
  1634 ;;		Nothing
  1635 ;; This function is called by:
  1636 ;;		_main
  1637 ;; This function uses a non-reentrant model
  1638 ;;
  1639                           
  1640     1E1D                     _config_tmr0:	
  1641                           ;psect for function _config_tmr0
  1642                           
  1643     1E1D                     l3519:	
  1644                           ;incstack = 0
  1645 ;; hardware stack exceeded
  1646                           ; Regs used in _config_tmr0: [wreg+status,2+status,0]
  1647                           
  1648                           
  1649                           ;src/timers/tmr0.c: 5:     INTCONbits.GIE = 1;
  1650     1E1D  178B               	bsf	11,7	;volatile
  1651                           
  1652                           ;src/timers/tmr0.c: 6:     INTCONbits.T0IE = 1;
  1653     1E1E  168B               	bsf	11,5	;volatile
  1654                           
  1655                           ;src/timers/tmr0.c: 7:     OPTION_REGbits.T0CS = 0;
  1656     1E1F  1683               	bsf	3,5	;RP0=1, select bank1
  1657     1E20  1303               	bcf	3,6	;RP1=0, select bank1
  1658     1E21  1281               	bcf	1,5	;volatile
  1659                           
  1660                           ;src/timers/tmr0.c: 8:     OPTION_REGbits.PSA = 0;
  1661     1E22  1181               	bcf	1,3	;volatile
  1662     1E23                     l3521:
  1663                           
  1664                           ;src/timers/tmr0.c: 9:     OPTION_REGbits.PS = 0b110;
  1665     1E23  0801               	movf	1,w	;volatile
  1666     1E24  39F8               	andlw	-8
  1667     1E25  3806               	iorlw	6
  1668     1E26  0081               	movwf	1	;volatile
  1669     1E27                     l3523:
  1670                           
  1671                           ;src/timers/tmr0.c: 10:     TMR0 = 61;
  1672     1E27  303D               	movlw	61
  1673     1E28  1283               	bcf	3,5	;RP0=0, select bank0
  1674     1E29  1303               	bcf	3,6	;RP1=0, select bank0
  1675     1E2A  0081               	movwf	1	;volatile
  1676     1E2B                     l3525:
  1677                           
  1678                           ;src/timers/tmr0.c: 11:     INTCONbits.T0IF = 0;
  1679     1E2B  110B               	bcf	11,2	;volatile
  1680     1E2C                     l79:
  1681     1E2C  0008               	return
  1682     1E2D                     __end_of_config_tmr0:
  1683                           
  1684                           	psect	text3
  1685     1DFE                     __ptext3:	
  1686 ;; *************** function _config_adc_channel *****************
  1687 ;; Defined at:
  1688 ;;		line 3 in file "src/adc/adc.c"
  1689 ;; Parameters:    Size  Location     Type
  1690 ;;		None
  1691 ;; Auto vars:     Size  Location     Type
  1692 ;;		None
  1693 ;; Return value:  Size  Location     Type
  1694 ;;                  1    wreg      void 
  1695 ;; Registers used:
  1696 ;;		wreg, status,2, status,0
  1697 ;; Tracked objects:
  1698 ;;		On entry : 0/0
  1699 ;;		On exit  : 0/0
  1700 ;;		Unchanged: 0/0
  1701 ;; Data sizes:     COMMON   BANK0   BANK1   BANK3   BANK2
  1702 ;;      Params:         0       0       0       0       0
  1703 ;;      Locals:         0       0       0       0       0
  1704 ;;      Temps:          0       0       0       0       0
  1705 ;;      Totals:         0       0       0       0       0
  1706 ;;Total ram usage:        0 bytes
  1707 ;; Hardware stack levels used: 1
  1708 ;; Hardware stack levels required when called: 10
  1709 ;; This function calls:
  1710 ;;		Nothing
  1711 ;; This function is called by:
  1712 ;;		_main
  1713 ;; This function uses a non-reentrant model
  1714 ;;
  1715                           
  1716     1DFE                     _config_adc_channel:	
  1717                           ;psect for function _config_adc_channel
  1718                           
  1719     1DFE                     l3481:	
  1720                           ;incstack = 0
  1721 ;; hardware stack exceeded
  1722                           ; Regs used in _config_adc_channel: [wreg+status,2+status,0]
  1723                           
  1724                           
  1725                           ;src/adc/adc.c: 5:     ADCON0bits.ADON = 1;
  1726     1DFE  1283               	bcf	3,5	;RP0=0, select bank0
  1727     1DFF  1303               	bcf	3,6	;RP1=0, select bank0
  1728     1E00  141F               	bsf	31,0	;volatile
  1729                           
  1730                           ;src/adc/adc.c: 6:     ADCON1bits.VCFG0 = 0;
  1731     1E01  1683               	bsf	3,5	;RP0=1, select bank1
  1732     1E02  1303               	bcf	3,6	;RP1=0, select bank1
  1733     1E03  121F               	bcf	31,4	;volatile
  1734                           
  1735                           ;src/adc/adc.c: 7:     ADCON1bits.VCFG1 = 0;
  1736     1E04  129F               	bcf	31,5	;volatile
  1737                           
  1738                           ;src/adc/adc.c: 8:     ADCON1bits.ADFM = 1;
  1739     1E05  179F               	bsf	31,7	;volatile
  1740     1E06                     l3483:
  1741                           
  1742                           ;src/adc/adc.c: 9:     ADCON0bits.ADCS = 0b10;
  1743     1E06  1283               	bcf	3,5	;RP0=0, select bank0
  1744     1E07  1303               	bcf	3,6	;RP1=0, select bank0
  1745     1E08  081F               	movf	31,w	;volatile
  1746     1E09  393F               	andlw	-193
  1747     1E0A  3880               	iorlw	128
  1748     1E0B  009F               	movwf	31	;volatile
  1749     1E0C                     l11:
  1750     1E0C  0008               	return
  1751     1E0D                     __end_of_config_adc_channel:
  1752                           
  1753                           	psect	text4
  1754     1F91                     __ptext4:	
  1755 ;; *************** function _noise_interruption *****************
  1756 ;; Defined at:
  1757 ;;		line 27 in file "noise_test.c"
  1758 ;; Parameters:    Size  Location     Type
  1759 ;;		None
  1760 ;; Auto vars:     Size  Location     Type
  1761 ;;		None
  1762 ;; Return value:  Size  Location     Type
  1763 ;;                  1    wreg      void 
  1764 ;; Registers used:
  1765 ;;		wreg, fsr0l, fsr0h, status,2, status,0, btemp+1, pclath, cstack
  1766 ;; Tracked objects:
  1767 ;;		On entry : 0/0
  1768 ;;		On exit  : 0/0
  1769 ;;		Unchanged: 0/0
  1770 ;; Data sizes:     COMMON   BANK0   BANK1   BANK3   BANK2
  1771 ;;      Params:         0       0       0       0       0
  1772 ;;      Locals:         0       0       0       0       0
  1773 ;;      Temps:          0       4       0       0       0
  1774 ;;      Totals:         0       4       0       0       0
  1775 ;;Total ram usage:        4 bytes
  1776 ;; Hardware stack levels used: 1
  1777 ;; Hardware stack levels required when called: 9
  1778 ;; This function calls:
  1779 ;;		_read_noise_channel
  1780 ;;		_send_noise_to_uart
  1781 ;; This function is called by:
  1782 ;;		Interrupt level 1
  1783 ;; This function uses a non-reentrant model
  1784 ;;
  1785                           
  1786     1F91                     _noise_interruption:	
  1787                           ;psect for function _noise_interruption
  1788                           
  1789     1F91                     i1l3537:
  1790                           
  1791                           ;noise_test.c: 29:     if(counter == 100)
  1792     1F91  3064               	movlw	100
  1793     1F92  1683               	bsf	3,5	;RP0=1, select bank1
  1794     1F93  1303               	bcf	3,6	;RP1=0, select bank1
  1795     1F94  0658               	xorwf	_counter^(0+128),w
  1796     1F95  0459               	iorwf	(_counter+1)^(0+128),w
  1797     1F96  1D03               	btfss	3,2
  1798     1F97  2F99               	goto	u514_21
  1799     1F98  2F9A               	goto	u514_20
  1800     1F99                     u514_21:
  1801     1F99  2FB3               	goto	i1l3547
  1802     1F9A                     u514_20:
  1803     1F9A                     i1l3539:
  1804                           
  1805                           ;noise_test.c: 30:     {;noise_test.c: 31:     INTCONbits.T0IF = 0;
  1806     1F9A  110B               	bcf	11,2	;volatile
  1807     1F9B                     i1l3541:
  1808                           
  1809                           ;noise_test.c: 32:     noise = read_noise_channel();
  1810     1F9B  160A  158A  260D  160A  158A  	fcall	_read_noise_channel
  1811     1FA0  087B               	movf	?_read_noise_channel+1,w
  1812     1FA1  1683               	bsf	3,5	;RP0=1, select bank1
  1813     1FA2  1303               	bcf	3,6	;RP1=0, select bank1
  1814     1FA3  00DB               	movwf	(_noise+1)^(0+128)
  1815     1FA4  087A               	movf	?_read_noise_channel,w
  1816     1FA5  00DA               	movwf	_noise^(0+128)
  1817     1FA6                     i1l3543:
  1818                           
  1819                           ;noise_test.c: 33:     send_noise_to_uart (noise);
  1820     1FA6  085B               	movf	(_noise+1)^(0+128),w
  1821     1FA7  00D7               	movwf	(send_noise_to_uart@value+1)^(0+128)
  1822     1FA8  085A               	movf	_noise^(0+128),w
  1823     1FA9  00D6               	movwf	send_noise_to_uart@value^(0+128)
  1824     1FAA  160A  158A  25F1  160A  158A  	fcall	_send_noise_to_uart
  1825     1FAF                     i1l3545:
  1826                           
  1827                           ;noise_test.c: 34:     counter = 0;
  1828     1FAF  1683               	bsf	3,5	;RP0=1, select bank1
  1829     1FB0  1303               	bcf	3,6	;RP1=0, select bank1
  1830     1FB1  01D8               	clrf	_counter^(0+128)
  1831     1FB2  01D9               	clrf	(_counter+1)^(0+128)
  1832     1FB3                     i1l3547:
  1833                           
  1834                           ;noise_test.c: 36:     counter ++;
  1835     1FB3  3001               	movlw	1
  1836     1FB4  07D8               	addwf	_counter^(0+128),f
  1837     1FB5  1803               	skipnc
  1838     1FB6  0AD9               	incf	(_counter+1)^(0+128),f
  1839     1FB7  3000               	movlw	0
  1840     1FB8  07D9               	addwf	(_counter+1)^(0+128),f
  1841     1FB9                     i1l111:
  1842     1FB9  1283               	bcf	3,5	;RP0=0, select bank0
  1843     1FBA  1303               	bcf	3,6	;RP1=0, select bank0
  1844     1FBB  085B               	movf	??_noise_interruption+3,w
  1845     1FBC  00FF               	movwf	btemp+1
  1846     1FBD  085A               	movf	??_noise_interruption+2,w
  1847     1FBE  008A               	movwf	10
  1848     1FBF  0859               	movf	??_noise_interruption+1,w
  1849     1FC0  0084               	movwf	4
  1850     1FC1  0E58               	swapf	??_noise_interruption,w
  1851     1FC2  0083               	movwf	3
  1852     1FC3  0EFE               	swapf	btemp,f
  1853     1FC4  0E7E               	swapf	btemp,w
  1854     1FC5  0009               	retfie
  1855     1FC6                     __end_of_noise_interruption:
  1856                           
  1857                           	psect	intentry
  1858     0004                     __pintentry:	
  1859                           ;incstack = 0
  1860 ;; hardware stack exceeded
  1861                           ; Regs used in _noise_interruption: [wreg-fsr0h+status,2+status,0+btemp+1+pclath+cstack]
  1862                           
  1863     0004                     interrupt_function:
  1864     007E                     saved_w	set	btemp
  1865     0004  00FE               	movwf	btemp
  1866     0005  0E03               	swapf	3,w
  1867     0006  1283               	bcf	3,5	;RP0=0, select bank0
  1868     0007  1303               	bcf	3,6	;RP1=0, select bank0
  1869     0008  00D8               	movwf	??_noise_interruption
  1870     0009  0804               	movf	4,w
  1871     000A  00D9               	movwf	??_noise_interruption+1
  1872     000B  080A               	movf	10,w
  1873     000C  00DA               	movwf	??_noise_interruption+2
  1874     000D  087F               	movf	btemp+1,w
  1875     000E  00DB               	movwf	??_noise_interruption+3
  1876     000F  160A  158A  2F91   	ljmp	_noise_interruption
  1877                           
  1878                           	psect	text5
  1879     1DF1                     __ptext5:	
  1880 ;; *************** function _send_noise_to_uart *****************
  1881 ;; Defined at:
  1882 ;;		line 29 in file "src/protocols/uart.c"
  1883 ;; Parameters:    Size  Location     Type
  1884 ;;  value           2   54[BANK1 ] unsigned short 
  1885 ;; Auto vars:     Size  Location     Type
  1886 ;;		None
  1887 ;; Return value:  Size  Location     Type
  1888 ;;                  1    wreg      void 
  1889 ;; Registers used:
  1890 ;;		wreg, fsr0l, fsr0h, status,2, status,0, btemp+1, pclath, cstack
  1891 ;; Tracked objects:
  1892 ;;		On entry : 0/0
  1893 ;;		On exit  : 0/0
  1894 ;;		Unchanged: 0/0
  1895 ;; Data sizes:     COMMON   BANK0   BANK1   BANK3   BANK2
  1896 ;;      Params:         0       0       2       0       0
  1897 ;;      Locals:         0       0       0       0       0
  1898 ;;      Temps:          0       0       0       0       0
  1899 ;;      Totals:         0       0       2       0       0
  1900 ;;Total ram usage:        2 bytes
  1901 ;; Hardware stack levels used: 1
  1902 ;; Hardware stack levels required when called: 8
  1903 ;; This function calls:
  1904 ;;		_printf
  1905 ;; This function is called by:
  1906 ;;		_noise_interruption
  1907 ;; This function uses a non-reentrant model
  1908 ;;
  1909                           
  1910     1DF1                     _send_noise_to_uart:	
  1911                           ;psect for function _send_noise_to_uart
  1912                           
  1913     1DF1                     i1l3511:	
  1914                           ;incstack = 0
  1915 ;; hardware stack exceeded
  1916                           ; Regs used in _send_noise_to_uart: [wreg-fsr0h+status,2+status,0+btemp+1+pclath+cstack]
  1917                           
  1918                           
  1919                           ;src/protocols/uart.c: 29: void send_noise_to_uart (uint16_t value);src/protocols/uart.c
      +                          : 30: {;src/protocols/uart.c: 31:     printf("noise value: [%i] \r\n",value);
  1920     1DF1  1683               	bsf	3,5	;RP0=1, select bank1
  1921     1DF2  1303               	bcf	3,6	;RP1=0, select bank1
  1922     1DF3  0857               	movf	(send_noise_to_uart@value+1)^(0+128),w
  1923     1DF4  00D2               	movwf	(?_printf+1)^(0+128)
  1924     1DF5  0856               	movf	send_noise_to_uart@value^(0+128),w
  1925     1DF6  00D1               	movwf	?_printf^(0+128)
  1926     1DF7  3001               	movlw	(low ((STR_1-__stringbase)| (0+32768)))& (0+255)
  1927     1DF8  160A  158A  263E  160A  158A  	fcall	_printf
  1928     1DFD                     i1l42:
  1929     1DFD  0008               	return
  1930     1DFE                     __end_of_send_noise_to_uart:
  1931                           
  1932                           	psect	text6
  1933     1E3E                     __ptext6:	
  1934 ;; *************** function _printf *****************
  1935 ;; Defined at:
  1936 ;;		line 5 in file "/opt/microchip/xc8/v2.45/pic/sources/c99/common/printf.c"
  1937 ;; Parameters:    Size  Location     Type
  1938 ;;  fmt             1    wreg     PTR const unsigned char 
  1939 ;;		 -> STR_2(20), STR_1(21), 
  1940 ;; Auto vars:     Size  Location     Type
  1941 ;;  fmt             1   54[BANK0 ] PTR const unsigned char 
  1942 ;;		 -> STR_2(20), STR_1(21), 
  1943 ;;  ret             2    0        int 
  1944 ;;  ap              1   55[BANK0 ] PTR void [1]
  1945 ;;		 -> ?_printf(2), 
  1946 ;; Return value:  Size  Location     Type
  1947 ;;                  2   49[BANK1 ] int 
  1948 ;; Registers used:
  1949 ;;		wreg, fsr0l, fsr0h, status,2, status,0, btemp+1, pclath, cstack
  1950 ;; Tracked objects:
  1951 ;;		On entry : 0/0
  1952 ;;		On exit  : 0/0
  1953 ;;		Unchanged: 0/0
  1954 ;; Data sizes:     COMMON   BANK0   BANK1   BANK3   BANK2
  1955 ;;      Params:         0       0       5       0       0
  1956 ;;      Locals:         0       2       0       0       0
  1957 ;;      Temps:          0       0       0       0       0
  1958 ;;      Totals:         0       2       5       0       0
  1959 ;;Total ram usage:        7 bytes
  1960 ;; Hardware stack levels used: 1
  1961 ;; Hardware stack levels required when called: 7
  1962 ;; This function calls:
  1963 ;;		_vfprintf
  1964 ;; This function is called by:
  1965 ;;		_send_noise_to_uart
  1966 ;;		_send_float_to_uart
  1967 ;; This function uses a non-reentrant model
  1968 ;;
  1969                           
  1970     1E3E                     _printf:	
  1971                           ;psect for function _printf
  1972                           
  1973                           
  1974                           ;incstack = 0
  1975 ;; hardware stack exceeded
  1976                           ; Regs used in _printf: [wreg-fsr0h+status,2+status,0+btemp+1+pclath+cstack]
  1977                           ;printf@fmt stored from wreg
  1978     1E3E  1283               	bcf	3,5	;RP0=0, select bank0
  1979     1E3F  1303               	bcf	3,6	;RP1=0, select bank0
  1980     1E40  00D6               	movwf	printf@fmt
  1981     1E41                     i1l3475:
  1982     1E41  30D1               	movlw	(low (?_printf| 0))& (0+255)
  1983     1E42  00D7               	movwf	printf@ap
  1984     1E43                     i1l3477:
  1985     1E43  0856               	movf	printf@fmt,w
  1986     1E44  1683               	bsf	3,5	;RP0=1, select bank1
  1987     1E45  1303               	bcf	3,6	;RP1=0, select bank1
  1988     1E46  00CF               	movwf	vfprintf@fmt^(0+128)
  1989     1E47  3057               	movlw	(low (printf@ap| 0))& (0+255)
  1990     1E48  00D0               	movwf	vfprintf@ap^(0+128)
  1991     1E49  3000               	movlw	0
  1992     1E4A  160A  158A  2766  160A  158A  	fcall	_vfprintf
  1993     1E4F                     i1l660:
  1994     1E4F  0008               	return
  1995     1E50                     __end_of_printf:
  1996                           
  1997                           	psect	text7
  1998     1F66                     __ptext7:	
  1999 ;; *************** function _vfprintf *****************
  2000 ;; Defined at:
  2001 ;;		line 1817 in file "/opt/microchip/xc8/v2.45/pic/sources/c99/common/doprnt.c"
  2002 ;; Parameters:    Size  Location     Type
  2003 ;;  fp              1    wreg     PTR struct _IO_FILE
  2004 ;;		 -> NULL(0), 
  2005 ;;  fmt             1   47[BANK1 ] PTR const unsigned char 
  2006 ;;		 -> STR_2(20), STR_1(21), 
  2007 ;;  ap              1   48[BANK1 ] PTR PTR void 
  2008 ;;		 -> printf@ap(1), 
  2009 ;; Auto vars:     Size  Location     Type
  2010 ;;  fp              1   52[BANK0 ] PTR struct _IO_FILE
  2011 ;;		 -> NULL(0), 
  2012 ;;  cfmt            1   53[BANK0 ] PTR unsigned char 
  2013 ;;		 -> STR_2(20), STR_1(21), 
  2014 ;; Return value:  Size  Location     Type
  2015 ;;                  2   47[BANK1 ] int 
  2016 ;; Registers used:
  2017 ;;		wreg, fsr0l, fsr0h, status,2, status,0, btemp+1, pclath, cstack
  2018 ;; Tracked objects:
  2019 ;;		On entry : 0/0
  2020 ;;		On exit  : 0/0
  2021 ;;		Unchanged: 0/0
  2022 ;; Data sizes:     COMMON   BANK0   BANK1   BANK3   BANK2
  2023 ;;      Params:         0       0       2       0       0
  2024 ;;      Locals:         0       2       0       0       0
  2025 ;;      Temps:          0       0       0       0       0
  2026 ;;      Totals:         0       2       2       0       0
  2027 ;;Total ram usage:        4 bytes
  2028 ;; Hardware stack levels used: 1
  2029 ;; Hardware stack levels required when called: 6
  2030 ;; This function calls:
  2031 ;;		_vfpfcnvrt
  2032 ;; This function is called by:
  2033 ;;		_printf
  2034 ;; This function uses a non-reentrant model
  2035 ;;
  2036                           
  2037     1F66                     _vfprintf:	
  2038                           ;psect for function _vfprintf
  2039                           
  2040                           
  2041                           ;incstack = 0
  2042 ;; hardware stack exceeded
  2043                           ; Regs used in _vfprintf: [wreg-fsr0h+status,2+status,0+btemp+1+pclath+cstack]
  2044                           ;vfprintf@fp stored from wreg
  2045     1F66  1283               	bcf	3,5	;RP0=0, select bank0
  2046     1F67  1303               	bcf	3,6	;RP1=0, select bank0
  2047     1F68  00D4               	movwf	vfprintf@fp
  2048     1F69                     i1l3459:
  2049                           
  2050                           ;/opt/microchip/xc8/v2.45/pic/sources/c99/common/doprnt.c: 1817: int vfprintf(FILE *fp, 
      +                          const char *fmt, va_list ap);/opt/microchip/xc8/v2.45/pic/sources/c99/common/doprnt.c: 1
      +                          818: {;/opt/microchip/xc8/v2.45/pic/sources/c99/common/doprnt.c: 1820:     char *cfmt;;/
      +                          opt/microchip/xc8/v2.45/pic/sources/c99/common/doprnt.c: 1822:     cfmt = (char *)fmt;
  2051     1F69  1683               	bsf	3,5	;RP0=1, select bank1
  2052     1F6A  1303               	bcf	3,6	;RP1=0, select bank1
  2053     1F6B  084F               	movf	vfprintf@fmt^(0+128),w
  2054     1F6C  1283               	bcf	3,5	;RP0=0, select bank0
  2055     1F6D  1303               	bcf	3,6	;RP1=0, select bank0
  2056     1F6E  00D5               	movwf	vfprintf@cfmt
  2057                           
  2058                           ;/opt/microchip/xc8/v2.45/pic/sources/c99/common/doprnt.c: 1826:     while (*cfmt) {
  2059     1F6F  2F7E               	goto	i1l3463
  2060     1F70                     i1l3461:
  2061                           
  2062                           ;/opt/microchip/xc8/v2.45/pic/sources/c99/common/doprnt.c: 1830:    vfpfcnvrt(fp, &cfmt,
      +                           ap);
  2063     1F70  3055               	movlw	(low (vfprintf@cfmt| 0))& (0+255)
  2064     1F71  1683               	bsf	3,5	;RP0=1, select bank1
  2065     1F72  1303               	bcf	3,6	;RP1=0, select bank1
  2066     1F73  00CD               	movwf	vfpfcnvrt@fmt^(0+128)
  2067     1F74  0850               	movf	vfprintf@ap^(0+128),w
  2068     1F75  00CE               	movwf	vfpfcnvrt@ap^(0+128)
  2069     1F76  1283               	bcf	3,5	;RP0=0, select bank0
  2070     1F77  1303               	bcf	3,6	;RP1=0, select bank0
  2071     1F78  0854               	movf	vfprintf@fp,w
  2072     1F79  120A  158A  2069  160A  158A  	fcall	_vfpfcnvrt
  2073     1F7E                     i1l3463:
  2074                           
  2075                           ;/opt/microchip/xc8/v2.45/pic/sources/c99/common/doprnt.c: 1826:     while (*cfmt) {
  2076     1F7E  1283               	bcf	3,5	;RP0=0, select bank0
  2077     1F7F  1303               	bcf	3,6	;RP1=0, select bank0
  2078     1F80  0855               	movf	vfprintf@cfmt,w
  2079     1F81  0084               	movwf	4
  2080     1F82  160A  118A  200A  160A  158A  	fcall	stringdir
  2081     1F87  3A00               	xorlw	0
  2082     1F88  1D03               	skipz
  2083     1F89  2F8B               	goto	u512_21
  2084     1F8A  2F8C               	goto	u512_20
  2085     1F8B                     u512_21:
  2086     1F8B  2F70               	goto	i1l3461
  2087     1F8C                     u512_20:
  2088     1F8C                     i1l3465:
  2089                           
  2090                           ;/opt/microchip/xc8/v2.45/pic/sources/c99/common/doprnt.c: 1835:  return 0;
  2091     1F8C  1683               	bsf	3,5	;RP0=1, select bank1
  2092     1F8D  1303               	bcf	3,6	;RP1=0, select bank1
  2093     1F8E  01CF               	clrf	?_vfprintf^(0+128)
  2094     1F8F  01D0               	clrf	(?_vfprintf+1)^(0+128)
  2095     1F90                     i1l817:
  2096     1F90  0008               	return
  2097     1F91                     __end_of_vfprintf:
  2098                           
  2099                           	psect	text8
  2100     0869                     __ptext8:	
  2101 ;; *************** function _vfpfcnvrt *****************
  2102 ;; Defined at:
  2103 ;;		line 1177 in file "/opt/microchip/xc8/v2.45/pic/sources/c99/common/doprnt.c"
  2104 ;; Parameters:    Size  Location     Type
  2105 ;;  fp              1    wreg     PTR struct _IO_FILE
  2106 ;;		 -> NULL(0), 
  2107 ;;  fmt             1   45[BANK1 ] PTR PTR unsigned char 
  2108 ;;		 -> vfprintf@cfmt(1), 
  2109 ;;  ap              1   46[BANK1 ] PTR PTR void 
  2110 ;;		 -> printf@ap(1), 
  2111 ;; Auto vars:     Size  Location     Type
  2112 ;;  fp              1   50[BANK0 ] PTR struct _IO_FILE
  2113 ;;		 -> NULL(0), 
  2114 ;;  convarg         4   45[BANK0 ] struct .
  2115 ;;  cp              1   51[BANK0 ] PTR unsigned char 
  2116 ;;		 -> STR_2(20), STR_1(21), 
  2117 ;;  c               1   49[BANK0 ] unsigned char 
  2118 ;;  done            1   44[BANK0 ] _Bool 
  2119 ;; Return value:  Size  Location     Type
  2120 ;;                  1    wreg      void 
  2121 ;; Registers used:
  2122 ;;		wreg, fsr0l, fsr0h, status,2, status,0, btemp+1, pclath, cstack
  2123 ;; Tracked objects:
  2124 ;;		On entry : 0/0
  2125 ;;		On exit  : 0/0
  2126 ;;		Unchanged: 0/0
  2127 ;; Data sizes:     COMMON   BANK0   BANK1   BANK3   BANK2
  2128 ;;      Params:         0       0       2       0       0
  2129 ;;      Locals:         0       8       0       0       0
  2130 ;;      Temps:          0       2       0       0       0
  2131 ;;      Totals:         0      10       2       0       0
  2132 ;;Total ram usage:       12 bytes
  2133 ;; Hardware stack levels used: 1
  2134 ;; Hardware stack levels required when called: 5
  2135 ;; This function calls:
  2136 ;;		_dtoa
  2137 ;;		_efgtoa
  2138 ;;		_fputc
  2139 ;;		_read_prec_or_width
  2140 ;;		_stoa
  2141 ;; This function is called by:
  2142 ;;		_vfprintf
  2143 ;; This function uses a non-reentrant model
  2144 ;;
  2145                           
  2146     0869                     _vfpfcnvrt:	
  2147                           ;psect for function _vfpfcnvrt
  2148                           
  2149                           
  2150                           ;incstack = 0
  2151 ;; hardware stack exceeded
  2152                           ; Regs used in _vfpfcnvrt: [wreg-fsr0h+status,2+status,0+btemp+1+pclath+cstack]
  2153                           ;vfpfcnvrt@fp stored from wreg
  2154     0869  1283               	bcf	3,5	;RP0=0, select bank0
  2155     086A  1303               	bcf	3,6	;RP1=0, select bank0
  2156     086B  00D2               	movwf	vfpfcnvrt@fp
  2157     086C                     i1l3347:
  2158                           
  2159                           ;/opt/microchip/xc8/v2.45/pic/sources/c99/common/doprnt.c: 1177: vfpfcnvrt(FILE *fp, cha
      +                          r *fmt[], va_list ap);/opt/microchip/xc8/v2.45/pic/sources/c99/common/doprnt.c: 1178: {;
      +                          /opt/microchip/xc8/v2.45/pic/sources/c99/common/doprnt.c: 1179:     char c, *cp;;/opt/mi
      +                          crochip/xc8/v2.45/pic/sources/c99/common/doprnt.c: 1180:     _Bool done;;/opt/microchip/
      +                          xc8/v2.45/pic/sources/c99/common/doprnt.c: 1188:  } convarg;;/opt/microchip/xc8/v2.45/pi
      +                          c/sources/c99/common/doprnt.c: 1201:     if ((*fmt)[0] == '%') {
  2160     086C  1683               	bsf	3,5	;RP0=1, select bank1
  2161     086D  1303               	bcf	3,6	;RP1=0, select bank1
  2162     086E  084D               	movf	vfpfcnvrt@fmt^(0+128),w
  2163     086F  0084               	movwf	4
  2164     0870  1383               	bcf	3,7	;select IRP bank0
  2165     0871  0800               	movf	0,w
  2166     0872  0084               	movwf	4
  2167     0873  160A  118A  200A  120A  158A  	fcall	stringdir
  2168     0878  3A25               	xorlw	37
  2169     0879  1D03               	skipz
  2170     087A  287C               	goto	u502_21
  2171     087B  287D               	goto	u502_20
  2172     087C                     u502_21:
  2173     087C  2A3B               	goto	i1l3435
  2174     087D                     u502_20:
  2175     087D                     i1l3349:
  2176                           
  2177                           ;/opt/microchip/xc8/v2.45/pic/sources/c99/common/doprnt.c: 1202:         ++*fmt;
  2178     087D  3001               	movlw	1
  2179     087E  1283               	bcf	3,5	;RP0=0, select bank0
  2180     087F  1303               	bcf	3,6	;RP1=0, select bank0
  2181     0880  00CA               	movwf	??_vfpfcnvrt
  2182     0881  1683               	bsf	3,5	;RP0=1, select bank1
  2183     0882  1303               	bcf	3,6	;RP1=0, select bank1
  2184     0883  084D               	movf	vfpfcnvrt@fmt^(0+128),w
  2185     0884  0084               	movwf	4
  2186     0885  1283               	bcf	3,5	;RP0=0, select bank0
  2187     0886  1303               	bcf	3,6	;RP1=0, select bank0
  2188     0887  084A               	movf	??_vfpfcnvrt,w
  2189     0888  0780               	addwf	0,f
  2190     0889                     i1l3351:
  2191                           
  2192                           ;/opt/microchip/xc8/v2.45/pic/sources/c99/common/doprnt.c: 1204:         flags = width =
      +                           0;
  2193     0889  01E4               	clrf	_width
  2194     088A  01E5               	clrf	_width+1
  2195     088B  1003               	clrc
  2196     088C  3000               	movlw	0
  2197     088D  1803               	btfsc	3,0
  2198     088E  3001               	movlw	1
  2199     088F  1683               	bsf	3,5	;RP0=1, select bank1
  2200     0890  1303               	bcf	3,6	;RP1=0, select bank1
  2201     0891  00DC               	movwf	_flags^(0+128)
  2202     0892                     i1l3353:
  2203                           
  2204                           ;/opt/microchip/xc8/v2.45/pic/sources/c99/common/doprnt.c: 1205:         prec = -1;
  2205     0892  30FF               	movlw	255
  2206     0893  1283               	bcf	3,5	;RP0=0, select bank0
  2207     0894  1303               	bcf	3,6	;RP1=0, select bank0
  2208     0895  00E6               	movwf	_prec
  2209     0896  30FF               	movlw	255
  2210     0897  00E7               	movwf	_prec+1
  2211     0898                     i1l3355:
  2212                           
  2213                           ;/opt/microchip/xc8/v2.45/pic/sources/c99/common/doprnt.c: 1265:         if ((*fmt)[0] =
      +                          = '.') {
  2214     0898  1683               	bsf	3,5	;RP0=1, select bank1
  2215     0899  1303               	bcf	3,6	;RP1=0, select bank1
  2216     089A  084D               	movf	vfpfcnvrt@fmt^(0+128),w
  2217     089B  0084               	movwf	4
  2218     089C  0800               	movf	0,w
  2219     089D  0084               	movwf	4
  2220     089E  160A  118A  200A  120A  158A  	fcall	stringdir
  2221     08A3  3A2E               	xorlw	46
  2222     08A4  1D03               	skipz
  2223     08A5  28A7               	goto	u503_21
  2224     08A6  28A8               	goto	u503_20
  2225     08A7                     u503_21:
  2226     08A7  28C4               	goto	i1l3361
  2227     08A8                     u503_20:
  2228     08A8                     i1l3357:
  2229                           
  2230                           ;/opt/microchip/xc8/v2.45/pic/sources/c99/common/doprnt.c: 1266:             ++*fmt;
  2231     08A8  3001               	movlw	1
  2232     08A9  1283               	bcf	3,5	;RP0=0, select bank0
  2233     08AA  1303               	bcf	3,6	;RP1=0, select bank0
  2234     08AB  00CA               	movwf	??_vfpfcnvrt
  2235     08AC  1683               	bsf	3,5	;RP0=1, select bank1
  2236     08AD  1303               	bcf	3,6	;RP1=0, select bank1
  2237     08AE  084D               	movf	vfpfcnvrt@fmt^(0+128),w
  2238     08AF  0084               	movwf	4
  2239     08B0  1283               	bcf	3,5	;RP0=0, select bank0
  2240     08B1  1303               	bcf	3,6	;RP1=0, select bank0
  2241     08B2  084A               	movf	??_vfpfcnvrt,w
  2242     08B3  0780               	addwf	0,f
  2243     08B4                     i1l3359:
  2244                           
  2245                           ;/opt/microchip/xc8/v2.45/pic/sources/c99/common/doprnt.c: 1267:    prec = read_prec_or_
      +                          width(fmt, ap);
  2246     08B4  1683               	bsf	3,5	;RP0=1, select bank1
  2247     08B5  1303               	bcf	3,6	;RP1=0, select bank1
  2248     08B6  084E               	movf	vfpfcnvrt@ap^(0+128),w
  2249     08B7  00F6               	movwf	read_prec_or_width@ap
  2250     08B8  084D               	movf	vfpfcnvrt@fmt^(0+128),w
  2251     08B9  160A  118A  2104  120A  158A  	fcall	_read_prec_or_width
  2252     08BE  0877               	movf	?_read_prec_or_width+1,w
  2253     08BF  1283               	bcf	3,5	;RP0=0, select bank0
  2254     08C0  1303               	bcf	3,6	;RP1=0, select bank0
  2255     08C1  00E7               	movwf	_prec+1
  2256     08C2  0876               	movf	?_read_prec_or_width,w
  2257     08C3  00E6               	movwf	_prec
  2258     08C4                     i1l3361:
  2259                           
  2260                           ;/opt/microchip/xc8/v2.45/pic/sources/c99/common/doprnt.c: 1291:   cp = *fmt;
  2261     08C4  1683               	bsf	3,5	;RP0=1, select bank1
  2262     08C5  1303               	bcf	3,6	;RP1=0, select bank1
  2263     08C6  084D               	movf	vfpfcnvrt@fmt^(0+128),w
  2264     08C7  0084               	movwf	4
  2265     08C8  1383               	bcf	3,7	;select IRP bank0
  2266     08C9  0800               	movf	0,w
  2267     08CA  1283               	bcf	3,5	;RP0=0, select bank0
  2268     08CB  1303               	bcf	3,6	;RP1=0, select bank0
  2269     08CC  00D3               	movwf	vfpfcnvrt@cp
  2270     08CD                     i1l3363:
  2271                           
  2272                           ;/opt/microchip/xc8/v2.45/pic/sources/c99/common/doprnt.c: 1361:   if (*cp == 'd' || *cp
      +                           == 'i') {
  2273     08CD  0853               	movf	vfpfcnvrt@cp,w
  2274     08CE  0084               	movwf	4
  2275     08CF  160A  118A  200A  120A  158A  	fcall	stringdir
  2276     08D4  3A64               	xorlw	100
  2277     08D5  1903               	skipnz
  2278     08D6  28D8               	goto	u504_21
  2279     08D7  28D9               	goto	u504_20
  2280     08D8                     u504_21:
  2281     08D8  28E5               	goto	i1l3367
  2282     08D9                     u504_20:
  2283     08D9                     i1l3365:
  2284     08D9  0853               	movf	vfpfcnvrt@cp,w
  2285     08DA  0084               	movwf	4
  2286     08DB  160A  118A  200A  120A  158A  	fcall	stringdir
  2287     08E0  3A69               	xorlw	105
  2288     08E1  1D03               	skipz
  2289     08E2  28E4               	goto	u505_21
  2290     08E3  28E5               	goto	u505_20
  2291     08E4                     u505_21:
  2292     08E4  290A               	goto	i1l3373
  2293     08E5                     u505_20:
  2294     08E5                     i1l3367:
  2295                           
  2296                           ;/opt/microchip/xc8/v2.45/pic/sources/c99/common/doprnt.c: 1404:    convarg.sint = (vfpf
      +                          _sint_t)(int)(*(int *)__va_arg(*(int **)ap, (int)0));
  2297     08E5  1683               	bsf	3,5	;RP0=1, select bank1
  2298     08E6  1303               	bcf	3,6	;RP1=0, select bank1
  2299     08E7  084E               	movf	vfpfcnvrt@ap^(0+128),w
  2300     08E8  0084               	movwf	4
  2301     08E9  0800               	movf	0,w
  2302     08EA  1283               	bcf	3,5	;RP0=0, select bank0
  2303     08EB  1303               	bcf	3,6	;RP1=0, select bank0
  2304     08EC  00CA               	movwf	??_vfpfcnvrt
  2305     08ED  3002               	movlw	2
  2306     08EE  0780               	addwf	0,f
  2307     08EF  084A               	movf	??_vfpfcnvrt,w
  2308     08F0  0084               	movwf	4
  2309     08F1  0800               	movf	0,w
  2310     08F2  00CD               	movwf	vfpfcnvrt@convarg
  2311     08F3  0A84               	incf	4,f
  2312     08F4  0800               	movf	0,w
  2313     08F5  00CE               	movwf	vfpfcnvrt@convarg+1
  2314                           
  2315                           ;/opt/microchip/xc8/v2.45/pic/sources/c99/common/doprnt.c: 1406:    *fmt = cp+1;
  2316     08F6  1683               	bsf	3,5	;RP0=1, select bank1
  2317     08F7  1303               	bcf	3,6	;RP1=0, select bank1
  2318     08F8  084D               	movf	vfpfcnvrt@fmt^(0+128),w
  2319     08F9  0084               	movwf	4
  2320     08FA  1283               	bcf	3,5	;RP0=0, select bank0
  2321     08FB  1303               	bcf	3,6	;RP1=0, select bank0
  2322     08FC  0853               	movf	vfpfcnvrt@cp,w
  2323     08FD  3E01               	addlw	1
  2324     08FE  0080               	movwf	0
  2325     08FF                     i1l3369:
  2326                           
  2327                           ;/opt/microchip/xc8/v2.45/pic/sources/c99/common/doprnt.c: 1432:    return (void) dtoa(f
      +                          p, convarg.sint);;	Return value of _vfpfcnvrt is never used
  2328     08FF  084E               	movf	vfpfcnvrt@convarg+1,w
  2329     0900  00AB               	movwf	dtoa@d+1
  2330     0901  084D               	movf	vfpfcnvrt@convarg,w
  2331     0902  00AA               	movwf	dtoa@d
  2332     0903  0852               	movf	vfpfcnvrt@fp,w
  2333     0904  160A  118A  232C  120A  158A  	fcall	_dtoa
  2334     0909  2A54               	goto	i1l791
  2335     090A                     i1l3373:
  2336                           
  2337                           ;/opt/microchip/xc8/v2.45/pic/sources/c99/common/doprnt.c: 1656:   done = 0;
  2338     090A  01CC               	clrf	vfpfcnvrt@done
  2339     090B                     i1l3375:
  2340                           
  2341                           ;/opt/microchip/xc8/v2.45/pic/sources/c99/common/doprnt.c: 1657:   if ((*fmt)[0] == 's')
      +                           {
  2342     090B  1683               	bsf	3,5	;RP0=1, select bank1
  2343     090C  1303               	bcf	3,6	;RP1=0, select bank1
  2344     090D  084D               	movf	vfpfcnvrt@fmt^(0+128),w
  2345     090E  0084               	movwf	4
  2346     090F  0800               	movf	0,w
  2347     0910  0084               	movwf	4
  2348     0911  160A  118A  200A  120A  158A  	fcall	stringdir
  2349     0916  3A73               	xorlw	115
  2350     0917  1D03               	skipz
  2351     0918  291A               	goto	u506_21
  2352     0919  291B               	goto	u506_20
  2353     091A                     u506_21:
  2354     091A  292A               	goto	i1l3381
  2355     091B                     u506_20:
  2356     091B                     i1l3377:
  2357                           
  2358                           ;/opt/microchip/xc8/v2.45/pic/sources/c99/common/doprnt.c: 1658:    ++*fmt;
  2359     091B  3001               	movlw	1
  2360     091C  1283               	bcf	3,5	;RP0=0, select bank0
  2361     091D  1303               	bcf	3,6	;RP1=0, select bank0
  2362     091E  00CA               	movwf	??_vfpfcnvrt
  2363     091F  1683               	bsf	3,5	;RP0=1, select bank1
  2364     0920  1303               	bcf	3,6	;RP1=0, select bank1
  2365     0921  084D               	movf	vfpfcnvrt@fmt^(0+128),w
  2366     0922  0084               	movwf	4
  2367     0923  1283               	bcf	3,5	;RP0=0, select bank0
  2368     0924  1303               	bcf	3,6	;RP1=0, select bank0
  2369     0925  084A               	movf	??_vfpfcnvrt,w
  2370     0926  0780               	addwf	0,f
  2371     0927                     i1l3379:
  2372                           
  2373                           ;/opt/microchip/xc8/v2.45/pic/sources/c99/common/doprnt.c: 1659:    done = 1;
  2374     0927  01CC               	clrf	vfpfcnvrt@done
  2375     0928  0ACC               	incf	vfpfcnvrt@done,f
  2376                           
  2377                           ;/opt/microchip/xc8/v2.45/pic/sources/c99/common/doprnt.c: 1660:   }
  2378     0929  2963               	goto	i1l3391
  2379     092A                     i1l3381:
  2380     092A  084D               	movf	vfpfcnvrt@fmt^(0+128),w
  2381     092B  0084               	movwf	4
  2382     092C  0800               	movf	0,w
  2383     092D  0084               	movwf	4
  2384     092E  160A  118A  200A  120A  158A  	fcall	stringdir
  2385     0933  3A6C               	xorlw	108
  2386     0934  1D03               	skipz
  2387     0935  2937               	goto	u507_21
  2388     0936  2938               	goto	u507_20
  2389     0937                     u507_21:
  2390     0937  2963               	goto	i1l3391
  2391     0938                     u507_20:
  2392     0938                     i1l3383:
  2393     0938  084D               	movf	vfpfcnvrt@fmt^(0+128),w
  2394     0939  0084               	movwf	4
  2395     093A  0800               	movf	0,w
  2396     093B  3E01               	addlw	1
  2397     093C  0084               	movwf	4
  2398     093D  160A  118A  200A  120A  158A  	fcall	stringdir
  2399     0942  3A6C               	xorlw	108
  2400     0943  1D03               	skipz
  2401     0944  2946               	goto	u508_21
  2402     0945  2947               	goto	u508_20
  2403     0946                     u508_21:
  2404     0946  2963               	goto	i1l3391
  2405     0947                     u508_20:
  2406     0947                     i1l3385:
  2407     0947  084D               	movf	vfpfcnvrt@fmt^(0+128),w
  2408     0948  0084               	movwf	4
  2409     0949  0800               	movf	0,w
  2410     094A  3E02               	addlw	2
  2411     094B  0084               	movwf	4
  2412     094C  160A  118A  200A  120A  158A  	fcall	stringdir
  2413     0951  3A73               	xorlw	115
  2414     0952  1D03               	skipz
  2415     0953  2955               	goto	u509_21
  2416     0954  2956               	goto	u509_20
  2417     0955                     u509_21:
  2418     0955  2963               	goto	i1l3391
  2419     0956                     u509_20:
  2420     0956                     i1l3387:
  2421                           
  2422                           ;/opt/microchip/xc8/v2.45/pic/sources/c99/common/doprnt.c: 1662:    *fmt += 3;
  2423     0956  3003               	movlw	3
  2424     0957  1283               	bcf	3,5	;RP0=0, select bank0
  2425     0958  1303               	bcf	3,6	;RP1=0, select bank0
  2426     0959  00CA               	movwf	??_vfpfcnvrt
  2427     095A  1683               	bsf	3,5	;RP0=1, select bank1
  2428     095B  1303               	bcf	3,6	;RP1=0, select bank1
  2429     095C  084D               	movf	vfpfcnvrt@fmt^(0+128),w
  2430     095D  0084               	movwf	4
  2431     095E  1283               	bcf	3,5	;RP0=0, select bank0
  2432     095F  1303               	bcf	3,6	;RP1=0, select bank0
  2433     0960  084A               	movf	??_vfpfcnvrt,w
  2434     0961  0780               	addwf	0,f
  2435     0962  2927               	goto	i1l3379
  2436     0963                     i1l3391:
  2437                           
  2438                           ;/opt/microchip/xc8/v2.45/pic/sources/c99/common/doprnt.c: 1665:   if (done) {
  2439     0963  1283               	bcf	3,5	;RP0=0, select bank0
  2440     0964  084C               	movf	vfpfcnvrt@done,w
  2441     0965  1903               	btfsc	3,2
  2442     0966  2968               	goto	u510_21
  2443     0967  2969               	goto	u510_20
  2444     0968                     u510_21:
  2445     0968  297E               	goto	i1l3397
  2446     0969                     u510_20:
  2447     0969                     i1l3393:
  2448                           
  2449                           ;/opt/microchip/xc8/v2.45/pic/sources/c99/common/doprnt.c: 1682:    return (void) stoa(f
      +                          p, (*(char * *)__va_arg(*(char * **)ap, (char *)0)));;	Return value of _vfpfcnvrt is nev
      +                          er used
  2450     0969  1683               	bsf	3,5	;RP0=1, select bank1
  2451     096A  1303               	bcf	3,6	;RP1=0, select bank1
  2452     096B  084E               	movf	vfpfcnvrt@ap^(0+128),w
  2453     096C  0084               	movwf	4
  2454     096D  0800               	movf	0,w
  2455     096E  1283               	bcf	3,5	;RP0=0, select bank0
  2456     096F  1303               	bcf	3,6	;RP1=0, select bank0
  2457     0970  00CA               	movwf	??_vfpfcnvrt
  2458     0971  3001               	movlw	1
  2459     0972  0780               	addwf	0,f
  2460     0973  084A               	movf	??_vfpfcnvrt,w
  2461     0974  0084               	movwf	4
  2462     0975  0800               	movf	0,w
  2463     0976  00F9               	movwf	stoa@s
  2464     0977  0852               	movf	vfpfcnvrt@fp,w
  2465     0978  160A  118A  22AA  120A  158A  	fcall	_stoa
  2466     097D  2A54               	goto	i1l791
  2467     097E                     i1l3397:
  2468                           
  2469                           ;/opt/microchip/xc8/v2.45/pic/sources/c99/common/doprnt.c: 1689:   cp = *fmt;
  2470     097E  1683               	bsf	3,5	;RP0=1, select bank1
  2471     097F  1303               	bcf	3,6	;RP1=0, select bank1
  2472     0980  084D               	movf	vfpfcnvrt@fmt^(0+128),w
  2473     0981  0084               	movwf	4
  2474     0982  0800               	movf	0,w
  2475     0983  1283               	bcf	3,5	;RP0=0, select bank0
  2476     0984  1303               	bcf	3,6	;RP1=0, select bank0
  2477     0985  00D3               	movwf	vfpfcnvrt@cp
  2478     0986                     i1l3399:
  2479                           
  2480                           ;/opt/microchip/xc8/v2.45/pic/sources/c99/common/doprnt.c: 1690:   c = *cp;
  2481     0986  0853               	movf	vfpfcnvrt@cp,w
  2482     0987  0084               	movwf	4
  2483     0988  160A  118A  200A  120A  158A  	fcall	stringdir
  2484     098D  00D1               	movwf	vfpfcnvrt@c
  2485                           
  2486                           ;/opt/microchip/xc8/v2.45/pic/sources/c99/common/doprnt.c: 1691:   switch(c) {
  2487     098E  2999               	goto	i1l3409
  2488     098F                     i1l3401:
  2489                           
  2490                           ;/opt/microchip/xc8/v2.45/pic/sources/c99/common/doprnt.c: 1695:     cp++;
  2491     098F  3001               	movlw	1
  2492     0990  00CA               	movwf	??_vfpfcnvrt
  2493     0991  084A               	movf	??_vfpfcnvrt,w
  2494     0992  07D3               	addwf	vfpfcnvrt@cp,f
  2495                           
  2496                           ;/opt/microchip/xc8/v2.45/pic/sources/c99/common/doprnt.c: 1696:     break;
  2497     0993  29AC               	goto	i1l3411
  2498     0994                     i1l3403:
  2499                           
  2500                           ;/opt/microchip/xc8/v2.45/pic/sources/c99/common/doprnt.c: 1721:     c = 'l';
  2501     0994  306C               	movlw	108
  2502     0995  00D1               	movwf	vfpfcnvrt@c
  2503                           
  2504                           ;/opt/microchip/xc8/v2.45/pic/sources/c99/common/doprnt.c: 1722:     break;
  2505     0996  29AC               	goto	i1l3411
  2506     0997                     i1l3405:
  2507                           
  2508                           ;/opt/microchip/xc8/v2.45/pic/sources/c99/common/doprnt.c: 1724:     c = 0;
  2509     0997  01D1               	clrf	vfpfcnvrt@c
  2510                           
  2511                           ;/opt/microchip/xc8/v2.45/pic/sources/c99/common/doprnt.c: 1725:     break;
  2512     0998  29AC               	goto	i1l3411
  2513     0999                     i1l3409:
  2514     0999  0851               	movf	vfpfcnvrt@c,w
  2515     099A  00CA               	movwf	??_vfpfcnvrt
  2516     099B  01CB               	clrf	??_vfpfcnvrt+1
  2517                           
  2518                           ; Switch on 2 bytes has been partitioned into a top level switch of size 1, and 1 sub-sw
      +                          itches
  2519                           ; Switch size 1, requested type "simple"
  2520                           ; Number of cases is 1, Range of values is 0 to 0
  2521                           ; switch strategies available:
  2522                           ; Name         Instructions Cycles
  2523                           ; simple_byte            4     3 (average)
  2524                           ; direct_byte           11     8 (fixed)
  2525                           ; jumptable            260     6 (fixed)
  2526                           ;	Chosen strategy is simple_byte
  2527     099C  084B               	movf	??_vfpfcnvrt+1,w
  2528     099D  3A00               	xorlw	0	; case 0
  2529     099E  1903               	skipnz
  2530     099F  29A1               	goto	i1l3639
  2531     09A0  2997               	goto	i1l3405
  2532     09A1                     i1l3639:
  2533                           
  2534                           ; Switch size 1, requested type "simple"
  2535                           ; Number of cases is 3, Range of values is 76 to 108
  2536                           ; switch strategies available:
  2537                           ; Name         Instructions Cycles
  2538                           ; simple_byte           10     6 (average)
  2539                           ; direct_byte          110    11 (fixed)
  2540                           ; jumptable            263     9 (fixed)
  2541                           ;	Chosen strategy is simple_byte
  2542     09A1  084A               	movf	??_vfpfcnvrt,w
  2543     09A2  3A4C               	xorlw	76	; case 76
  2544     09A3  1903               	skipnz
  2545     09A4  298F               	goto	i1l3401
  2546     09A5  3A2A               	xorlw	42	; case 102
  2547     09A6  1903               	skipnz
  2548     09A7  2994               	goto	i1l3403
  2549     09A8  3A0A               	xorlw	10	; case 108
  2550     09A9  1903               	skipnz
  2551     09AA  298F               	goto	i1l3401
  2552     09AB  2997               	goto	i1l3405
  2553     09AC                     i1l3411:
  2554     09AC  0853               	movf	vfpfcnvrt@cp,w
  2555     09AD  0084               	movwf	4
  2556     09AE  160A  118A  200A  120A  158A  	fcall	stringdir
  2557     09B3  3A66               	xorlw	102
  2558     09B4  1D03               	skipz
  2559     09B5  29B7               	goto	u511_21
  2560     09B6  29B8               	goto	u511_20
  2561     09B7                     u511_21:
  2562     09B7  2A2D               	goto	i1l3431
  2563     09B8                     u511_20:
  2564     09B8  29E9               	goto	i1l3419
  2565     09B9                     i1l3413:
  2566                           
  2567                           ;/opt/microchip/xc8/v2.45/pic/sources/c99/common/doprnt.c: 1756:      convarg.f = (long 
      +                          double)(*(double *)__va_arg(*(double **)ap, (double)0));
  2568     09B9  1683               	bsf	3,5	;RP0=1, select bank1
  2569     09BA  1303               	bcf	3,6	;RP1=0, select bank1
  2570     09BB  084E               	movf	vfpfcnvrt@ap^(0+128),w
  2571     09BC  0084               	movwf	4
  2572     09BD  0800               	movf	0,w
  2573     09BE  1283               	bcf	3,5	;RP0=0, select bank0
  2574     09BF  1303               	bcf	3,6	;RP1=0, select bank0
  2575     09C0  00CA               	movwf	??_vfpfcnvrt
  2576     09C1  3004               	movlw	4
  2577     09C2  0780               	addwf	0,f
  2578     09C3  084A               	movf	??_vfpfcnvrt,w
  2579     09C4  0084               	movwf	4
  2580     09C5  0800               	movf	0,w
  2581     09C6  00CD               	movwf	vfpfcnvrt@convarg
  2582     09C7  0A84               	incf	4,f
  2583     09C8  0800               	movf	0,w
  2584     09C9  00CE               	movwf	vfpfcnvrt@convarg+1
  2585     09CA  0A84               	incf	4,f
  2586     09CB  0800               	movf	0,w
  2587     09CC  00CF               	movwf	vfpfcnvrt@convarg+2
  2588     09CD  0A84               	incf	4,f
  2589     09CE  0800               	movf	0,w
  2590     09CF  00D0               	movwf	vfpfcnvrt@convarg+3
  2591                           
  2592                           ;/opt/microchip/xc8/v2.45/pic/sources/c99/common/doprnt.c: 1757:      break;
  2593     09D0  29F9               	goto	i1l3421
  2594     09D1                     i1l3415:
  2595                           
  2596                           ;/opt/microchip/xc8/v2.45/pic/sources/c99/common/doprnt.c: 1759:      convarg.f = (long 
      +                          double)(*(long double *)__va_arg(*(long double **)ap, (long double)0));
  2597     09D1  1683               	bsf	3,5	;RP0=1, select bank1
  2598     09D2  1303               	bcf	3,6	;RP1=0, select bank1
  2599     09D3  084E               	movf	vfpfcnvrt@ap^(0+128),w
  2600     09D4  0084               	movwf	4
  2601     09D5  0800               	movf	0,w
  2602     09D6  1283               	bcf	3,5	;RP0=0, select bank0
  2603     09D7  1303               	bcf	3,6	;RP1=0, select bank0
  2604     09D8  00CA               	movwf	??_vfpfcnvrt
  2605     09D9  3004               	movlw	4
  2606     09DA  0780               	addwf	0,f
  2607     09DB  084A               	movf	??_vfpfcnvrt,w
  2608     09DC  0084               	movwf	4
  2609     09DD  0800               	movf	0,w
  2610     09DE  00CD               	movwf	vfpfcnvrt@convarg
  2611     09DF  0A84               	incf	4,f
  2612     09E0  0800               	movf	0,w
  2613     09E1  00CE               	movwf	vfpfcnvrt@convarg+1
  2614     09E2  0A84               	incf	4,f
  2615     09E3  0800               	movf	0,w
  2616     09E4  00CF               	movwf	vfpfcnvrt@convarg+2
  2617     09E5  0A84               	incf	4,f
  2618     09E6  0800               	movf	0,w
  2619     09E7  00D0               	movwf	vfpfcnvrt@convarg+3
  2620                           
  2621                           ;/opt/microchip/xc8/v2.45/pic/sources/c99/common/doprnt.c: 1760:      break;
  2622     09E8  29F9               	goto	i1l3421
  2623     09E9                     i1l3419:
  2624     09E9  0851               	movf	vfpfcnvrt@c,w
  2625     09EA  00CA               	movwf	??_vfpfcnvrt
  2626     09EB  01CB               	clrf	??_vfpfcnvrt+1
  2627                           
  2628                           ; Switch on 2 bytes has been partitioned into a top level switch of size 1, and 1 sub-sw
      +                          itches
  2629                           ; Switch size 1, requested type "simple"
  2630                           ; Number of cases is 1, Range of values is 0 to 0
  2631                           ; switch strategies available:
  2632                           ; Name         Instructions Cycles
  2633                           ; simple_byte            4     3 (average)
  2634                           ; direct_byte           11     8 (fixed)
  2635                           ; jumptable            260     6 (fixed)
  2636                           ;	Chosen strategy is simple_byte
  2637     09EC  084B               	movf	??_vfpfcnvrt+1,w
  2638     09ED  3A00               	xorlw	0	; case 0
  2639     09EE  1903               	skipnz
  2640     09EF  29F1               	goto	i1l3641
  2641     09F0  29F9               	goto	i1l3421
  2642     09F1                     i1l3641:
  2643                           
  2644                           ; Switch size 1, requested type "simple"
  2645                           ; Number of cases is 2, Range of values is 76 to 108
  2646                           ; switch strategies available:
  2647                           ; Name         Instructions Cycles
  2648                           ; simple_byte            7     4 (average)
  2649                           ; direct_byte          110    11 (fixed)
  2650                           ; jumptable            263     9 (fixed)
  2651                           ;	Chosen strategy is simple_byte
  2652     09F1  084A               	movf	??_vfpfcnvrt,w
  2653     09F2  3A4C               	xorlw	76	; case 76
  2654     09F3  1903               	skipnz
  2655     09F4  29D1               	goto	i1l3415
  2656     09F5  3A20               	xorlw	32	; case 108
  2657     09F6  1903               	skipnz
  2658     09F7  29B9               	goto	i1l3413
  2659     09F8  29F9               	goto	i1l3421
  2660     09F9                     i1l3421:
  2661                           
  2662                           ;/opt/microchip/xc8/v2.45/pic/sources/c99/common/doprnt.c: 1762:    *fmt = cp+1;
  2663     09F9  1683               	bsf	3,5	;RP0=1, select bank1
  2664     09FA  1303               	bcf	3,6	;RP1=0, select bank1
  2665     09FB  084D               	movf	vfpfcnvrt@fmt^(0+128),w
  2666     09FC  0084               	movwf	4
  2667     09FD  1283               	bcf	3,5	;RP0=0, select bank0
  2668     09FE  1303               	bcf	3,6	;RP1=0, select bank0
  2669     09FF  0853               	movf	vfpfcnvrt@cp,w
  2670     0A00  3E01               	addlw	1
  2671     0A01  0080               	movwf	0
  2672                           
  2673                           ;/opt/microchip/xc8/v2.45/pic/sources/c99/common/doprnt.c: 1763:    switch (*cp) {
  2674     0A02  2A1A               	goto	i1l3429
  2675     0A03                     i1l3423:
  2676                           
  2677                           ;/opt/microchip/xc8/v2.45/pic/sources/c99/common/doprnt.c: 1790:      return (void) efgt
      +                          oa(fp, convarg.f, *cp);;	Return value of _vfpfcnvrt is never used
  2678     0A03  0850               	movf	vfpfcnvrt@convarg+3,w
  2679     0A04  00C4               	movwf	efgtoa@f+3
  2680     0A05  084F               	movf	vfpfcnvrt@convarg+2,w
  2681     0A06  00C3               	movwf	efgtoa@f+2
  2682     0A07  084E               	movf	vfpfcnvrt@convarg+1,w
  2683     0A08  00C2               	movwf	efgtoa@f+1
  2684     0A09  084D               	movf	vfpfcnvrt@convarg,w
  2685     0A0A  00C1               	movwf	efgtoa@f
  2686     0A0B  0853               	movf	vfpfcnvrt@cp,w
  2687     0A0C  0084               	movwf	4
  2688     0A0D  160A  118A  200A  120A  158A  	fcall	stringdir
  2689     0A12  00C5               	movwf	efgtoa@c
  2690     0A13  0852               	movf	vfpfcnvrt@fp,w
  2691     0A14  160A  118A  24F6  120A  158A  	fcall	_efgtoa
  2692     0A19  2A54               	goto	i1l791
  2693     0A1A                     i1l3429:
  2694     0A1A  0853               	movf	vfpfcnvrt@cp,w
  2695     0A1B  0084               	movwf	4
  2696     0A1C  160A  118A  200A  120A  158A  	fcall	stringdir
  2697     0A21  00CA               	movwf	??_vfpfcnvrt
  2698     0A22  01CB               	clrf	??_vfpfcnvrt+1
  2699                           
  2700                           ; Switch on 2 bytes has been partitioned into a top level switch of size 1, and 1 sub-sw
      +                          itches
  2701                           ; Switch size 1, requested type "simple"
  2702                           ; Number of cases is 1, Range of values is 0 to 0
  2703                           ; switch strategies available:
  2704                           ; Name         Instructions Cycles
  2705                           ; simple_byte            4     3 (average)
  2706                           ; direct_byte           11     8 (fixed)
  2707                           ; jumptable            260     6 (fixed)
  2708                           ;	Chosen strategy is simple_byte
  2709     0A23  084B               	movf	??_vfpfcnvrt+1,w
  2710     0A24  3A00               	xorlw	0	; case 0
  2711     0A25  1903               	skipnz
  2712     0A26  2A28               	goto	i1l3643
  2713     0A27  2A2D               	goto	i1l3431
  2714     0A28                     i1l3643:
  2715                           
  2716                           ; Switch size 1, requested type "simple"
  2717                           ; Number of cases is 1, Range of values is 102 to 102
  2718                           ; switch strategies available:
  2719                           ; Name         Instructions Cycles
  2720                           ; simple_byte            4     3 (average)
  2721                           ; direct_byte           14    11 (fixed)
  2722                           ; jumptable            263     9 (fixed)
  2723                           ;	Chosen strategy is simple_byte
  2724     0A28  084A               	movf	??_vfpfcnvrt,w
  2725     0A29  3A66               	xorlw	102	; case 102
  2726     0A2A  1903               	skipnz
  2727     0A2B  2A03               	goto	i1l3423
  2728     0A2C  2A2D               	goto	i1l3431
  2729     0A2D                     i1l3431:
  2730                           
  2731                           ;/opt/microchip/xc8/v2.45/pic/sources/c99/common/doprnt.c: 1806:         ++*fmt;
  2732     0A2D  3001               	movlw	1
  2733     0A2E  1283               	bcf	3,5	;RP0=0, select bank0
  2734     0A2F  1303               	bcf	3,6	;RP1=0, select bank0
  2735     0A30  00CA               	movwf	??_vfpfcnvrt
  2736     0A31  1683               	bsf	3,5	;RP0=1, select bank1
  2737     0A32  1303               	bcf	3,6	;RP1=0, select bank1
  2738     0A33  084D               	movf	vfpfcnvrt@fmt^(0+128),w
  2739     0A34  0084               	movwf	4
  2740     0A35  1283               	bcf	3,5	;RP0=0, select bank0
  2741     0A36  1303               	bcf	3,6	;RP1=0, select bank0
  2742     0A37  084A               	movf	??_vfpfcnvrt,w
  2743     0A38  1383               	bcf	3,7	;select IRP bank0
  2744     0A39  0780               	addwf	0,f
  2745     0A3A  2A54               	goto	i1l791
  2746     0A3B                     i1l3435:
  2747                           
  2748                           ;/opt/microchip/xc8/v2.45/pic/sources/c99/common/doprnt.c: 1811:     fputc((int)(*fmt)[0
      +                          ], fp);
  2749     0A3B  084D               	movf	vfpfcnvrt@fmt^(0+128),w
  2750     0A3C  0084               	movwf	4
  2751     0A3D  0800               	movf	0,w
  2752     0A3E  0084               	movwf	4
  2753     0A3F  160A  118A  200A  120A  158A  	fcall	stringdir
  2754     0A44  1283               	bcf	3,5	;RP0=0, select bank0
  2755     0A45  1303               	bcf	3,6	;RP1=0, select bank0
  2756     0A46  00CA               	movwf	??_vfpfcnvrt
  2757     0A47  01CB               	clrf	??_vfpfcnvrt+1
  2758     0A48  084A               	movf	??_vfpfcnvrt,w
  2759     0A49  00F1               	movwf	fputc@c
  2760     0A4A  084B               	movf	??_vfpfcnvrt+1,w
  2761     0A4B  00F2               	movwf	fputc@c+1
  2762     0A4C  0852               	movf	vfpfcnvrt@fp,w
  2763     0A4D  00F3               	movwf	fputc@fp
  2764     0A4E  160A  118A  20AE  120A  158A  	fcall	_fputc
  2765     0A53  2A2D               	goto	i1l3431
  2766     0A54                     i1l791:
  2767     0A54  0008               	return
  2768     0A55                     __end_of_vfpfcnvrt:
  2769                           
  2770                           	psect	text9
  2771     12AA                     __ptext9:	
  2772 ;; *************** function _stoa *****************
  2773 ;; Defined at:
  2774 ;;		line 942 in file "/opt/microchip/xc8/v2.45/pic/sources/c99/common/doprnt.c"
  2775 ;; Parameters:    Size  Location     Type
  2776 ;;  fp              1    wreg     PTR struct _IO_FILE
  2777 ;;		 -> NULL(0), 
  2778 ;;  s               1    9[COMMON] PTR unsigned char 
  2779 ;;		 -> ?_printf(2), 
  2780 ;; Auto vars:     Size  Location     Type
  2781 ;;  fp              1    2[BANK0 ] PTR struct _IO_FILE
  2782 ;;		 -> NULL(0), 
  2783 ;;  l               2    5[BANK0 ] int 
  2784 ;;  cp              2    3[BANK0 ] PTR unsigned char 
  2785 ;;		 -> STR_9(7), ?_printf(2), 
  2786 ;;  p               2    0[BANK0 ] int 
  2787 ;; Return value:  Size  Location     Type
  2788 ;;                  1    wreg      void 
  2789 ;; Registers used:
  2790 ;;		wreg, fsr0l, fsr0h, status,2, status,0, btemp+1, pclath, cstack
  2791 ;; Tracked objects:
  2792 ;;		On entry : 0/0
  2793 ;;		On exit  : 0/0
  2794 ;;		Unchanged: 0/0
  2795 ;; Data sizes:     COMMON   BANK0   BANK1   BANK3   BANK2
  2796 ;;      Params:         1       0       0       0       0
  2797 ;;      Locals:         0       7       0       0       0
  2798 ;;      Temps:          3       0       0       0       0
  2799 ;;      Totals:         4       7       0       0       0
  2800 ;;Total ram usage:       11 bytes
  2801 ;; Hardware stack levels used: 1
  2802 ;; Hardware stack levels required when called: 2
  2803 ;; This function calls:
  2804 ;;		_fputc
  2805 ;; This function is called by:
  2806 ;;		_vfpfcnvrt
  2807 ;; This function uses a non-reentrant model
  2808 ;;
  2809                           
  2810     12AA                     _stoa:	
  2811                           ;psect for function _stoa
  2812                           
  2813                           
  2814                           ;incstack = 0
  2815 ;; hardware stack exceeded
  2816                           ; Regs used in _stoa: [wreg-fsr0h+status,2+status,0+btemp+1+pclath+cstack]
  2817                           ;stoa@fp stored from wreg
  2818     12AA  1283               	bcf	3,5	;RP0=0, select bank0
  2819     12AB  1303               	bcf	3,6	;RP1=0, select bank0
  2820     12AC  00A2               	movwf	stoa@fp
  2821     12AD                     i1l3311:
  2822                           
  2823                           ;/opt/microchip/xc8/v2.45/pic/sources/c99/common/doprnt.c: 942: static void stoa(FILE *f
      +                          p, char *s);/opt/microchip/xc8/v2.45/pic/sources/c99/common/doprnt.c: 943: {;/opt/microc
      +                          hip/xc8/v2.45/pic/sources/c99/common/doprnt.c: 944:     char *cp;;/opt/microchip/xc8/v2.
      +                          45/pic/sources/c99/common/doprnt.c: 945:     int l, p;;/opt/microchip/xc8/v2.45/pic/sour
      +                          ces/c99/common/doprnt.c: 951:     cp = s;
  2824     12AD  0879               	movf	stoa@s,w
  2825     12AE  00A3               	movwf	stoa@cp
  2826     12AF  3000               	movlw	0
  2827     12B0  00A4               	movwf	stoa@cp+1
  2828                           
  2829                           ;/opt/microchip/xc8/v2.45/pic/sources/c99/common/doprnt.c: 952:     if (!cp) {
  2830     12B1  0823               	movf	stoa@cp,w
  2831     12B2  0424               	iorwf	stoa@cp+1,w
  2832     12B3  1D03               	btfss	3,2
  2833     12B4  2AB6               	goto	u494_21
  2834     12B5  2AB7               	goto	u494_20
  2835     12B6                     u494_21:
  2836     12B6  2ABB               	goto	i1l3315
  2837     12B7                     u494_20:
  2838     12B7                     i1l3313:
  2839                           
  2840                           ;/opt/microchip/xc8/v2.45/pic/sources/c99/common/doprnt.c: 953:         cp = "(null)";
  2841     12B7  302A               	movlw	(low ((STR_9-__stringbase)| (0+32768)))& (0+255)
  2842     12B8  00A3               	movwf	stoa@cp
  2843     12B9  3080               	movlw	128
  2844     12BA  00A4               	movwf	stoa@cp+1
  2845     12BB                     i1l3315:
  2846                           
  2847                           ;/opt/microchip/xc8/v2.45/pic/sources/c99/common/doprnt.c: 957:  for (l = 0; cp[l] != '\
      +                          0'; l++) {
  2848     12BB  01A5               	clrf	stoa@l
  2849     12BC  01A6               	clrf	stoa@l+1
  2850     12BD  2AC4               	goto	i1l3319
  2851     12BE                     i1l3317:
  2852     12BE  3001               	movlw	1
  2853     12BF  07A5               	addwf	stoa@l,f
  2854     12C0  1803               	skipnc
  2855     12C1  0AA6               	incf	stoa@l+1,f
  2856     12C2  3000               	movlw	0
  2857     12C3  07A6               	addwf	stoa@l+1,f
  2858     12C4                     i1l3319:
  2859     12C4  0825               	movf	stoa@l,w
  2860     12C5  0723               	addwf	stoa@cp,w
  2861     12C6  00FB               	movwf	??_stoa+1
  2862     12C7  0824               	movf	stoa@cp+1,w
  2863     12C8  00FA               	movwf	??_stoa
  2864     12C9  1803               	skipnc
  2865     12CA  0AFA               	incf	??_stoa,f
  2866     12CB  1FA5               	btfss	stoa@l,7
  2867     12CC  2ACE               	goto	u495_20
  2868     12CD  03FA               	decf	??_stoa,f
  2869     12CE                     u495_20:
  2870     12CE  087A               	movf	??_stoa,w
  2871     12CF  00FC               	movwf	??_stoa+2
  2872     12D0  087C               	movf	??_stoa+2,w
  2873     12D1  1283               	bcf	3,5	;RP0=0, select bank0
  2874     12D2  1303               	bcf	3,6	;RP1=0, select bank0
  2875     12D3  00FF               	movwf	btemp+1
  2876     12D4  087B               	movf	??_stoa+1,w
  2877     12D5  0084               	movwf	4
  2878     12D6  160A  118A  2000  160A  118A  	fcall	stringtab
  2879     12DB  3A00               	xorlw	0
  2880     12DC  1D03               	skipz
  2881     12DD  2ADF               	goto	u496_21
  2882     12DE  2AE0               	goto	u496_20
  2883     12DF                     u496_21:
  2884     12DF  2ABE               	goto	i1l3317
  2885     12E0                     u496_20:
  2886     12E0                     i1l770:
  2887                           
  2888                           ;/opt/microchip/xc8/v2.45/pic/sources/c99/common/doprnt.c: 961:  if (!(prec < 0) && (pre
      +                          c < l)) {
  2889     12E0  1BE7               	btfsc	_prec+1,7
  2890     12E1  2AE3               	goto	u497_21
  2891     12E2  2AE4               	goto	u497_20
  2892     12E3                     u497_21:
  2893     12E3  2AF8               	goto	i1l771
  2894     12E4                     u497_20:
  2895     12E4                     i1l3321:
  2896     12E4  0867               	movf	_prec+1,w
  2897     12E5  3A80               	xorlw	128
  2898     12E6  00FA               	movwf	??_stoa
  2899     12E7  0826               	movf	stoa@l+1,w
  2900     12E8  3A80               	xorlw	128
  2901     12E9  027A               	subwf	??_stoa,w
  2902     12EA  1D03               	skipz
  2903     12EB  2AEE               	goto	u498_25
  2904     12EC  0825               	movf	stoa@l,w
  2905     12ED  0266               	subwf	_prec,w
  2906     12EE                     u498_25:
  2907     12EE  1803               	skipnc
  2908     12EF  2AF1               	goto	u498_21
  2909     12F0  2AF2               	goto	u498_20
  2910     12F1                     u498_21:
  2911     12F1  2AF8               	goto	i1l771
  2912     12F2                     u498_20:
  2913     12F2                     i1l3323:
  2914                           
  2915                           ;/opt/microchip/xc8/v2.45/pic/sources/c99/common/doprnt.c: 962:   l = prec;
  2916     12F2  1283               	bcf	3,5	;RP0=0, select bank0
  2917     12F3  1303               	bcf	3,6	;RP1=0, select bank0
  2918     12F4  0867               	movf	_prec+1,w
  2919     12F5  00A6               	movwf	stoa@l+1
  2920     12F6  0866               	movf	_prec,w
  2921     12F7  00A5               	movwf	stoa@l
  2922     12F8                     i1l771:	
  2923                           ;/opt/microchip/xc8/v2.45/pic/sources/c99/common/doprnt.c: 963:  }
  2924                           
  2925                           
  2926                           ;/opt/microchip/xc8/v2.45/pic/sources/c99/common/doprnt.c: 965:     p = l;
  2927     12F8  1283               	bcf	3,5	;RP0=0, select bank0
  2928     12F9  1303               	bcf	3,6	;RP1=0, select bank0
  2929     12FA  0826               	movf	stoa@l+1,w
  2930     12FB  00A1               	movwf	stoa@p+1
  2931     12FC  0825               	movf	stoa@l,w
  2932     12FD  00A0               	movwf	stoa@p
  2933                           
  2934                           ;/opt/microchip/xc8/v2.45/pic/sources/c99/common/doprnt.c: 979:     while (p--) {
  2935     12FE  2B1D               	goto	i1l3329
  2936     12FF                     i1l3325:
  2937                           
  2938                           ;/opt/microchip/xc8/v2.45/pic/sources/c99/common/doprnt.c: 980:         fputc(*cp, fp);
  2939     12FF  0824               	movf	stoa@cp+1,w
  2940     1300  00FF               	movwf	btemp+1
  2941     1301  0823               	movf	stoa@cp,w
  2942     1302  0084               	movwf	4
  2943     1303  160A  118A  2000  160A  118A  	fcall	stringtab
  2944     1308  00FA               	movwf	??_stoa
  2945     1309  01FB               	clrf	??_stoa+1
  2946     130A  087A               	movf	??_stoa,w
  2947     130B  00F1               	movwf	fputc@c
  2948     130C  087B               	movf	??_stoa+1,w
  2949     130D  00F2               	movwf	fputc@c+1
  2950     130E  0822               	movf	stoa@fp,w
  2951     130F  00F3               	movwf	fputc@fp
  2952     1310  160A  118A  20AE  160A  118A  	fcall	_fputc
  2953     1315                     i1l3327:
  2954                           
  2955                           ;/opt/microchip/xc8/v2.45/pic/sources/c99/common/doprnt.c: 981:         ++cp;
  2956     1315  3001               	movlw	1
  2957     1316  1283               	bcf	3,5	;RP0=0, select bank0
  2958     1317  1303               	bcf	3,6	;RP1=0, select bank0
  2959     1318  07A3               	addwf	stoa@cp,f
  2960     1319  1803               	skipnc
  2961     131A  0AA4               	incf	stoa@cp+1,f
  2962     131B  3000               	movlw	0
  2963     131C  07A4               	addwf	stoa@cp+1,f
  2964     131D                     i1l3329:
  2965                           
  2966                           ;/opt/microchip/xc8/v2.45/pic/sources/c99/common/doprnt.c: 979:     while (p--) {
  2967     131D  30FF               	movlw	255
  2968     131E  07A0               	addwf	stoa@p,f
  2969     131F  1803               	skipnc
  2970     1320  0AA1               	incf	stoa@p+1,f
  2971     1321  30FF               	movlw	255
  2972     1322  07A1               	addwf	stoa@p+1,f
  2973     1323  0A20               	incf	stoa@p,w
  2974     1324  1D03               	skipz
  2975     1325  2B2A               	goto	u499_21
  2976     1326  0A21               	incf	stoa@p+1,w
  2977     1327  1D03               	btfss	3,2
  2978     1328  2B2A               	goto	u499_21
  2979     1329  2B2B               	goto	u499_20
  2980     132A                     u499_21:
  2981     132A  2AFF               	goto	i1l3325
  2982     132B                     u499_20:
  2983     132B                     i1l775:
  2984     132B  0008               	return
  2985     132C                     __end_of_stoa:
  2986                           
  2987                           	psect	text10
  2988     1104                     __ptext10:	
  2989 ;; *************** function _read_prec_or_width *****************
  2990 ;; Defined at:
  2991 ;;		line 1158 in file "/opt/microchip/xc8/v2.45/pic/sources/c99/common/doprnt.c"
  2992 ;; Parameters:    Size  Location     Type
  2993 ;;  fmt             1    wreg     PTR PTR const unsigned c
  2994 ;;		 -> vfprintf@cfmt(1), 
  2995 ;;  ap              1    6[COMMON] PTR PTR void [1]
  2996 ;;		 -> printf@ap(1), 
  2997 ;; Auto vars:     Size  Location     Type
  2998 ;;  fmt             1   12[COMMON] PTR PTR const unsigned c
  2999 ;;		 -> vfprintf@cfmt(1), 
  3000 ;;  c               1    9[COMMON] unsigned char 
  3001 ;;  n               2   10[COMMON] int 
  3002 ;; Return value:  Size  Location     Type
  3003 ;;                  2    6[COMMON] int 
  3004 ;; Registers used:
  3005 ;;		wreg, fsr0l, fsr0h, status,2, status,0, pclath, cstack
  3006 ;; Tracked objects:
  3007 ;;		On entry : 0/0
  3008 ;;		On exit  : 0/0
  3009 ;;		Unchanged: 0/0
  3010 ;; Data sizes:     COMMON   BANK0   BANK1   BANK3   BANK2
  3011 ;;      Params:         2       0       0       0       0
  3012 ;;      Locals:         4       0       0       0       0
  3013 ;;      Temps:          1       0       0       0       0
  3014 ;;      Totals:         7       0       0       0       0
  3015 ;;Total ram usage:        7 bytes
  3016 ;; Hardware stack levels used: 1
  3017 ;; Hardware stack levels required when called: 1
  3018 ;; This function calls:
  3019 ;;		___wmul
  3020 ;; This function is called by:
  3021 ;;		_vfpfcnvrt
  3022 ;; This function uses a non-reentrant model
  3023 ;;
  3024                           
  3025     1104                     _read_prec_or_width:	
  3026                           ;psect for function _read_prec_or_width
  3027                           
  3028                           
  3029                           ;incstack = 0
  3030 ;; using string table level
  3031                           ; Regs used in _read_prec_or_width: [wreg-fsr0h+status,2+status,0+pclath+cstack]
  3032                           ;read_prec_or_width@fmt stored from wreg
  3033     1104  00FC               	movwf	read_prec_or_width@fmt
  3034     1105                     i1l3331:
  3035                           
  3036                           ;/opt/microchip/xc8/v2.45/pic/sources/c99/common/doprnt.c: 1159:     int n = 0;
  3037     1105  01FA               	clrf	read_prec_or_width@n
  3038     1106  01FB               	clrf	read_prec_or_width@n+1
  3039     1107                     i1l3333:
  3040                           
  3041                           ;/opt/microchip/xc8/v2.45/pic/sources/c99/common/doprnt.c: 1160:     if ((*fmt)[0] == '*
      +                          ') {
  3042     1107  087C               	movf	read_prec_or_width@fmt,w
  3043     1108  0084               	movwf	4
  3044     1109  1383               	bcf	3,7	;select IRP bank0
  3045     110A  0800               	movf	0,w
  3046     110B  0084               	movwf	4
  3047     110C  160A  118A  200A  160A  118A  	fcall	stringdir
  3048     1111  3A2A               	xorlw	42
  3049     1112  1D03               	skipz
  3050     1113  2915               	goto	u500_21
  3051     1114  2916               	goto	u500_20
  3052     1115                     u500_21:
  3053     1115  2946               	goto	i1l3341
  3054     1116                     u500_20:
  3055     1116                     i1l3335:
  3056                           
  3057                           ;/opt/microchip/xc8/v2.45/pic/sources/c99/common/doprnt.c: 1161:         ++*fmt;
  3058     1116  3001               	movlw	1
  3059     1117  00F8               	movwf	??_read_prec_or_width
  3060     1118  087C               	movf	read_prec_or_width@fmt,w
  3061     1119  0084               	movwf	4
  3062     111A  0878               	movf	??_read_prec_or_width,w
  3063     111B  0780               	addwf	0,f
  3064                           
  3065                           ;/opt/microchip/xc8/v2.45/pic/sources/c99/common/doprnt.c: 1162:         n = (*(int *)__
      +                          va_arg(*(int **)*ap, (int)0));
  3066     111C  0876               	movf	read_prec_or_width@ap,w
  3067     111D  0084               	movwf	4
  3068     111E  0800               	movf	0,w
  3069     111F  00F8               	movwf	??_read_prec_or_width
  3070     1120  3002               	movlw	2
  3071     1121  0780               	addwf	0,f
  3072     1122  0878               	movf	??_read_prec_or_width,w
  3073     1123  0084               	movwf	4
  3074     1124  0800               	movf	0,w
  3075     1125  00FA               	movwf	read_prec_or_width@n
  3076     1126  0A84               	incf	4,f
  3077     1127  0800               	movf	0,w
  3078     1128  00FB               	movwf	read_prec_or_width@n+1
  3079                           
  3080                           ;/opt/microchip/xc8/v2.45/pic/sources/c99/common/doprnt.c: 1163:     } else {
  3081     1129  2957               	goto	i1l3343
  3082     112A                     i1l3337:
  3083                           
  3084                           ;/opt/microchip/xc8/v2.45/pic/sources/c99/common/doprnt.c: 1166:             n = n * 10 
      +                          + c;
  3085     112A  087B               	movf	read_prec_or_width@n+1,w
  3086     112B  00F1               	movwf	___wmul@multiplier+1
  3087     112C  087A               	movf	read_prec_or_width@n,w
  3088     112D  00F0               	movwf	___wmul@multiplier
  3089     112E  300A               	movlw	10
  3090     112F  00F2               	movwf	___wmul@multiplicand
  3091     1130  3000               	movlw	0
  3092     1131  00F3               	movwf	___wmul@multiplicand+1
  3093     1132  160A  158A  26CA  160A  118A  	fcall	___wmul
  3094     1137  0879               	movf	read_prec_or_width@c,w
  3095     1138  0770               	addwf	?___wmul,w
  3096     1139  00FA               	movwf	read_prec_or_width@n
  3097     113A  3000               	movlw	0
  3098     113B  1803               	skipnc
  3099     113C  3001               	movlw	1
  3100     113D  0771               	addwf	?___wmul+1,w
  3101     113E  00FB               	movwf	read_prec_or_width@n+1
  3102     113F                     i1l3339:
  3103                           
  3104                           ;/opt/microchip/xc8/v2.45/pic/sources/c99/common/doprnt.c: 1167:             ++*fmt;
  3105     113F  3001               	movlw	1
  3106     1140  00F8               	movwf	??_read_prec_or_width
  3107     1141  087C               	movf	read_prec_or_width@fmt,w
  3108     1142  0084               	movwf	4
  3109     1143  0878               	movf	??_read_prec_or_width,w
  3110     1144  1383               	bcf	3,7	;select IRP bank0
  3111     1145  0780               	addwf	0,f
  3112     1146                     i1l3341:
  3113                           
  3114                           ;/opt/microchip/xc8/v2.45/pic/sources/c99/common/doprnt.c: 1165:         while ((c = ((u
      +                          nsigned)(*fmt)[0]) - '0') < 10) {
  3115     1146  087C               	movf	read_prec_or_width@fmt,w
  3116     1147  0084               	movwf	4
  3117     1148  0800               	movf	0,w
  3118     1149  0084               	movwf	4
  3119     114A  160A  118A  200A  160A  118A  	fcall	stringdir
  3120     114F  3ED0               	addlw	208
  3121     1150  00F9               	movwf	read_prec_or_width@c
  3122     1151  300A               	movlw	10
  3123     1152  0279               	subwf	read_prec_or_width@c,w
  3124     1153  1C03               	skipc
  3125     1154  2956               	goto	u501_21
  3126     1155  2957               	goto	u501_20
  3127     1156                     u501_21:
  3128     1156  292A               	goto	i1l3337
  3129     1157                     u501_20:
  3130     1157                     i1l3343:
  3131                           
  3132                           ;/opt/microchip/xc8/v2.45/pic/sources/c99/common/doprnt.c: 1170:     return n;
  3133     1157  087B               	movf	read_prec_or_width@n+1,w
  3134     1158  00F7               	movwf	?_read_prec_or_width+1
  3135     1159  087A               	movf	read_prec_or_width@n,w
  3136     115A  00F6               	movwf	?_read_prec_or_width
  3137     115B                     i1l783:
  3138     115B  0008               	return
  3139     115C                     __end_of_read_prec_or_width:
  3140                           
  3141                           	psect	text11
  3142     1ECA                     __ptext11:	
  3143 ;; *************** function ___wmul *****************
  3144 ;; Defined at:
  3145 ;;		line 15 in file "/opt/microchip/xc8/v2.45/pic/sources/c99/common/Umul16.c"
  3146 ;; Parameters:    Size  Location     Type
  3147 ;;  multiplier      2    0[COMMON] unsigned int 
  3148 ;;  multiplicand    2    2[COMMON] unsigned int 
  3149 ;; Auto vars:     Size  Location     Type
  3150 ;;  product         2    4[COMMON] unsigned int 
  3151 ;; Return value:  Size  Location     Type
  3152 ;;                  2    0[COMMON] unsigned int 
  3153 ;; Registers used:
  3154 ;;		wreg, status,2, status,0
  3155 ;; Tracked objects:
  3156 ;;		On entry : 0/0
  3157 ;;		On exit  : 0/0
  3158 ;;		Unchanged: 0/0
  3159 ;; Data sizes:     COMMON   BANK0   BANK1   BANK3   BANK2
  3160 ;;      Params:         4       0       0       0       0
  3161 ;;      Locals:         2       0       0       0       0
  3162 ;;      Temps:          0       0       0       0       0
  3163 ;;      Totals:         6       0       0       0       0
  3164 ;;Total ram usage:        6 bytes
  3165 ;; Hardware stack levels used: 1
  3166 ;; This function calls:
  3167 ;;		Nothing
  3168 ;; This function is called by:
  3169 ;;		_read_prec_or_width
  3170 ;; This function uses a non-reentrant model
  3171 ;;
  3172                           
  3173     1ECA                     ___wmul:	
  3174                           ;psect for function ___wmul
  3175                           
  3176     1ECA                     i1l2501:	
  3177                           ;incstack = 0
  3178                           ; Regs used in ___wmul: [wreg+status,2+status,0]
  3179                           
  3180     1ECA  01F4               	clrf	___wmul@product
  3181     1ECB  01F5               	clrf	___wmul@product+1
  3182     1ECC                     i1l2503:
  3183     1ECC  1C70               	btfss	___wmul@multiplier,0
  3184     1ECD  2ECF               	goto	u313_21
  3185     1ECE  2ED0               	goto	u313_20
  3186     1ECF                     u313_21:
  3187     1ECF  2ED6               	goto	i1l197
  3188     1ED0                     u313_20:
  3189     1ED0                     i1l2505:
  3190     1ED0  0872               	movf	___wmul@multiplicand,w
  3191     1ED1  07F4               	addwf	___wmul@product,f
  3192     1ED2  1803               	skipnc
  3193     1ED3  0AF5               	incf	___wmul@product+1,f
  3194     1ED4  0873               	movf	___wmul@multiplicand+1,w
  3195     1ED5  07F5               	addwf	___wmul@product+1,f
  3196     1ED6                     i1l197:
  3197     1ED6  3001               	movlw	1
  3198     1ED7                     u314_25:
  3199     1ED7  1003               	clrc
  3200     1ED8  0DF2               	rlf	___wmul@multiplicand,f
  3201     1ED9  0DF3               	rlf	___wmul@multiplicand+1,f
  3202     1EDA  3EFF               	addlw	-1
  3203     1EDB  1D03               	skipz
  3204     1EDC  2ED7               	goto	u314_25
  3205     1EDD                     i1l2507:
  3206     1EDD  3001               	movlw	1
  3207     1EDE                     u315_25:
  3208     1EDE  1003               	clrc
  3209     1EDF  0CF1               	rrf	___wmul@multiplier+1,f
  3210     1EE0  0CF0               	rrf	___wmul@multiplier,f
  3211     1EE1  3EFF               	addlw	-1
  3212     1EE2  1D03               	skipz
  3213     1EE3  2EDE               	goto	u315_25
  3214     1EE4                     i1l2509:
  3215     1EE4  0870               	movf	___wmul@multiplier,w
  3216     1EE5  0471               	iorwf	___wmul@multiplier+1,w
  3217     1EE6  1D03               	btfss	3,2
  3218     1EE7  2EE9               	goto	u316_21
  3219     1EE8  2EEA               	goto	u316_20
  3220     1EE9                     u316_21:
  3221     1EE9  2ECC               	goto	i1l2503
  3222     1EEA                     u316_20:
  3223     1EEA                     i1l2511:
  3224     1EEA  0875               	movf	___wmul@product+1,w
  3225     1EEB  00F1               	movwf	?___wmul+1
  3226     1EEC  0874               	movf	___wmul@product,w
  3227     1EED  00F0               	movwf	?___wmul
  3228     1EEE                     i1l199:
  3229     1EEE  0008               	return
  3230     1EEF                     __end_of___wmul:
  3231                           
  3232                           	psect	text12
  3233     14F6                     __ptext12:	
  3234 ;; *************** function _efgtoa *****************
  3235 ;; Defined at:
  3236 ;;		line 587 in file "/opt/microchip/xc8/v2.45/pic/sources/c99/common/doprnt.c"
  3237 ;; Parameters:    Size  Location     Type
  3238 ;;  fp              1    wreg     PTR struct _IO_FILE
  3239 ;;		 -> NULL(0), 
  3240 ;;  f               4   33[BANK0 ] PTR struct _IO_FILE
  3241 ;;  c               1   37[BANK0 ] unsigned char 
  3242 ;; Auto vars:     Size  Location     Type
  3243 ;;  fp              1   15[BANK1 ] PTR struct _IO_FILE
  3244 ;;		 -> NULL(0), 
  3245 ;;  u               4   41[BANK1 ] struct flui
  3246 ;;  g               4   37[BANK1 ] struct flui
  3247 ;;  l               4   30[BANK1 ] struct flui
  3248 ;;  h               4   26[BANK1 ] struct flui
  3249 ;;  ou              4   20[BANK1 ] struct flui
  3250 ;;  n               2   35[BANK1 ] int 
  3251 ;;  i               2   24[BANK1 ] int 
  3252 ;;  w               2   18[BANK1 ] int 
  3253 ;;  e               2   16[BANK1 ] int 
  3254 ;;  m               2   13[BANK1 ] int 
  3255 ;;  d               2   11[BANK1 ] int 
  3256 ;;  t               2    4[BANK1 ] int 
  3257 ;;  p               2    2[BANK1 ] int 
  3258 ;;  ne              2    0[BANK1 ] int 
  3259 ;;  sign            1   34[BANK1 ] unsigned char 
  3260 ;;  nmode           1   10[BANK1 ] unsigned char 
  3261 ;;  mode            1    9[BANK1 ] unsigned char 
  3262 ;;  pp              1    8[BANK1 ] unsigned char 
  3263 ;;  esign           1    0        unsigned char 
  3264 ;; Return value:  Size  Location     Type
  3265 ;;                  1    wreg      void 
  3266 ;; Registers used:
  3267 ;;		wreg, fsr0l, fsr0h, status,2, status,0, btemp+1, pclath, cstack
  3268 ;; Tracked objects:
  3269 ;;		On entry : 0/0
  3270 ;;		On exit  : 0/0
  3271 ;;		Unchanged: 0/0
  3272 ;; Data sizes:     COMMON   BANK0   BANK1   BANK3   BANK2
  3273 ;;      Params:         0       5       0       0       0
  3274 ;;      Locals:         0       0      45       0       0
  3275 ;;      Temps:          0       4       0       0       0
  3276 ;;      Totals:         0       9      45       0       0
  3277 ;;Total ram usage:       54 bytes
  3278 ;; Hardware stack levels used: 1
  3279 ;; Hardware stack levels required when called: 4
  3280 ;; This function calls:
  3281 ;;		___fladd
  3282 ;;		___fldiv
  3283 ;;		___fleq
  3284 ;;		___flge
  3285 ;;		___flmul
  3286 ;;		___flneg
  3287 ;;		___flsub
  3288 ;;		___fltol
  3289 ;;		___fpclassifyf
  3290 ;;		_floorf
  3291 ;;		_labs
  3292 ;;		_memcpy
  3293 ;;		_pad
  3294 ;;		_strcpy
  3295 ;; This function is called by:
  3296 ;;		_vfpfcnvrt
  3297 ;; This function uses a non-reentrant model
  3298 ;;
  3299                           
  3300     14F6                     _efgtoa:	
  3301                           ;psect for function _efgtoa
  3302                           
  3303                           
  3304                           ;incstack = 0
  3305 ;; hardware stack exceeded
  3306                           ; Regs used in _efgtoa: [wreg-fsr0h+status,2+status,0+btemp+1+pclath+cstack]
  3307                           ;efgtoa@fp stored from wreg
  3308     14F6  1683               	bsf	3,5	;RP0=1, select bank1
  3309     14F7  1303               	bcf	3,6	;RP1=0, select bank1
  3310     14F8  00AF               	movwf	efgtoa@fp^(0+128)
  3311     14F9                     i1l3101:
  3312                           
  3313                           ;/opt/microchip/xc8/v2.45/pic/sources/c99/common/doprnt.c: 587: static void efgtoa(FILE 
      +                          *fp, long double f, char c);/opt/microchip/xc8/v2.45/pic/sources/c99/common/doprnt.c: 58
      +                          8: {;/opt/microchip/xc8/v2.45/pic/sources/c99/common/doprnt.c: 589:     char mode, nmode
      +                          , pp, sign, esign;;/opt/microchip/xc8/v2.45/pic/sources/c99/common/doprnt.c: 590:     in
      +                          t d, e, i, m, n, ne, p, t, w;;/opt/microchip/xc8/v2.45/pic/sources/c99/common/doprnt.c: 
      +                          591:     long double h, l;;/opt/microchip/xc8/v2.45/pic/sources/c99/common/doprnt.c: 592
      +                          :  union flui g, u, ou;
  3314     14F9  01C2               	clrf	efgtoa@sign^(0+128)
  3315     14FA                     i1l3103:
  3316                           
  3317                           ;/opt/microchip/xc8/v2.45/pic/sources/c99/common/doprnt.c: 596:     g.f = f;
  3318     14FA  1283               	bcf	3,5	;RP0=0, select bank0
  3319     14FB  1303               	bcf	3,6	;RP1=0, select bank0
  3320     14FC  0844               	movf	efgtoa@f+3,w
  3321     14FD  1683               	bsf	3,5	;RP0=1, select bank1
  3322     14FE  1303               	bcf	3,6	;RP1=0, select bank1
  3323     14FF  00C8               	movwf	(efgtoa@g+3)^(0+128)
  3324     1500  1283               	bcf	3,5	;RP0=0, select bank0
  3325     1501  1303               	bcf	3,6	;RP1=0, select bank0
  3326     1502  0843               	movf	efgtoa@f+2,w
  3327     1503  1683               	bsf	3,5	;RP0=1, select bank1
  3328     1504  1303               	bcf	3,6	;RP1=0, select bank1
  3329     1505  00C7               	movwf	(efgtoa@g+2)^(0+128)
  3330     1506  1283               	bcf	3,5	;RP0=0, select bank0
  3331     1507  1303               	bcf	3,6	;RP1=0, select bank0
  3332     1508  0842               	movf	efgtoa@f+1,w
  3333     1509  1683               	bsf	3,5	;RP0=1, select bank1
  3334     150A  1303               	bcf	3,6	;RP1=0, select bank1
  3335     150B  00C6               	movwf	(efgtoa@g+1)^(0+128)
  3336     150C  1283               	bcf	3,5	;RP0=0, select bank0
  3337     150D  1303               	bcf	3,6	;RP1=0, select bank0
  3338     150E  0841               	movf	efgtoa@f,w
  3339     150F  1683               	bsf	3,5	;RP0=1, select bank1
  3340     1510  1303               	bcf	3,6	;RP1=0, select bank1
  3341     1511  00C5               	movwf	efgtoa@g^(0+128)
  3342     1512                     i1l3105:
  3343                           
  3344                           ;/opt/microchip/xc8/v2.45/pic/sources/c99/common/doprnt.c: 597:     if (g.f < 0.0) {
  3345     1512  0848               	movf	(efgtoa@g+3)^(0+128),w
  3346     1513  1283               	bcf	3,5	;RP0=0, select bank0
  3347     1514  1303               	bcf	3,6	;RP1=0, select bank0
  3348     1515  00B8               	movwf	___flge@ff1+3
  3349     1516  1683               	bsf	3,5	;RP0=1, select bank1
  3350     1517  1303               	bcf	3,6	;RP1=0, select bank1
  3351     1518  0847               	movf	(efgtoa@g+2)^(0+128),w
  3352     1519  1283               	bcf	3,5	;RP0=0, select bank0
  3353     151A  1303               	bcf	3,6	;RP1=0, select bank0
  3354     151B  00B7               	movwf	___flge@ff1+2
  3355     151C  1683               	bsf	3,5	;RP0=1, select bank1
  3356     151D  1303               	bcf	3,6	;RP1=0, select bank1
  3357     151E  0846               	movf	(efgtoa@g+1)^(0+128),w
  3358     151F  1283               	bcf	3,5	;RP0=0, select bank0
  3359     1520  1303               	bcf	3,6	;RP1=0, select bank0
  3360     1521  00B6               	movwf	___flge@ff1+1
  3361     1522  1683               	bsf	3,5	;RP0=1, select bank1
  3362     1523  1303               	bcf	3,6	;RP1=0, select bank1
  3363     1524  0845               	movf	efgtoa@g^(0+128),w
  3364     1525  1283               	bcf	3,5	;RP0=0, select bank0
  3365     1526  1303               	bcf	3,6	;RP1=0, select bank0
  3366     1527  00B5               	movwf	___flge@ff1
  3367     1528  3000               	movlw	0
  3368     1529  00BC               	movwf	___flge@ff2+3
  3369     152A  3000               	movlw	0
  3370     152B  00BB               	movwf	___flge@ff2+2
  3371     152C  3000               	movlw	0
  3372     152D  00BA               	movwf	___flge@ff2+1
  3373     152E  3000               	movlw	0
  3374     152F  00B9               	movwf	___flge@ff2
  3375     1530  120A  118A  273D  160A  118A  	fcall	___flge
  3376     1535  1803               	btfsc	3,0
  3377     1536  2D38               	goto	u459_21
  3378     1537  2D39               	goto	u459_20
  3379     1538                     u459_21:
  3380     1538  2D54               	goto	i1l3111
  3381     1539                     u459_20:
  3382     1539                     i1l3107:
  3383                           
  3384                           ;/opt/microchip/xc8/v2.45/pic/sources/c99/common/doprnt.c: 598:         sign = 1;
  3385     1539  1683               	bsf	3,5	;RP0=1, select bank1
  3386     153A  1303               	bcf	3,6	;RP1=0, select bank1
  3387     153B  01C2               	clrf	efgtoa@sign^(0+128)
  3388     153C  0AC2               	incf	efgtoa@sign^(0+128),f
  3389     153D                     i1l3109:
  3390                           
  3391                           ;/opt/microchip/xc8/v2.45/pic/sources/c99/common/doprnt.c: 599:         g.f = -g.f;
  3392     153D  0848               	movf	(efgtoa@g+3)^(0+128),w
  3393     153E  00F3               	movwf	___flneg@f1+3
  3394     153F  0847               	movf	(efgtoa@g+2)^(0+128),w
  3395     1540  00F2               	movwf	___flneg@f1+2
  3396     1541  0846               	movf	(efgtoa@g+1)^(0+128),w
  3397     1542  00F1               	movwf	___flneg@f1+1
  3398     1543  0845               	movf	efgtoa@g^(0+128),w
  3399     1544  00F0               	movwf	___flneg@f1
  3400     1545  160A  158A  25E6  160A  118A  	fcall	___flneg
  3401     154A  0873               	movf	?___flneg+3,w
  3402     154B  1683               	bsf	3,5	;RP0=1, select bank1
  3403     154C  1303               	bcf	3,6	;RP1=0, select bank1
  3404     154D  00C8               	movwf	(efgtoa@g+3)^(0+128)
  3405     154E  0872               	movf	?___flneg+2,w
  3406     154F  00C7               	movwf	(efgtoa@g+2)^(0+128)
  3407     1550  0871               	movf	?___flneg+1,w
  3408     1551  00C6               	movwf	(efgtoa@g+1)^(0+128)
  3409     1552  0870               	movf	?___flneg,w
  3410     1553  00C5               	movwf	efgtoa@g^(0+128)
  3411     1554                     i1l3111:
  3412                           
  3413                           ;/opt/microchip/xc8/v2.45/pic/sources/c99/common/doprnt.c: 603:     n = 0;
  3414     1554  1683               	bsf	3,5	;RP0=1, select bank1
  3415     1555  1303               	bcf	3,6	;RP1=0, select bank1
  3416     1556  01C3               	clrf	efgtoa@n^(0+128)
  3417     1557  01C4               	clrf	(efgtoa@n+1)^(0+128)
  3418     1558                     i1l3113:
  3419                           
  3420                           ;/opt/microchip/xc8/v2.45/pic/sources/c99/common/doprnt.c: 604:     w = width;
  3421     1558  1283               	bcf	3,5	;RP0=0, select bank0
  3422     1559  1303               	bcf	3,6	;RP1=0, select bank0
  3423     155A  0865               	movf	_width+1,w
  3424     155B  1683               	bsf	3,5	;RP0=1, select bank1
  3425     155C  1303               	bcf	3,6	;RP1=0, select bank1
  3426     155D  00B3               	movwf	(efgtoa@w+1)^(0+128)
  3427     155E  1283               	bcf	3,5	;RP0=0, select bank0
  3428     155F  1303               	bcf	3,6	;RP1=0, select bank0
  3429     1560  0864               	movf	_width,w
  3430     1561  1683               	bsf	3,5	;RP0=1, select bank1
  3431     1562  1303               	bcf	3,6	;RP1=0, select bank1
  3432     1563  00B2               	movwf	efgtoa@w^(0+128)
  3433     1564                     i1l3115:
  3434                           
  3435                           ;/opt/microchip/xc8/v2.45/pic/sources/c99/common/doprnt.c: 605:     if (sign
  3436     1564  0842               	movf	efgtoa@sign^(0+128),w
  3437     1565  1903               	btfsc	3,2
  3438     1566  2D68               	goto	u460_21
  3439     1567  2D69               	goto	u460_20
  3440     1568                     u460_21:
  3441     1568  2D79               	goto	i1l3123
  3442     1569                     u460_20:
  3443     1569                     i1l3117:
  3444                           
  3445                           ;/opt/microchip/xc8/v2.45/pic/sources/c99/common/doprnt.c: 609:    ) {;/opt/microchip/xc
      +                          8/v2.45/pic/sources/c99/common/doprnt.c: 610:   sign = sign ? '-' : '+';
  3446     1569  0842               	movf	efgtoa@sign^(0+128),w
  3447     156A  1D03               	btfss	3,2
  3448     156B  2D6D               	goto	u461_21
  3449     156C  2D6E               	goto	u461_20
  3450     156D                     u461_21:
  3451     156D  2D73               	goto	i1l3121
  3452     156E                     u461_20:
  3453     156E                     i1l3119:
  3454     156E  302B               	movlw	43
  3455     156F  00A6               	movwf	_efgtoa$1003^(0+128)
  3456     1570  3000               	movlw	0
  3457     1571  00A7               	movwf	(_efgtoa$1003^(0+128)+1)
  3458     1572  2D77               	goto	i1l719
  3459     1573                     i1l3121:
  3460     1573  302D               	movlw	45
  3461     1574  00A6               	movwf	_efgtoa$1003^(0+128)
  3462     1575  3000               	movlw	0
  3463     1576  00A7               	movwf	(_efgtoa$1003^(0+128)+1)
  3464     1577                     i1l719:
  3465     1577  0826               	movf	_efgtoa$1003^(0+128),w
  3466     1578  00C2               	movwf	efgtoa@sign^(0+128)
  3467     1579                     i1l3123:
  3468                           
  3469                           ;/opt/microchip/xc8/v2.45/pic/sources/c99/common/doprnt.c: 619:     if (( __fpclassifyf(
      +                          g.f) == 1 )) {
  3470     1579  0848               	movf	(efgtoa@g+3)^(0+128),w
  3471     157A  00F3               	movwf	___fpclassifyf@x+3
  3472     157B  0847               	movf	(efgtoa@g+2)^(0+128),w
  3473     157C  00F2               	movwf	___fpclassifyf@x+2
  3474     157D  0846               	movf	(efgtoa@g+1)^(0+128),w
  3475     157E  00F1               	movwf	___fpclassifyf@x+1
  3476     157F  0845               	movf	efgtoa@g^(0+128),w
  3477     1580  00F0               	movwf	___fpclassifyf@x
  3478     1581  160A  118A  222B  160A  118A  	fcall	___fpclassifyf
  3479     1586  0370               	decf	?___fpclassifyf,w
  3480     1587  0471               	iorwf	?___fpclassifyf+1,w
  3481     1588  1D03               	btfss	3,2
  3482     1589  2D8B               	goto	u462_21
  3483     158A  2D8C               	goto	u462_20
  3484     158B                     u462_21:
  3485     158B  2DCF               	goto	i1l3135
  3486     158C                     u462_20:
  3487     158C                     i1l3125:
  3488                           
  3489                           ;/opt/microchip/xc8/v2.45/pic/sources/c99/common/doprnt.c: 620:   if (sign) {
  3490     158C  1683               	bsf	3,5	;RP0=1, select bank1
  3491     158D  1303               	bcf	3,6	;RP1=0, select bank1
  3492     158E  0842               	movf	efgtoa@sign^(0+128),w
  3493     158F  1903               	btfsc	3,2
  3494     1590  2D92               	goto	u463_21
  3495     1591  2D93               	goto	u463_20
  3496     1592                     u463_21:
  3497     1592  2DA3               	goto	i1l3129
  3498     1593                     u463_20:
  3499     1593                     i1l3127:
  3500                           
  3501                           ;/opt/microchip/xc8/v2.45/pic/sources/c99/common/doprnt.c: 621:    dbuf[0] = sign;
  3502     1593  0842               	movf	efgtoa@sign^(0+128),w
  3503     1594  1683               	bsf	3,5	;RP0=1, select bank3
  3504     1595  1703               	bsf	3,6	;RP1=1, select bank3
  3505     1596  0090               	movwf	_dbuf^(0+384)
  3506                           
  3507                           ;/opt/microchip/xc8/v2.45/pic/sources/c99/common/doprnt.c: 622:    w--;
  3508     1597  30FF               	movlw	255
  3509     1598  1683               	bsf	3,5	;RP0=1, select bank1
  3510     1599  1303               	bcf	3,6	;RP1=0, select bank1
  3511     159A  07B2               	addwf	efgtoa@w^(0+128),f
  3512     159B  1803               	skipnc
  3513     159C  0AB3               	incf	(efgtoa@w+1)^(0+128),f
  3514     159D  30FF               	movlw	255
  3515     159E  07B3               	addwf	(efgtoa@w+1)^(0+128),f
  3516                           
  3517                           ;/opt/microchip/xc8/v2.45/pic/sources/c99/common/doprnt.c: 623:    n = 1;
  3518     159F  3001               	movlw	1
  3519     15A0  00C3               	movwf	efgtoa@n^(0+128)
  3520     15A1  3000               	movlw	0
  3521     15A2  00C4               	movwf	(efgtoa@n^(0+128)+1)
  3522     15A3                     i1l3129:
  3523                           
  3524                           ;/opt/microchip/xc8/v2.45/pic/sources/c99/common/doprnt.c: 631:   {;/opt/microchip/xc8/v
      +                          2.45/pic/sources/c99/common/doprnt.c: 632:             strcpy(&dbuf[n], "inf");
  3525     15A3  3031               	movlw	(low ((STR_3-__stringbase)| (0+32768)))& (0+255)
  3526     15A4  00F0               	movwf	strcpy@src
  3527     15A5  0843               	movf	efgtoa@n^(0+128),w
  3528     15A6  3E90               	addlw	(low (_dbuf| (0+256)))& (0+255)
  3529     15A7  120A  118A  27E1  160A  118A  	fcall	_strcpy
  3530     15AC                     i1l3131:
  3531                           
  3532                           ;/opt/microchip/xc8/v2.45/pic/sources/c99/common/doprnt.c: 633:         };/opt/microchip
      +                          /xc8/v2.45/pic/sources/c99/common/doprnt.c: 634:         w -= ((sizeof("inf")/sizeof("in
      +                          f"[0]))-1);
  3533     15AC  30FD               	movlw	253
  3534     15AD  1683               	bsf	3,5	;RP0=1, select bank1
  3535     15AE  1303               	bcf	3,6	;RP1=0, select bank1
  3536     15AF  07B2               	addwf	efgtoa@w^(0+128),f
  3537     15B0  1803               	skipnc
  3538     15B1  0AB3               	incf	(efgtoa@w+1)^(0+128),f
  3539     15B2  30FF               	movlw	255
  3540     15B3  07B3               	addwf	(efgtoa@w+1)^(0+128),f
  3541                           
  3542                           ;/opt/microchip/xc8/v2.45/pic/sources/c99/common/doprnt.c: 635:         return (void) pa
      +                          d(fp, &dbuf[0], w);
  3543     15B4  3090               	movlw	(low (_dbuf| (0+256)))& (0+255)
  3544     15B5  1283               	bcf	3,5	;RP0=0, select bank0
  3545     15B6  1303               	bcf	3,6	;RP1=0, select bank0
  3546     15B7  00A4               	movwf	pad@buf
  3547     15B8  1683               	bsf	3,5	;RP0=1, select bank1
  3548     15B9  1303               	bcf	3,6	;RP1=0, select bank1
  3549     15BA  0833               	movf	(efgtoa@w+1)^(0+128),w
  3550     15BB  1283               	bcf	3,5	;RP0=0, select bank0
  3551     15BC  1303               	bcf	3,6	;RP1=0, select bank0
  3552     15BD  00A6               	movwf	pad@p+1
  3553     15BE  1683               	bsf	3,5	;RP0=1, select bank1
  3554     15BF  1303               	bcf	3,6	;RP1=0, select bank1
  3555     15C0  0832               	movf	efgtoa@w^(0+128),w
  3556     15C1  1283               	bcf	3,5	;RP0=0, select bank0
  3557     15C2  1303               	bcf	3,6	;RP1=0, select bank0
  3558     15C3  00A5               	movwf	pad@p
  3559     15C4  1683               	bsf	3,5	;RP0=1, select bank1
  3560     15C5  1303               	bcf	3,6	;RP1=0, select bank1
  3561     15C6  082F               	movf	efgtoa@fp^(0+128),w
  3562     15C7  160A  158A  27C6  160A  118A  	fcall	_pad
  3563     15CC                     L1:
  3564     15CC  120A  118A  2F3C   	goto	i1l722
  3565     15CF                     i1l3135:
  3566                           
  3567                           ;/opt/microchip/xc8/v2.45/pic/sources/c99/common/doprnt.c: 637:     if (( __fpclassifyf(
      +                          g.f) == 0 )) {
  3568     15CF  1683               	bsf	3,5	;RP0=1, select bank1
  3569     15D0  1303               	bcf	3,6	;RP1=0, select bank1
  3570     15D1  0848               	movf	(efgtoa@g+3)^(0+128),w
  3571     15D2  00F3               	movwf	___fpclassifyf@x+3
  3572     15D3  0847               	movf	(efgtoa@g+2)^(0+128),w
  3573     15D4  00F2               	movwf	___fpclassifyf@x+2
  3574     15D5  0846               	movf	(efgtoa@g+1)^(0+128),w
  3575     15D6  00F1               	movwf	___fpclassifyf@x+1
  3576     15D7  0845               	movf	efgtoa@g^(0+128),w
  3577     15D8  00F0               	movwf	___fpclassifyf@x
  3578     15D9  160A  118A  222B  160A  118A  	fcall	___fpclassifyf
  3579     15DE  0870               	movf	?___fpclassifyf,w
  3580     15DF  0471               	iorwf	?___fpclassifyf+1,w
  3581     15E0  1D03               	btfss	3,2
  3582     15E1  2DE3               	goto	u464_21
  3583     15E2  2DE6               	goto	u464_20
  3584     15E3                     u464_21:
  3585     15E3  120A  118A  2832   	goto	i1l3147
  3586     15E6                     u464_20:
  3587     15E6                     i1l3137:
  3588                           
  3589                           ;/opt/microchip/xc8/v2.45/pic/sources/c99/common/doprnt.c: 638:   if (sign) {
  3590     15E6  1683               	bsf	3,5	;RP0=1, select bank1
  3591     15E7  1303               	bcf	3,6	;RP1=0, select bank1
  3592     15E8  0842               	movf	efgtoa@sign^(0+128),w
  3593     15E9  1903               	btfsc	3,2
  3594     15EA  2DEC               	goto	u465_21
  3595     15EB  2DED               	goto	u465_20
  3596     15EC                     u465_21:
  3597     15EC  2DFD               	goto	i1l3141
  3598     15ED                     u465_20:
  3599     15ED                     i1l3139:
  3600                           
  3601                           ;/opt/microchip/xc8/v2.45/pic/sources/c99/common/doprnt.c: 639:    dbuf[0] = sign;
  3602     15ED  0842               	movf	efgtoa@sign^(0+128),w
  3603     15EE  1683               	bsf	3,5	;RP0=1, select bank3
  3604     15EF  1703               	bsf	3,6	;RP1=1, select bank3
  3605     15F0  0090               	movwf	_dbuf^(0+384)
  3606                           
  3607                           ;/opt/microchip/xc8/v2.45/pic/sources/c99/common/doprnt.c: 640:    w--;
  3608     15F1  30FF               	movlw	255
  3609     15F2  1683               	bsf	3,5	;RP0=1, select bank1
  3610     15F3  1303               	bcf	3,6	;RP1=0, select bank1
  3611     15F4  07B2               	addwf	efgtoa@w^(0+128),f
  3612     15F5  1803               	skipnc
  3613     15F6  0AB3               	incf	(efgtoa@w+1)^(0+128),f
  3614     15F7  30FF               	movlw	255
  3615     15F8  07B3               	addwf	(efgtoa@w+1)^(0+128),f
  3616                           
  3617                           ;/opt/microchip/xc8/v2.45/pic/sources/c99/common/doprnt.c: 641:    n = 1;
  3618     15F9  3001               	movlw	1
  3619     15FA  00C3               	movwf	efgtoa@n^(0+128)
  3620     15FB  3000               	movlw	0
  3621     15FC  00C4               	movwf	(efgtoa@n^(0+128)+1)
  3622     15FD                     i1l3141:
  3623                           
  3624                           ;/opt/microchip/xc8/v2.45/pic/sources/c99/common/doprnt.c: 649:   {;/opt/microchip/xc8/v
      +                          2.45/pic/sources/c99/common/doprnt.c: 650:             strcpy(&dbuf[n], "nan");
  3625     15FD  3035               	movlw	(low ((STR_6-__stringbase)| (0+32768)))& (0+255)
  3626     15FE  00F0               	movwf	strcpy@src
  3627     15FF  0843               	movf	efgtoa@n^(0+128),w
  3628     1600  3E90               	addlw	(low (_dbuf| (0+256)))& (0+255)
  3629     1601  120A  118A  27E1  160A  118A  	fcall	_strcpy
  3630     1606                     i1l3143:
  3631                           
  3632                           ;/opt/microchip/xc8/v2.45/pic/sources/c99/common/doprnt.c: 651:         };/opt/microchip
      +                          /xc8/v2.45/pic/sources/c99/common/doprnt.c: 652:         w -= ((sizeof("nan")/sizeof("na
      +                          n"[0]))-1);
  3633     1606  30FD               	movlw	253
  3634     1607  1683               	bsf	3,5	;RP0=1, select bank1
  3635     1608  1303               	bcf	3,6	;RP1=0, select bank1
  3636     1609  07B2               	addwf	efgtoa@w^(0+128),f
  3637     160A  1803               	skipnc
  3638     160B  0AB3               	incf	(efgtoa@w+1)^(0+128),f
  3639     160C  30FF               	movlw	255
  3640     160D  07B3               	addwf	(efgtoa@w+1)^(0+128),f
  3641                           
  3642                           ;/opt/microchip/xc8/v2.45/pic/sources/c99/common/doprnt.c: 653:         return (void) pa
      +                          d(fp, &dbuf[0], w);
  3643     160E  3090               	movlw	(low (_dbuf| (0+256)))& (0+255)
  3644     160F  1283               	bcf	3,5	;RP0=0, select bank0
  3645     1610  1303               	bcf	3,6	;RP1=0, select bank0
  3646     1611  00A4               	movwf	pad@buf
  3647     1612  1683               	bsf	3,5	;RP0=1, select bank1
  3648     1613  1303               	bcf	3,6	;RP1=0, select bank1
  3649     1614  0833               	movf	(efgtoa@w+1)^(0+128),w
  3650     1615  1283               	bcf	3,5	;RP0=0, select bank0
  3651     1616  1303               	bcf	3,6	;RP1=0, select bank0
  3652     1617  00A6               	movwf	pad@p+1
  3653     1618  1683               	bsf	3,5	;RP0=1, select bank1
  3654     1619  1303               	bcf	3,6	;RP1=0, select bank1
  3655     161A  0832               	movf	efgtoa@w^(0+128),w
  3656     161B  1283               	bcf	3,5	;RP0=0, select bank0
  3657     161C  1303               	bcf	3,6	;RP1=0, select bank0
  3658     161D  00A5               	movwf	pad@p
  3659     161E  1683               	bsf	3,5	;RP0=1, select bank1
  3660     161F  1303               	bcf	3,6	;RP1=0, select bank1
  3661     1620  082F               	movf	efgtoa@fp^(0+128),w
  3662     1621  160A  158A  27C6  160A  118A  	fcall	_pad
  3663     1626  2DCC               	goto	L1
  3664                           
  3665                           	psect	text13
  3666     07E1                     __ptext13:	
  3667 ;; *************** function _strcpy *****************
  3668 ;; Defined at:
  3669 ;;		line 3 in file "/opt/microchip/xc8/v2.45/pic/sources/c99/common/strcpy.c"
  3670 ;; Parameters:    Size  Location     Type
  3671 ;;  dest            1    wreg     PTR unsigned char 
  3672 ;;		 -> dbuf(80), 
  3673 ;;  src             1    0[COMMON] PTR const unsigned char 
  3674 ;;		 -> STR_6(4), STR_3(4), 
  3675 ;; Auto vars:     Size  Location     Type
  3676 ;;  dest            1    3[COMMON] PTR unsigned char 
  3677 ;;		 -> dbuf(80), 
  3678 ;;  d               1    2[COMMON] PTR unsigned char 
  3679 ;;		 -> dbuf(80), 
  3680 ;; Return value:  Size  Location     Type
  3681 ;;                  1    wreg      PTR unsigned char 
  3682 ;; Registers used:
  3683 ;;		wreg, fsr0l, fsr0h, status,2, status,0, pclath
  3684 ;; Tracked objects:
  3685 ;;		On entry : 0/0
  3686 ;;		On exit  : 0/0
  3687 ;;		Unchanged: 0/0
  3688 ;; Data sizes:     COMMON   BANK0   BANK1   BANK3   BANK2
  3689 ;;      Params:         1       0       0       0       0
  3690 ;;      Locals:         2       0       0       0       0
  3691 ;;      Temps:          1       0       0       0       0
  3692 ;;      Totals:         4       0       0       0       0
  3693 ;;Total ram usage:        4 bytes
  3694 ;; Hardware stack levels used: 2
  3695 ;; This function calls:
  3696 ;;		Nothing
  3697 ;; This function is called by:
  3698 ;;		_efgtoa
  3699 ;; This function uses a non-reentrant model
  3700 ;;
  3701                           
  3702     07E1                     _strcpy:	
  3703                           ;psect for function _strcpy
  3704                           
  3705                           
  3706                           ;incstack = 0
  3707 ;; hardware stack exceeded
  3708                           ; Regs used in _strcpy: [wreg-fsr0h+status,2+status,0+pclath]
  3709                           ;strcpy@dest stored from wreg
  3710     07E1  00F3               	movwf	strcpy@dest
  3711     07E2                     i1l3005:
  3712     07E2  0873               	movf	strcpy@dest,w
  3713     07E3  00F2               	movwf	strcpy@d
  3714     07E4                     i1l3007:
  3715     07E4  3001               	movlw	1
  3716     07E5  07F0               	addwf	strcpy@src,f
  3717     07E6  30FF               	movlw	-1
  3718     07E7  0770               	addwf	strcpy@src,w
  3719     07E8  0084               	movwf	4
  3720     07E9  160A  118A  200A  120A  118A  	fcall	stringdir
  3721     07EE  00F1               	movwf	??_strcpy
  3722     07EF  0872               	movf	strcpy@d,w
  3723     07F0  0084               	movwf	4
  3724     07F1  3001               	movlw	1
  3725     07F2  07F2               	addwf	strcpy@d,f
  3726     07F3  0871               	movf	??_strcpy,w
  3727     07F4  1783               	bsf	3,7	;select IRP bank2
  3728     07F5  0080               	movwf	0
  3729     07F6  0800               	movf	0,w
  3730     07F7  1D03               	btfss	3,2
  3731     07F8  2FFA               	goto	u435_21
  3732     07F9  2FFB               	goto	u435_20
  3733     07FA                     u435_21:
  3734     07FA  2FE4               	goto	i1l3007
  3735     07FB                     u435_20:
  3736     07FB                     i1l887:
  3737     07FB  0008               	return
  3738     07FC                     __end_of_strcpy:
  3739                           
  3740                           	psect	text14
  3741     1EEF                     __ptext14:	
  3742 ;; *************** function _memcpy *****************
  3743 ;; Defined at:
  3744 ;;		line 4 in file "/opt/microchip/xc8/v2.45/pic/sources/c99/common/memcpy.c"
  3745 ;; Parameters:    Size  Location     Type
  3746 ;;  d1              1    wreg     PTR void 
  3747 ;;		 -> dbuf(80), 
  3748 ;;  s1              1    0[COMMON] PTR const void 
  3749 ;;		 -> dbuf(80), 
  3750 ;;  n               2    1[COMMON] unsigned int 
  3751 ;; Auto vars:     Size  Location     Type
  3752 ;;  d1              1    5[COMMON] PTR void 
  3753 ;;		 -> dbuf(80), 
  3754 ;;  s               1    7[COMMON] PTR const unsigned char 
  3755 ;;		 -> dbuf(80), 
  3756 ;;  d               1    6[COMMON] PTR unsigned char 
  3757 ;;		 -> dbuf(80), 
  3758 ;;  tmp             1    4[COMMON] unsigned char 
  3759 ;; Return value:  Size  Location     Type
  3760 ;;                  1    wreg      PTR void 
  3761 ;; Registers used:
  3762 ;;		wreg, fsr0l, fsr0h, status,2, status,0
  3763 ;; Tracked objects:
  3764 ;;		On entry : 0/0
  3765 ;;		On exit  : 0/0
  3766 ;;		Unchanged: 0/0
  3767 ;; Data sizes:     COMMON   BANK0   BANK1   BANK3   BANK2
  3768 ;;      Params:         3       0       0       0       0
  3769 ;;      Locals:         4       0       0       0       0
  3770 ;;      Temps:          1       0       0       0       0
  3771 ;;      Totals:         8       0       0       0       0
  3772 ;;Total ram usage:        8 bytes
  3773 ;; Hardware stack levels used: 1
  3774 ;; This function calls:
  3775 ;;		Nothing
  3776 ;; This function is called by:
  3777 ;;		_efgtoa
  3778 ;; This function uses a non-reentrant model
  3779 ;;
  3780                           
  3781     1EEF                     _memcpy:	
  3782                           ;psect for function _memcpy
  3783                           
  3784                           
  3785                           ;incstack = 0
  3786                           ; Regs used in _memcpy: [wreg-fsr0h+status,2+status,0]
  3787                           ;memcpy@d1 stored from wreg
  3788     1EEF  00F5               	movwf	memcpy@d1
  3789     1EF0                     i1l3047:
  3790     1EF0  0870               	movf	memcpy@s1,w
  3791     1EF1  00F7               	movwf	memcpy@s
  3792     1EF2  0875               	movf	memcpy@d1,w
  3793     1EF3  00F6               	movwf	memcpy@d
  3794     1EF4  2F06               	goto	i1l858
  3795     1EF5                     i1l3049:
  3796     1EF5  0877               	movf	memcpy@s,w
  3797     1EF6  0084               	movwf	4
  3798     1EF7  1783               	bsf	3,7	;select IRP bank2
  3799     1EF8  0800               	movf	0,w
  3800     1EF9  00F4               	movwf	memcpy@tmp
  3801     1EFA                     i1l3051:
  3802     1EFA  3001               	movlw	1
  3803     1EFB  00F3               	movwf	??_memcpy
  3804     1EFC  0873               	movf	??_memcpy,w
  3805     1EFD  07F7               	addwf	memcpy@s,f
  3806     1EFE                     i1l3053:
  3807     1EFE  0876               	movf	memcpy@d,w
  3808     1EFF  0084               	movwf	4
  3809     1F00  0874               	movf	memcpy@tmp,w
  3810     1F01  0080               	movwf	0
  3811     1F02  3001               	movlw	1
  3812     1F03  00F3               	movwf	??_memcpy
  3813     1F04  0873               	movf	??_memcpy,w
  3814     1F05  07F6               	addwf	memcpy@d,f
  3815     1F06                     i1l858:
  3816     1F06  3001               	movlw	1
  3817     1F07  02F1               	subwf	memcpy@n,f
  3818     1F08  3000               	movlw	0
  3819     1F09  1C03               	skipc
  3820     1F0A  03F2               	decf	memcpy@n+1,f
  3821     1F0B  02F2               	subwf	memcpy@n+1,f
  3822     1F0C  0A71               	incf	memcpy@n,w
  3823     1F0D  1D03               	skipz
  3824     1F0E  2F13               	goto	u449_21
  3825     1F0F  0A72               	incf	memcpy@n+1,w
  3826     1F10  1D03               	btfss	3,2
  3827     1F11  2F13               	goto	u449_21
  3828     1F12  2F14               	goto	u449_20
  3829     1F13                     u449_21:
  3830     1F13  2EF5               	goto	i1l3049
  3831     1F14                     u449_20:
  3832     1F14                     i1l861:
  3833     1F14  0008               	return
  3834     1F15                     __end_of_memcpy:
  3835                           
  3836                           	psect	text15
  3837     104B                     __ptext15:	
  3838 ;; *************** function _labs *****************
  3839 ;; Defined at:
  3840 ;;		line 1 in file "/opt/microchip/xc8/v2.45/pic/sources/c99/common/labs.c"
  3841 ;; Parameters:    Size  Location     Type
  3842 ;;  a               4    0[COMMON] long 
  3843 ;; Auto vars:     Size  Location     Type
  3844 ;;		None
  3845 ;; Return value:  Size  Location     Type
  3846 ;;                  4    0[COMMON] long 
  3847 ;; Registers used:
  3848 ;;		wreg, status,2, status,0
  3849 ;; Tracked objects:
  3850 ;;		On entry : 0/0
  3851 ;;		On exit  : 0/0
  3852 ;;		Unchanged: 0/0
  3853 ;; Data sizes:     COMMON   BANK0   BANK1   BANK3   BANK2
  3854 ;;      Params:         4       0       0       0       0
  3855 ;;      Locals:         0       0       0       0       0
  3856 ;;      Temps:          0       0       0       0       0
  3857 ;;      Totals:         4       0       0       0       0
  3858 ;;Total ram usage:        4 bytes
  3859 ;; Hardware stack levels used: 1
  3860 ;; This function calls:
  3861 ;;		Nothing
  3862 ;; This function is called by:
  3863 ;;		_efgtoa
  3864 ;; This function uses a non-reentrant model
  3865 ;;
  3866                           
  3867     104B                     _labs:	
  3868                           ;psect for function _labs
  3869                           
  3870     104B                     i1l3009:	
  3871                           ;incstack = 0
  3872                           ; Regs used in _labs: [wreg+status,2+status,0]
  3873                           
  3874     104B  1BF3               	btfsc	labs@a+3,7
  3875     104C  284E               	goto	u436_21
  3876     104D  284F               	goto	u436_20
  3877     104E                     u436_21:
  3878     104E  2850               	goto	i1l3013
  3879     104F                     u436_20:
  3880     104F                     i1l3011:
  3881     104F  285F               	goto	i1l855
  3882     1050                     i1l3013:
  3883     1050  0970               	comf	labs@a,w
  3884     1051  00F0               	movwf	?_labs
  3885     1052  0971               	comf	labs@a+1,w
  3886     1053  00F1               	movwf	?_labs+1
  3887     1054  0972               	comf	labs@a+2,w
  3888     1055  00F2               	movwf	?_labs+2
  3889     1056  0973               	comf	labs@a+3,w
  3890     1057  00F3               	movwf	?_labs+3
  3891     1058  0AF0               	incf	?_labs,f
  3892     1059  1903               	skipnz
  3893     105A  0AF1               	incf	?_labs+1,f
  3894     105B  1903               	skipnz
  3895     105C  0AF2               	incf	?_labs+2,f
  3896     105D  1903               	skipnz
  3897     105E  0AF3               	incf	?_labs+3,f
  3898     105F                     i1l855:
  3899     105F  0008               	return
  3900     1060                     __end_of_labs:
  3901                           
  3902                           	psect	text16
  3903     13F5                     __ptext16:	
  3904 ;; *************** function _floorf *****************
  3905 ;; Defined at:
  3906 ;;		line 3 in file "/opt/microchip/xc8/v2.45/pic/sources/c99/common/floorf.c"
  3907 ;; Parameters:    Size  Location     Type
  3908 ;;  x               4   13[BANK0 ] float 
  3909 ;; Auto vars:     Size  Location     Type
  3910 ;;  u               4   29[BANK0 ] struct .
  3911 ;;  m               4   23[BANK0 ] unsigned long 
  3912 ;;  e               2   27[BANK0 ] int 
  3913 ;; Return value:  Size  Location     Type
  3914 ;;                  4   13[BANK0 ] float 
  3915 ;; Registers used:
  3916 ;;		wreg, status,2, status,0, btemp+1
  3917 ;; Tracked objects:
  3918 ;;		On entry : 0/0
  3919 ;;		On exit  : 0/0
  3920 ;;		Unchanged: 0/0
  3921 ;; Data sizes:     COMMON   BANK0   BANK1   BANK3   BANK2
  3922 ;;      Params:         0       4       0       0       0
  3923 ;;      Locals:         0      10       0       0       0
  3924 ;;      Temps:          0       6       0       0       0
  3925 ;;      Totals:         0      20       0       0       0
  3926 ;;Total ram usage:       20 bytes
  3927 ;; Hardware stack levels used: 1
  3928 ;; This function calls:
  3929 ;;		Nothing
  3930 ;; This function is called by:
  3931 ;;		_efgtoa
  3932 ;; This function uses a non-reentrant model
  3933 ;;
  3934                           
  3935     13F5                     _floorf:	
  3936                           ;psect for function _floorf
  3937                           
  3938     13F5                     i1l3017:	
  3939                           ;incstack = 0
  3940                           ; Regs used in _floorf: [wreg+status,2+status,0+btemp+1]
  3941                           
  3942     13F5  1283               	bcf	3,5	;RP0=0, select bank0
  3943     13F6  1303               	bcf	3,6	;RP1=0, select bank0
  3944     13F7  085F               	movf	floorf@F521+3,w
  3945     13F8  00C0               	movwf	floorf@u+3
  3946     13F9  085E               	movf	floorf@F521+2,w
  3947     13FA  00BF               	movwf	floorf@u+2
  3948     13FB  085D               	movf	floorf@F521+1,w
  3949     13FC  00BE               	movwf	floorf@u+1
  3950     13FD  085C               	movf	floorf@F521,w
  3951     13FE  00BD               	movwf	floorf@u
  3952     13FF  0830               	movf	floorf@x+3,w
  3953     1400  00C0               	movwf	floorf@u+3
  3954     1401  082F               	movf	floorf@x+2,w
  3955     1402  00BF               	movwf	floorf@u+2
  3956     1403  082E               	movf	floorf@x+1,w
  3957     1404  00BE               	movwf	floorf@u+1
  3958     1405  082D               	movf	floorf@x,w
  3959     1406  00BD               	movwf	floorf@u
  3960     1407                     i1l3019:
  3961     1407  083D               	movf	floorf@u,w
  3962     1408  00B1               	movwf	??_floorf
  3963     1409  083E               	movf	floorf@u+1,w
  3964     140A  00B2               	movwf	??_floorf+1
  3965     140B  083F               	movf	floorf@u+2,w
  3966     140C  00B3               	movwf	??_floorf+2
  3967     140D  0840               	movf	floorf@u+3,w
  3968     140E  00B4               	movwf	??_floorf+3
  3969     140F  3017               	movlw	23
  3970     1410                     u437_25:
  3971     1410  1003               	clrc
  3972     1411  0CB4               	rrf	??_floorf+3,f
  3973     1412  0CB3               	rrf	??_floorf+2,f
  3974     1413  0CB2               	rrf	??_floorf+1,f
  3975     1414  0CB1               	rrf	??_floorf,f
  3976     1415                     u437_20:
  3977     1415  3EFF               	addlw	-1
  3978     1416  1D03               	skipz
  3979     1417  2C10               	goto	u437_25
  3980     1418  30FF               	movlw	255
  3981     1419  0531               	andwf	??_floorf,w
  3982     141A  00B5               	movwf	??_floorf+4
  3983     141B  3000               	movlw	0
  3984     141C  0532               	andwf	??_floorf+1,w
  3985     141D  00B6               	movwf	??_floorf+5
  3986     141E  0835               	movf	??_floorf+4,w
  3987     141F  3E81               	addlw	129
  3988     1420  00BB               	movwf	floorf@e
  3989     1421  0836               	movf	??_floorf+5,w
  3990     1422  1803               	skipnc
  3991     1423  3E01               	addlw	1
  3992     1424  3EFF               	addlw	255
  3993     1425  00BC               	movwf	floorf@e+1
  3994     1426                     i1l3021:
  3995     1426  083C               	movf	floorf@e+1,w
  3996     1427  3A80               	xorlw	128
  3997     1428  00FF               	movwf	btemp+1
  3998     1429  3080               	movlw	128
  3999     142A  027F               	subwf	btemp+1,w
  4000     142B  1D03               	skipz
  4001     142C  2C2F               	goto	u438_25
  4002     142D  3017               	movlw	23
  4003     142E  023B               	subwf	floorf@e,w
  4004     142F                     u438_25:
  4005     142F  1C03               	skipc
  4006     1430  2C32               	goto	u438_21
  4007     1431  2C33               	goto	u438_20
  4008     1432                     u438_21:
  4009     1432  2C34               	goto	i1l840
  4010     1433                     u438_20:
  4011     1433                     i1l3023:
  4012     1433  2CF5               	goto	i1l841
  4013     1434                     i1l840:
  4014     1434  1283               	bcf	3,5	;RP0=0, select bank0
  4015     1435  1303               	bcf	3,6	;RP1=0, select bank0
  4016     1436  1BBC               	btfsc	floorf@e+1,7
  4017     1437  2C39               	goto	u439_21
  4018     1438  2C3A               	goto	u439_20
  4019     1439                     u439_21:
  4020     1439  2CAA               	goto	i1l3037
  4021     143A                     u439_20:
  4022     143A                     i1l3025:
  4023     143A  0A3B               	incf	floorf@e,w
  4024     143B  00B1               	movwf	??_floorf
  4025     143C  30FF               	movlw	255
  4026     143D  00B2               	movwf	??_floorf+1
  4027     143E  30FF               	movlw	255
  4028     143F  00B3               	movwf	??_floorf+2
  4029     1440  307F               	movlw	127
  4030     1441  00B4               	movwf	??_floorf+3
  4031     1442  3000               	movlw	0
  4032     1443  00B5               	movwf	??_floorf+4
  4033     1444  2C4A               	goto	u440_20
  4034     1445                     u440_25:
  4035     1445  0D35               	rlf	??_floorf+4,w
  4036     1446  0CB5               	rrf	??_floorf+4,f
  4037     1447  0CB4               	rrf	??_floorf+3,f
  4038     1448  0CB3               	rrf	??_floorf+2,f
  4039     1449  0CB2               	rrf	??_floorf+1,f
  4040     144A                     u440_20:
  4041     144A  0BB1               	decfsz	??_floorf,f
  4042     144B  2C45               	goto	u440_25
  4043     144C  0835               	movf	??_floorf+4,w
  4044     144D  00BA               	movwf	floorf@m+3
  4045     144E  0834               	movf	??_floorf+3,w
  4046     144F  00B9               	movwf	floorf@m+2
  4047     1450  0833               	movf	??_floorf+2,w
  4048     1451  00B8               	movwf	floorf@m+1
  4049     1452  0832               	movf	??_floorf+1,w
  4050     1453  00B7               	movwf	floorf@m
  4051     1454                     i1l3027:
  4052     1454  0837               	movf	floorf@m,w
  4053     1455  053D               	andwf	floorf@u,w
  4054     1456  00B1               	movwf	??_floorf
  4055     1457  0838               	movf	floorf@m+1,w
  4056     1458  053E               	andwf	floorf@u+1,w
  4057     1459  00B2               	movwf	??_floorf+1
  4058     145A  0839               	movf	floorf@m+2,w
  4059     145B  053F               	andwf	floorf@u+2,w
  4060     145C  00B3               	movwf	??_floorf+2
  4061     145D  083A               	movf	floorf@m+3,w
  4062     145E  0540               	andwf	floorf@u+3,w
  4063     145F  00B4               	movwf	??_floorf+3
  4064     1460  0834               	movf	??_floorf+3,w
  4065     1461  0433               	iorwf	??_floorf+2,w
  4066     1462  0432               	iorwf	??_floorf+1,w
  4067     1463  0431               	iorwf	??_floorf,w
  4068     1464  1D03               	skipz
  4069     1465  2C67               	goto	u441_21
  4070     1466  2C68               	goto	u441_20
  4071     1467                     u441_21:
  4072     1467  2C69               	goto	i1l3031
  4073     1468                     u441_20:
  4074     1468  2C33               	goto	i1l3023
  4075     1469                     i1l3031:
  4076     1469  083D               	movf	floorf@u,w
  4077     146A  00B1               	movwf	??_floorf
  4078     146B  083E               	movf	floorf@u+1,w
  4079     146C  00B2               	movwf	??_floorf+1
  4080     146D  083F               	movf	floorf@u+2,w
  4081     146E  00B3               	movwf	??_floorf+2
  4082     146F  0840               	movf	floorf@u+3,w
  4083     1470  00B4               	movwf	??_floorf+3
  4084     1471  301F               	movlw	31
  4085     1472                     u442_25:
  4086     1472  1003               	clrc
  4087     1473  0CB4               	rrf	??_floorf+3,f
  4088     1474  0CB3               	rrf	??_floorf+2,f
  4089     1475  0CB2               	rrf	??_floorf+1,f
  4090     1476  0CB1               	rrf	??_floorf,f
  4091     1477                     u442_20:
  4092     1477  3EFF               	addlw	-1
  4093     1478  1D03               	skipz
  4094     1479  2C72               	goto	u442_25
  4095     147A  0834               	movf	??_floorf+3,w
  4096     147B  0433               	iorwf	??_floorf+2,w
  4097     147C  0432               	iorwf	??_floorf+1,w
  4098     147D  0431               	iorwf	??_floorf,w
  4099     147E  1903               	skipnz
  4100     147F  2C81               	goto	u443_21
  4101     1480  2C82               	goto	u443_20
  4102     1481                     u443_21:
  4103     1481  2C99               	goto	i1l3035
  4104     1482                     u443_20:
  4105     1482                     i1l3033:
  4106     1482  0837               	movf	floorf@m,w
  4107     1483  07BD               	addwf	floorf@u,f
  4108     1484  0838               	movf	floorf@m+1,w
  4109     1485  1103               	clrz
  4110     1486  1803               	skipnc
  4111     1487  3E01               	addlw	1
  4112     1488  1903               	skipnz
  4113     1489  2C8B               	goto	u444_21
  4114     148A  07BE               	addwf	floorf@u+1,f
  4115     148B                     u444_21:
  4116     148B  0839               	movf	floorf@m+2,w
  4117     148C  1103               	clrz
  4118     148D  1803               	skipnc
  4119     148E  3E01               	addlw	1
  4120     148F  1903               	skipnz
  4121     1490  2C92               	goto	u444_22
  4122     1491  07BF               	addwf	floorf@u+2,f
  4123     1492                     u444_22:
  4124     1492  083A               	movf	floorf@m+3,w
  4125     1493  1103               	clrz
  4126     1494  1803               	skipnc
  4127     1495  3E01               	addlw	1
  4128     1496  1903               	skipnz
  4129     1497  2C99               	goto	u444_23
  4130     1498  07C0               	addwf	floorf@u+3,f
  4131     1499                     u444_23:
  4132     1499                     i1l3035:
  4133     1499  0937               	comf	floorf@m,w
  4134     149A  00B1               	movwf	??_floorf
  4135     149B  0938               	comf	floorf@m+1,w
  4136     149C  00B2               	movwf	??_floorf+1
  4137     149D  0939               	comf	floorf@m+2,w
  4138     149E  00B3               	movwf	??_floorf+2
  4139     149F  093A               	comf	floorf@m+3,w
  4140     14A0  00B4               	movwf	??_floorf+3
  4141     14A1  0831               	movf	??_floorf,w
  4142     14A2  05BD               	andwf	floorf@u,f
  4143     14A3  0832               	movf	??_floorf+1,w
  4144     14A4  05BE               	andwf	floorf@u+1,f
  4145     14A5  0833               	movf	??_floorf+2,w
  4146     14A6  05BF               	andwf	floorf@u+2,f
  4147     14A7  0834               	movf	??_floorf+3,w
  4148     14A8  05C0               	andwf	floorf@u+3,f
  4149     14A9  2CED               	goto	i1l845
  4150     14AA                     i1l3037:
  4151     14AA  083D               	movf	floorf@u,w
  4152     14AB  00B1               	movwf	??_floorf
  4153     14AC  083E               	movf	floorf@u+1,w
  4154     14AD  00B2               	movwf	??_floorf+1
  4155     14AE  083F               	movf	floorf@u+2,w
  4156     14AF  00B3               	movwf	??_floorf+2
  4157     14B0  0840               	movf	floorf@u+3,w
  4158     14B1  00B4               	movwf	??_floorf+3
  4159     14B2  301F               	movlw	31
  4160     14B3                     u445_25:
  4161     14B3  1003               	clrc
  4162     14B4  0CB4               	rrf	??_floorf+3,f
  4163     14B5  0CB3               	rrf	??_floorf+2,f
  4164     14B6  0CB2               	rrf	??_floorf+1,f
  4165     14B7  0CB1               	rrf	??_floorf,f
  4166     14B8                     u445_20:
  4167     14B8  3EFF               	addlw	-1
  4168     14B9  1D03               	skipz
  4169     14BA  2CB3               	goto	u445_25
  4170     14BB  0834               	movf	??_floorf+3,w
  4171     14BC  0433               	iorwf	??_floorf+2,w
  4172     14BD  0432               	iorwf	??_floorf+1,w
  4173     14BE  0431               	iorwf	??_floorf,w
  4174     14BF  1D03               	skipz
  4175     14C0  2CC2               	goto	u446_21
  4176     14C1  2CC3               	goto	u446_20
  4177     14C2                     u446_21:
  4178     14C2  2CCC               	goto	i1l3041
  4179     14C3                     u446_20:
  4180     14C3                     i1l3039:
  4181     14C3  3000               	movlw	0
  4182     14C4  00C0               	movwf	floorf@u+3
  4183     14C5  3000               	movlw	0
  4184     14C6  00BF               	movwf	floorf@u+2
  4185     14C7  3000               	movlw	0
  4186     14C8  00BE               	movwf	floorf@u+1
  4187     14C9  3000               	movlw	0
  4188     14CA  00BD               	movwf	floorf@u
  4189     14CB  2CED               	goto	i1l845
  4190     14CC                     i1l3041:
  4191     14CC  083D               	movf	floorf@u,w
  4192     14CD  00B1               	movwf	??_floorf
  4193     14CE  083E               	movf	floorf@u+1,w
  4194     14CF  00B2               	movwf	??_floorf+1
  4195     14D0  083F               	movf	floorf@u+2,w
  4196     14D1  00B3               	movwf	??_floorf+2
  4197     14D2  0840               	movf	floorf@u+3,w
  4198     14D3  00B4               	movwf	??_floorf+3
  4199     14D4  3001               	movlw	1
  4200     14D5                     u447_25:
  4201     14D5  1003               	clrc
  4202     14D6  0DB1               	rlf	??_floorf,f
  4203     14D7  0DB2               	rlf	??_floorf+1,f
  4204     14D8  0DB3               	rlf	??_floorf+2,f
  4205     14D9  0DB4               	rlf	??_floorf+3,f
  4206     14DA                     u447_20:
  4207     14DA  3EFF               	addlw	-1
  4208     14DB  1D03               	skipz
  4209     14DC  2CD5               	goto	u447_25
  4210     14DD  0834               	movf	??_floorf+3,w
  4211     14DE  0433               	iorwf	??_floorf+2,w
  4212     14DF  0432               	iorwf	??_floorf+1,w
  4213     14E0  0431               	iorwf	??_floorf,w
  4214     14E1  1903               	skipnz
  4215     14E2  2CE4               	goto	u448_21
  4216     14E3  2CE5               	goto	u448_20
  4217     14E4                     u448_21:
  4218     14E4  2CED               	goto	i1l845
  4219     14E5                     u448_20:
  4220     14E5                     i1l3043:
  4221     14E5  30BF               	movlw	191
  4222     14E6  00C0               	movwf	floorf@u+3
  4223     14E7  3080               	movlw	128
  4224     14E8  00BF               	movwf	floorf@u+2
  4225     14E9  3000               	movlw	0
  4226     14EA  00BE               	movwf	floorf@u+1
  4227     14EB  3000               	movlw	0
  4228     14EC  00BD               	movwf	floorf@u
  4229     14ED                     i1l845:
  4230     14ED  0840               	movf	floorf@u+3,w
  4231     14EE  00B0               	movwf	?_floorf+3
  4232     14EF  083F               	movf	floorf@u+2,w
  4233     14F0  00AF               	movwf	?_floorf+2
  4234     14F1  083E               	movf	floorf@u+1,w
  4235     14F2  00AE               	movwf	?_floorf+1
  4236     14F3  083D               	movf	floorf@u,w
  4237     14F4  00AD               	movwf	?_floorf
  4238     14F5                     i1l841:
  4239     14F5  0008               	return
  4240     14F6                     __end_of_floorf:
  4241                           
  4242                           	psect	text17
  4243     122B                     __ptext17:	
  4244 ;; *************** function ___fpclassifyf *****************
  4245 ;; Defined at:
  4246 ;;		line 4 in file "/opt/microchip/xc8/v2.45/pic/sources/c99/common/__fpclassifyf.c"
  4247 ;; Parameters:    Size  Location     Type
  4248 ;;  x               4    0[COMMON] float 
  4249 ;; Auto vars:     Size  Location     Type
  4250 ;;  u               4    2[BANK0 ] struct .
  4251 ;;  e               2    0[BANK0 ] int 
  4252 ;; Return value:  Size  Location     Type
  4253 ;;                  2    0[COMMON] int 
  4254 ;; Registers used:
  4255 ;;		wreg, status,2, status,0
  4256 ;; Tracked objects:
  4257 ;;		On entry : 0/0
  4258 ;;		On exit  : 0/0
  4259 ;;		Unchanged: 0/0
  4260 ;; Data sizes:     COMMON   BANK0   BANK1   BANK3   BANK2
  4261 ;;      Params:         4       0       0       0       0
  4262 ;;      Locals:         0       6       0       0       0
  4263 ;;      Temps:          6       0       0       0       0
  4264 ;;      Totals:        10       6       0       0       0
  4265 ;;Total ram usage:       16 bytes
  4266 ;; Hardware stack levels used: 1
  4267 ;; This function calls:
  4268 ;;		Nothing
  4269 ;; This function is called by:
  4270 ;;		_efgtoa
  4271 ;; This function uses a non-reentrant model
  4272 ;;
  4273                           
  4274     122B                     ___fpclassifyf:	
  4275                           ;psect for function ___fpclassifyf
  4276                           
  4277     122B                     i1l2981:	
  4278                           ;incstack = 0
  4279                           ; Regs used in ___fpclassifyf: [wreg+status,2+status,0]
  4280                           
  4281     122B  1283               	bcf	3,5	;RP0=0, select bank0
  4282     122C  1303               	bcf	3,6	;RP1=0, select bank0
  4283     122D  0863               	movf	___fpclassifyf@F465+3,w
  4284     122E  00A5               	movwf	___fpclassifyf@u+3
  4285     122F  0862               	movf	___fpclassifyf@F465+2,w
  4286     1230  00A4               	movwf	___fpclassifyf@u+2
  4287     1231  0861               	movf	___fpclassifyf@F465+1,w
  4288     1232  00A3               	movwf	___fpclassifyf@u+1
  4289     1233  0860               	movf	___fpclassifyf@F465,w
  4290     1234  00A2               	movwf	___fpclassifyf@u
  4291     1235  0873               	movf	___fpclassifyf@x+3,w
  4292     1236  00A5               	movwf	___fpclassifyf@u+3
  4293     1237  0872               	movf	___fpclassifyf@x+2,w
  4294     1238  00A4               	movwf	___fpclassifyf@u+2
  4295     1239  0871               	movf	___fpclassifyf@x+1,w
  4296     123A  00A3               	movwf	___fpclassifyf@u+1
  4297     123B  0870               	movf	___fpclassifyf@x,w
  4298     123C  00A2               	movwf	___fpclassifyf@u
  4299     123D                     i1l2983:
  4300     123D  0822               	movf	___fpclassifyf@u,w
  4301     123E  00F4               	movwf	??___fpclassifyf
  4302     123F  0823               	movf	___fpclassifyf@u+1,w
  4303     1240  00F5               	movwf	??___fpclassifyf+1
  4304     1241  0824               	movf	___fpclassifyf@u+2,w
  4305     1242  00F6               	movwf	??___fpclassifyf+2
  4306     1243  0825               	movf	___fpclassifyf@u+3,w
  4307     1244  00F7               	movwf	??___fpclassifyf+3
  4308     1245  3017               	movlw	23
  4309     1246                     u427_25:
  4310     1246  1003               	clrc
  4311     1247  0CF7               	rrf	??___fpclassifyf+3,f
  4312     1248  0CF6               	rrf	??___fpclassifyf+2,f
  4313     1249  0CF5               	rrf	??___fpclassifyf+1,f
  4314     124A  0CF4               	rrf	??___fpclassifyf,f
  4315     124B                     u427_20:
  4316     124B  3EFF               	addlw	-1
  4317     124C  1D03               	skipz
  4318     124D  2A46               	goto	u427_25
  4319     124E  30FF               	movlw	255
  4320     124F  0574               	andwf	??___fpclassifyf,w
  4321     1250  00A0               	movwf	___fpclassifyf@e
  4322     1251  3000               	movlw	0
  4323     1252  0575               	andwf	??___fpclassifyf+1,w
  4324     1253  00A1               	movwf	___fpclassifyf@e+1
  4325     1254                     i1l2985:
  4326     1254  0820               	movf	___fpclassifyf@e,w
  4327     1255  0421               	iorwf	___fpclassifyf@e+1,w
  4328     1256  1D03               	btfss	3,2
  4329     1257  2A59               	goto	u428_21
  4330     1258  2A5A               	goto	u428_20
  4331     1259                     u428_21:
  4332     1259  2A7D               	goto	i1l2995
  4333     125A                     u428_20:
  4334     125A                     i1l2987:
  4335     125A  0822               	movf	___fpclassifyf@u,w
  4336     125B  00F4               	movwf	??___fpclassifyf
  4337     125C  0823               	movf	___fpclassifyf@u+1,w
  4338     125D  00F5               	movwf	??___fpclassifyf+1
  4339     125E  0824               	movf	___fpclassifyf@u+2,w
  4340     125F  00F6               	movwf	??___fpclassifyf+2
  4341     1260  0825               	movf	___fpclassifyf@u+3,w
  4342     1261  00F7               	movwf	??___fpclassifyf+3
  4343     1262  3001               	movlw	1
  4344     1263                     u429_25:
  4345     1263  1003               	clrc
  4346     1264  0DF4               	rlf	??___fpclassifyf,f
  4347     1265  0DF5               	rlf	??___fpclassifyf+1,f
  4348     1266  0DF6               	rlf	??___fpclassifyf+2,f
  4349     1267  0DF7               	rlf	??___fpclassifyf+3,f
  4350     1268                     u429_20:
  4351     1268  3EFF               	addlw	-1
  4352     1269  1D03               	skipz
  4353     126A  2A63               	goto	u429_25
  4354     126B  0877               	movf	??___fpclassifyf+3,w
  4355     126C  0476               	iorwf	??___fpclassifyf+2,w
  4356     126D  0475               	iorwf	??___fpclassifyf+1,w
  4357     126E  0474               	iorwf	??___fpclassifyf,w
  4358     126F  1D03               	skipz
  4359     1270  2A72               	goto	u430_21
  4360     1271  2A73               	goto	u430_20
  4361     1272                     u430_21:
  4362     1272  2A78               	goto	i1l2991
  4363     1273                     u430_20:
  4364     1273                     i1l2989:
  4365     1273  3002               	movlw	2
  4366     1274  00F0               	movwf	?___fpclassifyf
  4367     1275  3000               	movlw	0
  4368     1276  00F1               	movwf	?___fpclassifyf+1
  4369     1277  2AA9               	goto	i1l827
  4370     1278                     i1l2991:
  4371     1278  3003               	movlw	3
  4372     1279  00F0               	movwf	?___fpclassifyf
  4373     127A  3000               	movlw	0
  4374     127B  00F1               	movwf	?___fpclassifyf+1
  4375     127C  2AA9               	goto	i1l827
  4376     127D                     i1l2995:
  4377     127D  0A20               	incf	___fpclassifyf@e,w
  4378     127E  0421               	iorwf	___fpclassifyf@e+1,w
  4379     127F  1D03               	btfss	3,2
  4380     1280  2A82               	goto	u431_21
  4381     1281  2A83               	goto	u431_20
  4382     1282                     u431_21:
  4383     1282  2AA5               	goto	i1l3001
  4384     1283                     u431_20:
  4385     1283                     i1l2997:
  4386     1283  0822               	movf	___fpclassifyf@u,w
  4387     1284  00F4               	movwf	??___fpclassifyf
  4388     1285  0823               	movf	___fpclassifyf@u+1,w
  4389     1286  00F5               	movwf	??___fpclassifyf+1
  4390     1287  0824               	movf	___fpclassifyf@u+2,w
  4391     1288  00F6               	movwf	??___fpclassifyf+2
  4392     1289  0825               	movf	___fpclassifyf@u+3,w
  4393     128A  00F7               	movwf	??___fpclassifyf+3
  4394     128B  3009               	movlw	9
  4395     128C                     u432_25:
  4396     128C  1003               	clrc
  4397     128D  0DF4               	rlf	??___fpclassifyf,f
  4398     128E  0DF5               	rlf	??___fpclassifyf+1,f
  4399     128F  0DF6               	rlf	??___fpclassifyf+2,f
  4400     1290  0DF7               	rlf	??___fpclassifyf+3,f
  4401     1291                     u432_20:
  4402     1291  3EFF               	addlw	-1
  4403     1292  1D03               	skipz
  4404     1293  2A8C               	goto	u432_25
  4405     1294  0877               	movf	??___fpclassifyf+3,w
  4406     1295  0476               	iorwf	??___fpclassifyf+2,w
  4407     1296  0475               	iorwf	??___fpclassifyf+1,w
  4408     1297  0474               	iorwf	??___fpclassifyf,w
  4409     1298  1903               	skipnz
  4410     1299  2A9B               	goto	u433_21
  4411     129A  2A9D               	goto	u433_20
  4412     129B                     u433_21:
  4413     129B  3001               	movlw	1
  4414     129C  2A9E               	goto	u434_20
  4415     129D                     u433_20:
  4416     129D  3000               	movlw	0
  4417     129E                     u434_20:
  4418     129E  00F8               	movwf	??___fpclassifyf+4
  4419     129F  01F9               	clrf	??___fpclassifyf+5
  4420     12A0  0878               	movf	??___fpclassifyf+4,w
  4421     12A1  00F0               	movwf	?___fpclassifyf
  4422     12A2  0879               	movf	??___fpclassifyf+5,w
  4423     12A3  00F1               	movwf	?___fpclassifyf+1
  4424     12A4  2AA9               	goto	i1l827
  4425     12A5                     i1l3001:
  4426     12A5  3004               	movlw	4
  4427     12A6  00F0               	movwf	?___fpclassifyf
  4428     12A7  3000               	movlw	0
  4429     12A8  00F1               	movwf	?___fpclassifyf+1
  4430     12A9                     i1l827:
  4431     12A9  0008               	return
  4432     12AA                     __end_of___fpclassifyf:
  4433                           
  4434                           	psect	text18
  4435     11B5                     __ptext18:	
  4436 ;; *************** function ___fltol *****************
  4437 ;; Defined at:
  4438 ;;		line 43 in file "/opt/microchip/xc8/v2.45/pic/sources/c99/common/fltol.c"
  4439 ;; Parameters:    Size  Location     Type
  4440 ;;  f1              4    0[COMMON] int 
  4441 ;; Auto vars:     Size  Location     Type
  4442 ;;  exp1            1    9[COMMON] unsigned char 
  4443 ;;  sign1           1    8[COMMON] unsigned char 
  4444 ;; Return value:  Size  Location     Type
  4445 ;;                  4    0[COMMON] long 
  4446 ;; Registers used:
  4447 ;;		wreg, status,2, status,0
  4448 ;; Tracked objects:
  4449 ;;		On entry : 0/0
  4450 ;;		On exit  : 0/0
  4451 ;;		Unchanged: 0/0
  4452 ;; Data sizes:     COMMON   BANK0   BANK1   BANK3   BANK2
  4453 ;;      Params:         4       0       0       0       0
  4454 ;;      Locals:         2       0       0       0       0
  4455 ;;      Temps:          4       0       0       0       0
  4456 ;;      Totals:        10       0       0       0       0
  4457 ;;Total ram usage:       10 bytes
  4458 ;; Hardware stack levels used: 1
  4459 ;; This function calls:
  4460 ;;		Nothing
  4461 ;; This function is called by:
  4462 ;;		_efgtoa
  4463 ;; This function uses a non-reentrant model
  4464 ;;
  4465                           
  4466     11B5                     ___fltol:	
  4467                           ;psect for function ___fltol
  4468                           
  4469     11B5                     i1l2637:	
  4470                           ;incstack = 0
  4471                           ; Regs used in ___fltol: [wreg+status,2+status,0]
  4472                           
  4473     11B5  1003               	clrc
  4474     11B6  0D72               	rlf	___fltol@f1+2,w
  4475     11B7  0D73               	rlf	___fltol@f1+3,w
  4476     11B8  00F9               	movwf	___fltol@exp1
  4477     11B9  0879               	movf	___fltol@exp1,w
  4478     11BA  1D03               	btfss	3,2
  4479     11BB  29BD               	goto	u347_21
  4480     11BC  29BE               	goto	u347_20
  4481     11BD                     u347_21:
  4482     11BD  29C7               	goto	i1l2643
  4483     11BE                     u347_20:
  4484     11BE                     i1l2639:
  4485     11BE  3000               	movlw	0
  4486     11BF  00F3               	movwf	?___fltol+3
  4487     11C0  3000               	movlw	0
  4488     11C1  00F2               	movwf	?___fltol+2
  4489     11C2  3000               	movlw	0
  4490     11C3  00F1               	movwf	?___fltol+1
  4491     11C4  3000               	movlw	0
  4492     11C5  00F0               	movwf	?___fltol
  4493     11C6  2A2A               	goto	i1l391
  4494     11C7                     i1l2643:
  4495     11C7  0870               	movf	___fltol@f1,w
  4496     11C8  00F4               	movwf	??___fltol
  4497     11C9  0871               	movf	___fltol@f1+1,w
  4498     11CA  00F5               	movwf	??___fltol+1
  4499     11CB  0872               	movf	___fltol@f1+2,w
  4500     11CC  00F6               	movwf	??___fltol+2
  4501     11CD  0873               	movf	___fltol@f1+3,w
  4502     11CE  00F7               	movwf	??___fltol+3
  4503     11CF  301F               	movlw	31
  4504     11D0                     u348_25:
  4505     11D0  1003               	clrc
  4506     11D1  0CF7               	rrf	??___fltol+3,f
  4507     11D2  0CF6               	rrf	??___fltol+2,f
  4508     11D3  0CF5               	rrf	??___fltol+1,f
  4509     11D4  0CF4               	rrf	??___fltol,f
  4510     11D5                     u348_20:
  4511     11D5  3EFF               	addlw	-1
  4512     11D6  1D03               	skipz
  4513     11D7  29D0               	goto	u348_25
  4514     11D8  0874               	movf	??___fltol,w
  4515     11D9  00F8               	movwf	___fltol@sign1
  4516     11DA                     i1l2645:
  4517     11DA  17F2               	bsf	___fltol@f1+2,7
  4518     11DB                     i1l2647:
  4519     11DB  30FF               	movlw	255
  4520     11DC  05F0               	andwf	___fltol@f1,f
  4521     11DD  30FF               	movlw	255
  4522     11DE  05F1               	andwf	___fltol@f1+1,f
  4523     11DF  30FF               	movlw	255
  4524     11E0  05F2               	andwf	___fltol@f1+2,f
  4525     11E1  3000               	movlw	0
  4526     11E2  05F3               	andwf	___fltol@f1+3,f
  4527     11E3                     i1l2649:
  4528     11E3  3096               	movlw	150
  4529     11E4  02F9               	subwf	___fltol@exp1,f
  4530     11E5                     i1l2651:
  4531     11E5  1FF9               	btfss	___fltol@exp1,7
  4532     11E6  29E8               	goto	u349_21
  4533     11E7  29E9               	goto	u349_20
  4534     11E8                     u349_21:
  4535     11E8  2A03               	goto	i1l2661
  4536     11E9                     u349_20:
  4537     11E9                     i1l2653:
  4538     11E9  0879               	movf	___fltol@exp1,w
  4539     11EA  3A80               	xorlw	128
  4540     11EB  3E97               	addlw	151
  4541     11EC  1803               	skipnc
  4542     11ED  29EF               	goto	u350_21
  4543     11EE  29F0               	goto	u350_20
  4544     11EF                     u350_21:
  4545     11EF  29F1               	goto	i1l2659
  4546     11F0                     u350_20:
  4547     11F0  29BE               	goto	i1l2639
  4548     11F1                     i1l2659:
  4549     11F1  3001               	movlw	1
  4550     11F2                     u351_25:
  4551     11F2  1003               	clrc
  4552     11F3  0CF3               	rrf	___fltol@f1+3,f
  4553     11F4  0CF2               	rrf	___fltol@f1+2,f
  4554     11F5  0CF1               	rrf	___fltol@f1+1,f
  4555     11F6  0CF0               	rrf	___fltol@f1,f
  4556     11F7  3EFF               	addlw	-1
  4557     11F8  1D03               	skipz
  4558     11F9  29F2               	goto	u351_25
  4559     11FA  3001               	movlw	1
  4560     11FB  00F4               	movwf	??___fltol
  4561     11FC  0874               	movf	??___fltol,w
  4562     11FD  07F9               	addwf	___fltol@exp1,f
  4563     11FE  1D03               	btfss	3,2
  4564     11FF  2A01               	goto	u352_21
  4565     1200  2A02               	goto	u352_20
  4566     1201                     u352_21:
  4567     1201  29F1               	goto	i1l2659
  4568     1202                     u352_20:
  4569     1202  2A1A               	goto	i1l2669
  4570     1203                     i1l2661:
  4571     1203  3020               	movlw	32
  4572     1204  0279               	subwf	___fltol@exp1,w
  4573     1205  1C03               	skipc
  4574     1206  2A08               	goto	u353_21
  4575     1207  2A09               	goto	u353_20
  4576     1208                     u353_21:
  4577     1208  2A15               	goto	i1l398
  4578     1209                     u353_20:
  4579     1209  29BE               	goto	i1l2639
  4580     120A                     i1l2667:
  4581     120A  3001               	movlw	1
  4582     120B  00F4               	movwf	??___fltol
  4583     120C                     u354_25:
  4584     120C  1003               	clrc
  4585     120D  0DF0               	rlf	___fltol@f1,f
  4586     120E  0DF1               	rlf	___fltol@f1+1,f
  4587     120F  0DF2               	rlf	___fltol@f1+2,f
  4588     1210  0DF3               	rlf	___fltol@f1+3,f
  4589     1211  0BF4               	decfsz	??___fltol,f
  4590     1212  2A0C               	goto	u354_25
  4591     1213  3001               	movlw	1
  4592     1214  02F9               	subwf	___fltol@exp1,f
  4593     1215                     i1l398:
  4594     1215  0879               	movf	___fltol@exp1,w
  4595     1216  1D03               	btfss	3,2
  4596     1217  2A19               	goto	u355_21
  4597     1218  2A1A               	goto	u355_20
  4598     1219                     u355_21:
  4599     1219  2A0A               	goto	i1l2667
  4600     121A                     u355_20:
  4601     121A                     i1l2669:
  4602     121A  0878               	movf	___fltol@sign1,w
  4603     121B  1903               	btfsc	3,2
  4604     121C  2A1E               	goto	u356_21
  4605     121D  2A1F               	goto	u356_20
  4606     121E                     u356_21:
  4607     121E  2A2A               	goto	i1l401
  4608     121F                     u356_20:
  4609     121F                     i1l2671:
  4610     121F  09F0               	comf	___fltol@f1,f
  4611     1220  09F1               	comf	___fltol@f1+1,f
  4612     1221  09F2               	comf	___fltol@f1+2,f
  4613     1222  09F3               	comf	___fltol@f1+3,f
  4614     1223  0AF0               	incf	___fltol@f1,f
  4615     1224  1903               	skipnz
  4616     1225  0AF1               	incf	___fltol@f1+1,f
  4617     1226  1903               	skipnz
  4618     1227  0AF2               	incf	___fltol@f1+2,f
  4619     1228  1903               	skipnz
  4620     1229  0AF3               	incf	___fltol@f1+3,f
  4621     122A                     i1l401:
  4622     122A                     i1l391:
  4623     122A  0008               	return
  4624     122B                     __end_of___fltol:
  4625                           
  4626                           	psect	text19
  4627     1EA6                     __ptext19:	
  4628 ;; *************** function ___flsub *****************
  4629 ;; Defined at:
  4630 ;;		line 242 in file "/opt/microchip/xc8/v2.45/pic/sources/c99/common/sprcadd.c"
  4631 ;; Parameters:    Size  Location     Type
  4632 ;;  a               4   21[BANK0 ] long 
  4633 ;;  b               4   25[BANK0 ] long 
  4634 ;; Auto vars:     Size  Location     Type
  4635 ;;		None
  4636 ;; Return value:  Size  Location     Type
  4637 ;;                  4   21[BANK0 ] long 
  4638 ;; Registers used:
  4639 ;;		wreg, status,2, status,0, btemp+1, pclath, cstack
  4640 ;; Tracked objects:
  4641 ;;		On entry : 0/0
  4642 ;;		On exit  : 0/0
  4643 ;;		Unchanged: 0/0
  4644 ;; Data sizes:     COMMON   BANK0   BANK1   BANK3   BANK2
  4645 ;;      Params:         0       8       0       0       0
  4646 ;;      Locals:         0       0       0       0       0
  4647 ;;      Temps:          0       0       0       0       0
  4648 ;;      Totals:         0       8       0       0       0
  4649 ;;Total ram usage:        8 bytes
  4650 ;; Hardware stack levels used: 1
  4651 ;; Hardware stack levels required when called: 1
  4652 ;; This function calls:
  4653 ;;		___fladd
  4654 ;; This function is called by:
  4655 ;;		_efgtoa
  4656 ;; This function uses a non-reentrant model
  4657 ;;
  4658                           
  4659     1EA6                     ___flsub:	
  4660                           ;psect for function ___flsub
  4661                           
  4662     1EA6                     i1l2673:	
  4663                           ;incstack = 0
  4664 ;; hardware stack exceeded
  4665                           ; Regs used in ___flsub: [wreg+status,2+status,0+btemp+1+pclath+cstack]
  4666                           
  4667     1EA6  3080               	movlw	128
  4668     1EA7  1283               	bcf	3,5	;RP0=0, select bank0
  4669     1EA8  1303               	bcf	3,6	;RP1=0, select bank0
  4670     1EA9  06B8               	xorwf	___flsub@a+3,f
  4671     1EAA                     i1l2675:
  4672     1EAA  083C               	movf	___flsub@b+3,w
  4673     1EAB  00F3               	movwf	___fladd@b+3
  4674     1EAC  083B               	movf	___flsub@b+2,w
  4675     1EAD  00F2               	movwf	___fladd@b+2
  4676     1EAE  083A               	movf	___flsub@b+1,w
  4677     1EAF  00F1               	movwf	___fladd@b+1
  4678     1EB0  0839               	movf	___flsub@b,w
  4679     1EB1  00F0               	movwf	___fladd@b
  4680     1EB2  0838               	movf	___flsub@a+3,w
  4681     1EB3  00F7               	movwf	___fladd@a+3
  4682     1EB4  0837               	movf	___flsub@a+2,w
  4683     1EB5  00F6               	movwf	___fladd@a+2
  4684     1EB6  0836               	movf	___flsub@a+1,w
  4685     1EB7  00F5               	movwf	___fladd@a+1
  4686     1EB8  0835               	movf	___flsub@a,w
  4687     1EB9  00F4               	movwf	___fladd@a
  4688     1EBA  120A  158A  2255  160A  158A  	fcall	___fladd
  4689     1EBF  0873               	movf	?___fladd+3,w
  4690     1EC0  1283               	bcf	3,5	;RP0=0, select bank0
  4691     1EC1  1303               	bcf	3,6	;RP1=0, select bank0
  4692     1EC2  00B8               	movwf	?___flsub+3
  4693     1EC3  0872               	movf	?___fladd+2,w
  4694     1EC4  00B7               	movwf	?___flsub+2
  4695     1EC5  0871               	movf	?___fladd+1,w
  4696     1EC6  00B6               	movwf	?___flsub+1
  4697     1EC7  0870               	movf	?___fladd,w
  4698     1EC8  00B5               	movwf	?___flsub
  4699     1EC9                     i1l544:
  4700     1EC9  0008               	return
  4701     1ECA                     __end_of___flsub:
  4702                           
  4703                           	psect	text20
  4704     0A55                     __ptext20:	
  4705 ;; *************** function ___fladd *****************
  4706 ;; Defined at:
  4707 ;;		line 10 in file "/opt/microchip/xc8/v2.45/pic/sources/c99/common/sprcadd.c"
  4708 ;; Parameters:    Size  Location     Type
  4709 ;;  b               4    0[COMMON] long 
  4710 ;;  a               4    4[COMMON] long 
  4711 ;; Auto vars:     Size  Location     Type
  4712 ;;  grs             1   11[COMMON] unsigned char 
  4713 ;;  bexp            1   10[COMMON] unsigned char 
  4714 ;;  aexp            1    9[COMMON] unsigned char 
  4715 ;;  signs           1    8[COMMON] unsigned char 
  4716 ;; Return value:  Size  Location     Type
  4717 ;;                  4    0[COMMON] unsigned char 
  4718 ;; Registers used:
  4719 ;;		wreg, status,2, status,0, btemp+1
  4720 ;; Tracked objects:
  4721 ;;		On entry : 0/0
  4722 ;;		On exit  : 0/0
  4723 ;;		Unchanged: 0/0
  4724 ;; Data sizes:     COMMON   BANK0   BANK1   BANK3   BANK2
  4725 ;;      Params:         8       0       0       0       0
  4726 ;;      Locals:         4       0       0       0       0
  4727 ;;      Temps:          0       8       0       0       0
  4728 ;;      Totals:        12       8       0       0       0
  4729 ;;Total ram usage:       20 bytes
  4730 ;; Hardware stack levels used: 1
  4731 ;; This function calls:
  4732 ;;		Nothing
  4733 ;; This function is called by:
  4734 ;;		___flsub
  4735 ;;		_efgtoa
  4736 ;; This function uses a non-reentrant model
  4737 ;;
  4738                           
  4739     0A55                     ___fladd:	
  4740                           ;psect for function ___fladd
  4741                           
  4742     0A55                     i1l2285:	
  4743                           ;incstack = 0
  4744 ;; hardware stack exceeded
  4745                           ; Regs used in ___fladd: [wreg+status,2+status,0+btemp+1]
  4746                           
  4747     0A55  0873               	movf	___fladd@b+3,w
  4748     0A56  3980               	andlw	128
  4749     0A57  00F8               	movwf	___fladd@signs
  4750     0A58                     i1l2287:
  4751     0A58  0873               	movf	___fladd@b+3,w
  4752     0A59  1283               	bcf	3,5	;RP0=0, select bank0
  4753     0A5A  1303               	bcf	3,6	;RP1=0, select bank0
  4754     0A5B  00A0               	movwf	??___fladd
  4755     0A5C  0720               	addwf	??___fladd,w
  4756     0A5D  00FA               	movwf	___fladd@bexp
  4757     0A5E                     i1l2289:
  4758     0A5E  1FF2               	btfss	___fladd@b+2,7
  4759     0A5F  2A61               	goto	u263_21
  4760     0A60  2A62               	goto	u263_20
  4761     0A61                     u263_21:
  4762     0A61  2A63               	goto	i1l2293
  4763     0A62                     u263_20:
  4764     0A62                     i1l2291:
  4765     0A62  147A               	bsf	___fladd@bexp,0
  4766     0A63                     i1l2293:
  4767     0A63  087A               	movf	___fladd@bexp,w
  4768     0A64  1903               	btfsc	3,2
  4769     0A65  2A67               	goto	u264_21
  4770     0A66  2A68               	goto	u264_20
  4771     0A67                     u264_21:
  4772     0A67  2A78               	goto	i1l2303
  4773     0A68                     u264_20:
  4774     0A68                     i1l2295:
  4775     0A68  0A7A               	incf	___fladd@bexp,w
  4776     0A69  1D03               	btfss	3,2
  4777     0A6A  2A6C               	goto	u265_21
  4778     0A6B  2A6D               	goto	u265_20
  4779     0A6C                     u265_21:
  4780     0A6C  2A75               	goto	i1l2299
  4781     0A6D                     u265_20:
  4782     0A6D                     i1l2297:
  4783     0A6D  3000               	movlw	0
  4784     0A6E  00F3               	movwf	___fladd@b+3
  4785     0A6F  3000               	movlw	0
  4786     0A70  00F2               	movwf	___fladd@b+2
  4787     0A71  3000               	movlw	0
  4788     0A72  00F1               	movwf	___fladd@b+1
  4789     0A73  3000               	movlw	0
  4790     0A74  00F0               	movwf	___fladd@b
  4791     0A75                     i1l2299:
  4792     0A75  17F2               	bsf	___fladd@b+2,7
  4793     0A76                     i1l2301:
  4794     0A76  01F3               	clrf	___fladd@b+3
  4795     0A77  2A80               	goto	i1l2305
  4796     0A78                     i1l2303:
  4797     0A78  3000               	movlw	0
  4798     0A79  00F3               	movwf	___fladd@b+3
  4799     0A7A  3000               	movlw	0
  4800     0A7B  00F2               	movwf	___fladd@b+2
  4801     0A7C  3000               	movlw	0
  4802     0A7D  00F1               	movwf	___fladd@b+1
  4803     0A7E  3000               	movlw	0
  4804     0A7F  00F0               	movwf	___fladd@b
  4805     0A80                     i1l2305:
  4806     0A80  0877               	movf	___fladd@a+3,w
  4807     0A81  3980               	andlw	128
  4808     0A82  00F9               	movwf	___fladd@aexp
  4809     0A83                     i1l2307:
  4810     0A83  0879               	movf	___fladd@aexp,w
  4811     0A84  0678               	xorwf	___fladd@signs,w
  4812     0A85  1903               	skipnz
  4813     0A86  2A88               	goto	u266_21
  4814     0A87  2A89               	goto	u266_20
  4815     0A88                     u266_21:
  4816     0A88  2A8A               	goto	i1l2311
  4817     0A89                     u266_20:
  4818     0A89                     i1l2309:
  4819     0A89  1778               	bsf	___fladd@signs,6
  4820     0A8A                     i1l2311:
  4821     0A8A  0877               	movf	___fladd@a+3,w
  4822     0A8B  00A0               	movwf	??___fladd
  4823     0A8C  0720               	addwf	??___fladd,w
  4824     0A8D  00F9               	movwf	___fladd@aexp
  4825     0A8E                     i1l2313:
  4826     0A8E  1FF6               	btfss	___fladd@a+2,7
  4827     0A8F  2A91               	goto	u267_21
  4828     0A90  2A92               	goto	u267_20
  4829     0A91                     u267_21:
  4830     0A91  2A93               	goto	i1l2317
  4831     0A92                     u267_20:
  4832     0A92                     i1l2315:
  4833     0A92  1479               	bsf	___fladd@aexp,0
  4834     0A93                     i1l2317:
  4835     0A93  0879               	movf	___fladd@aexp,w
  4836     0A94  1903               	btfsc	3,2
  4837     0A95  2A97               	goto	u268_21
  4838     0A96  2A98               	goto	u268_20
  4839     0A97                     u268_21:
  4840     0A97  2AA8               	goto	i1l2327
  4841     0A98                     u268_20:
  4842     0A98                     i1l2319:
  4843     0A98  0A79               	incf	___fladd@aexp,w
  4844     0A99  1D03               	btfss	3,2
  4845     0A9A  2A9C               	goto	u269_21
  4846     0A9B  2A9D               	goto	u269_20
  4847     0A9C                     u269_21:
  4848     0A9C  2AA5               	goto	i1l2323
  4849     0A9D                     u269_20:
  4850     0A9D                     i1l2321:
  4851     0A9D  3000               	movlw	0
  4852     0A9E  00F7               	movwf	___fladd@a+3
  4853     0A9F  3000               	movlw	0
  4854     0AA0  00F6               	movwf	___fladd@a+2
  4855     0AA1  3000               	movlw	0
  4856     0AA2  00F5               	movwf	___fladd@a+1
  4857     0AA3  3000               	movlw	0
  4858     0AA4  00F4               	movwf	___fladd@a
  4859     0AA5                     i1l2323:
  4860     0AA5  17F6               	bsf	___fladd@a+2,7
  4861     0AA6                     i1l2325:
  4862     0AA6  01F7               	clrf	___fladd@a+3
  4863     0AA7  2AB0               	goto	i1l498
  4864     0AA8                     i1l2327:
  4865     0AA8  3000               	movlw	0
  4866     0AA9  00F7               	movwf	___fladd@a+3
  4867     0AAA  3000               	movlw	0
  4868     0AAB  00F6               	movwf	___fladd@a+2
  4869     0AAC  3000               	movlw	0
  4870     0AAD  00F5               	movwf	___fladd@a+1
  4871     0AAE  3000               	movlw	0
  4872     0AAF  00F4               	movwf	___fladd@a
  4873     0AB0                     i1l498:
  4874     0AB0  087A               	movf	___fladd@bexp,w
  4875     0AB1  0279               	subwf	___fladd@aexp,w
  4876     0AB2  1803               	skipnc
  4877     0AB3  2AB5               	goto	u270_21
  4878     0AB4  2AB6               	goto	u270_20
  4879     0AB5                     u270_21:
  4880     0AB5  2ADC               	goto	i1l2363
  4881     0AB6                     u270_20:
  4882     0AB6                     i1l2329:
  4883     0AB6  1F78               	btfss	___fladd@signs,6
  4884     0AB7  2AB9               	goto	u271_21
  4885     0AB8  2ABA               	goto	u271_20
  4886     0AB9                     u271_21:
  4887     0AB9  2ABE               	goto	i1l2333
  4888     0ABA                     u271_20:
  4889     0ABA                     i1l2331:
  4890     0ABA  3080               	movlw	128
  4891     0ABB  00A0               	movwf	??___fladd
  4892     0ABC  0820               	movf	??___fladd,w
  4893     0ABD  06F8               	xorwf	___fladd@signs,f
  4894     0ABE                     i1l2333:
  4895     0ABE  087A               	movf	___fladd@bexp,w
  4896     0ABF  00FB               	movwf	___fladd@grs
  4897     0AC0                     i1l2335:
  4898     0AC0  0879               	movf	___fladd@aexp,w
  4899     0AC1  00FA               	movwf	___fladd@bexp
  4900     0AC2                     i1l2337:
  4901     0AC2  087B               	movf	___fladd@grs,w
  4902     0AC3  00F9               	movwf	___fladd@aexp
  4903     0AC4                     i1l2339:
  4904     0AC4  0870               	movf	___fladd@b,w
  4905     0AC5  00FB               	movwf	___fladd@grs
  4906     0AC6                     i1l2341:
  4907     0AC6  0874               	movf	___fladd@a,w
  4908     0AC7  00F0               	movwf	___fladd@b
  4909     0AC8                     i1l2343:
  4910     0AC8  087B               	movf	___fladd@grs,w
  4911     0AC9  00F4               	movwf	___fladd@a
  4912     0ACA                     i1l2345:
  4913     0ACA  0871               	movf	___fladd@b+1,w
  4914     0ACB  00FB               	movwf	___fladd@grs
  4915     0ACC                     i1l2347:
  4916     0ACC  0875               	movf	___fladd@a+1,w
  4917     0ACD  00F1               	movwf	___fladd@b+1
  4918     0ACE                     i1l2349:
  4919     0ACE  087B               	movf	___fladd@grs,w
  4920     0ACF  00F5               	movwf	___fladd@a+1
  4921     0AD0                     i1l2351:
  4922     0AD0  0872               	movf	___fladd@b+2,w
  4923     0AD1  00FB               	movwf	___fladd@grs
  4924     0AD2                     i1l2353:
  4925     0AD2  0876               	movf	___fladd@a+2,w
  4926     0AD3  00F2               	movwf	___fladd@b+2
  4927     0AD4                     i1l2355:
  4928     0AD4  087B               	movf	___fladd@grs,w
  4929     0AD5  00F6               	movwf	___fladd@a+2
  4930     0AD6                     i1l2357:
  4931     0AD6  0873               	movf	___fladd@b+3,w
  4932     0AD7  00FB               	movwf	___fladd@grs
  4933     0AD8                     i1l2359:
  4934     0AD8  0877               	movf	___fladd@a+3,w
  4935     0AD9  00F3               	movwf	___fladd@b+3
  4936     0ADA                     i1l2361:
  4937     0ADA  087B               	movf	___fladd@grs,w
  4938     0ADB  00F7               	movwf	___fladd@a+3
  4939     0ADC                     i1l2363:
  4940     0ADC  01FB               	clrf	___fladd@grs
  4941     0ADD                     i1l2365:
  4942     0ADD  0879               	movf	___fladd@aexp,w
  4943     0ADE  00A0               	movwf	??___fladd
  4944     0ADF  01A1               	clrf	??___fladd+1
  4945     0AE0  0821               	movf	??___fladd+1,w
  4946     0AE1  00A3               	movwf	??___fladd+3
  4947     0AE2  087A               	movf	___fladd@bexp,w
  4948     0AE3  0220               	subwf	??___fladd,w
  4949     0AE4  00A2               	movwf	??___fladd+2
  4950     0AE5  1C03               	skipc
  4951     0AE6  03A3               	decf	??___fladd+3,f
  4952     0AE7  0823               	movf	??___fladd+3,w
  4953     0AE8  3A80               	xorlw	128
  4954     0AE9  00FF               	movwf	btemp+1
  4955     0AEA  3080               	movlw	128
  4956     0AEB  027F               	subwf	btemp+1,w
  4957     0AEC  1D03               	skipz
  4958     0AED  2AF0               	goto	u272_25
  4959     0AEE  301A               	movlw	26
  4960     0AEF  0222               	subwf	??___fladd+2,w
  4961     0AF0                     u272_25:
  4962     0AF0  1C03               	skipc
  4963     0AF1  2AF3               	goto	u272_21
  4964     0AF2  2AF4               	goto	u272_20
  4965     0AF3                     u272_21:
  4966     0AF3  2B2D               	goto	i1l2381
  4967     0AF4                     u272_20:
  4968     0AF4                     i1l2367:
  4969     0AF4  0873               	movf	___fladd@b+3,w
  4970     0AF5  0472               	iorwf	___fladd@b+2,w
  4971     0AF6  0471               	iorwf	___fladd@b+1,w
  4972     0AF7  0470               	iorwf	___fladd@b,w
  4973     0AF8  1D03               	skipz
  4974     0AF9  2AFB               	goto	u273_21
  4975     0AFA  2AFD               	goto	u273_20
  4976     0AFB                     u273_21:
  4977     0AFB  3001               	movlw	1
  4978     0AFC  2AFE               	goto	u274_20
  4979     0AFD                     u273_20:
  4980     0AFD  3000               	movlw	0
  4981     0AFE                     u274_20:
  4982     0AFE  00FB               	movwf	___fladd@grs
  4983     0AFF  3000               	movlw	0
  4984     0B00  00F3               	movwf	___fladd@b+3
  4985     0B01  3000               	movlw	0
  4986     0B02  00F2               	movwf	___fladd@b+2
  4987     0B03  3000               	movlw	0
  4988     0B04  00F1               	movwf	___fladd@b+1
  4989     0B05  3000               	movlw	0
  4990     0B06  00F0               	movwf	___fladd@b
  4991     0B07  0879               	movf	___fladd@aexp,w
  4992     0B08  00FA               	movwf	___fladd@bexp
  4993     0B09  2B33               	goto	i1l502
  4994     0B0A                     i1l504:
  4995     0B0A  1C7B               	btfss	___fladd@grs,0
  4996     0B0B  2B0D               	goto	u275_21
  4997     0B0C  2B0E               	goto	u275_20
  4998     0B0D                     u275_21:
  4999     0B0D  2B17               	goto	i1l2371
  5000     0B0E                     u275_20:
  5001     0B0E                     i1l2369:
  5002     0B0E  087B               	movf	___fladd@grs,w
  5003     0B0F  1283               	bcf	3,5	;RP0=0, select bank0
  5004     0B10  1303               	bcf	3,6	;RP1=0, select bank0
  5005     0B11  00A0               	movwf	??___fladd
  5006     0B12  1003               	clrc
  5007     0B13  0C20               	rrf	??___fladd,w
  5008     0B14  3801               	iorlw	1
  5009     0B15  00FB               	movwf	___fladd@grs
  5010     0B16  2B19               	goto	i1l2373
  5011     0B17                     i1l2371:
  5012     0B17  1003               	clrc
  5013     0B18  0CFB               	rrf	___fladd@grs,f
  5014     0B19                     i1l2373:
  5015     0B19  1C70               	btfss	___fladd@b,0
  5016     0B1A  2B1C               	goto	u276_21
  5017     0B1B  2B1D               	goto	u276_20
  5018     0B1C                     u276_21:
  5019     0B1C  2B1E               	goto	i1l2377
  5020     0B1D                     u276_20:
  5021     0B1D                     i1l2375:
  5022     0B1D  17FB               	bsf	___fladd@grs,7
  5023     0B1E                     i1l2377:
  5024     0B1E  3001               	movlw	1
  5025     0B1F  1283               	bcf	3,5	;RP0=0, select bank0
  5026     0B20  1303               	bcf	3,6	;RP1=0, select bank0
  5027     0B21  00A0               	movwf	??___fladd
  5028     0B22                     u277_25:
  5029     0B22  0D73               	rlf	___fladd@b+3,w
  5030     0B23  0CF3               	rrf	___fladd@b+3,f
  5031     0B24  0CF2               	rrf	___fladd@b+2,f
  5032     0B25  0CF1               	rrf	___fladd@b+1,f
  5033     0B26  0CF0               	rrf	___fladd@b,f
  5034     0B27  0BA0               	decfsz	??___fladd& (0+127),f
  5035     0B28  2B22               	goto	u277_25
  5036     0B29                     i1l2379:
  5037     0B29  3001               	movlw	1
  5038     0B2A  00A0               	movwf	??___fladd
  5039     0B2B  0820               	movf	??___fladd,w
  5040     0B2C  07FA               	addwf	___fladd@bexp,f
  5041     0B2D                     i1l2381:
  5042     0B2D  0879               	movf	___fladd@aexp,w
  5043     0B2E  027A               	subwf	___fladd@bexp,w
  5044     0B2F  1C03               	skipc
  5045     0B30  2B32               	goto	u278_21
  5046     0B31  2B33               	goto	u278_20
  5047     0B32                     u278_21:
  5048     0B32  2B0A               	goto	i1l504
  5049     0B33                     u278_20:
  5050     0B33                     i1l502:
  5051     0B33  1B78               	btfsc	___fladd@signs,6
  5052     0B34  2B36               	goto	u279_21
  5053     0B35  2B37               	goto	u279_20
  5054     0B36                     u279_21:
  5055     0B36  2B84               	goto	i1l2407
  5056     0B37                     u279_20:
  5057     0B37                     i1l2383:
  5058     0B37  087A               	movf	___fladd@bexp,w
  5059     0B38  1D03               	btfss	3,2
  5060     0B39  2B3B               	goto	u280_21
  5061     0B3A  2B3C               	goto	u280_20
  5062     0B3B                     u280_21:
  5063     0B3B  2B45               	goto	i1l2389
  5064     0B3C                     u280_20:
  5065     0B3C                     i1l2385:
  5066     0B3C  3000               	movlw	0
  5067     0B3D  00F3               	movwf	?___fladd+3
  5068     0B3E  3000               	movlw	0
  5069     0B3F  00F2               	movwf	?___fladd+2
  5070     0B40  3000               	movlw	0
  5071     0B41  00F1               	movwf	?___fladd+1
  5072     0B42  3000               	movlw	0
  5073     0B43  00F0               	movwf	?___fladd
  5074     0B44  2CBA               	goto	i1l511
  5075     0B45                     i1l2389:
  5076     0B45  0874               	movf	___fladd@a,w
  5077     0B46  07F0               	addwf	___fladd@b,f
  5078     0B47  0875               	movf	___fladd@a+1,w
  5079     0B48  1103               	clrz
  5080     0B49  1803               	skipnc
  5081     0B4A  3E01               	addlw	1
  5082     0B4B  1903               	skipnz
  5083     0B4C  2B4E               	goto	u281_21
  5084     0B4D  07F1               	addwf	___fladd@b+1,f
  5085     0B4E                     u281_21:
  5086     0B4E  0876               	movf	___fladd@a+2,w
  5087     0B4F  1103               	clrz
  5088     0B50  1803               	skipnc
  5089     0B51  3E01               	addlw	1
  5090     0B52  1903               	skipnz
  5091     0B53  2B55               	goto	u281_22
  5092     0B54  07F2               	addwf	___fladd@b+2,f
  5093     0B55                     u281_22:
  5094     0B55  0877               	movf	___fladd@a+3,w
  5095     0B56  1103               	clrz
  5096     0B57  1803               	skipnc
  5097     0B58  3E01               	addlw	1
  5098     0B59  1903               	skipnz
  5099     0B5A  2B5C               	goto	u281_23
  5100     0B5B  07F3               	addwf	___fladd@b+3,f
  5101     0B5C                     u281_23:
  5102     0B5C                     i1l2391:
  5103     0B5C  1C73               	btfss	___fladd@b+3,0
  5104     0B5D  2B5F               	goto	u282_21
  5105     0B5E  2B60               	goto	u282_20
  5106     0B5F                     u282_21:
  5107     0B5F  2C3C               	goto	i1l2441
  5108     0B60                     u282_20:
  5109     0B60                     i1l2393:
  5110     0B60  1C7B               	btfss	___fladd@grs,0
  5111     0B61  2B63               	goto	u283_21
  5112     0B62  2B64               	goto	u283_20
  5113     0B63                     u283_21:
  5114     0B63  2B6D               	goto	i1l2397
  5115     0B64                     u283_20:
  5116     0B64                     i1l2395:
  5117     0B64  087B               	movf	___fladd@grs,w
  5118     0B65  1283               	bcf	3,5	;RP0=0, select bank0
  5119     0B66  1303               	bcf	3,6	;RP1=0, select bank0
  5120     0B67  00A0               	movwf	??___fladd
  5121     0B68  1003               	clrc
  5122     0B69  0C20               	rrf	??___fladd,w
  5123     0B6A  3801               	iorlw	1
  5124     0B6B  00FB               	movwf	___fladd@grs
  5125     0B6C  2B6F               	goto	i1l2399
  5126     0B6D                     i1l2397:
  5127     0B6D  1003               	clrc
  5128     0B6E  0CFB               	rrf	___fladd@grs,f
  5129     0B6F                     i1l2399:
  5130     0B6F  1C70               	btfss	___fladd@b,0
  5131     0B70  2B72               	goto	u284_21
  5132     0B71  2B73               	goto	u284_20
  5133     0B72                     u284_21:
  5134     0B72  2B74               	goto	i1l2403
  5135     0B73                     u284_20:
  5136     0B73                     i1l2401:
  5137     0B73  17FB               	bsf	___fladd@grs,7
  5138     0B74                     i1l2403:
  5139     0B74  3001               	movlw	1
  5140     0B75  1283               	bcf	3,5	;RP0=0, select bank0
  5141     0B76  1303               	bcf	3,6	;RP1=0, select bank0
  5142     0B77  00A0               	movwf	??___fladd
  5143     0B78                     u285_25:
  5144     0B78  0D73               	rlf	___fladd@b+3,w
  5145     0B79  0CF3               	rrf	___fladd@b+3,f
  5146     0B7A  0CF2               	rrf	___fladd@b+2,f
  5147     0B7B  0CF1               	rrf	___fladd@b+1,f
  5148     0B7C  0CF0               	rrf	___fladd@b,f
  5149     0B7D  0BA0               	decfsz	??___fladd& (0+127),f
  5150     0B7E  2B78               	goto	u285_25
  5151     0B7F                     i1l2405:
  5152     0B7F  3001               	movlw	1
  5153     0B80  00A0               	movwf	??___fladd
  5154     0B81  0820               	movf	??___fladd,w
  5155     0B82  07FA               	addwf	___fladd@bexp,f
  5156     0B83  2C3C               	goto	i1l2441
  5157     0B84                     i1l2407:
  5158     0B84  0873               	movf	___fladd@b+3,w
  5159     0B85  3A80               	xorlw	128
  5160     0B86  00FF               	movwf	btemp+1
  5161     0B87  0877               	movf	___fladd@a+3,w
  5162     0B88  3A80               	xorlw	128
  5163     0B89  027F               	subwf	btemp+1,w
  5164     0B8A  1D03               	skipz
  5165     0B8B  2B96               	goto	u286_23
  5166     0B8C  0876               	movf	___fladd@a+2,w
  5167     0B8D  0272               	subwf	___fladd@b+2,w
  5168     0B8E  1D03               	skipz
  5169     0B8F  2B96               	goto	u286_23
  5170     0B90  0875               	movf	___fladd@a+1,w
  5171     0B91  0271               	subwf	___fladd@b+1,w
  5172     0B92  1D03               	skipz
  5173     0B93  2B96               	goto	u286_23
  5174     0B94  0874               	movf	___fladd@a,w
  5175     0B95  0270               	subwf	___fladd@b,w
  5176     0B96                     u286_23:
  5177     0B96  1803               	skipnc
  5178     0B97  2B99               	goto	u286_21
  5179     0B98  2B9A               	goto	u286_20
  5180     0B99                     u286_21:
  5181     0B99  2BF4               	goto	i1l2417
  5182     0B9A                     u286_20:
  5183     0B9A                     i1l2409:
  5184     0B9A  30FF               	movlw	255
  5185     0B9B  1283               	bcf	3,5	;RP0=0, select bank0
  5186     0B9C  1303               	bcf	3,6	;RP1=0, select bank0
  5187     0B9D  00A0               	movwf	??___fladd
  5188     0B9E  30FF               	movlw	255
  5189     0B9F  00A1               	movwf	??___fladd+1
  5190     0BA0  30FF               	movlw	255
  5191     0BA1  00A2               	movwf	??___fladd+2
  5192     0BA2  30FF               	movlw	255
  5193     0BA3  00A3               	movwf	??___fladd+3
  5194     0BA4  0874               	movf	___fladd@a,w
  5195     0BA5  00A4               	movwf	??___fladd+4
  5196     0BA6  0875               	movf	___fladd@a+1,w
  5197     0BA7  00A5               	movwf	??___fladd+5
  5198     0BA8  0876               	movf	___fladd@a+2,w
  5199     0BA9  00A6               	movwf	??___fladd+6
  5200     0BAA  0877               	movf	___fladd@a+3,w
  5201     0BAB  00A7               	movwf	??___fladd+7
  5202     0BAC  0870               	movf	___fladd@b,w
  5203     0BAD  02A4               	subwf	??___fladd+4,f
  5204     0BAE  0871               	movf	___fladd@b+1,w
  5205     0BAF  1C03               	skipc
  5206     0BB0  0F71               	incfsz	___fladd@b+1,w
  5207     0BB1  2BB3               	goto	u287_21
  5208     0BB2  2BB4               	goto	u287_22
  5209     0BB3                     u287_21:
  5210     0BB3  02A5               	subwf	??___fladd+5,f
  5211     0BB4                     u287_22:
  5212     0BB4  0872               	movf	___fladd@b+2,w
  5213     0BB5  1C03               	skipc
  5214     0BB6  0F72               	incfsz	___fladd@b+2,w
  5215     0BB7  2BB9               	goto	u287_23
  5216     0BB8  2BBA               	goto	u287_24
  5217     0BB9                     u287_23:
  5218     0BB9  02A6               	subwf	??___fladd+6,f
  5219     0BBA                     u287_24:
  5220     0BBA  0873               	movf	___fladd@b+3,w
  5221     0BBB  1C03               	skipc
  5222     0BBC  0F73               	incfsz	___fladd@b+3,w
  5223     0BBD  2BBF               	goto	u287_25
  5224     0BBE  2BC0               	goto	u287_26
  5225     0BBF                     u287_25:
  5226     0BBF  02A7               	subwf	??___fladd+7,f
  5227     0BC0                     u287_26:
  5228     0BC0  0824               	movf	??___fladd+4,w
  5229     0BC1  07A0               	addwf	??___fladd,f
  5230     0BC2  0825               	movf	??___fladd+5,w
  5231     0BC3  1803               	skipnc
  5232     0BC4  0F25               	incfsz	??___fladd+5,w
  5233     0BC5  2BC7               	goto	u288_20
  5234     0BC6  2BC8               	goto	u288_21
  5235     0BC7                     u288_20:
  5236     0BC7  07A1               	addwf	??___fladd+1,f
  5237     0BC8                     u288_21:
  5238     0BC8  0826               	movf	??___fladd+6,w
  5239     0BC9  1803               	skipnc
  5240     0BCA  0F26               	incfsz	??___fladd+6,w
  5241     0BCB  2BCD               	goto	u288_22
  5242     0BCC  2BCE               	goto	u288_23
  5243     0BCD                     u288_22:
  5244     0BCD  07A2               	addwf	??___fladd+2,f
  5245     0BCE                     u288_23:
  5246     0BCE  0827               	movf	??___fladd+7,w
  5247     0BCF  1803               	skipnc
  5248     0BD0  0A27               	incf	??___fladd+7,w
  5249     0BD1  07A3               	addwf	??___fladd+3,f
  5250     0BD2  0823               	movf	??___fladd+3,w
  5251     0BD3  00F3               	movwf	___fladd@b+3
  5252     0BD4  0822               	movf	??___fladd+2,w
  5253     0BD5  00F2               	movwf	___fladd@b+2
  5254     0BD6  0821               	movf	??___fladd+1,w
  5255     0BD7  00F1               	movwf	___fladd@b+1
  5256     0BD8  0820               	movf	??___fladd,w
  5257     0BD9  00F0               	movwf	___fladd@b
  5258     0BDA                     i1l2411:
  5259     0BDA  3080               	movlw	128
  5260     0BDB  00A0               	movwf	??___fladd
  5261     0BDC  0820               	movf	??___fladd,w
  5262     0BDD  06F8               	xorwf	___fladd@signs,f
  5263     0BDE  09FB               	comf	___fladd@grs,f
  5264     0BDF  0AFB               	incf	___fladd@grs,f
  5265     0BE0                     i1l2413:
  5266     0BE0  087B               	movf	___fladd@grs,w
  5267     0BE1  1D03               	btfss	3,2
  5268     0BE2  2BE4               	goto	u289_21
  5269     0BE3  2BE5               	goto	u289_20
  5270     0BE4                     u289_21:
  5271     0BE4  2C02               	goto	i1l519
  5272     0BE5                     u289_20:
  5273     0BE5                     i1l2415:
  5274     0BE5  3001               	movlw	1
  5275     0BE6  07F0               	addwf	___fladd@b,f
  5276     0BE7  3000               	movlw	0
  5277     0BE8  1803               	skipnc
  5278     0BE9  3001               	movlw	1
  5279     0BEA  07F1               	addwf	___fladd@b+1,f
  5280     0BEB  3000               	movlw	0
  5281     0BEC  1803               	skipnc
  5282     0BED  3001               	movlw	1
  5283     0BEE  07F2               	addwf	___fladd@b+2,f
  5284     0BEF  3000               	movlw	0
  5285     0BF0  1803               	skipnc
  5286     0BF1  3001               	movlw	1
  5287     0BF2  07F3               	addwf	___fladd@b+3,f
  5288     0BF3  2C02               	goto	i1l519
  5289     0BF4                     i1l2417:
  5290     0BF4  0874               	movf	___fladd@a,w
  5291     0BF5  02F0               	subwf	___fladd@b,f
  5292     0BF6  0875               	movf	___fladd@a+1,w
  5293     0BF7  1C03               	skipc
  5294     0BF8  0F75               	incfsz	___fladd@a+1,w
  5295     0BF9  02F1               	subwf	___fladd@b+1,f
  5296     0BFA  0876               	movf	___fladd@a+2,w
  5297     0BFB  1C03               	skipc
  5298     0BFC  0F76               	incfsz	___fladd@a+2,w
  5299     0BFD  02F2               	subwf	___fladd@b+2,f
  5300     0BFE  0877               	movf	___fladd@a+3,w
  5301     0BFF  1C03               	skipc
  5302     0C00  0F77               	incfsz	___fladd@a+3,w
  5303     0C01  02F3               	subwf	___fladd@b+3,f
  5304     0C02                     i1l519:
  5305     0C02  0873               	movf	___fladd@b+3,w
  5306     0C03  0472               	iorwf	___fladd@b+2,w
  5307     0C04  0471               	iorwf	___fladd@b+1,w
  5308     0C05  0470               	iorwf	___fladd@b,w
  5309     0C06  1D03               	skipz
  5310     0C07  2C09               	goto	u290_21
  5311     0C08  2C0A               	goto	u290_20
  5312     0C09                     u290_21:
  5313     0C09  2C38               	goto	i1l2439
  5314     0C0A                     u290_20:
  5315     0C0A                     i1l2419:
  5316     0C0A  087B               	movf	___fladd@grs,w
  5317     0C0B  1D03               	btfss	3,2
  5318     0C0C  2C0E               	goto	u291_21
  5319     0C0D  2C0F               	goto	u291_20
  5320     0C0E                     u291_21:
  5321     0C0E  2C38               	goto	i1l2439
  5322     0C0F                     u291_20:
  5323     0C0F                     i1l2421:
  5324     0C0F  3000               	movlw	0
  5325     0C10  00F3               	movwf	?___fladd+3
  5326     0C11  3000               	movlw	0
  5327     0C12  00F2               	movwf	?___fladd+2
  5328     0C13  3000               	movlw	0
  5329     0C14  00F1               	movwf	?___fladd+1
  5330     0C15  3000               	movlw	0
  5331     0C16  00F0               	movwf	?___fladd
  5332     0C17  2CBA               	goto	i1l511
  5333     0C18                     i1l2425:
  5334     0C18  3001               	movlw	1
  5335     0C19  1283               	bcf	3,5	;RP0=0, select bank0
  5336     0C1A  1303               	bcf	3,6	;RP1=0, select bank0
  5337     0C1B  00A0               	movwf	??___fladd
  5338     0C1C                     u292_25:
  5339     0C1C  1003               	clrc
  5340     0C1D  0DF0               	rlf	___fladd@b,f
  5341     0C1E  0DF1               	rlf	___fladd@b+1,f
  5342     0C1F  0DF2               	rlf	___fladd@b+2,f
  5343     0C20  0DF3               	rlf	___fladd@b+3,f
  5344     0C21  0BA0               	decfsz	??___fladd,f
  5345     0C22  2C1C               	goto	u292_25
  5346     0C23                     i1l2427:
  5347     0C23  1FFB               	btfss	___fladd@grs,7
  5348     0C24  2C26               	goto	u293_21
  5349     0C25  2C27               	goto	u293_20
  5350     0C26                     u293_21:
  5351     0C26  2C28               	goto	i1l523
  5352     0C27                     u293_20:
  5353     0C27                     i1l2429:
  5354     0C27  1470               	bsf	___fladd@b,0
  5355     0C28                     i1l523:
  5356     0C28  1C7B               	btfss	___fladd@grs,0
  5357     0C29  2C2B               	goto	u294_21
  5358     0C2A  2C2C               	goto	u294_20
  5359     0C2B                     u294_21:
  5360     0C2B  2C2F               	goto	i1l2433
  5361     0C2C                     u294_20:
  5362     0C2C                     i1l2431:
  5363     0C2C  1403               	setc
  5364     0C2D  0DFB               	rlf	___fladd@grs,f
  5365     0C2E  2C31               	goto	i1l2435
  5366     0C2F                     i1l2433:
  5367     0C2F  1003               	clrc
  5368     0C30  0DFB               	rlf	___fladd@grs,f
  5369     0C31                     i1l2435:
  5370     0C31  087A               	movf	___fladd@bexp,w
  5371     0C32  1903               	btfsc	3,2
  5372     0C33  2C35               	goto	u295_21
  5373     0C34  2C36               	goto	u295_20
  5374     0C35                     u295_21:
  5375     0C35  2C38               	goto	i1l2439
  5376     0C36                     u295_20:
  5377     0C36                     i1l2437:
  5378     0C36  3001               	movlw	1
  5379     0C37  02FA               	subwf	___fladd@bexp,f
  5380     0C38                     i1l2439:
  5381     0C38  1FF2               	btfss	___fladd@b+2,7
  5382     0C39  2C3B               	goto	u296_21
  5383     0C3A  2C3C               	goto	u296_20
  5384     0C3B                     u296_21:
  5385     0C3B  2C18               	goto	i1l2425
  5386     0C3C                     u296_20:
  5387     0C3C                     i1l2441:
  5388     0C3C  01F9               	clrf	___fladd@aexp
  5389     0C3D                     i1l2443:
  5390     0C3D  1FFB               	btfss	___fladd@grs,7
  5391     0C3E  2C40               	goto	u297_21
  5392     0C3F  2C41               	goto	u297_20
  5393     0C40                     u297_21:
  5394     0C40  2C4F               	goto	i1l2451
  5395     0C41                     u297_20:
  5396     0C41                     i1l2445:
  5397     0C41  087B               	movf	___fladd@grs,w
  5398     0C42  397F               	andlw	127
  5399     0C43  1903               	btfsc	3,2
  5400     0C44  2C46               	goto	u298_21
  5401     0C45  2C47               	goto	u298_20
  5402     0C46                     u298_21:
  5403     0C46  2C4A               	goto	i1l529
  5404     0C47                     u298_20:
  5405     0C47                     i1l2447:
  5406     0C47  01F9               	clrf	___fladd@aexp
  5407     0C48  0AF9               	incf	___fladd@aexp,f
  5408     0C49  2C4F               	goto	i1l2451
  5409     0C4A                     i1l529:
  5410     0C4A  1C70               	btfss	___fladd@b,0
  5411     0C4B  2C4D               	goto	u299_21
  5412     0C4C  2C4E               	goto	u299_20
  5413     0C4D                     u299_21:
  5414     0C4D  2C4F               	goto	i1l2451
  5415     0C4E                     u299_20:
  5416     0C4E  2C47               	goto	i1l2447
  5417     0C4F                     i1l2451:
  5418     0C4F  0879               	movf	___fladd@aexp,w
  5419     0C50  1903               	btfsc	3,2
  5420     0C51  2C53               	goto	u300_21
  5421     0C52  2C54               	goto	u300_20
  5422     0C53                     u300_21:
  5423     0C53  2C8A               	goto	i1l532
  5424     0C54                     u300_20:
  5425     0C54                     i1l2453:
  5426     0C54  3001               	movlw	1
  5427     0C55  07F0               	addwf	___fladd@b,f
  5428     0C56  3000               	movlw	0
  5429     0C57  1803               	skipnc
  5430     0C58  3001               	movlw	1
  5431     0C59  07F1               	addwf	___fladd@b+1,f
  5432     0C5A  3000               	movlw	0
  5433     0C5B  1803               	skipnc
  5434     0C5C  3001               	movlw	1
  5435     0C5D  07F2               	addwf	___fladd@b+2,f
  5436     0C5E  3000               	movlw	0
  5437     0C5F  1803               	skipnc
  5438     0C60  3001               	movlw	1
  5439     0C61  07F3               	addwf	___fladd@b+3,f
  5440     0C62                     i1l2455:
  5441     0C62  1C73               	btfss	___fladd@b+3,0
  5442     0C63  2C65               	goto	u301_21
  5443     0C64  2C66               	goto	u301_20
  5444     0C65                     u301_21:
  5445     0C65  2C8A               	goto	i1l532
  5446     0C66                     u301_20:
  5447     0C66                     i1l2457:
  5448     0C66  0870               	movf	___fladd@b,w
  5449     0C67  1283               	bcf	3,5	;RP0=0, select bank0
  5450     0C68  1303               	bcf	3,6	;RP1=0, select bank0
  5451     0C69  00A0               	movwf	??___fladd
  5452     0C6A  0871               	movf	___fladd@b+1,w
  5453     0C6B  00A1               	movwf	??___fladd+1
  5454     0C6C  0872               	movf	___fladd@b+2,w
  5455     0C6D  00A2               	movwf	??___fladd+2
  5456     0C6E  0873               	movf	___fladd@b+3,w
  5457     0C6F  00A3               	movwf	??___fladd+3
  5458     0C70  3001               	movlw	1
  5459     0C71  00A4               	movwf	??___fladd+4
  5460     0C72                     u302_25:
  5461     0C72  0D23               	rlf	??___fladd+3,w
  5462     0C73  0CA3               	rrf	??___fladd+3,f
  5463     0C74  0CA2               	rrf	??___fladd+2,f
  5464     0C75  0CA1               	rrf	??___fladd+1,f
  5465     0C76  0CA0               	rrf	??___fladd,f
  5466     0C77                     u302_20:
  5467     0C77  0BA4               	decfsz	??___fladd+4,f
  5468     0C78  2C72               	goto	u302_25
  5469     0C79  0823               	movf	??___fladd+3,w
  5470     0C7A  00F3               	movwf	___fladd@b+3
  5471     0C7B  0822               	movf	??___fladd+2,w
  5472     0C7C  00F2               	movwf	___fladd@b+2
  5473     0C7D  0821               	movf	??___fladd+1,w
  5474     0C7E  00F1               	movwf	___fladd@b+1
  5475     0C7F  0820               	movf	??___fladd,w
  5476     0C80  00F0               	movwf	___fladd@b
  5477     0C81  0A7A               	incf	___fladd@bexp,w
  5478     0C82  1903               	btfsc	3,2
  5479     0C83  2C85               	goto	u303_21
  5480     0C84  2C86               	goto	u303_20
  5481     0C85                     u303_21:
  5482     0C85  2C8A               	goto	i1l532
  5483     0C86                     u303_20:
  5484     0C86                     i1l2459:
  5485     0C86  3001               	movlw	1
  5486     0C87  00A0               	movwf	??___fladd
  5487     0C88  0820               	movf	??___fladd,w
  5488     0C89  07FA               	addwf	___fladd@bexp,f
  5489     0C8A                     i1l532:
  5490     0C8A  0A7A               	incf	___fladd@bexp,w
  5491     0C8B  1903               	btfsc	3,2
  5492     0C8C  2C8E               	goto	u304_21
  5493     0C8D  2C8F               	goto	u304_20
  5494     0C8E                     u304_21:
  5495     0C8E  2C94               	goto	i1l2463
  5496     0C8F                     u304_20:
  5497     0C8F                     i1l2461:
  5498     0C8F  087A               	movf	___fladd@bexp,w
  5499     0C90  1D03               	btfss	3,2
  5500     0C91  2C93               	goto	u305_21
  5501     0C92  2C94               	goto	u305_20
  5502     0C93                     u305_21:
  5503     0C93  2CA2               	goto	i1l2469
  5504     0C94                     u305_20:
  5505     0C94                     i1l2463:
  5506     0C94  3000               	movlw	0
  5507     0C95  00F3               	movwf	___fladd@b+3
  5508     0C96  3000               	movlw	0
  5509     0C97  00F2               	movwf	___fladd@b+2
  5510     0C98  3000               	movlw	0
  5511     0C99  00F1               	movwf	___fladd@b+1
  5512     0C9A  3000               	movlw	0
  5513     0C9B  00F0               	movwf	___fladd@b
  5514     0C9C                     i1l2465:
  5515     0C9C  087A               	movf	___fladd@bexp,w
  5516     0C9D  1D03               	btfss	3,2
  5517     0C9E  2CA0               	goto	u306_21
  5518     0C9F  2CA1               	goto	u306_20
  5519     0CA0                     u306_21:
  5520     0CA0  2CA2               	goto	i1l2469
  5521     0CA1                     u306_20:
  5522     0CA1                     i1l2467:
  5523     0CA1  01F8               	clrf	___fladd@signs
  5524     0CA2                     i1l2469:
  5525     0CA2  1C7A               	btfss	___fladd@bexp,0
  5526     0CA3  2CA5               	goto	u307_21
  5527     0CA4  2CA6               	goto	u307_20
  5528     0CA5                     u307_21:
  5529     0CA5  2CA8               	goto	i1l2473
  5530     0CA6                     u307_20:
  5531     0CA6                     i1l2471:
  5532     0CA6  17F2               	bsf	___fladd@b+2,7
  5533     0CA7  2CAE               	goto	i1l540
  5534     0CA8                     i1l2473:
  5535     0CA8  307F               	movlw	127
  5536     0CA9  1283               	bcf	3,5	;RP0=0, select bank0
  5537     0CAA  1303               	bcf	3,6	;RP1=0, select bank0
  5538     0CAB  00A0               	movwf	??___fladd
  5539     0CAC  0820               	movf	??___fladd,w
  5540     0CAD  05F2               	andwf	___fladd@b+2,f
  5541     0CAE                     i1l540:
  5542     0CAE  087A               	movf	___fladd@bexp,w
  5543     0CAF  1283               	bcf	3,5	;RP0=0, select bank0
  5544     0CB0  1303               	bcf	3,6	;RP1=0, select bank0
  5545     0CB1  00A0               	movwf	??___fladd
  5546     0CB2  1003               	clrc
  5547     0CB3  0C20               	rrf	??___fladd,w
  5548     0CB4  00F3               	movwf	___fladd@b+3
  5549     0CB5                     i1l2475:
  5550     0CB5  1FF8               	btfss	___fladd@signs,7
  5551     0CB6  2CB8               	goto	u308_21
  5552     0CB7  2CB9               	goto	u308_20
  5553     0CB8                     u308_21:
  5554     0CB8  2CBA               	goto	i1l541
  5555     0CB9                     u308_20:
  5556     0CB9                     i1l2477:
  5557     0CB9  17F3               	bsf	___fladd@b+3,7
  5558     0CBA                     i1l541:
  5559     0CBA                     i1l511:
  5560     0CBA  0008               	return
  5561     0CBB                     __end_of___fladd:
  5562                           
  5563                           	psect	text21
  5564     1DE6                     __ptext21:	
  5565 ;; *************** function ___flneg *****************
  5566 ;; Defined at:
  5567 ;;		line 15 in file "/opt/microchip/xc8/v2.45/pic/sources/c99/common/flneg.c"
  5568 ;; Parameters:    Size  Location     Type
  5569 ;;  f1              4    0[COMMON] unsigned char 
  5570 ;; Auto vars:     Size  Location     Type
  5571 ;;		None
  5572 ;; Return value:  Size  Location     Type
  5573 ;;                  4    0[COMMON] unsigned char 
  5574 ;; Registers used:
  5575 ;;		wreg
  5576 ;; Tracked objects:
  5577 ;;		On entry : 0/0
  5578 ;;		On exit  : 0/0
  5579 ;;		Unchanged: 0/0
  5580 ;; Data sizes:     COMMON   BANK0   BANK1   BANK3   BANK2
  5581 ;;      Params:         4       0       0       0       0
  5582 ;;      Locals:         0       0       0       0       0
  5583 ;;      Temps:          0       0       0       0       0
  5584 ;;      Totals:         4       0       0       0       0
  5585 ;;Total ram usage:        4 bytes
  5586 ;; Hardware stack levels used: 1
  5587 ;; This function calls:
  5588 ;;		Nothing
  5589 ;; This function is called by:
  5590 ;;		_efgtoa
  5591 ;; This function uses a non-reentrant model
  5592 ;;
  5593                           
  5594     1DE6                     ___flneg:	
  5595                           ;psect for function ___flneg
  5596                           
  5597     1DE6                     i1l2629:	
  5598                           ;incstack = 0
  5599                           ; Regs used in ___flneg: [wreg]
  5600                           
  5601     1DE6  0873               	movf	___flneg@f1+3,w
  5602     1DE7  0472               	iorwf	___flneg@f1+2,w
  5603     1DE8  0471               	iorwf	___flneg@f1+1,w
  5604     1DE9  0470               	iorwf	___flneg@f1,w
  5605     1DEA  1903               	skipnz
  5606     1DEB  2DED               	goto	u346_21
  5607     1DEC  2DEE               	goto	u346_20
  5608     1DED                     u346_21:
  5609     1DED  2DF0               	goto	i1l2633
  5610     1DEE                     u346_20:
  5611     1DEE                     i1l2631:
  5612     1DEE  3080               	movlw	128
  5613     1DEF  06F3               	xorwf	___flneg@f1+3,f
  5614     1DF0                     i1l2633:
  5615     1DF0                     i1l387:
  5616     1DF0  0008               	return
  5617     1DF1                     __end_of___flneg:
  5618                           
  5619                           	psect	text22
  5620     0CBB                     __ptext22:	
  5621 ;; *************** function ___flmul *****************
  5622 ;; Defined at:
  5623 ;;		line 8 in file "/opt/microchip/xc8/v2.45/pic/sources/c99/common/sprcmul.c"
  5624 ;; Parameters:    Size  Location     Type
  5625 ;;  b               4    0[BANK0 ] unsigned char 
  5626 ;;  a               4    4[BANK0 ] unsigned char 
  5627 ;; Auto vars:     Size  Location     Type
  5628 ;;  prod            4   15[BANK0 ] struct .
  5629 ;;  grs             4    9[BANK0 ] unsigned long 
  5630 ;;  temp            2   19[BANK0 ] struct .
  5631 ;;  bexp            1   14[BANK0 ] unsigned char 
  5632 ;;  aexp            1   13[BANK0 ] unsigned char 
  5633 ;;  sign            1    8[BANK0 ] unsigned char 
  5634 ;; Return value:  Size  Location     Type
  5635 ;;                  4    0[BANK0 ] unsigned char 
  5636 ;; Registers used:
  5637 ;;		wreg, status,2, status,0, btemp+1, pclath, cstack
  5638 ;; Tracked objects:
  5639 ;;		On entry : 0/0
  5640 ;;		On exit  : 0/0
  5641 ;;		Unchanged: 0/0
  5642 ;; Data sizes:     COMMON   BANK0   BANK1   BANK3   BANK2
  5643 ;;      Params:         0       8       0       0       0
  5644 ;;      Locals:         0      13       0       0       0
  5645 ;;      Temps:          5       0       0       0       0
  5646 ;;      Totals:         5      21       0       0       0
  5647 ;;Total ram usage:       26 bytes
  5648 ;; Hardware stack levels used: 1
  5649 ;; Hardware stack levels required when called: 1
  5650 ;; This function calls:
  5651 ;;		__Umul8_16
  5652 ;; This function is called by:
  5653 ;;		_efgtoa
  5654 ;; This function uses a non-reentrant model
  5655 ;;
  5656                           
  5657     0CBB                     ___flmul:	
  5658                           ;psect for function ___flmul
  5659                           
  5660     0CBB                     i1l2821:	
  5661                           ;incstack = 0
  5662 ;; hardware stack exceeded
  5663                           ; Regs used in ___flmul: [wreg+status,2+status,0+btemp+1+pclath+cstack]
  5664                           
  5665     0CBB  1283               	bcf	3,5	;RP0=0, select bank0
  5666     0CBC  1303               	bcf	3,6	;RP1=0, select bank0
  5667     0CBD  0823               	movf	___flmul@b+3,w
  5668     0CBE  3980               	andlw	128
  5669     0CBF  00A8               	movwf	___flmul@sign
  5670     0CC0                     i1l2823:
  5671     0CC0  0823               	movf	___flmul@b+3,w
  5672     0CC1  00F9               	movwf	??___flmul
  5673     0CC2  0779               	addwf	??___flmul,w
  5674     0CC3  00AE               	movwf	___flmul@bexp
  5675     0CC4                     i1l2825:
  5676     0CC4  1FA2               	btfss	___flmul@b+2,7
  5677     0CC5  2CC7               	goto	u387_21
  5678     0CC6  2CC8               	goto	u387_20
  5679     0CC7                     u387_21:
  5680     0CC7  2CC9               	goto	i1l2829
  5681     0CC8                     u387_20:
  5682     0CC8                     i1l2827:
  5683     0CC8  142E               	bsf	___flmul@bexp,0
  5684     0CC9                     i1l2829:
  5685     0CC9  082E               	movf	___flmul@bexp,w
  5686     0CCA  1903               	btfsc	3,2
  5687     0CCB  2CCD               	goto	u388_21
  5688     0CCC  2CCE               	goto	u388_20
  5689     0CCD                     u388_21:
  5690     0CCD  2CDD               	goto	i1l2837
  5691     0CCE                     u388_20:
  5692     0CCE                     i1l2831:
  5693     0CCE  0A2E               	incf	___flmul@bexp,w
  5694     0CCF  1D03               	btfss	3,2
  5695     0CD0  2CD2               	goto	u389_21
  5696     0CD1  2CD3               	goto	u389_20
  5697     0CD2                     u389_21:
  5698     0CD2  2CDB               	goto	i1l2835
  5699     0CD3                     u389_20:
  5700     0CD3                     i1l2833:
  5701     0CD3  3000               	movlw	0
  5702     0CD4  00A3               	movwf	___flmul@b+3
  5703     0CD5  3000               	movlw	0
  5704     0CD6  00A2               	movwf	___flmul@b+2
  5705     0CD7  3000               	movlw	0
  5706     0CD8  00A1               	movwf	___flmul@b+1
  5707     0CD9  3000               	movlw	0
  5708     0CDA  00A0               	movwf	___flmul@b
  5709     0CDB                     i1l2835:
  5710     0CDB  17A2               	bsf	___flmul@b+2,7
  5711     0CDC  2CE5               	goto	i1l2839
  5712     0CDD                     i1l2837:
  5713     0CDD  3000               	movlw	0
  5714     0CDE  00A3               	movwf	___flmul@b+3
  5715     0CDF  3000               	movlw	0
  5716     0CE0  00A2               	movwf	___flmul@b+2
  5717     0CE1  3000               	movlw	0
  5718     0CE2  00A1               	movwf	___flmul@b+1
  5719     0CE3  3000               	movlw	0
  5720     0CE4  00A0               	movwf	___flmul@b
  5721     0CE5                     i1l2839:
  5722     0CE5  0827               	movf	___flmul@a+3,w
  5723     0CE6  3980               	andlw	128
  5724     0CE7  00F9               	movwf	??___flmul
  5725     0CE8  0879               	movf	??___flmul,w
  5726     0CE9  06A8               	xorwf	___flmul@sign,f
  5727     0CEA                     i1l2841:
  5728     0CEA  0827               	movf	___flmul@a+3,w
  5729     0CEB  00F9               	movwf	??___flmul
  5730     0CEC  0779               	addwf	??___flmul,w
  5731     0CED  00AD               	movwf	___flmul@aexp
  5732     0CEE                     i1l2843:
  5733     0CEE  1FA6               	btfss	___flmul@a+2,7
  5734     0CEF  2CF1               	goto	u390_21
  5735     0CF0  2CF2               	goto	u390_20
  5736     0CF1                     u390_21:
  5737     0CF1  2CF3               	goto	i1l2847
  5738     0CF2                     u390_20:
  5739     0CF2                     i1l2845:
  5740     0CF2  142D               	bsf	___flmul@aexp,0
  5741     0CF3                     i1l2847:
  5742     0CF3  082D               	movf	___flmul@aexp,w
  5743     0CF4  1903               	btfsc	3,2
  5744     0CF5  2CF7               	goto	u391_21
  5745     0CF6  2CF8               	goto	u391_20
  5746     0CF7                     u391_21:
  5747     0CF7  2D07               	goto	i1l2855
  5748     0CF8                     u391_20:
  5749     0CF8                     i1l2849:
  5750     0CF8  0A2D               	incf	___flmul@aexp,w
  5751     0CF9  1D03               	btfss	3,2
  5752     0CFA  2CFC               	goto	u392_21
  5753     0CFB  2CFD               	goto	u392_20
  5754     0CFC                     u392_21:
  5755     0CFC  2D05               	goto	i1l2853
  5756     0CFD                     u392_20:
  5757     0CFD                     i1l2851:
  5758     0CFD  3000               	movlw	0
  5759     0CFE  00A7               	movwf	___flmul@a+3
  5760     0CFF  3000               	movlw	0
  5761     0D00  00A6               	movwf	___flmul@a+2
  5762     0D01  3000               	movlw	0
  5763     0D02  00A5               	movwf	___flmul@a+1
  5764     0D03  3000               	movlw	0
  5765     0D04  00A4               	movwf	___flmul@a
  5766     0D05                     i1l2853:
  5767     0D05  17A6               	bsf	___flmul@a+2,7
  5768     0D06  2D0F               	goto	i1l2857
  5769     0D07                     i1l2855:
  5770     0D07  3000               	movlw	0
  5771     0D08  00A7               	movwf	___flmul@a+3
  5772     0D09  3000               	movlw	0
  5773     0D0A  00A6               	movwf	___flmul@a+2
  5774     0D0B  3000               	movlw	0
  5775     0D0C  00A5               	movwf	___flmul@a+1
  5776     0D0D  3000               	movlw	0
  5777     0D0E  00A4               	movwf	___flmul@a
  5778     0D0F                     i1l2857:
  5779     0D0F  082D               	movf	___flmul@aexp,w
  5780     0D10  1903               	btfsc	3,2
  5781     0D11  2D13               	goto	u393_21
  5782     0D12  2D14               	goto	u393_20
  5783     0D13                     u393_21:
  5784     0D13  2D19               	goto	i1l2861
  5785     0D14                     u393_20:
  5786     0D14                     i1l2859:
  5787     0D14  082E               	movf	___flmul@bexp,w
  5788     0D15  1D03               	btfss	3,2
  5789     0D16  2D18               	goto	u394_21
  5790     0D17  2D19               	goto	u394_20
  5791     0D18                     u394_21:
  5792     0D18  2D22               	goto	i1l2865
  5793     0D19                     u394_20:
  5794     0D19                     i1l2861:
  5795     0D19  3000               	movlw	0
  5796     0D1A  00A3               	movwf	?___flmul+3
  5797     0D1B  3000               	movlw	0
  5798     0D1C  00A2               	movwf	?___flmul+2
  5799     0D1D  3000               	movlw	0
  5800     0D1E  00A1               	movwf	?___flmul+1
  5801     0D1F  3000               	movlw	0
  5802     0D20  00A0               	movwf	?___flmul
  5803     0D21  2FFF               	goto	i1l594
  5804     0D22                     i1l2865:
  5805     0D22  0820               	movf	___flmul@b,w
  5806     0D23  00F0               	movwf	__Umul8_16@multiplicand
  5807     0D24  0826               	movf	___flmul@a+2,w
  5808     0D25  160A  158A  2715  120A  158A  	fcall	__Umul8_16
  5809     0D2A  0871               	movf	?__Umul8_16+1,w
  5810     0D2B  1283               	bcf	3,5	;RP0=0, select bank0
  5811     0D2C  1303               	bcf	3,6	;RP1=0, select bank0
  5812     0D2D  00B4               	movwf	___flmul@temp+1
  5813     0D2E  0870               	movf	?__Umul8_16,w
  5814     0D2F  00B3               	movwf	___flmul@temp
  5815     0D30                     i1l2867:
  5816     0D30  0833               	movf	___flmul@temp,w
  5817     0D31  00F9               	movwf	??___flmul
  5818     0D32  01FA               	clrf	??___flmul+1
  5819     0D33  01FB               	clrf	??___flmul+2
  5820     0D34  01FC               	clrf	??___flmul+3
  5821     0D35  087C               	movf	??___flmul+3,w
  5822     0D36  00AC               	movwf	___flmul@grs+3
  5823     0D37  087B               	movf	??___flmul+2,w
  5824     0D38  00AB               	movwf	___flmul@grs+2
  5825     0D39  087A               	movf	??___flmul+1,w
  5826     0D3A  00AA               	movwf	___flmul@grs+1
  5827     0D3B  0879               	movf	??___flmul,w
  5828     0D3C  00A9               	movwf	___flmul@grs
  5829     0D3D                     i1l2869:
  5830     0D3D  0834               	movf	___flmul@temp+1,w
  5831     0D3E  00F9               	movwf	??___flmul
  5832     0D3F  01FA               	clrf	??___flmul+1
  5833     0D40  01FB               	clrf	??___flmul+2
  5834     0D41  01FC               	clrf	??___flmul+3
  5835     0D42  087C               	movf	??___flmul+3,w
  5836     0D43  00B2               	movwf	___flmul@prod+3
  5837     0D44  087B               	movf	??___flmul+2,w
  5838     0D45  00B1               	movwf	___flmul@prod+2
  5839     0D46  087A               	movf	??___flmul+1,w
  5840     0D47  00B0               	movwf	___flmul@prod+1
  5841     0D48  0879               	movf	??___flmul,w
  5842     0D49  00AF               	movwf	___flmul@prod
  5843     0D4A  0821               	movf	___flmul@b+1,w
  5844     0D4B  00F0               	movwf	__Umul8_16@multiplicand
  5845     0D4C  0825               	movf	___flmul@a+1,w
  5846     0D4D  160A  158A  2715  120A  158A  	fcall	__Umul8_16
  5847     0D52  0871               	movf	?__Umul8_16+1,w
  5848     0D53  1283               	bcf	3,5	;RP0=0, select bank0
  5849     0D54  1303               	bcf	3,6	;RP1=0, select bank0
  5850     0D55  00B4               	movwf	___flmul@temp+1
  5851     0D56  0870               	movf	?__Umul8_16,w
  5852     0D57  00B3               	movwf	___flmul@temp
  5853     0D58                     i1l2871:
  5854     0D58  0833               	movf	___flmul@temp,w
  5855     0D59  00F9               	movwf	??___flmul
  5856     0D5A  01FA               	clrf	??___flmul+1
  5857     0D5B  01FB               	clrf	??___flmul+2
  5858     0D5C  01FC               	clrf	??___flmul+3
  5859     0D5D  0879               	movf	??___flmul,w
  5860     0D5E  07A9               	addwf	___flmul@grs,f
  5861     0D5F  087A               	movf	??___flmul+1,w
  5862     0D60  1103               	clrz
  5863     0D61  1803               	skipnc
  5864     0D62  3E01               	addlw	1
  5865     0D63  1903               	skipnz
  5866     0D64  2D66               	goto	u395_21
  5867     0D65  07AA               	addwf	___flmul@grs+1,f
  5868     0D66                     u395_21:
  5869     0D66  087B               	movf	??___flmul+2,w
  5870     0D67  1103               	clrz
  5871     0D68  1803               	skipnc
  5872     0D69  3E01               	addlw	1
  5873     0D6A  1903               	skipnz
  5874     0D6B  2D6D               	goto	u395_22
  5875     0D6C  07AB               	addwf	___flmul@grs+2,f
  5876     0D6D                     u395_22:
  5877     0D6D  087C               	movf	??___flmul+3,w
  5878     0D6E  1103               	clrz
  5879     0D6F  1803               	skipnc
  5880     0D70  3E01               	addlw	1
  5881     0D71  1903               	skipnz
  5882     0D72  2D74               	goto	u395_23
  5883     0D73  07AC               	addwf	___flmul@grs+3,f
  5884     0D74                     u395_23:
  5885     0D74                     i1l2873:
  5886     0D74  0834               	movf	___flmul@temp+1,w
  5887     0D75  00F9               	movwf	??___flmul
  5888     0D76  01FA               	clrf	??___flmul+1
  5889     0D77  01FB               	clrf	??___flmul+2
  5890     0D78  01FC               	clrf	??___flmul+3
  5891     0D79  0879               	movf	??___flmul,w
  5892     0D7A  07AF               	addwf	___flmul@prod,f
  5893     0D7B  087A               	movf	??___flmul+1,w
  5894     0D7C  1103               	clrz
  5895     0D7D  1803               	skipnc
  5896     0D7E  3E01               	addlw	1
  5897     0D7F  1903               	skipnz
  5898     0D80  2D82               	goto	u396_21
  5899     0D81  07B0               	addwf	___flmul@prod+1,f
  5900     0D82                     u396_21:
  5901     0D82  087B               	movf	??___flmul+2,w
  5902     0D83  1103               	clrz
  5903     0D84  1803               	skipnc
  5904     0D85  3E01               	addlw	1
  5905     0D86  1903               	skipnz
  5906     0D87  2D89               	goto	u396_22
  5907     0D88  07B1               	addwf	___flmul@prod+2,f
  5908     0D89                     u396_22:
  5909     0D89  087C               	movf	??___flmul+3,w
  5910     0D8A  1103               	clrz
  5911     0D8B  1803               	skipnc
  5912     0D8C  3E01               	addlw	1
  5913     0D8D  1903               	skipnz
  5914     0D8E  2D90               	goto	u396_23
  5915     0D8F  07B2               	addwf	___flmul@prod+3,f
  5916     0D90                     u396_23:
  5917     0D90  0822               	movf	___flmul@b+2,w
  5918     0D91  00F0               	movwf	__Umul8_16@multiplicand
  5919     0D92  0824               	movf	___flmul@a,w
  5920     0D93  160A  158A  2715  120A  158A  	fcall	__Umul8_16
  5921     0D98  0871               	movf	?__Umul8_16+1,w
  5922     0D99  1283               	bcf	3,5	;RP0=0, select bank0
  5923     0D9A  1303               	bcf	3,6	;RP1=0, select bank0
  5924     0D9B  00B4               	movwf	___flmul@temp+1
  5925     0D9C  0870               	movf	?__Umul8_16,w
  5926     0D9D  00B3               	movwf	___flmul@temp
  5927     0D9E                     i1l2875:
  5928     0D9E  0833               	movf	___flmul@temp,w
  5929     0D9F  00F9               	movwf	??___flmul
  5930     0DA0  01FA               	clrf	??___flmul+1
  5931     0DA1  01FB               	clrf	??___flmul+2
  5932     0DA2  01FC               	clrf	??___flmul+3
  5933     0DA3  0879               	movf	??___flmul,w
  5934     0DA4  07A9               	addwf	___flmul@grs,f
  5935     0DA5  087A               	movf	??___flmul+1,w
  5936     0DA6  1103               	clrz
  5937     0DA7  1803               	skipnc
  5938     0DA8  3E01               	addlw	1
  5939     0DA9  1903               	skipnz
  5940     0DAA  2DAC               	goto	u397_21
  5941     0DAB  07AA               	addwf	___flmul@grs+1,f
  5942     0DAC                     u397_21:
  5943     0DAC  087B               	movf	??___flmul+2,w
  5944     0DAD  1103               	clrz
  5945     0DAE  1803               	skipnc
  5946     0DAF  3E01               	addlw	1
  5947     0DB0  1903               	skipnz
  5948     0DB1  2DB3               	goto	u397_22
  5949     0DB2  07AB               	addwf	___flmul@grs+2,f
  5950     0DB3                     u397_22:
  5951     0DB3  087C               	movf	??___flmul+3,w
  5952     0DB4  1103               	clrz
  5953     0DB5  1803               	skipnc
  5954     0DB6  3E01               	addlw	1
  5955     0DB7  1903               	skipnz
  5956     0DB8  2DBA               	goto	u397_23
  5957     0DB9  07AC               	addwf	___flmul@grs+3,f
  5958     0DBA                     u397_23:
  5959     0DBA                     i1l2877:
  5960     0DBA  0834               	movf	___flmul@temp+1,w
  5961     0DBB  00F9               	movwf	??___flmul
  5962     0DBC  01FA               	clrf	??___flmul+1
  5963     0DBD  01FB               	clrf	??___flmul+2
  5964     0DBE  01FC               	clrf	??___flmul+3
  5965     0DBF  0879               	movf	??___flmul,w
  5966     0DC0  07AF               	addwf	___flmul@prod,f
  5967     0DC1  087A               	movf	??___flmul+1,w
  5968     0DC2  1103               	clrz
  5969     0DC3  1803               	skipnc
  5970     0DC4  3E01               	addlw	1
  5971     0DC5  1903               	skipnz
  5972     0DC6  2DC8               	goto	u398_21
  5973     0DC7  07B0               	addwf	___flmul@prod+1,f
  5974     0DC8                     u398_21:
  5975     0DC8  087B               	movf	??___flmul+2,w
  5976     0DC9  1103               	clrz
  5977     0DCA  1803               	skipnc
  5978     0DCB  3E01               	addlw	1
  5979     0DCC  1903               	skipnz
  5980     0DCD  2DCF               	goto	u398_22
  5981     0DCE  07B1               	addwf	___flmul@prod+2,f
  5982     0DCF                     u398_22:
  5983     0DCF  087C               	movf	??___flmul+3,w
  5984     0DD0  1103               	clrz
  5985     0DD1  1803               	skipnc
  5986     0DD2  3E01               	addlw	1
  5987     0DD3  1903               	skipnz
  5988     0DD4  2DD6               	goto	u398_23
  5989     0DD5  07B2               	addwf	___flmul@prod+3,f
  5990     0DD6                     u398_23:
  5991     0DD6                     i1l2879:
  5992     0DD6  3008               	movlw	8
  5993     0DD7  00F9               	movwf	??___flmul
  5994     0DD8                     u399_25:
  5995     0DD8  1003               	clrc
  5996     0DD9  0DA9               	rlf	___flmul@grs,f
  5997     0DDA  0DAA               	rlf	___flmul@grs+1,f
  5998     0DDB  0DAB               	rlf	___flmul@grs+2,f
  5999     0DDC  0DAC               	rlf	___flmul@grs+3,f
  6000     0DDD  0BF9               	decfsz	??___flmul,f
  6001     0DDE  2DD8               	goto	u399_25
  6002     0DDF                     i1l2881:
  6003     0DDF  0821               	movf	___flmul@b+1,w
  6004     0DE0  00F0               	movwf	__Umul8_16@multiplicand
  6005     0DE1  0824               	movf	___flmul@a,w
  6006     0DE2  160A  158A  2715  120A  158A  	fcall	__Umul8_16
  6007     0DE7  0871               	movf	?__Umul8_16+1,w
  6008     0DE8  1283               	bcf	3,5	;RP0=0, select bank0
  6009     0DE9  1303               	bcf	3,6	;RP1=0, select bank0
  6010     0DEA  00B4               	movwf	___flmul@temp+1
  6011     0DEB  0870               	movf	?__Umul8_16,w
  6012     0DEC  00B3               	movwf	___flmul@temp
  6013     0DED                     i1l2883:
  6014     0DED  0833               	movf	___flmul@temp,w
  6015     0DEE  00F9               	movwf	??___flmul
  6016     0DEF  0834               	movf	___flmul@temp+1,w
  6017     0DF0  00FA               	movwf	??___flmul+1
  6018     0DF1  01FB               	clrf	??___flmul+2
  6019     0DF2  01FC               	clrf	??___flmul+3
  6020     0DF3  0879               	movf	??___flmul,w
  6021     0DF4  07A9               	addwf	___flmul@grs,f
  6022     0DF5  087A               	movf	??___flmul+1,w
  6023     0DF6  1103               	clrz
  6024     0DF7  1803               	skipnc
  6025     0DF8  3E01               	addlw	1
  6026     0DF9  1903               	skipnz
  6027     0DFA  2DFC               	goto	u400_21
  6028     0DFB  07AA               	addwf	___flmul@grs+1,f
  6029     0DFC                     u400_21:
  6030     0DFC  087B               	movf	??___flmul+2,w
  6031     0DFD  1103               	clrz
  6032     0DFE  1803               	skipnc
  6033     0DFF  3E01               	addlw	1
  6034     0E00  1903               	skipnz
  6035     0E01  2E03               	goto	u400_22
  6036     0E02  07AB               	addwf	___flmul@grs+2,f
  6037     0E03                     u400_22:
  6038     0E03  087C               	movf	??___flmul+3,w
  6039     0E04  1103               	clrz
  6040     0E05  1803               	skipnc
  6041     0E06  3E01               	addlw	1
  6042     0E07  1903               	skipnz
  6043     0E08  2E0A               	goto	u400_23
  6044     0E09  07AC               	addwf	___flmul@grs+3,f
  6045     0E0A                     u400_23:
  6046     0E0A                     i1l2885:
  6047     0E0A  0820               	movf	___flmul@b,w
  6048     0E0B  00F0               	movwf	__Umul8_16@multiplicand
  6049     0E0C  0825               	movf	___flmul@a+1,w
  6050     0E0D  160A  158A  2715  120A  158A  	fcall	__Umul8_16
  6051     0E12  0871               	movf	?__Umul8_16+1,w
  6052     0E13  1283               	bcf	3,5	;RP0=0, select bank0
  6053     0E14  1303               	bcf	3,6	;RP1=0, select bank0
  6054     0E15  00B4               	movwf	___flmul@temp+1
  6055     0E16  0870               	movf	?__Umul8_16,w
  6056     0E17  00B3               	movwf	___flmul@temp
  6057     0E18                     i1l2887:
  6058     0E18  0833               	movf	___flmul@temp,w
  6059     0E19  00F9               	movwf	??___flmul
  6060     0E1A  0834               	movf	___flmul@temp+1,w
  6061     0E1B  00FA               	movwf	??___flmul+1
  6062     0E1C  01FB               	clrf	??___flmul+2
  6063     0E1D  01FC               	clrf	??___flmul+3
  6064     0E1E  0879               	movf	??___flmul,w
  6065     0E1F  07A9               	addwf	___flmul@grs,f
  6066     0E20  087A               	movf	??___flmul+1,w
  6067     0E21  1103               	clrz
  6068     0E22  1803               	skipnc
  6069     0E23  3E01               	addlw	1
  6070     0E24  1903               	skipnz
  6071     0E25  2E27               	goto	u401_21
  6072     0E26  07AA               	addwf	___flmul@grs+1,f
  6073     0E27                     u401_21:
  6074     0E27  087B               	movf	??___flmul+2,w
  6075     0E28  1103               	clrz
  6076     0E29  1803               	skipnc
  6077     0E2A  3E01               	addlw	1
  6078     0E2B  1903               	skipnz
  6079     0E2C  2E2E               	goto	u401_22
  6080     0E2D  07AB               	addwf	___flmul@grs+2,f
  6081     0E2E                     u401_22:
  6082     0E2E  087C               	movf	??___flmul+3,w
  6083     0E2F  1103               	clrz
  6084     0E30  1803               	skipnc
  6085     0E31  3E01               	addlw	1
  6086     0E32  1903               	skipnz
  6087     0E33  2E35               	goto	u401_23
  6088     0E34  07AC               	addwf	___flmul@grs+3,f
  6089     0E35                     u401_23:
  6090     0E35                     i1l2889:
  6091     0E35  3008               	movlw	8
  6092     0E36  00F9               	movwf	??___flmul
  6093     0E37                     u402_25:
  6094     0E37  1003               	clrc
  6095     0E38  0DA9               	rlf	___flmul@grs,f
  6096     0E39  0DAA               	rlf	___flmul@grs+1,f
  6097     0E3A  0DAB               	rlf	___flmul@grs+2,f
  6098     0E3B  0DAC               	rlf	___flmul@grs+3,f
  6099     0E3C  0BF9               	decfsz	??___flmul,f
  6100     0E3D  2E37               	goto	u402_25
  6101     0E3E  0820               	movf	___flmul@b,w
  6102     0E3F  00F0               	movwf	__Umul8_16@multiplicand
  6103     0E40  0824               	movf	___flmul@a,w
  6104     0E41  160A  158A  2715  120A  158A  	fcall	__Umul8_16
  6105     0E46  0871               	movf	?__Umul8_16+1,w
  6106     0E47  1283               	bcf	3,5	;RP0=0, select bank0
  6107     0E48  1303               	bcf	3,6	;RP1=0, select bank0
  6108     0E49  00B4               	movwf	___flmul@temp+1
  6109     0E4A  0870               	movf	?__Umul8_16,w
  6110     0E4B  00B3               	movwf	___flmul@temp
  6111     0E4C                     i1l2891:
  6112     0E4C  0833               	movf	___flmul@temp,w
  6113     0E4D  00F9               	movwf	??___flmul
  6114     0E4E  0834               	movf	___flmul@temp+1,w
  6115     0E4F  00FA               	movwf	??___flmul+1
  6116     0E50  01FB               	clrf	??___flmul+2
  6117     0E51  01FC               	clrf	??___flmul+3
  6118     0E52  0879               	movf	??___flmul,w
  6119     0E53  07A9               	addwf	___flmul@grs,f
  6120     0E54  087A               	movf	??___flmul+1,w
  6121     0E55  1103               	clrz
  6122     0E56  1803               	skipnc
  6123     0E57  3E01               	addlw	1
  6124     0E58  1903               	skipnz
  6125     0E59  2E5B               	goto	u403_21
  6126     0E5A  07AA               	addwf	___flmul@grs+1,f
  6127     0E5B                     u403_21:
  6128     0E5B  087B               	movf	??___flmul+2,w
  6129     0E5C  1103               	clrz
  6130     0E5D  1803               	skipnc
  6131     0E5E  3E01               	addlw	1
  6132     0E5F  1903               	skipnz
  6133     0E60  2E62               	goto	u403_22
  6134     0E61  07AB               	addwf	___flmul@grs+2,f
  6135     0E62                     u403_22:
  6136     0E62  087C               	movf	??___flmul+3,w
  6137     0E63  1103               	clrz
  6138     0E64  1803               	skipnc
  6139     0E65  3E01               	addlw	1
  6140     0E66  1903               	skipnz
  6141     0E67  2E69               	goto	u403_23
  6142     0E68  07AC               	addwf	___flmul@grs+3,f
  6143     0E69                     u403_23:
  6144     0E69                     i1l2893:
  6145     0E69  0821               	movf	___flmul@b+1,w
  6146     0E6A  00F0               	movwf	__Umul8_16@multiplicand
  6147     0E6B  0826               	movf	___flmul@a+2,w
  6148     0E6C  160A  158A  2715  120A  158A  	fcall	__Umul8_16
  6149     0E71  0871               	movf	?__Umul8_16+1,w
  6150     0E72  1283               	bcf	3,5	;RP0=0, select bank0
  6151     0E73  1303               	bcf	3,6	;RP1=0, select bank0
  6152     0E74  00B4               	movwf	___flmul@temp+1
  6153     0E75  0870               	movf	?__Umul8_16,w
  6154     0E76  00B3               	movwf	___flmul@temp
  6155     0E77  0833               	movf	___flmul@temp,w
  6156     0E78  00F9               	movwf	??___flmul
  6157     0E79  0834               	movf	___flmul@temp+1,w
  6158     0E7A  00FA               	movwf	??___flmul+1
  6159     0E7B  01FB               	clrf	??___flmul+2
  6160     0E7C  01FC               	clrf	??___flmul+3
  6161     0E7D  0879               	movf	??___flmul,w
  6162     0E7E  07AF               	addwf	___flmul@prod,f
  6163     0E7F  087A               	movf	??___flmul+1,w
  6164     0E80  1103               	clrz
  6165     0E81  1803               	skipnc
  6166     0E82  3E01               	addlw	1
  6167     0E83  1903               	skipnz
  6168     0E84  2E86               	goto	u404_21
  6169     0E85  07B0               	addwf	___flmul@prod+1,f
  6170     0E86                     u404_21:
  6171     0E86  087B               	movf	??___flmul+2,w
  6172     0E87  1103               	clrz
  6173     0E88  1803               	skipnc
  6174     0E89  3E01               	addlw	1
  6175     0E8A  1903               	skipnz
  6176     0E8B  2E8D               	goto	u404_22
  6177     0E8C  07B1               	addwf	___flmul@prod+2,f
  6178     0E8D                     u404_22:
  6179     0E8D  087C               	movf	??___flmul+3,w
  6180     0E8E  1103               	clrz
  6181     0E8F  1803               	skipnc
  6182     0E90  3E01               	addlw	1
  6183     0E91  1903               	skipnz
  6184     0E92  2E94               	goto	u404_23
  6185     0E93  07B2               	addwf	___flmul@prod+3,f
  6186     0E94                     u404_23:
  6187     0E94                     i1l2895:
  6188     0E94  0822               	movf	___flmul@b+2,w
  6189     0E95  00F0               	movwf	__Umul8_16@multiplicand
  6190     0E96  0825               	movf	___flmul@a+1,w
  6191     0E97  160A  158A  2715  120A  158A  	fcall	__Umul8_16
  6192     0E9C  0871               	movf	?__Umul8_16+1,w
  6193     0E9D  1283               	bcf	3,5	;RP0=0, select bank0
  6194     0E9E  1303               	bcf	3,6	;RP1=0, select bank0
  6195     0E9F  00B4               	movwf	___flmul@temp+1
  6196     0EA0  0870               	movf	?__Umul8_16,w
  6197     0EA1  00B3               	movwf	___flmul@temp
  6198     0EA2                     i1l2897:
  6199     0EA2  0833               	movf	___flmul@temp,w
  6200     0EA3  00F9               	movwf	??___flmul
  6201     0EA4  0834               	movf	___flmul@temp+1,w
  6202     0EA5  00FA               	movwf	??___flmul+1
  6203     0EA6  01FB               	clrf	??___flmul+2
  6204     0EA7  01FC               	clrf	??___flmul+3
  6205     0EA8  0879               	movf	??___flmul,w
  6206     0EA9  07AF               	addwf	___flmul@prod,f
  6207     0EAA  087A               	movf	??___flmul+1,w
  6208     0EAB  1103               	clrz
  6209     0EAC  1803               	skipnc
  6210     0EAD  3E01               	addlw	1
  6211     0EAE  1903               	skipnz
  6212     0EAF  2EB1               	goto	u405_21
  6213     0EB0  07B0               	addwf	___flmul@prod+1,f
  6214     0EB1                     u405_21:
  6215     0EB1  087B               	movf	??___flmul+2,w
  6216     0EB2  1103               	clrz
  6217     0EB3  1803               	skipnc
  6218     0EB4  3E01               	addlw	1
  6219     0EB5  1903               	skipnz
  6220     0EB6  2EB8               	goto	u405_22
  6221     0EB7  07B1               	addwf	___flmul@prod+2,f
  6222     0EB8                     u405_22:
  6223     0EB8  087C               	movf	??___flmul+3,w
  6224     0EB9  1103               	clrz
  6225     0EBA  1803               	skipnc
  6226     0EBB  3E01               	addlw	1
  6227     0EBC  1903               	skipnz
  6228     0EBD  2EBF               	goto	u405_23
  6229     0EBE  07B2               	addwf	___flmul@prod+3,f
  6230     0EBF                     u405_23:
  6231     0EBF  0822               	movf	___flmul@b+2,w
  6232     0EC0  00F0               	movwf	__Umul8_16@multiplicand
  6233     0EC1  0826               	movf	___flmul@a+2,w
  6234     0EC2  160A  158A  2715  120A  158A  	fcall	__Umul8_16
  6235     0EC7  0871               	movf	?__Umul8_16+1,w
  6236     0EC8  1283               	bcf	3,5	;RP0=0, select bank0
  6237     0EC9  1303               	bcf	3,6	;RP1=0, select bank0
  6238     0ECA  00B4               	movwf	___flmul@temp+1
  6239     0ECB  0870               	movf	?__Umul8_16,w
  6240     0ECC  00B3               	movwf	___flmul@temp
  6241     0ECD                     i1l2899:
  6242     0ECD  0833               	movf	___flmul@temp,w
  6243     0ECE  00F9               	movwf	??___flmul
  6244     0ECF  0834               	movf	___flmul@temp+1,w
  6245     0ED0  00FA               	movwf	??___flmul+1
  6246     0ED1  01FB               	clrf	??___flmul+2
  6247     0ED2  01FC               	clrf	??___flmul+3
  6248     0ED3  3008               	movlw	8
  6249     0ED4                     u406_25:
  6250     0ED4  1003               	clrc
  6251     0ED5  0DF9               	rlf	??___flmul,f
  6252     0ED6  0DFA               	rlf	??___flmul+1,f
  6253     0ED7  0DFB               	rlf	??___flmul+2,f
  6254     0ED8  0DFC               	rlf	??___flmul+3,f
  6255     0ED9                     u406_20:
  6256     0ED9  3EFF               	addlw	-1
  6257     0EDA  1D03               	skipz
  6258     0EDB  2ED4               	goto	u406_25
  6259     0EDC  0879               	movf	??___flmul,w
  6260     0EDD  07AF               	addwf	___flmul@prod,f
  6261     0EDE  087A               	movf	??___flmul+1,w
  6262     0EDF  1103               	clrz
  6263     0EE0  1803               	skipnc
  6264     0EE1  3E01               	addlw	1
  6265     0EE2  1903               	skipnz
  6266     0EE3  2EE5               	goto	u407_21
  6267     0EE4  07B0               	addwf	___flmul@prod+1,f
  6268     0EE5                     u407_21:
  6269     0EE5  087B               	movf	??___flmul+2,w
  6270     0EE6  1103               	clrz
  6271     0EE7  1803               	skipnc
  6272     0EE8  3E01               	addlw	1
  6273     0EE9  1903               	skipnz
  6274     0EEA  2EEC               	goto	u407_22
  6275     0EEB  07B1               	addwf	___flmul@prod+2,f
  6276     0EEC                     u407_22:
  6277     0EEC  087C               	movf	??___flmul+3,w
  6278     0EED  1103               	clrz
  6279     0EEE  1803               	skipnc
  6280     0EEF  3E01               	addlw	1
  6281     0EF0  1903               	skipnz
  6282     0EF1  2EF3               	goto	u407_23
  6283     0EF2  07B2               	addwf	___flmul@prod+3,f
  6284     0EF3                     u407_23:
  6285     0EF3                     i1l2901:
  6286     0EF3  0829               	movf	___flmul@grs,w
  6287     0EF4  00F9               	movwf	??___flmul
  6288     0EF5  082A               	movf	___flmul@grs+1,w
  6289     0EF6  00FA               	movwf	??___flmul+1
  6290     0EF7  082B               	movf	___flmul@grs+2,w
  6291     0EF8  00FB               	movwf	??___flmul+2
  6292     0EF9  082C               	movf	___flmul@grs+3,w
  6293     0EFA  00FC               	movwf	??___flmul+3
  6294     0EFB  3018               	movlw	24
  6295     0EFC                     u408_25:
  6296     0EFC  1003               	clrc
  6297     0EFD  0CFC               	rrf	??___flmul+3,f
  6298     0EFE  0CFB               	rrf	??___flmul+2,f
  6299     0EFF  0CFA               	rrf	??___flmul+1,f
  6300     0F00  0CF9               	rrf	??___flmul,f
  6301     0F01                     u408_20:
  6302     0F01  3EFF               	addlw	-1
  6303     0F02  1D03               	skipz
  6304     0F03  2EFC               	goto	u408_25
  6305     0F04  0879               	movf	??___flmul,w
  6306     0F05  07AF               	addwf	___flmul@prod,f
  6307     0F06  087A               	movf	??___flmul+1,w
  6308     0F07  1103               	clrz
  6309     0F08  1803               	skipnc
  6310     0F09  3E01               	addlw	1
  6311     0F0A  1903               	skipnz
  6312     0F0B  2F0D               	goto	u409_21
  6313     0F0C  07B0               	addwf	___flmul@prod+1,f
  6314     0F0D                     u409_21:
  6315     0F0D  087B               	movf	??___flmul+2,w
  6316     0F0E  1103               	clrz
  6317     0F0F  1803               	skipnc
  6318     0F10  3E01               	addlw	1
  6319     0F11  1903               	skipnz
  6320     0F12  2F14               	goto	u409_22
  6321     0F13  07B1               	addwf	___flmul@prod+2,f
  6322     0F14                     u409_22:
  6323     0F14  087C               	movf	??___flmul+3,w
  6324     0F15  1103               	clrz
  6325     0F16  1803               	skipnc
  6326     0F17  3E01               	addlw	1
  6327     0F18  1903               	skipnz
  6328     0F19  2F1B               	goto	u409_23
  6329     0F1A  07B2               	addwf	___flmul@prod+3,f
  6330     0F1B                     u409_23:
  6331     0F1B                     i1l2903:
  6332     0F1B  3008               	movlw	8
  6333     0F1C  00F9               	movwf	??___flmul
  6334     0F1D                     u410_25:
  6335     0F1D  1003               	clrc
  6336     0F1E  0DA9               	rlf	___flmul@grs,f
  6337     0F1F  0DAA               	rlf	___flmul@grs+1,f
  6338     0F20  0DAB               	rlf	___flmul@grs+2,f
  6339     0F21  0DAC               	rlf	___flmul@grs+3,f
  6340     0F22  0BF9               	decfsz	??___flmul,f
  6341     0F23  2F1D               	goto	u410_25
  6342     0F24                     i1l2905:
  6343     0F24  082E               	movf	___flmul@bexp,w
  6344     0F25  072D               	addwf	___flmul@aexp,w
  6345     0F26  00F9               	movwf	??___flmul
  6346     0F27  01FA               	clrf	??___flmul+1
  6347     0F28  0DFA               	rlf	??___flmul+1,f
  6348     0F29  0879               	movf	??___flmul,w
  6349     0F2A  3E82               	addlw	130
  6350     0F2B  00B3               	movwf	___flmul@temp
  6351     0F2C  087A               	movf	??___flmul+1,w
  6352     0F2D  1803               	skipnc
  6353     0F2E  3E01               	addlw	1
  6354     0F2F  3EFF               	addlw	255
  6355     0F30  00B4               	movwf	___flmul@temp+1
  6356     0F31  2F4F               	goto	i1l2917
  6357     0F32                     i1l2907:
  6358     0F32  3001               	movlw	1
  6359     0F33  00F9               	movwf	??___flmul
  6360     0F34                     u411_25:
  6361     0F34  1003               	clrc
  6362     0F35  0DAF               	rlf	___flmul@prod,f
  6363     0F36  0DB0               	rlf	___flmul@prod+1,f
  6364     0F37  0DB1               	rlf	___flmul@prod+2,f
  6365     0F38  0DB2               	rlf	___flmul@prod+3,f
  6366     0F39  0BF9               	decfsz	??___flmul,f
  6367     0F3A  2F34               	goto	u411_25
  6368     0F3B                     i1l2909:
  6369     0F3B  1FAC               	btfss	___flmul@grs+3,7
  6370     0F3C  2F3E               	goto	u412_21
  6371     0F3D  2F3F               	goto	u412_20
  6372     0F3E                     u412_21:
  6373     0F3E  2F40               	goto	i1l2913
  6374     0F3F                     u412_20:
  6375     0F3F                     i1l2911:
  6376     0F3F  142F               	bsf	___flmul@prod,0
  6377     0F40                     i1l2913:
  6378     0F40  3001               	movlw	1
  6379     0F41  00F9               	movwf	??___flmul
  6380     0F42                     u413_25:
  6381     0F42  1003               	clrc
  6382     0F43  0DA9               	rlf	___flmul@grs,f
  6383     0F44  0DAA               	rlf	___flmul@grs+1,f
  6384     0F45  0DAB               	rlf	___flmul@grs+2,f
  6385     0F46  0DAC               	rlf	___flmul@grs+3,f
  6386     0F47  0BF9               	decfsz	??___flmul,f
  6387     0F48  2F42               	goto	u413_25
  6388     0F49                     i1l2915:
  6389     0F49  30FF               	movlw	255
  6390     0F4A  07B3               	addwf	___flmul@temp,f
  6391     0F4B  1803               	skipnc
  6392     0F4C  0AB4               	incf	___flmul@temp+1,f
  6393     0F4D  30FF               	movlw	255
  6394     0F4E  07B4               	addwf	___flmul@temp+1,f
  6395     0F4F                     i1l2917:
  6396     0F4F  1FB1               	btfss	___flmul@prod+2,7
  6397     0F50  2F52               	goto	u414_21
  6398     0F51  2F53               	goto	u414_20
  6399     0F52                     u414_21:
  6400     0F52  2F32               	goto	i1l2907
  6401     0F53                     u414_20:
  6402     0F53                     i1l2919:
  6403     0F53  01AD               	clrf	___flmul@aexp
  6404     0F54                     i1l2921:
  6405     0F54  1FAC               	btfss	___flmul@grs+3,7
  6406     0F55  2F57               	goto	u415_21
  6407     0F56  2F58               	goto	u415_20
  6408     0F57                     u415_21:
  6409     0F57  2F74               	goto	i1l2929
  6410     0F58                     u415_20:
  6411     0F58                     i1l2923:
  6412     0F58  30FF               	movlw	255
  6413     0F59  0529               	andwf	___flmul@grs,w
  6414     0F5A  00F9               	movwf	??___flmul
  6415     0F5B  30FF               	movlw	255
  6416     0F5C  052A               	andwf	___flmul@grs+1,w
  6417     0F5D  00FA               	movwf	??___flmul+1
  6418     0F5E  30FF               	movlw	255
  6419     0F5F  052B               	andwf	___flmul@grs+2,w
  6420     0F60  00FB               	movwf	??___flmul+2
  6421     0F61  307F               	movlw	127
  6422     0F62  052C               	andwf	___flmul@grs+3,w
  6423     0F63  00FC               	movwf	??___flmul+3
  6424     0F64  087C               	movf	??___flmul+3,w
  6425     0F65  047B               	iorwf	??___flmul+2,w
  6426     0F66  047A               	iorwf	??___flmul+1,w
  6427     0F67  0479               	iorwf	??___flmul,w
  6428     0F68  1903               	skipnz
  6429     0F69  2F6B               	goto	u416_21
  6430     0F6A  2F6C               	goto	u416_20
  6431     0F6B                     u416_21:
  6432     0F6B  2F6F               	goto	i1l600
  6433     0F6C                     u416_20:
  6434     0F6C                     i1l2925:
  6435     0F6C  01AD               	clrf	___flmul@aexp
  6436     0F6D  0AAD               	incf	___flmul@aexp,f
  6437     0F6E  2F74               	goto	i1l2929
  6438     0F6F                     i1l600:
  6439     0F6F  1C2F               	btfss	___flmul@prod,0
  6440     0F70  2F72               	goto	u417_21
  6441     0F71  2F73               	goto	u417_20
  6442     0F72                     u417_21:
  6443     0F72  2F74               	goto	i1l2929
  6444     0F73                     u417_20:
  6445     0F73  2F6C               	goto	i1l2925
  6446     0F74                     i1l2929:
  6447     0F74  082D               	movf	___flmul@aexp,w
  6448     0F75  1903               	btfsc	3,2
  6449     0F76  2F78               	goto	u418_21
  6450     0F77  2F79               	goto	u418_20
  6451     0F78                     u418_21:
  6452     0F78  2FAA               	goto	i1l2939
  6453     0F79                     u418_20:
  6454     0F79                     i1l2931:
  6455     0F79  3001               	movlw	1
  6456     0F7A  07AF               	addwf	___flmul@prod,f
  6457     0F7B  3000               	movlw	0
  6458     0F7C  1803               	skipnc
  6459     0F7D  3001               	movlw	1
  6460     0F7E  07B0               	addwf	___flmul@prod+1,f
  6461     0F7F  3000               	movlw	0
  6462     0F80  1803               	skipnc
  6463     0F81  3001               	movlw	1
  6464     0F82  07B1               	addwf	___flmul@prod+2,f
  6465     0F83  3000               	movlw	0
  6466     0F84  1803               	skipnc
  6467     0F85  3001               	movlw	1
  6468     0F86  07B2               	addwf	___flmul@prod+3,f
  6469     0F87                     i1l2933:
  6470     0F87  1C32               	btfss	___flmul@prod+3,0
  6471     0F88  2F8A               	goto	u419_21
  6472     0F89  2F8B               	goto	u419_20
  6473     0F8A                     u419_21:
  6474     0F8A  2FAA               	goto	i1l2939
  6475     0F8B                     u419_20:
  6476     0F8B                     i1l2935:
  6477     0F8B  082F               	movf	___flmul@prod,w
  6478     0F8C  00F9               	movwf	??___flmul
  6479     0F8D  0830               	movf	___flmul@prod+1,w
  6480     0F8E  00FA               	movwf	??___flmul+1
  6481     0F8F  0831               	movf	___flmul@prod+2,w
  6482     0F90  00FB               	movwf	??___flmul+2
  6483     0F91  0832               	movf	___flmul@prod+3,w
  6484     0F92  00FC               	movwf	??___flmul+3
  6485     0F93  3001               	movlw	1
  6486     0F94  00FD               	movwf	??___flmul+4
  6487     0F95                     u420_25:
  6488     0F95  0D7C               	rlf	??___flmul+3,w
  6489     0F96  0CFC               	rrf	??___flmul+3,f
  6490     0F97  0CFB               	rrf	??___flmul+2,f
  6491     0F98  0CFA               	rrf	??___flmul+1,f
  6492     0F99  0CF9               	rrf	??___flmul,f
  6493     0F9A                     u420_20:
  6494     0F9A  0BFD               	decfsz	??___flmul+4,f
  6495     0F9B  2F95               	goto	u420_25
  6496     0F9C  087C               	movf	??___flmul+3,w
  6497     0F9D  00B2               	movwf	___flmul@prod+3
  6498     0F9E  087B               	movf	??___flmul+2,w
  6499     0F9F  00B1               	movwf	___flmul@prod+2
  6500     0FA0  087A               	movf	??___flmul+1,w
  6501     0FA1  00B0               	movwf	___flmul@prod+1
  6502     0FA2  0879               	movf	??___flmul,w
  6503     0FA3  00AF               	movwf	___flmul@prod
  6504     0FA4                     i1l2937:
  6505     0FA4  3001               	movlw	1
  6506     0FA5  07B3               	addwf	___flmul@temp,f
  6507     0FA6  1803               	skipnc
  6508     0FA7  0AB4               	incf	___flmul@temp+1,f
  6509     0FA8  3000               	movlw	0
  6510     0FA9  07B4               	addwf	___flmul@temp+1,f
  6511     0FAA                     i1l2939:
  6512     0FAA  0834               	movf	___flmul@temp+1,w
  6513     0FAB  3A80               	xorlw	128
  6514     0FAC  00FF               	movwf	btemp+1
  6515     0FAD  3080               	movlw	128
  6516     0FAE  027F               	subwf	btemp+1,w
  6517     0FAF  1D03               	skipz
  6518     0FB0  2FB3               	goto	u421_25
  6519     0FB1  30FF               	movlw	255
  6520     0FB2  0233               	subwf	___flmul@temp,w
  6521     0FB3                     u421_25:
  6522     0FB3  1C03               	skipc
  6523     0FB4  2FB6               	goto	u421_21
  6524     0FB5  2FB7               	goto	u421_20
  6525     0FB6                     u421_21:
  6526     0FB6  2FC2               	goto	i1l2943
  6527     0FB7                     u421_20:
  6528     0FB7                     i1l2941:
  6529     0FB7  307F               	movlw	127
  6530     0FB8  1283               	bcf	3,5	;RP0=0, select bank0
  6531     0FB9  1303               	bcf	3,6	;RP1=0, select bank0
  6532     0FBA  00B2               	movwf	___flmul@prod+3
  6533     0FBB  3080               	movlw	128
  6534     0FBC  00B1               	movwf	___flmul@prod+2
  6535     0FBD  3000               	movlw	0
  6536     0FBE  00B0               	movwf	___flmul@prod+1
  6537     0FBF  3000               	movlw	0
  6538     0FC0  00AF               	movwf	___flmul@prod
  6539     0FC1  2FF3               	goto	i1l606
  6540     0FC2                     i1l2943:
  6541     0FC2  1283               	bcf	3,5	;RP0=0, select bank0
  6542     0FC3  1303               	bcf	3,6	;RP1=0, select bank0
  6543     0FC4  0834               	movf	___flmul@temp+1,w
  6544     0FC5  3A80               	xorlw	128
  6545     0FC6  00FF               	movwf	btemp+1
  6546     0FC7  3080               	movlw	128
  6547     0FC8  027F               	subwf	btemp+1,w
  6548     0FC9  1D03               	skipz
  6549     0FCA  2FCD               	goto	u422_25
  6550     0FCB  3001               	movlw	1
  6551     0FCC  0233               	subwf	___flmul@temp,w
  6552     0FCD                     u422_25:
  6553     0FCD  1803               	skipnc
  6554     0FCE  2FD0               	goto	u422_21
  6555     0FCF  2FD1               	goto	u422_20
  6556     0FD0                     u422_21:
  6557     0FD0  2FDD               	goto	i1l2949
  6558     0FD1                     u422_20:
  6559     0FD1                     i1l2945:
  6560     0FD1  3000               	movlw	0
  6561     0FD2  1283               	bcf	3,5	;RP0=0, select bank0
  6562     0FD3  1303               	bcf	3,6	;RP1=0, select bank0
  6563     0FD4  00B2               	movwf	___flmul@prod+3
  6564     0FD5  3000               	movlw	0
  6565     0FD6  00B1               	movwf	___flmul@prod+2
  6566     0FD7  3000               	movlw	0
  6567     0FD8  00B0               	movwf	___flmul@prod+1
  6568     0FD9  3000               	movlw	0
  6569     0FDA  00AF               	movwf	___flmul@prod
  6570     0FDB                     i1l2947:
  6571     0FDB  01A8               	clrf	___flmul@sign
  6572     0FDC  2FF3               	goto	i1l606
  6573     0FDD                     i1l2949:
  6574     0FDD  1283               	bcf	3,5	;RP0=0, select bank0
  6575     0FDE  1303               	bcf	3,6	;RP1=0, select bank0
  6576     0FDF  0833               	movf	___flmul@temp,w
  6577     0FE0  00AE               	movwf	___flmul@bexp
  6578     0FE1  30FF               	movlw	255
  6579     0FE2  05AF               	andwf	___flmul@prod,f
  6580     0FE3  30FF               	movlw	255
  6581     0FE4  05B0               	andwf	___flmul@prod+1,f
  6582     0FE5  307F               	movlw	127
  6583     0FE6  05B1               	andwf	___flmul@prod+2,f
  6584     0FE7  3000               	movlw	0
  6585     0FE8  05B2               	andwf	___flmul@prod+3,f
  6586     0FE9                     i1l2951:
  6587     0FE9  1C2E               	btfss	___flmul@bexp,0
  6588     0FEA  2FEC               	goto	u423_21
  6589     0FEB  2FED               	goto	u423_20
  6590     0FEC                     u423_21:
  6591     0FEC  2FEE               	goto	i1l2955
  6592     0FED                     u423_20:
  6593     0FED                     i1l2953:
  6594     0FED  17B1               	bsf	___flmul@prod+2,7
  6595     0FEE                     i1l2955:
  6596     0FEE  082E               	movf	___flmul@bexp,w
  6597     0FEF  00F9               	movwf	??___flmul
  6598     0FF0  1003               	clrc
  6599     0FF1  0C79               	rrf	??___flmul,w
  6600     0FF2  00B2               	movwf	___flmul@prod+3
  6601     0FF3                     i1l606:
  6602     0FF3  0828               	movf	___flmul@sign,w
  6603     0FF4  00F9               	movwf	??___flmul
  6604     0FF5  0879               	movf	??___flmul,w
  6605     0FF6  04B2               	iorwf	___flmul@prod+3,f
  6606     0FF7                     i1l2957:
  6607     0FF7  0832               	movf	___flmul@prod+3,w
  6608     0FF8  00A3               	movwf	?___flmul+3
  6609     0FF9  0831               	movf	___flmul@prod+2,w
  6610     0FFA  00A2               	movwf	?___flmul+2
  6611     0FFB  0830               	movf	___flmul@prod+1,w
  6612     0FFC  00A1               	movwf	?___flmul+1
  6613     0FFD  082F               	movf	___flmul@prod,w
  6614     0FFE  00A0               	movwf	?___flmul
  6615     0FFF                     i1l594:
  6616     0FFF  0008               	return
  6617     1000                     __end_of___flmul:
  6618                           
  6619                           	psect	text23
  6620     1F15                     __ptext23:	
  6621 ;; *************** function __Umul8_16 *****************
  6622 ;; Defined at:
  6623 ;;		line 4 in file "/opt/microchip/xc8/v2.45/pic/sources/c99/common/Umul8_16.c"
  6624 ;; Parameters:    Size  Location     Type
  6625 ;;  multiplier      1    wreg     unsigned char 
  6626 ;;  multiplicand    1    0[COMMON] unsigned char 
  6627 ;; Auto vars:     Size  Location     Type
  6628 ;;  multiplier      1    8[COMMON] unsigned char 
  6629 ;;  word_mpld       2    6[COMMON] unsigned short 
  6630 ;;  product         2    4[COMMON] unsigned short 
  6631 ;; Return value:  Size  Location     Type
  6632 ;;                  2    0[COMMON] unsigned int 
  6633 ;; Registers used:
  6634 ;;		wreg, status,2, status,0
  6635 ;; Tracked objects:
  6636 ;;		On entry : 0/0
  6637 ;;		On exit  : 0/0
  6638 ;;		Unchanged: 0/0
  6639 ;; Data sizes:     COMMON   BANK0   BANK1   BANK3   BANK2
  6640 ;;      Params:         2       0       0       0       0
  6641 ;;      Locals:         5       0       0       0       0
  6642 ;;      Temps:          2       0       0       0       0
  6643 ;;      Totals:         9       0       0       0       0
  6644 ;;Total ram usage:        9 bytes
  6645 ;; Hardware stack levels used: 1
  6646 ;; This function calls:
  6647 ;;		Nothing
  6648 ;; This function is called by:
  6649 ;;		___flmul
  6650 ;; This function uses a non-reentrant model
  6651 ;;
  6652                           
  6653     1F15                     __Umul8_16:	
  6654                           ;psect for function __Umul8_16
  6655                           
  6656                           
  6657                           ;incstack = 0
  6658 ;; hardware stack exceeded
  6659                           ; Regs used in __Umul8_16: [wreg+status,2+status,0]
  6660                           ;__Umul8_16@multiplier stored from wreg
  6661     1F15  00F8               	movwf	__Umul8_16@multiplier
  6662     1F16                     i1l2479:
  6663     1F16  01F4               	clrf	__Umul8_16@product
  6664     1F17  01F5               	clrf	__Umul8_16@product+1
  6665     1F18                     i1l2481:
  6666     1F18  0870               	movf	__Umul8_16@multiplicand,w
  6667     1F19  00F2               	movwf	??__Umul8_16
  6668     1F1A  01F3               	clrf	??__Umul8_16+1
  6669     1F1B  0872               	movf	??__Umul8_16,w
  6670     1F1C  00F6               	movwf	__Umul8_16@word_mpld
  6671     1F1D  0873               	movf	??__Umul8_16+1,w
  6672     1F1E  00F7               	movwf	__Umul8_16@word_mpld+1
  6673     1F1F                     i1l2483:
  6674     1F1F  1C78               	btfss	__Umul8_16@multiplier,0
  6675     1F20  2F22               	goto	u309_21
  6676     1F21  2F23               	goto	u309_20
  6677     1F22                     u309_21:
  6678     1F22  2F29               	goto	i1l613
  6679     1F23                     u309_20:
  6680     1F23                     i1l2485:
  6681     1F23  0876               	movf	__Umul8_16@word_mpld,w
  6682     1F24  07F4               	addwf	__Umul8_16@product,f
  6683     1F25  1803               	skipnc
  6684     1F26  0AF5               	incf	__Umul8_16@product+1,f
  6685     1F27  0877               	movf	__Umul8_16@word_mpld+1,w
  6686     1F28  07F5               	addwf	__Umul8_16@product+1,f
  6687     1F29                     i1l613:
  6688     1F29  3001               	movlw	1
  6689     1F2A                     u310_25:
  6690     1F2A  1003               	clrc
  6691     1F2B  0DF6               	rlf	__Umul8_16@word_mpld,f
  6692     1F2C  0DF7               	rlf	__Umul8_16@word_mpld+1,f
  6693     1F2D  3EFF               	addlw	-1
  6694     1F2E  1D03               	skipz
  6695     1F2F  2F2A               	goto	u310_25
  6696     1F30  1003               	clrc
  6697     1F31  0CF8               	rrf	__Umul8_16@multiplier,f
  6698     1F32                     i1l2487:
  6699     1F32  0878               	movf	__Umul8_16@multiplier,w
  6700     1F33  1D03               	btfss	3,2
  6701     1F34  2F36               	goto	u311_21
  6702     1F35  2F37               	goto	u311_20
  6703     1F36                     u311_21:
  6704     1F36  2F1F               	goto	i1l2483
  6705     1F37                     u311_20:
  6706     1F37                     i1l2489:
  6707     1F37  0875               	movf	__Umul8_16@product+1,w
  6708     1F38  00F1               	movwf	?__Umul8_16+1
  6709     1F39  0874               	movf	__Umul8_16@product,w
  6710     1F3A  00F0               	movwf	?__Umul8_16
  6711     1F3B                     i1l615:
  6712     1F3B  0008               	return
  6713     1F3C                     __end_of__Umul8_16:
  6714                           
  6715                           	psect	text24
  6716     073D                     __ptext24:	
  6717 ;; *************** function ___flge *****************
  6718 ;; Defined at:
  6719 ;;		line 4 in file "/opt/microchip/xc8/v2.45/pic/sources/c99/common/flge.c"
  6720 ;; Parameters:    Size  Location     Type
  6721 ;;  ff1             4   21[BANK0 ] unsigned int 
  6722 ;;  ff2             4   25[BANK0 ] unsigned int 
  6723 ;; Auto vars:     Size  Location     Type
  6724 ;;		None
  6725 ;; Return value:  Size  Location     Type
  6726 ;;		None               void
  6727 ;; Registers used:
  6728 ;;		wreg, status,2, status,0
  6729 ;; Tracked objects:
  6730 ;;		On entry : 0/0
  6731 ;;		On exit  : 0/0
  6732 ;;		Unchanged: 0/0
  6733 ;; Data sizes:     COMMON   BANK0   BANK1   BANK3   BANK2
  6734 ;;      Params:         0       8       0       0       0
  6735 ;;      Locals:         0       0       0       0       0
  6736 ;;      Temps:          0       4       0       0       0
  6737 ;;      Totals:         0      12       0       0       0
  6738 ;;Total ram usage:       12 bytes
  6739 ;; Hardware stack levels used: 1
  6740 ;; This function calls:
  6741 ;;		Nothing
  6742 ;; This function is called by:
  6743 ;;		_efgtoa
  6744 ;; This function uses a non-reentrant model
  6745 ;;
  6746                           
  6747     073D                     ___flge:	
  6748                           ;psect for function ___flge
  6749                           
  6750     073D                     i1l2609:	
  6751                           ;incstack = 0
  6752                           ; Regs used in ___flge: [wreg+status,2+status,0]
  6753                           
  6754     073D  3000               	movlw	0
  6755     073E  1283               	bcf	3,5	;RP0=0, select bank0
  6756     073F  1303               	bcf	3,6	;RP1=0, select bank0
  6757     0740  0535               	andwf	___flge@ff1,w
  6758     0741  00BD               	movwf	??___flge
  6759     0742  3000               	movlw	0
  6760     0743  0536               	andwf	___flge@ff1+1,w
  6761     0744  00BE               	movwf	??___flge+1
  6762     0745  3080               	movlw	128
  6763     0746  0537               	andwf	___flge@ff1+2,w
  6764     0747  00BF               	movwf	??___flge+2
  6765     0748  307F               	movlw	127
  6766     0749  0538               	andwf	___flge@ff1+3,w
  6767     074A  00C0               	movwf	??___flge+3
  6768     074B  0840               	movf	??___flge+3,w
  6769     074C  043F               	iorwf	??___flge+2,w
  6770     074D  043E               	iorwf	??___flge+1,w
  6771     074E  043D               	iorwf	??___flge,w
  6772     074F  1D03               	skipz
  6773     0750  2F52               	goto	u339_21
  6774     0751  2F53               	goto	u339_20
  6775     0752                     u339_21:
  6776     0752  2F5B               	goto	i1l375
  6777     0753                     u339_20:
  6778     0753                     i1l2611:
  6779     0753  3000               	movlw	0
  6780     0754  00B8               	movwf	___flge@ff1+3
  6781     0755  3000               	movlw	0
  6782     0756  00B7               	movwf	___flge@ff1+2
  6783     0757  3000               	movlw	0
  6784     0758  00B6               	movwf	___flge@ff1+1
  6785     0759  3000               	movlw	0
  6786     075A  00B5               	movwf	___flge@ff1
  6787     075B                     i1l375:
  6788     075B  3000               	movlw	0
  6789     075C  0539               	andwf	___flge@ff2,w
  6790     075D  00BD               	movwf	??___flge
  6791     075E  3000               	movlw	0
  6792     075F  053A               	andwf	___flge@ff2+1,w
  6793     0760  00BE               	movwf	??___flge+1
  6794     0761  3080               	movlw	128
  6795     0762  053B               	andwf	___flge@ff2+2,w
  6796     0763  00BF               	movwf	??___flge+2
  6797     0764  307F               	movlw	127
  6798     0765  053C               	andwf	___flge@ff2+3,w
  6799     0766  00C0               	movwf	??___flge+3
  6800     0767  0840               	movf	??___flge+3,w
  6801     0768  043F               	iorwf	??___flge+2,w
  6802     0769  043E               	iorwf	??___flge+1,w
  6803     076A  043D               	iorwf	??___flge,w
  6804     076B  1D03               	skipz
  6805     076C  2F6E               	goto	u340_21
  6806     076D  2F6F               	goto	u340_20
  6807     076E                     u340_21:
  6808     076E  2F77               	goto	i1l2615
  6809     076F                     u340_20:
  6810     076F                     i1l2613:
  6811     076F  3000               	movlw	0
  6812     0770  00BC               	movwf	___flge@ff2+3
  6813     0771  3000               	movlw	0
  6814     0772  00BB               	movwf	___flge@ff2+2
  6815     0773  3000               	movlw	0
  6816     0774  00BA               	movwf	___flge@ff2+1
  6817     0775  3000               	movlw	0
  6818     0776  00B9               	movwf	___flge@ff2
  6819     0777                     i1l2615:
  6820     0777  1FB8               	btfss	___flge@ff1+3,7
  6821     0778  2F7A               	goto	u341_21
  6822     0779  2F7B               	goto	u341_20
  6823     077A                     u341_21:
  6824     077A  2F9F               	goto	i1l2619
  6825     077B                     u341_20:
  6826     077B                     i1l2617:
  6827     077B  3000               	movlw	0
  6828     077C  00BD               	movwf	??___flge
  6829     077D  3000               	movlw	0
  6830     077E  00BE               	movwf	??___flge+1
  6831     077F  3000               	movlw	0
  6832     0780  00BF               	movwf	??___flge+2
  6833     0781  3080               	movlw	128
  6834     0782  00C0               	movwf	??___flge+3
  6835     0783  0835               	movf	___flge@ff1,w
  6836     0784  02BD               	subwf	??___flge,f
  6837     0785  0836               	movf	___flge@ff1+1,w
  6838     0786  1C03               	skipc
  6839     0787  0F36               	incfsz	___flge@ff1+1,w
  6840     0788  2F8A               	goto	u342_21
  6841     0789  2F8B               	goto	u342_22
  6842     078A                     u342_21:
  6843     078A  02BE               	subwf	??___flge+1,f
  6844     078B                     u342_22:
  6845     078B  0837               	movf	___flge@ff1+2,w
  6846     078C  1C03               	skipc
  6847     078D  0F37               	incfsz	___flge@ff1+2,w
  6848     078E  2F90               	goto	u342_23
  6849     078F  2F91               	goto	u342_24
  6850     0790                     u342_23:
  6851     0790  02BF               	subwf	??___flge+2,f
  6852     0791                     u342_24:
  6853     0791  0838               	movf	___flge@ff1+3,w
  6854     0792  1C03               	skipc
  6855     0793  0F38               	incfsz	___flge@ff1+3,w
  6856     0794  2F96               	goto	u342_25
  6857     0795  2F97               	goto	u342_26
  6858     0796                     u342_25:
  6859     0796  02C0               	subwf	??___flge+3,f
  6860     0797                     u342_26:
  6861     0797  0840               	movf	??___flge+3,w
  6862     0798  00B8               	movwf	___flge@ff1+3
  6863     0799  083F               	movf	??___flge+2,w
  6864     079A  00B7               	movwf	___flge@ff1+2
  6865     079B  083E               	movf	??___flge+1,w
  6866     079C  00B6               	movwf	___flge@ff1+1
  6867     079D  083D               	movf	??___flge,w
  6868     079E  00B5               	movwf	___flge@ff1
  6869     079F                     i1l2619:
  6870     079F  1FBC               	btfss	___flge@ff2+3,7
  6871     07A0  2FA2               	goto	u343_21
  6872     07A1  2FA3               	goto	u343_20
  6873     07A2                     u343_21:
  6874     07A2  2FC7               	goto	i1l378
  6875     07A3                     u343_20:
  6876     07A3                     i1l2621:
  6877     07A3  3000               	movlw	0
  6878     07A4  00BD               	movwf	??___flge
  6879     07A5  3000               	movlw	0
  6880     07A6  00BE               	movwf	??___flge+1
  6881     07A7  3000               	movlw	0
  6882     07A8  00BF               	movwf	??___flge+2
  6883     07A9  3080               	movlw	128
  6884     07AA  00C0               	movwf	??___flge+3
  6885     07AB  0839               	movf	___flge@ff2,w
  6886     07AC  02BD               	subwf	??___flge,f
  6887     07AD  083A               	movf	___flge@ff2+1,w
  6888     07AE  1C03               	skipc
  6889     07AF  0F3A               	incfsz	___flge@ff2+1,w
  6890     07B0  2FB2               	goto	u344_21
  6891     07B1  2FB3               	goto	u344_22
  6892     07B2                     u344_21:
  6893     07B2  02BE               	subwf	??___flge+1,f
  6894     07B3                     u344_22:
  6895     07B3  083B               	movf	___flge@ff2+2,w
  6896     07B4  1C03               	skipc
  6897     07B5  0F3B               	incfsz	___flge@ff2+2,w
  6898     07B6  2FB8               	goto	u344_23
  6899     07B7  2FB9               	goto	u344_24
  6900     07B8                     u344_23:
  6901     07B8  02BF               	subwf	??___flge+2,f
  6902     07B9                     u344_24:
  6903     07B9  083C               	movf	___flge@ff2+3,w
  6904     07BA  1C03               	skipc
  6905     07BB  0F3C               	incfsz	___flge@ff2+3,w
  6906     07BC  2FBE               	goto	u344_25
  6907     07BD  2FBF               	goto	u344_26
  6908     07BE                     u344_25:
  6909     07BE  02C0               	subwf	??___flge+3,f
  6910     07BF                     u344_26:
  6911     07BF  0840               	movf	??___flge+3,w
  6912     07C0  00BC               	movwf	___flge@ff2+3
  6913     07C1  083F               	movf	??___flge+2,w
  6914     07C2  00BB               	movwf	___flge@ff2+2
  6915     07C3  083E               	movf	??___flge+1,w
  6916     07C4  00BA               	movwf	___flge@ff2+1
  6917     07C5  083D               	movf	??___flge,w
  6918     07C6  00B9               	movwf	___flge@ff2
  6919     07C7                     i1l378:
  6920     07C7  3080               	movlw	128
  6921     07C8  06B8               	xorwf	___flge@ff1+3,f
  6922     07C9  3080               	movlw	128
  6923     07CA  06BC               	xorwf	___flge@ff2+3,f
  6924     07CB  083C               	movf	___flge@ff2+3,w
  6925     07CC  0238               	subwf	___flge@ff1+3,w
  6926     07CD  1D03               	skipz
  6927     07CE  2FD9               	goto	u345_25
  6928     07CF  083B               	movf	___flge@ff2+2,w
  6929     07D0  0237               	subwf	___flge@ff1+2,w
  6930     07D1  1D03               	skipz
  6931     07D2  2FD9               	goto	u345_25
  6932     07D3  083A               	movf	___flge@ff2+1,w
  6933     07D4  0236               	subwf	___flge@ff1+1,w
  6934     07D5  1D03               	skipz
  6935     07D6  2FD9               	goto	u345_25
  6936     07D7  0839               	movf	___flge@ff2,w
  6937     07D8  0235               	subwf	___flge@ff1,w
  6938     07D9                     u345_25:
  6939     07D9  1803               	skipnc
  6940     07DA  2FDC               	goto	u345_21
  6941     07DB  2FDD               	goto	u345_20
  6942     07DC                     u345_21:
  6943     07DC  2FDF               	goto	i1l2625
  6944     07DD                     u345_20:
  6945     07DD                     i1l2623:
  6946     07DD  1003               	clrc
  6947     07DE  2FE0               	goto	i1l383
  6948     07DF                     i1l2625:
  6949     07DF  1403               	setc
  6950     07E0                     i1l383:
  6951     07E0  0008               	return
  6952     07E1                     __end_of___flge:
  6953                           
  6954                           	psect	text25
  6955     1060                     __ptext25:	
  6956 ;; *************** function ___fleq *****************
  6957 ;; Defined at:
  6958 ;;		line 4 in file "/opt/microchip/xc8/v2.45/pic/sources/c99/common/fleq.c"
  6959 ;; Parameters:    Size  Location     Type
  6960 ;;  ff1             4    0[COMMON] unsigned int 
  6961 ;;  ff2             4    4[COMMON] unsigned int 
  6962 ;; Auto vars:     Size  Location     Type
  6963 ;;		None
  6964 ;; Return value:  Size  Location     Type
  6965 ;;		None               void
  6966 ;; Registers used:
  6967 ;;		wreg, status,2, status,0
  6968 ;; Tracked objects:
  6969 ;;		On entry : 0/0
  6970 ;;		On exit  : 0/0
  6971 ;;		Unchanged: 0/0
  6972 ;; Data sizes:     COMMON   BANK0   BANK1   BANK3   BANK2
  6973 ;;      Params:         8       0       0       0       0
  6974 ;;      Locals:         0       0       0       0       0
  6975 ;;      Temps:          4       0       0       0       0
  6976 ;;      Totals:        12       0       0       0       0
  6977 ;;Total ram usage:       12 bytes
  6978 ;; Hardware stack levels used: 1
  6979 ;; This function calls:
  6980 ;;		Nothing
  6981 ;; This function is called by:
  6982 ;;		_efgtoa
  6983 ;; This function uses a non-reentrant model
  6984 ;;
  6985                           
  6986     1060                     ___fleq:	
  6987                           ;psect for function ___fleq
  6988                           
  6989     1060                     i1l2597:	
  6990                           ;incstack = 0
  6991                           ; Regs used in ___fleq: [wreg+status,2+status,0]
  6992                           
  6993     1060  3000               	movlw	0
  6994     1061  0570               	andwf	___fleq@ff1,w
  6995     1062  00F8               	movwf	??___fleq
  6996     1063  3000               	movlw	0
  6997     1064  0571               	andwf	___fleq@ff1+1,w
  6998     1065  00F9               	movwf	??___fleq+1
  6999     1066  3080               	movlw	128
  7000     1067  0572               	andwf	___fleq@ff1+2,w
  7001     1068  00FA               	movwf	??___fleq+2
  7002     1069  307F               	movlw	127
  7003     106A  0573               	andwf	___fleq@ff1+3,w
  7004     106B  00FB               	movwf	??___fleq+3
  7005     106C  087B               	movf	??___fleq+3,w
  7006     106D  047A               	iorwf	??___fleq+2,w
  7007     106E  0479               	iorwf	??___fleq+1,w
  7008     106F  0478               	iorwf	??___fleq,w
  7009     1070  1D03               	skipz
  7010     1071  2873               	goto	u336_21
  7011     1072  2874               	goto	u336_20
  7012     1073                     u336_21:
  7013     1073  287C               	goto	i1l366
  7014     1074                     u336_20:
  7015     1074                     i1l2599:
  7016     1074  3000               	movlw	0
  7017     1075  00F3               	movwf	___fleq@ff1+3
  7018     1076  3000               	movlw	0
  7019     1077  00F2               	movwf	___fleq@ff1+2
  7020     1078  3000               	movlw	0
  7021     1079  00F1               	movwf	___fleq@ff1+1
  7022     107A  3000               	movlw	0
  7023     107B  00F0               	movwf	___fleq@ff1
  7024     107C                     i1l366:
  7025     107C  3000               	movlw	0
  7026     107D  0574               	andwf	___fleq@ff2,w
  7027     107E  00F8               	movwf	??___fleq
  7028     107F  3000               	movlw	0
  7029     1080  0575               	andwf	___fleq@ff2+1,w
  7030     1081  00F9               	movwf	??___fleq+1
  7031     1082  3080               	movlw	128
  7032     1083  0576               	andwf	___fleq@ff2+2,w
  7033     1084  00FA               	movwf	??___fleq+2
  7034     1085  307F               	movlw	127
  7035     1086  0577               	andwf	___fleq@ff2+3,w
  7036     1087  00FB               	movwf	??___fleq+3
  7037     1088  087B               	movf	??___fleq+3,w
  7038     1089  047A               	iorwf	??___fleq+2,w
  7039     108A  0479               	iorwf	??___fleq+1,w
  7040     108B  0478               	iorwf	??___fleq,w
  7041     108C  1D03               	skipz
  7042     108D  288F               	goto	u337_21
  7043     108E  2890               	goto	u337_20
  7044     108F                     u337_21:
  7045     108F  2898               	goto	i1l367
  7046     1090                     u337_20:
  7047     1090                     i1l2601:
  7048     1090  3000               	movlw	0
  7049     1091  00F7               	movwf	___fleq@ff2+3
  7050     1092  3000               	movlw	0
  7051     1093  00F6               	movwf	___fleq@ff2+2
  7052     1094  3000               	movlw	0
  7053     1095  00F5               	movwf	___fleq@ff2+1
  7054     1096  3000               	movlw	0
  7055     1097  00F4               	movwf	___fleq@ff2
  7056     1098                     i1l367:
  7057     1098  0877               	movf	___fleq@ff2+3,w
  7058     1099  0673               	xorwf	___fleq@ff1+3,w
  7059     109A  1D03               	skipz
  7060     109B  28A6               	goto	u338_25
  7061     109C  0876               	movf	___fleq@ff2+2,w
  7062     109D  0672               	xorwf	___fleq@ff1+2,w
  7063     109E  1D03               	skipz
  7064     109F  28A6               	goto	u338_25
  7065     10A0  0875               	movf	___fleq@ff2+1,w
  7066     10A1  0671               	xorwf	___fleq@ff1+1,w
  7067     10A2  1D03               	skipz
  7068     10A3  28A6               	goto	u338_25
  7069     10A4  0874               	movf	___fleq@ff2,w
  7070     10A5  0670               	xorwf	___fleq@ff1,w
  7071     10A6                     u338_25:
  7072     10A6  1903               	skipnz
  7073     10A7  28A9               	goto	u338_21
  7074     10A8  28AA               	goto	u338_20
  7075     10A9                     u338_21:
  7076     10A9  28AC               	goto	i1l2605
  7077     10AA                     u338_20:
  7078     10AA                     i1l2603:
  7079     10AA  1003               	clrc
  7080     10AB  28AD               	goto	i1l372
  7081     10AC                     i1l2605:
  7082     10AC  1403               	setc
  7083     10AD                     i1l372:
  7084     10AD  0008               	return
  7085     10AE                     __end_of___fleq:
  7086                           
  7087                           	psect	text26
  7088     1627                     __ptext26:	
  7089 ;; *************** function ___fldiv *****************
  7090 ;; Defined at:
  7091 ;;		line 8 in file "/opt/microchip/xc8/v2.45/pic/sources/c99/common/sprcdiv.c"
  7092 ;; Parameters:    Size  Location     Type
  7093 ;;  a               4    0[COMMON] unsigned int 
  7094 ;;  b               4    4[COMMON] unsigned int 
  7095 ;; Auto vars:     Size  Location     Type
  7096 ;;  grs             4    7[BANK0 ] unsigned long 
  7097 ;;  rem             4    0[BANK0 ] unsigned long 
  7098 ;;  new_exp         2    5[BANK0 ] short 
  7099 ;;  aexp            1   12[BANK0 ] unsigned char 
  7100 ;;  bexp            1   11[BANK0 ] unsigned char 
  7101 ;;  sign            1    4[BANK0 ] unsigned char 
  7102 ;; Return value:  Size  Location     Type
  7103 ;;                  4    0[COMMON] unsigned char 
  7104 ;; Registers used:
  7105 ;;		wreg, status,2, status,0, btemp+1
  7106 ;; Tracked objects:
  7107 ;;		On entry : 0/0
  7108 ;;		On exit  : 0/0
  7109 ;;		Unchanged: 0/0
  7110 ;; Data sizes:     COMMON   BANK0   BANK1   BANK3   BANK2
  7111 ;;      Params:         8       0       0       0       0
  7112 ;;      Locals:         0      13       0       0       0
  7113 ;;      Temps:          5       0       0       0       0
  7114 ;;      Totals:        13      13       0       0       0
  7115 ;;Total ram usage:       26 bytes
  7116 ;; Hardware stack levels used: 1
  7117 ;; This function calls:
  7118 ;;		Nothing
  7119 ;; This function is called by:
  7120 ;;		_efgtoa
  7121 ;; This function uses a non-reentrant model
  7122 ;;
  7123                           
  7124     1627                     ___fldiv:	
  7125                           ;psect for function ___fldiv
  7126                           
  7127     1627                     i1l2679:	
  7128                           ;incstack = 0
  7129                           ; Regs used in ___fldiv: [wreg+status,2+status,0+btemp+1]
  7130                           
  7131     1627  0877               	movf	___fldiv@b+3,w
  7132     1628  3980               	andlw	128
  7133     1629  1283               	bcf	3,5	;RP0=0, select bank0
  7134     162A  1303               	bcf	3,6	;RP1=0, select bank0
  7135     162B  00A4               	movwf	___fldiv@sign
  7136     162C                     i1l2681:
  7137     162C  0877               	movf	___fldiv@b+3,w
  7138     162D  00F8               	movwf	??___fldiv
  7139     162E  0778               	addwf	??___fldiv,w
  7140     162F  00AB               	movwf	___fldiv@bexp
  7141     1630                     i1l2683:
  7142     1630  1FF6               	btfss	___fldiv@b+2,7
  7143     1631  2E33               	goto	u357_21
  7144     1632  2E34               	goto	u357_20
  7145     1633                     u357_21:
  7146     1633  2E35               	goto	i1l2687
  7147     1634                     u357_20:
  7148     1634                     i1l2685:
  7149     1634  142B               	bsf	___fldiv@bexp,0
  7150     1635                     i1l2687:
  7151     1635  082B               	movf	___fldiv@bexp,w
  7152     1636  1903               	btfsc	3,2
  7153     1637  2E39               	goto	u358_21
  7154     1638  2E3A               	goto	u358_20
  7155     1639                     u358_21:
  7156     1639  2E4A               	goto	i1l2697
  7157     163A                     u358_20:
  7158     163A                     i1l2689:
  7159     163A  0A2B               	incf	___fldiv@bexp,w
  7160     163B  1D03               	btfss	3,2
  7161     163C  2E3E               	goto	u359_21
  7162     163D  2E3F               	goto	u359_20
  7163     163E                     u359_21:
  7164     163E  2E47               	goto	i1l2693
  7165     163F                     u359_20:
  7166     163F                     i1l2691:
  7167     163F  3000               	movlw	0
  7168     1640  00F7               	movwf	___fldiv@b+3
  7169     1641  3000               	movlw	0
  7170     1642  00F6               	movwf	___fldiv@b+2
  7171     1643  3000               	movlw	0
  7172     1644  00F5               	movwf	___fldiv@b+1
  7173     1645  3000               	movlw	0
  7174     1646  00F4               	movwf	___fldiv@b
  7175     1647                     i1l2693:
  7176     1647  17F6               	bsf	___fldiv@b+2,7
  7177     1648                     i1l2695:
  7178     1648  01F7               	clrf	___fldiv@b+3
  7179     1649  2E52               	goto	i1l2699
  7180     164A                     i1l2697:
  7181     164A  3000               	movlw	0
  7182     164B  00F7               	movwf	___fldiv@b+3
  7183     164C  3000               	movlw	0
  7184     164D  00F6               	movwf	___fldiv@b+2
  7185     164E  3000               	movlw	0
  7186     164F  00F5               	movwf	___fldiv@b+1
  7187     1650  3000               	movlw	0
  7188     1651  00F4               	movwf	___fldiv@b
  7189     1652                     i1l2699:
  7190     1652  0873               	movf	___fldiv@a+3,w
  7191     1653  3980               	andlw	128
  7192     1654  00F8               	movwf	??___fldiv
  7193     1655  0878               	movf	??___fldiv,w
  7194     1656  06A4               	xorwf	___fldiv@sign,f
  7195     1657                     i1l2701:
  7196     1657  0873               	movf	___fldiv@a+3,w
  7197     1658  00F8               	movwf	??___fldiv
  7198     1659  0778               	addwf	??___fldiv,w
  7199     165A  00AC               	movwf	___fldiv@aexp
  7200     165B                     i1l2703:
  7201     165B  1FF2               	btfss	___fldiv@a+2,7
  7202     165C  2E5E               	goto	u360_21
  7203     165D  2E5F               	goto	u360_20
  7204     165E                     u360_21:
  7205     165E  2E60               	goto	i1l2707
  7206     165F                     u360_20:
  7207     165F                     i1l2705:
  7208     165F  142C               	bsf	___fldiv@aexp,0
  7209     1660                     i1l2707:
  7210     1660  082C               	movf	___fldiv@aexp,w
  7211     1661  1903               	btfsc	3,2
  7212     1662  2E64               	goto	u361_21
  7213     1663  2E65               	goto	u361_20
  7214     1664                     u361_21:
  7215     1664  2E75               	goto	i1l2717
  7216     1665                     u361_20:
  7217     1665                     i1l2709:
  7218     1665  0A2C               	incf	___fldiv@aexp,w
  7219     1666  1D03               	btfss	3,2
  7220     1667  2E69               	goto	u362_21
  7221     1668  2E6A               	goto	u362_20
  7222     1669                     u362_21:
  7223     1669  2E72               	goto	i1l2713
  7224     166A                     u362_20:
  7225     166A                     i1l2711:
  7226     166A  3000               	movlw	0
  7227     166B  00F3               	movwf	___fldiv@a+3
  7228     166C  3000               	movlw	0
  7229     166D  00F2               	movwf	___fldiv@a+2
  7230     166E  3000               	movlw	0
  7231     166F  00F1               	movwf	___fldiv@a+1
  7232     1670  3000               	movlw	0
  7233     1671  00F0               	movwf	___fldiv@a
  7234     1672                     i1l2713:
  7235     1672  17F2               	bsf	___fldiv@a+2,7
  7236     1673                     i1l2715:
  7237     1673  01F3               	clrf	___fldiv@a+3
  7238     1674  2E7D               	goto	i1l554
  7239     1675                     i1l2717:
  7240     1675  3000               	movlw	0
  7241     1676  00F3               	movwf	___fldiv@a+3
  7242     1677  3000               	movlw	0
  7243     1678  00F2               	movwf	___fldiv@a+2
  7244     1679  3000               	movlw	0
  7245     167A  00F1               	movwf	___fldiv@a+1
  7246     167B  3000               	movlw	0
  7247     167C  00F0               	movwf	___fldiv@a
  7248     167D                     i1l554:
  7249     167D  0873               	movf	___fldiv@a+3,w
  7250     167E  0472               	iorwf	___fldiv@a+2,w
  7251     167F  0471               	iorwf	___fldiv@a+1,w
  7252     1680  0470               	iorwf	___fldiv@a,w
  7253     1681  1D03               	skipz
  7254     1682  2E84               	goto	u363_21
  7255     1683  2E85               	goto	u363_20
  7256     1684                     u363_21:
  7257     1684  2E9E               	goto	i1l2727
  7258     1685                     u363_20:
  7259     1685                     i1l2719:
  7260     1685  3000               	movlw	0
  7261     1686  00F7               	movwf	___fldiv@b+3
  7262     1687  3000               	movlw	0
  7263     1688  00F6               	movwf	___fldiv@b+2
  7264     1689  3000               	movlw	0
  7265     168A  00F5               	movwf	___fldiv@b+1
  7266     168B  3000               	movlw	0
  7267     168C  00F4               	movwf	___fldiv@b
  7268     168D  3080               	movlw	128
  7269     168E  04F6               	iorwf	___fldiv@b+2,f
  7270     168F  307F               	movlw	127
  7271     1690  04F7               	iorwf	___fldiv@b+3,f
  7272     1691                     i1l2721:
  7273     1691  0824               	movf	___fldiv@sign,w
  7274     1692  00F8               	movwf	??___fldiv
  7275     1693  0878               	movf	??___fldiv,w
  7276     1694  04F7               	iorwf	___fldiv@b+3,f
  7277     1695                     i1l2723:
  7278     1695  0877               	movf	___fldiv@b+3,w
  7279     1696  00F3               	movwf	?___fldiv+3
  7280     1697  0876               	movf	___fldiv@b+2,w
  7281     1698  00F2               	movwf	?___fldiv+2
  7282     1699  0875               	movf	___fldiv@b+1,w
  7283     169A  00F1               	movwf	?___fldiv+1
  7284     169B  0874               	movf	___fldiv@b,w
  7285     169C  00F0               	movwf	?___fldiv
  7286     169D  2FFF               	goto	i1l556
  7287     169E                     i1l2727:
  7288     169E  082B               	movf	___fldiv@bexp,w
  7289     169F  1D03               	btfss	3,2
  7290     16A0  2EA2               	goto	u364_21
  7291     16A1  2EA3               	goto	u364_20
  7292     16A2                     u364_21:
  7293     16A2  2EAC               	goto	i1l2733
  7294     16A3                     u364_20:
  7295     16A3                     i1l2729:
  7296     16A3  3000               	movlw	0
  7297     16A4  00F3               	movwf	?___fldiv+3
  7298     16A5  3000               	movlw	0
  7299     16A6  00F2               	movwf	?___fldiv+2
  7300     16A7  3000               	movlw	0
  7301     16A8  00F1               	movwf	?___fldiv+1
  7302     16A9  3000               	movlw	0
  7303     16AA  00F0               	movwf	?___fldiv
  7304     16AB  2FFF               	goto	i1l556
  7305     16AC                     i1l2733:
  7306     16AC  082B               	movf	___fldiv@bexp,w
  7307     16AD  00F8               	movwf	??___fldiv
  7308     16AE  01F9               	clrf	??___fldiv+1
  7309     16AF  0879               	movf	??___fldiv+1,w
  7310     16B0  00FB               	movwf	??___fldiv+3
  7311     16B1  082C               	movf	___fldiv@aexp,w
  7312     16B2  0278               	subwf	??___fldiv,w
  7313     16B3  00FA               	movwf	??___fldiv+2
  7314     16B4  1C03               	skipc
  7315     16B5  03FB               	decf	??___fldiv+3,f
  7316     16B6  087A               	movf	??___fldiv+2,w
  7317     16B7  3E7F               	addlw	127
  7318     16B8  00A5               	movwf	___fldiv@new_exp
  7319     16B9  087B               	movf	??___fldiv+3,w
  7320     16BA  1803               	skipnc
  7321     16BB  3E01               	addlw	1
  7322     16BC  3E00               	addlw	0
  7323     16BD  00A6               	movwf	___fldiv@new_exp+1
  7324     16BE                     i1l2735:
  7325     16BE  0877               	movf	___fldiv@b+3,w
  7326     16BF  00A3               	movwf	___fldiv@rem+3
  7327     16C0  0876               	movf	___fldiv@b+2,w
  7328     16C1  00A2               	movwf	___fldiv@rem+2
  7329     16C2  0875               	movf	___fldiv@b+1,w
  7330     16C3  00A1               	movwf	___fldiv@rem+1
  7331     16C4  0874               	movf	___fldiv@b,w
  7332     16C5  00A0               	movwf	___fldiv@rem
  7333     16C6                     i1l2737:
  7334     16C6  3000               	movlw	0
  7335     16C7  00F7               	movwf	___fldiv@b+3
  7336     16C8  3000               	movlw	0
  7337     16C9  00F6               	movwf	___fldiv@b+2
  7338     16CA  3000               	movlw	0
  7339     16CB  00F5               	movwf	___fldiv@b+1
  7340     16CC  3000               	movlw	0
  7341     16CD  00F4               	movwf	___fldiv@b
  7342     16CE                     i1l2739:
  7343     16CE  3000               	movlw	0
  7344     16CF  00AA               	movwf	___fldiv@grs+3
  7345     16D0  3000               	movlw	0
  7346     16D1  00A9               	movwf	___fldiv@grs+2
  7347     16D2  3000               	movlw	0
  7348     16D3  00A8               	movwf	___fldiv@grs+1
  7349     16D4  3000               	movlw	0
  7350     16D5  00A7               	movwf	___fldiv@grs
  7351     16D6                     i1l2741:
  7352     16D6  01AC               	clrf	___fldiv@aexp
  7353     16D7  2F28               	goto	i1l2761
  7354     16D8                     i1l2743:
  7355     16D8  082C               	movf	___fldiv@aexp,w
  7356     16D9  1903               	btfsc	3,2
  7357     16DA  2EDC               	goto	u365_21
  7358     16DB  2EDD               	goto	u365_20
  7359     16DC                     u365_21:
  7360     16DC  2EFD               	goto	i1l2753
  7361     16DD                     u365_20:
  7362     16DD                     i1l2745:
  7363     16DD  3001               	movlw	1
  7364     16DE  00F8               	movwf	??___fldiv
  7365     16DF                     u366_25:
  7366     16DF  1003               	clrc
  7367     16E0  0DA0               	rlf	___fldiv@rem,f
  7368     16E1  0DA1               	rlf	___fldiv@rem+1,f
  7369     16E2  0DA2               	rlf	___fldiv@rem+2,f
  7370     16E3  0DA3               	rlf	___fldiv@rem+3,f
  7371     16E4  0BF8               	decfsz	??___fldiv,f
  7372     16E5  2EDF               	goto	u366_25
  7373     16E6  3001               	movlw	1
  7374     16E7  00F8               	movwf	??___fldiv
  7375     16E8                     u367_25:
  7376     16E8  1003               	clrc
  7377     16E9  0DF4               	rlf	___fldiv@b,f
  7378     16EA  0DF5               	rlf	___fldiv@b+1,f
  7379     16EB  0DF6               	rlf	___fldiv@b+2,f
  7380     16EC  0DF7               	rlf	___fldiv@b+3,f
  7381     16ED  0BF8               	decfsz	??___fldiv,f
  7382     16EE  2EE8               	goto	u367_25
  7383     16EF                     i1l2747:
  7384     16EF  1FAA               	btfss	___fldiv@grs+3,7
  7385     16F0  2EF2               	goto	u368_21
  7386     16F1  2EF3               	goto	u368_20
  7387     16F2                     u368_21:
  7388     16F2  2EF4               	goto	i1l2751
  7389     16F3                     u368_20:
  7390     16F3                     i1l2749:
  7391     16F3  1474               	bsf	___fldiv@b,0
  7392     16F4                     i1l2751:
  7393     16F4  3001               	movlw	1
  7394     16F5  00F8               	movwf	??___fldiv
  7395     16F6                     u369_25:
  7396     16F6  1003               	clrc
  7397     16F7  0DA7               	rlf	___fldiv@grs,f
  7398     16F8  0DA8               	rlf	___fldiv@grs+1,f
  7399     16F9  0DA9               	rlf	___fldiv@grs+2,f
  7400     16FA  0DAA               	rlf	___fldiv@grs+3,f
  7401     16FB  0BF8               	decfsz	??___fldiv,f
  7402     16FC  2EF6               	goto	u369_25
  7403     16FD                     i1l2753:
  7404     16FD  0873               	movf	___fldiv@a+3,w
  7405     16FE  0223               	subwf	___fldiv@rem+3,w
  7406     16FF  1D03               	skipz
  7407     1700  2F0B               	goto	u370_25
  7408     1701  0872               	movf	___fldiv@a+2,w
  7409     1702  0222               	subwf	___fldiv@rem+2,w
  7410     1703  1D03               	skipz
  7411     1704  2F0B               	goto	u370_25
  7412     1705  0871               	movf	___fldiv@a+1,w
  7413     1706  0221               	subwf	___fldiv@rem+1,w
  7414     1707  1D03               	skipz
  7415     1708  2F0B               	goto	u370_25
  7416     1709  0870               	movf	___fldiv@a,w
  7417     170A  0220               	subwf	___fldiv@rem,w
  7418     170B                     u370_25:
  7419     170B  1C03               	skipc
  7420     170C  2F0E               	goto	u370_21
  7421     170D  2F0F               	goto	u370_20
  7422     170E                     u370_21:
  7423     170E  2F24               	goto	i1l2759
  7424     170F                     u370_20:
  7425     170F                     i1l2755:
  7426     170F  172A               	bsf	___fldiv@grs+3,6
  7427     1710                     i1l2757:
  7428     1710  0870               	movf	___fldiv@a,w
  7429     1711  02A0               	subwf	___fldiv@rem,f
  7430     1712  0871               	movf	___fldiv@a+1,w
  7431     1713  1C03               	skipc
  7432     1714  0F71               	incfsz	___fldiv@a+1,w
  7433     1715  2F17               	goto	u371_25
  7434     1716  2F18               	goto	u371_26
  7435     1717                     u371_25:
  7436     1717  02A1               	subwf	___fldiv@rem+1,f
  7437     1718                     u371_26:
  7438     1718  0872               	movf	___fldiv@a+2,w
  7439     1719  1C03               	skipc
  7440     171A  0F72               	incfsz	___fldiv@a+2,w
  7441     171B  2F1D               	goto	u371_27
  7442     171C  2F1E               	goto	u371_28
  7443     171D                     u371_27:
  7444     171D  02A2               	subwf	___fldiv@rem+2,f
  7445     171E                     u371_28:
  7446     171E  0873               	movf	___fldiv@a+3,w
  7447     171F  1C03               	skipc
  7448     1720  0F73               	incfsz	___fldiv@a+3,w
  7449     1721  2F23               	goto	u371_29
  7450     1722  2F24               	goto	u371_20
  7451     1723                     u371_29:
  7452     1723  02A3               	subwf	___fldiv@rem+3,f
  7453     1724                     u371_20:
  7454     1724                     i1l2759:
  7455     1724  3001               	movlw	1
  7456     1725  00F8               	movwf	??___fldiv
  7457     1726  0878               	movf	??___fldiv,w
  7458     1727  07AC               	addwf	___fldiv@aexp,f
  7459     1728                     i1l2761:
  7460     1728  301A               	movlw	26
  7461     1729  022C               	subwf	___fldiv@aexp,w
  7462     172A  1C03               	skipc
  7463     172B  2F2D               	goto	u372_21
  7464     172C  2F2E               	goto	u372_20
  7465     172D                     u372_21:
  7466     172D  2ED8               	goto	i1l2743
  7467     172E                     u372_20:
  7468     172E                     i1l2763:
  7469     172E  0823               	movf	___fldiv@rem+3,w
  7470     172F  0422               	iorwf	___fldiv@rem+2,w
  7471     1730  0421               	iorwf	___fldiv@rem+1,w
  7472     1731  0420               	iorwf	___fldiv@rem,w
  7473     1732  1903               	skipnz
  7474     1733  2F35               	goto	u373_21
  7475     1734  2F36               	goto	u373_20
  7476     1735                     u373_21:
  7477     1735  2F55               	goto	i1l2777
  7478     1736                     u373_20:
  7479     1736                     i1l2765:
  7480     1736  1427               	bsf	___fldiv@grs,0
  7481     1737  2F55               	goto	i1l2777
  7482     1738                     i1l2767:
  7483     1738  3001               	movlw	1
  7484     1739  00F8               	movwf	??___fldiv
  7485     173A                     u374_25:
  7486     173A  1003               	clrc
  7487     173B  0DF4               	rlf	___fldiv@b,f
  7488     173C  0DF5               	rlf	___fldiv@b+1,f
  7489     173D  0DF6               	rlf	___fldiv@b+2,f
  7490     173E  0DF7               	rlf	___fldiv@b+3,f
  7491     173F  0BF8               	decfsz	??___fldiv,f
  7492     1740  2F3A               	goto	u374_25
  7493     1741                     i1l2769:
  7494     1741  1FAA               	btfss	___fldiv@grs+3,7
  7495     1742  2F44               	goto	u375_21
  7496     1743  2F45               	goto	u375_20
  7497     1744                     u375_21:
  7498     1744  2F46               	goto	i1l2773
  7499     1745                     u375_20:
  7500     1745                     i1l2771:
  7501     1745  1474               	bsf	___fldiv@b,0
  7502     1746                     i1l2773:
  7503     1746  3001               	movlw	1
  7504     1747  00F8               	movwf	??___fldiv
  7505     1748                     u376_25:
  7506     1748  1003               	clrc
  7507     1749  0DA7               	rlf	___fldiv@grs,f
  7508     174A  0DA8               	rlf	___fldiv@grs+1,f
  7509     174B  0DA9               	rlf	___fldiv@grs+2,f
  7510     174C  0DAA               	rlf	___fldiv@grs+3,f
  7511     174D  0BF8               	decfsz	??___fldiv,f
  7512     174E  2F48               	goto	u376_25
  7513     174F                     i1l2775:
  7514     174F  30FF               	movlw	255
  7515     1750  07A5               	addwf	___fldiv@new_exp,f
  7516     1751  1803               	skipnc
  7517     1752  0AA6               	incf	___fldiv@new_exp+1,f
  7518     1753  30FF               	movlw	255
  7519     1754  07A6               	addwf	___fldiv@new_exp+1,f
  7520     1755                     i1l2777:
  7521     1755  1FF6               	btfss	___fldiv@b+2,7
  7522     1756  2F58               	goto	u377_21
  7523     1757  2F59               	goto	u377_20
  7524     1758                     u377_21:
  7525     1758  2F38               	goto	i1l2767
  7526     1759                     u377_20:
  7527     1759                     i1l2779:
  7528     1759  01AC               	clrf	___fldiv@aexp
  7529     175A                     i1l2781:
  7530     175A  1FAA               	btfss	___fldiv@grs+3,7
  7531     175B  2F5D               	goto	u378_21
  7532     175C  2F5E               	goto	u378_20
  7533     175D                     u378_21:
  7534     175D  2F7A               	goto	i1l2789
  7535     175E                     u378_20:
  7536     175E                     i1l2783:
  7537     175E  30FF               	movlw	255
  7538     175F  0527               	andwf	___fldiv@grs,w
  7539     1760  00F8               	movwf	??___fldiv
  7540     1761  30FF               	movlw	255
  7541     1762  0528               	andwf	___fldiv@grs+1,w
  7542     1763  00F9               	movwf	??___fldiv+1
  7543     1764  30FF               	movlw	255
  7544     1765  0529               	andwf	___fldiv@grs+2,w
  7545     1766  00FA               	movwf	??___fldiv+2
  7546     1767  307F               	movlw	127
  7547     1768  052A               	andwf	___fldiv@grs+3,w
  7548     1769  00FB               	movwf	??___fldiv+3
  7549     176A  087B               	movf	??___fldiv+3,w
  7550     176B  047A               	iorwf	??___fldiv+2,w
  7551     176C  0479               	iorwf	??___fldiv+1,w
  7552     176D  0478               	iorwf	??___fldiv,w
  7553     176E  1903               	skipnz
  7554     176F  2F71               	goto	u379_21
  7555     1770  2F72               	goto	u379_20
  7556     1771                     u379_21:
  7557     1771  2F75               	goto	i1l570
  7558     1772                     u379_20:
  7559     1772                     i1l2785:
  7560     1772  01AC               	clrf	___fldiv@aexp
  7561     1773  0AAC               	incf	___fldiv@aexp,f
  7562     1774  2F7A               	goto	i1l2789
  7563     1775                     i1l570:
  7564     1775  1C74               	btfss	___fldiv@b,0
  7565     1776  2F78               	goto	u380_21
  7566     1777  2F79               	goto	u380_20
  7567     1778                     u380_21:
  7568     1778  2F7A               	goto	i1l2789
  7569     1779                     u380_20:
  7570     1779  2F72               	goto	i1l2785
  7571     177A                     i1l2789:
  7572     177A  082C               	movf	___fldiv@aexp,w
  7573     177B  1903               	btfsc	3,2
  7574     177C  2F7E               	goto	u381_21
  7575     177D  2F7F               	goto	u381_20
  7576     177E                     u381_21:
  7577     177E  2FB0               	goto	i1l2799
  7578     177F                     u381_20:
  7579     177F                     i1l2791:
  7580     177F  3001               	movlw	1
  7581     1780  07F4               	addwf	___fldiv@b,f
  7582     1781  3000               	movlw	0
  7583     1782  1803               	skipnc
  7584     1783  3001               	movlw	1
  7585     1784  07F5               	addwf	___fldiv@b+1,f
  7586     1785  3000               	movlw	0
  7587     1786  1803               	skipnc
  7588     1787  3001               	movlw	1
  7589     1788  07F6               	addwf	___fldiv@b+2,f
  7590     1789  3000               	movlw	0
  7591     178A  1803               	skipnc
  7592     178B  3001               	movlw	1
  7593     178C  07F7               	addwf	___fldiv@b+3,f
  7594     178D                     i1l2793:
  7595     178D  1C77               	btfss	___fldiv@b+3,0
  7596     178E  2F90               	goto	u382_21
  7597     178F  2F91               	goto	u382_20
  7598     1790                     u382_21:
  7599     1790  2FB0               	goto	i1l2799
  7600     1791                     u382_20:
  7601     1791                     i1l2795:
  7602     1791  0874               	movf	___fldiv@b,w
  7603     1792  00F8               	movwf	??___fldiv
  7604     1793  0875               	movf	___fldiv@b+1,w
  7605     1794  00F9               	movwf	??___fldiv+1
  7606     1795  0876               	movf	___fldiv@b+2,w
  7607     1796  00FA               	movwf	??___fldiv+2
  7608     1797  0877               	movf	___fldiv@b+3,w
  7609     1798  00FB               	movwf	??___fldiv+3
  7610     1799  3001               	movlw	1
  7611     179A  00FC               	movwf	??___fldiv+4
  7612     179B                     u383_25:
  7613     179B  0D7B               	rlf	??___fldiv+3,w
  7614     179C  0CFB               	rrf	??___fldiv+3,f
  7615     179D  0CFA               	rrf	??___fldiv+2,f
  7616     179E  0CF9               	rrf	??___fldiv+1,f
  7617     179F  0CF8               	rrf	??___fldiv,f
  7618     17A0                     u383_20:
  7619     17A0  0BFC               	decfsz	??___fldiv+4,f
  7620     17A1  2F9B               	goto	u383_25
  7621     17A2  087B               	movf	??___fldiv+3,w
  7622     17A3  00F7               	movwf	___fldiv@b+3
  7623     17A4  087A               	movf	??___fldiv+2,w
  7624     17A5  00F6               	movwf	___fldiv@b+2
  7625     17A6  0879               	movf	??___fldiv+1,w
  7626     17A7  00F5               	movwf	___fldiv@b+1
  7627     17A8  0878               	movf	??___fldiv,w
  7628     17A9  00F4               	movwf	___fldiv@b
  7629     17AA                     i1l2797:
  7630     17AA  3001               	movlw	1
  7631     17AB  07A5               	addwf	___fldiv@new_exp,f
  7632     17AC  1803               	skipnc
  7633     17AD  0AA6               	incf	___fldiv@new_exp+1,f
  7634     17AE  3000               	movlw	0
  7635     17AF  07A6               	addwf	___fldiv@new_exp+1,f
  7636     17B0                     i1l2799:
  7637     17B0  0826               	movf	___fldiv@new_exp+1,w
  7638     17B1  3A80               	xorlw	128
  7639     17B2  00FF               	movwf	btemp+1
  7640     17B3  3080               	movlw	128
  7641     17B4  027F               	subwf	btemp+1,w
  7642     17B5  1D03               	skipz
  7643     17B6  2FB9               	goto	u384_25
  7644     17B7  30FF               	movlw	255
  7645     17B8  0225               	subwf	___fldiv@new_exp,w
  7646     17B9                     u384_25:
  7647     17B9  1C03               	skipc
  7648     17BA  2FBC               	goto	u384_21
  7649     17BB  2FBD               	goto	u384_20
  7650     17BC                     u384_21:
  7651     17BC  2FCB               	goto	i1l2803
  7652     17BD                     u384_20:
  7653     17BD                     i1l2801:
  7654     17BD  30FF               	movlw	255
  7655     17BE  1283               	bcf	3,5	;RP0=0, select bank0
  7656     17BF  1303               	bcf	3,6	;RP1=0, select bank0
  7657     17C0  00A5               	movwf	___fldiv@new_exp
  7658     17C1  3000               	movlw	0
  7659     17C2  00A6               	movwf	___fldiv@new_exp+1
  7660     17C3  3000               	movlw	0
  7661     17C4  00F7               	movwf	___fldiv@b+3
  7662     17C5  3000               	movlw	0
  7663     17C6  00F6               	movwf	___fldiv@b+2
  7664     17C7  3000               	movlw	0
  7665     17C8  00F5               	movwf	___fldiv@b+1
  7666     17C9  3000               	movlw	0
  7667     17CA  00F4               	movwf	___fldiv@b
  7668     17CB                     i1l2803:
  7669     17CB  1283               	bcf	3,5	;RP0=0, select bank0
  7670     17CC  1303               	bcf	3,6	;RP1=0, select bank0
  7671     17CD  0826               	movf	___fldiv@new_exp+1,w
  7672     17CE  3A80               	xorlw	128
  7673     17CF  00FF               	movwf	btemp+1
  7674     17D0  3080               	movlw	128
  7675     17D1  027F               	subwf	btemp+1,w
  7676     17D2  1D03               	skipz
  7677     17D3  2FD6               	goto	u385_25
  7678     17D4  3001               	movlw	1
  7679     17D5  0225               	subwf	___fldiv@new_exp,w
  7680     17D6                     u385_25:
  7681     17D6  1803               	skipnc
  7682     17D7  2FD9               	goto	u385_21
  7683     17D8  2FDA               	goto	u385_20
  7684     17D9                     u385_21:
  7685     17D9  2FE7               	goto	i1l576
  7686     17DA                     u385_20:
  7687     17DA                     i1l2805:
  7688     17DA  1283               	bcf	3,5	;RP0=0, select bank0
  7689     17DB  1303               	bcf	3,6	;RP1=0, select bank0
  7690     17DC  01A5               	clrf	___fldiv@new_exp
  7691     17DD  01A6               	clrf	___fldiv@new_exp+1
  7692     17DE                     i1l2807:
  7693     17DE  3000               	movlw	0
  7694     17DF  00F7               	movwf	___fldiv@b+3
  7695     17E0  3000               	movlw	0
  7696     17E1  00F6               	movwf	___fldiv@b+2
  7697     17E2  3000               	movlw	0
  7698     17E3  00F5               	movwf	___fldiv@b+1
  7699     17E4  3000               	movlw	0
  7700     17E5  00F4               	movwf	___fldiv@b
  7701     17E6                     i1l2809:
  7702     17E6  01A4               	clrf	___fldiv@sign
  7703     17E7                     i1l576:
  7704     17E7  1283               	bcf	3,5	;RP0=0, select bank0
  7705     17E8  1303               	bcf	3,6	;RP1=0, select bank0
  7706     17E9  0825               	movf	___fldiv@new_exp,w
  7707     17EA  00AB               	movwf	___fldiv@bexp
  7708     17EB                     i1l2811:
  7709     17EB  1C2B               	btfss	___fldiv@bexp,0
  7710     17EC  2FEE               	goto	u386_21
  7711     17ED  2FEF               	goto	u386_20
  7712     17EE                     u386_21:
  7713     17EE  2FF1               	goto	i1l2815
  7714     17EF                     u386_20:
  7715     17EF                     i1l2813:
  7716     17EF  17F6               	bsf	___fldiv@b+2,7
  7717     17F0  2FF5               	goto	i1l578
  7718     17F1                     i1l2815:
  7719     17F1  307F               	movlw	127
  7720     17F2  00F8               	movwf	??___fldiv
  7721     17F3  0878               	movf	??___fldiv,w
  7722     17F4  05F6               	andwf	___fldiv@b+2,f
  7723     17F5                     i1l578:
  7724     17F5  082B               	movf	___fldiv@bexp,w
  7725     17F6  00F8               	movwf	??___fldiv
  7726     17F7  1003               	clrc
  7727     17F8  0C78               	rrf	??___fldiv,w
  7728     17F9  00F7               	movwf	___fldiv@b+3
  7729     17FA  0824               	movf	___fldiv@sign,w
  7730     17FB  00F8               	movwf	??___fldiv
  7731     17FC  0878               	movf	??___fldiv,w
  7732     17FD  04F7               	iorwf	___fldiv@b+3,f
  7733     17FE  2E95               	goto	i1l2723
  7734     17FF                     i1l556:
  7735     17FF  0008               	return
  7736     1800                     __end_of___fldiv:
  7737                           
  7738                           	psect	text27
  7739     132C                     __ptext27:	
  7740 ;; *************** function _dtoa *****************
  7741 ;; Defined at:
  7742 ;;		line 513 in file "/opt/microchip/xc8/v2.45/pic/sources/c99/common/doprnt.c"
  7743 ;; Parameters:    Size  Location     Type
  7744 ;;  fp              1    wreg     PTR struct _IO_FILE
  7745 ;;		 -> NULL(0), 
  7746 ;;  d               2   10[BANK0 ] int 
  7747 ;; Auto vars:     Size  Location     Type
  7748 ;;  fp              1   18[BANK0 ] PTR struct _IO_FILE
  7749 ;;		 -> NULL(0), 
  7750 ;;  i               2   20[BANK0 ] int 
  7751 ;;  p               2   16[BANK0 ] int 
  7752 ;;  w               2   14[BANK0 ] int 
  7753 ;;  s               1   19[BANK0 ] unsigned char 
  7754 ;; Return value:  Size  Location     Type
  7755 ;;                  1    wreg      void 
  7756 ;; Registers used:
  7757 ;;		wreg, fsr0l, fsr0h, status,2, status,0, btemp+1, pclath, cstack
  7758 ;; Tracked objects:
  7759 ;;		On entry : 0/0
  7760 ;;		On exit  : 0/0
  7761 ;;		Unchanged: 0/0
  7762 ;; Data sizes:     COMMON   BANK0   BANK1   BANK3   BANK2
  7763 ;;      Params:         0       2       0       0       0
  7764 ;;      Locals:         0      10       0       0       0
  7765 ;;      Temps:          0       0       0       0       0
  7766 ;;      Totals:         0      12       0       0       0
  7767 ;;Total ram usage:       12 bytes
  7768 ;; Hardware stack levels used: 1
  7769 ;; Hardware stack levels required when called: 4
  7770 ;; This function calls:
  7771 ;;		___awdiv
  7772 ;;		___awmod
  7773 ;;		_abs
  7774 ;;		_pad
  7775 ;; This function is called by:
  7776 ;;		_vfpfcnvrt
  7777 ;; This function uses a non-reentrant model
  7778 ;;
  7779                           
  7780     132C                     _dtoa:	
  7781                           ;psect for function _dtoa
  7782                           
  7783                           
  7784                           ;incstack = 0
  7785 ;; hardware stack exceeded
  7786                           ; Regs used in _dtoa: [wreg-fsr0h+status,2+status,0+btemp+1+pclath+cstack]
  7787                           ;dtoa@fp stored from wreg
  7788     132C  1283               	bcf	3,5	;RP0=0, select bank0
  7789     132D  1303               	bcf	3,6	;RP1=0, select bank0
  7790     132E  00B2               	movwf	dtoa@fp
  7791     132F                     i1l3055:
  7792                           
  7793                           ;/opt/microchip/xc8/v2.45/pic/sources/c99/common/doprnt.c: 513: static void dtoa(FILE *f
      +                          p, vfpf_sint_t d);/opt/microchip/xc8/v2.45/pic/sources/c99/common/doprnt.c: 514: {;/opt/
      +                          microchip/xc8/v2.45/pic/sources/c99/common/doprnt.c: 515:  char s;;/opt/microchip/xc8/v2
      +                          .45/pic/sources/c99/common/doprnt.c: 516:     int i, w;;/opt/microchip/xc8/v2.45/pic/sou
      +                          rces/c99/common/doprnt.c: 518:  int p;;/opt/microchip/xc8/v2.45/pic/sources/c99/common/d
      +                          oprnt.c: 524:     s = d < 0 ? 1 : 0;
  7794     132F  1BAB               	btfsc	dtoa@d+1,7
  7795     1330  2B32               	goto	u450_21
  7796     1331  2B34               	goto	u450_20
  7797     1332                     u450_21:
  7798     1332  3001               	movlw	1
  7799     1333  2B35               	goto	u451_20
  7800     1334                     u450_20:
  7801     1334  3000               	movlw	0
  7802     1335                     u451_20:
  7803     1335  00B3               	movwf	dtoa@s
  7804     1336                     i1l3057:
  7805                           
  7806                           ;/opt/microchip/xc8/v2.45/pic/sources/c99/common/doprnt.c: 533:     p = (0 <= prec) ? pr
      +                          ec : 1;
  7807     1336  1FE7               	btfss	_prec+1,7
  7808     1337  2B39               	goto	u452_21
  7809     1338  2B3A               	goto	u452_20
  7810     1339                     u452_21:
  7811     1339  2B3F               	goto	i1l3061
  7812     133A                     u452_20:
  7813     133A                     i1l3059:
  7814     133A  3001               	movlw	1
  7815     133B  00B0               	movwf	dtoa@p
  7816     133C  3000               	movlw	0
  7817     133D  00B1               	movwf	dtoa@p+1
  7818     133E  2B43               	goto	i1l699
  7819     133F                     i1l3061:
  7820     133F  0867               	movf	_prec+1,w
  7821     1340  00B1               	movwf	dtoa@p+1
  7822     1341  0866               	movf	_prec,w
  7823     1342  00B0               	movwf	dtoa@p
  7824     1343                     i1l699:
  7825                           
  7826                           ;/opt/microchip/xc8/v2.45/pic/sources/c99/common/doprnt.c: 535:     w = width;
  7827     1343  0865               	movf	_width+1,w
  7828     1344  00AF               	movwf	dtoa@w+1
  7829     1345  0864               	movf	_width,w
  7830     1346  00AE               	movwf	dtoa@w
  7831     1347                     i1l3063:
  7832                           
  7833                           ;/opt/microchip/xc8/v2.45/pic/sources/c99/common/doprnt.c: 536:     if (s
  7834     1347  0833               	movf	dtoa@s,w
  7835     1348  1903               	btfsc	3,2
  7836     1349  2B4B               	goto	u453_21
  7837     134A  2B4C               	goto	u453_20
  7838     134B                     u453_21:
  7839     134B  2B62               	goto	i1l700
  7840     134C                     u453_20:
  7841     134C                     i1l3065:
  7842                           
  7843                           ;/opt/microchip/xc8/v2.45/pic/sources/c99/common/doprnt.c: 540:     ) {;/opt/microchip/x
      +                          c8/v2.45/pic/sources/c99/common/doprnt.c: 541:         --w;
  7844     134C  30FF               	movlw	255
  7845     134D  07AE               	addwf	dtoa@w,f
  7846     134E  1803               	skipnc
  7847     134F  0AAF               	incf	dtoa@w+1,f
  7848     1350  30FF               	movlw	255
  7849     1351  07AF               	addwf	dtoa@w+1,f
  7850     1352                     i1l3067:
  7851                           
  7852                           ;/opt/microchip/xc8/v2.45/pic/sources/c99/common/doprnt.c: 542:   s = s ? '-' : '+';
  7853     1352  0833               	movf	dtoa@s,w
  7854     1353  1D03               	btfss	3,2
  7855     1354  2B56               	goto	u454_21
  7856     1355  2B57               	goto	u454_20
  7857     1356                     u454_21:
  7858     1356  2B5C               	goto	i1l3071
  7859     1357                     u454_20:
  7860     1357                     i1l3069:
  7861     1357  302B               	movlw	43
  7862     1358  00AC               	movwf	_dtoa$972
  7863     1359  3000               	movlw	0
  7864     135A  00AD               	movwf	_dtoa$972+1
  7865     135B  2B60               	goto	i1l704
  7866     135C                     i1l3071:
  7867     135C  302D               	movlw	45
  7868     135D  00AC               	movwf	_dtoa$972
  7869     135E  3000               	movlw	0
  7870     135F  00AD               	movwf	_dtoa$972+1
  7871     1360                     i1l704:
  7872     1360  082C               	movf	_dtoa$972,w
  7873     1361  00B3               	movwf	dtoa@s
  7874     1362                     i1l700:	
  7875                           ;/opt/microchip/xc8/v2.45/pic/sources/c99/common/doprnt.c: 543:     }
  7876                           
  7877                           
  7878                           ;/opt/microchip/xc8/v2.45/pic/sources/c99/common/doprnt.c: 552:     i = sizeof(dbuf) - 1
      +                          ;
  7879     1362  304F               	movlw	79
  7880     1363  00B4               	movwf	dtoa@i
  7881     1364  3000               	movlw	0
  7882     1365  00B5               	movwf	dtoa@i+1
  7883     1366                     i1l3073:
  7884                           
  7885                           ;/opt/microchip/xc8/v2.45/pic/sources/c99/common/doprnt.c: 553:     dbuf[i] = '\0';
  7886     1366  1683               	bsf	3,5	;RP0=1, select bank3
  7887     1367  1703               	bsf	3,6	;RP1=1, select bank3
  7888     1368  01DF               	clrf	(_dbuf^(0+384)+79)
  7889                           
  7890                           ;/opt/microchip/xc8/v2.45/pic/sources/c99/common/doprnt.c: 554:     while (!(i < 1) && (
      +                          d != 0
  7891     1369  2BB0               	goto	i1l3085
  7892     136A                     i1l3075:
  7893                           
  7894                           ;/opt/microchip/xc8/v2.45/pic/sources/c99/common/doprnt.c: 563:     )) {;/opt/microchip/
      +                          xc8/v2.45/pic/sources/c99/common/doprnt.c: 564:         --i;
  7895     136A  30FF               	movlw	255
  7896     136B  1283               	bcf	3,5	;RP0=0, select bank0
  7897     136C  1303               	bcf	3,6	;RP1=0, select bank0
  7898     136D  07B4               	addwf	dtoa@i,f
  7899     136E  1803               	skipnc
  7900     136F  0AB5               	incf	dtoa@i+1,f
  7901     1370  30FF               	movlw	255
  7902     1371  07B5               	addwf	dtoa@i+1,f
  7903     1372                     i1l3077:
  7904                           
  7905                           ;/opt/microchip/xc8/v2.45/pic/sources/c99/common/doprnt.c: 565:         dbuf[i] = (char)
      +                          ((int)'0' + abs(d % 10));
  7906     1372  0834               	movf	dtoa@i,w
  7907     1373  3E90               	addlw	(low (_dbuf| (0+256)))& (0+255)
  7908     1374  0084               	movwf	4
  7909     1375  300A               	movlw	10
  7910     1376  00F0               	movwf	___awmod@divisor
  7911     1377  3000               	movlw	0
  7912     1378  00F1               	movwf	___awmod@divisor+1
  7913     1379  082B               	movf	dtoa@d+1,w
  7914     137A  00F3               	movwf	___awmod@dividend+1
  7915     137B  082A               	movf	dtoa@d,w
  7916     137C  00F2               	movwf	___awmod@dividend
  7917     137D  160A  118A  215C  160A  118A  	fcall	___awmod
  7918     1382  0871               	movf	?___awmod+1,w
  7919     1383  00F8               	movwf	abs@a+1
  7920     1384  0870               	movf	?___awmod,w
  7921     1385  00F7               	movwf	abs@a
  7922     1386  160A  158A  262D  160A  118A  	fcall	_abs
  7923     138B  0877               	movf	?_abs,w
  7924     138C  3E30               	addlw	48
  7925     138D  1783               	bsf	3,7	;select IRP bank3
  7926     138E  0080               	movwf	0
  7927     138F                     i1l3079:
  7928                           
  7929                           ;/opt/microchip/xc8/v2.45/pic/sources/c99/common/doprnt.c: 567:         --p;
  7930     138F  30FF               	movlw	255
  7931     1390  1283               	bcf	3,5	;RP0=0, select bank0
  7932     1391  1303               	bcf	3,6	;RP1=0, select bank0
  7933     1392  07B0               	addwf	dtoa@p,f
  7934     1393  1803               	skipnc
  7935     1394  0AB1               	incf	dtoa@p+1,f
  7936     1395  30FF               	movlw	255
  7937     1396  07B1               	addwf	dtoa@p+1,f
  7938     1397                     i1l3081:
  7939                           
  7940                           ;/opt/microchip/xc8/v2.45/pic/sources/c99/common/doprnt.c: 571:         --w;
  7941     1397  30FF               	movlw	255
  7942     1398  07AE               	addwf	dtoa@w,f
  7943     1399  1803               	skipnc
  7944     139A  0AAF               	incf	dtoa@w+1,f
  7945     139B  30FF               	movlw	255
  7946     139C  07AF               	addwf	dtoa@w+1,f
  7947     139D                     i1l3083:
  7948                           
  7949                           ;/opt/microchip/xc8/v2.45/pic/sources/c99/common/doprnt.c: 572:         d = d / 10;
  7950     139D  300A               	movlw	10
  7951     139E  00F0               	movwf	___awdiv@divisor
  7952     139F  3000               	movlw	0
  7953     13A0  00F1               	movwf	___awdiv@divisor+1
  7954     13A1  082B               	movf	dtoa@d+1,w
  7955     13A2  00F3               	movwf	___awdiv@dividend+1
  7956     13A3  082A               	movf	dtoa@d,w
  7957     13A4  00F2               	movwf	___awdiv@dividend
  7958     13A5  120A  158A  2002  160A  118A  	fcall	___awdiv
  7959     13AA  0871               	movf	?___awdiv+1,w
  7960     13AB  1283               	bcf	3,5	;RP0=0, select bank0
  7961     13AC  1303               	bcf	3,6	;RP1=0, select bank0
  7962     13AD  00AB               	movwf	dtoa@d+1
  7963     13AE  0870               	movf	?___awdiv,w
  7964     13AF  00AA               	movwf	dtoa@d
  7965     13B0                     i1l3085:
  7966                           
  7967                           ;/opt/microchip/xc8/v2.45/pic/sources/c99/common/doprnt.c: 554:     while (!(i < 1) && (
      +                          d != 0
  7968     13B0  1283               	bcf	3,5	;RP0=0, select bank0
  7969     13B1  1303               	bcf	3,6	;RP1=0, select bank0
  7970     13B2  0835               	movf	dtoa@i+1,w
  7971     13B3  3A80               	xorlw	128
  7972     13B4  00FF               	movwf	btemp+1
  7973     13B5  3080               	movlw	128
  7974     13B6  027F               	subwf	btemp+1,w
  7975     13B7  1D03               	skipz
  7976     13B8  2BBB               	goto	u455_25
  7977     13B9  3001               	movlw	1
  7978     13BA  0234               	subwf	dtoa@i,w
  7979     13BB                     u455_25:
  7980     13BB  1C03               	skipc
  7981     13BC  2BBE               	goto	u455_21
  7982     13BD  2BBF               	goto	u455_20
  7983     13BE                     u455_21:
  7984     13BE  2BD4               	goto	i1l3091
  7985     13BF                     u455_20:
  7986     13BF                     i1l3087:
  7987     13BF  1283               	bcf	3,5	;RP0=0, select bank0
  7988     13C0  1303               	bcf	3,6	;RP1=0, select bank0
  7989     13C1  082A               	movf	dtoa@d,w
  7990     13C2  042B               	iorwf	dtoa@d+1,w
  7991     13C3  1D03               	btfss	3,2
  7992     13C4  2BC6               	goto	u456_21
  7993     13C5  2BC7               	goto	u456_20
  7994     13C6                     u456_21:
  7995     13C6  2B6A               	goto	i1l3075
  7996     13C7                     u456_20:
  7997     13C7                     i1l3089:
  7998     13C7  0831               	movf	dtoa@p+1,w
  7999     13C8  3A80               	xorlw	128
  8000     13C9  00FF               	movwf	btemp+1
  8001     13CA  3080               	movlw	128
  8002     13CB  027F               	subwf	btemp+1,w
  8003     13CC  1D03               	skipz
  8004     13CD  2BD0               	goto	u457_25
  8005     13CE  3001               	movlw	1
  8006     13CF  0230               	subwf	dtoa@p,w
  8007     13D0                     u457_25:
  8008     13D0  1803               	skipnc
  8009     13D1  2BD3               	goto	u457_21
  8010     13D2  2BD4               	goto	u457_20
  8011     13D3                     u457_21:
  8012     13D3  2B6A               	goto	i1l3075
  8013     13D4                     u457_20:
  8014     13D4                     i1l3091:
  8015                           
  8016                           ;/opt/microchip/xc8/v2.45/pic/sources/c99/common/doprnt.c: 576:     if (s != 0) {
  8017     13D4  1283               	bcf	3,5	;RP0=0, select bank0
  8018     13D5  1303               	bcf	3,6	;RP1=0, select bank0
  8019     13D6  0833               	movf	dtoa@s,w
  8020     13D7  1903               	btfsc	3,2
  8021     13D8  2BDA               	goto	u458_21
  8022     13D9  2BDB               	goto	u458_20
  8023     13DA                     u458_21:
  8024     13DA  2BE7               	goto	i1l3097
  8025     13DB                     u458_20:
  8026     13DB                     i1l3093:
  8027                           
  8028                           ;/opt/microchip/xc8/v2.45/pic/sources/c99/common/doprnt.c: 577:         --i;
  8029     13DB  30FF               	movlw	255
  8030     13DC  07B4               	addwf	dtoa@i,f
  8031     13DD  1803               	skipnc
  8032     13DE  0AB5               	incf	dtoa@i+1,f
  8033     13DF  30FF               	movlw	255
  8034     13E0  07B5               	addwf	dtoa@i+1,f
  8035     13E1                     i1l3095:
  8036                           
  8037                           ;/opt/microchip/xc8/v2.45/pic/sources/c99/common/doprnt.c: 578:         dbuf[i] = s;
  8038     13E1  0834               	movf	dtoa@i,w
  8039     13E2  3E90               	addlw	(low (_dbuf| (0+256)))& (0+255)
  8040     13E3  0084               	movwf	4
  8041     13E4  0833               	movf	dtoa@s,w
  8042     13E5  1783               	bsf	3,7	;select IRP bank3
  8043     13E6  0080               	movwf	0
  8044     13E7                     i1l3097:
  8045                           
  8046                           ;/opt/microchip/xc8/v2.45/pic/sources/c99/common/doprnt.c: 582:     return (void) pad(fp
      +                          , &dbuf[i], w);
  8047     13E7  0834               	movf	dtoa@i,w
  8048     13E8  3E90               	addlw	(low (_dbuf| (0+256)))& (0+255)
  8049     13E9  00A4               	movwf	pad@buf
  8050     13EA  082F               	movf	dtoa@w+1,w
  8051     13EB  00A6               	movwf	pad@p+1
  8052     13EC  082E               	movf	dtoa@w,w
  8053     13ED  00A5               	movwf	pad@p
  8054     13EE  0832               	movf	dtoa@fp,w
  8055     13EF  160A  158A  27C6  160A  118A  	fcall	_pad
  8056     13F4                     i1l711:
  8057     13F4  0008               	return
  8058     13F5                     __end_of_dtoa:
  8059                           
  8060                           	psect	text28
  8061     1FC6                     __ptext28:	
  8062 ;; *************** function _pad *****************
  8063 ;; Defined at:
  8064 ;;		line 193 in file "/opt/microchip/xc8/v2.45/pic/sources/c99/common/doprnt.c"
  8065 ;; Parameters:    Size  Location     Type
  8066 ;;  fp              1    wreg     PTR struct _IO_FILE
  8067 ;;		 -> NULL(0), 
  8068 ;;  buf             1    4[BANK0 ] PTR unsigned char 
  8069 ;;		 -> dbuf(80), 
  8070 ;;  p               2    5[BANK0 ] int 
  8071 ;; Auto vars:     Size  Location     Type
  8072 ;;  fp              1    9[BANK0 ] PTR struct _IO_FILE
  8073 ;;		 -> NULL(0), 
  8074 ;;  i               2    7[BANK0 ] int 
  8075 ;; Return value:  Size  Location     Type
  8076 ;;                  1    wreg      void 
  8077 ;; Registers used:
  8078 ;;		wreg, fsr0l, fsr0h, status,2, status,0, pclath, cstack
  8079 ;; Tracked objects:
  8080 ;;		On entry : 0/0
  8081 ;;		On exit  : 0/0
  8082 ;;		Unchanged: 0/0
  8083 ;; Data sizes:     COMMON   BANK0   BANK1   BANK3   BANK2
  8084 ;;      Params:         0       3       0       0       0
  8085 ;;      Locals:         0       3       0       0       0
  8086 ;;      Temps:          1       0       0       0       0
  8087 ;;      Totals:         1       6       0       0       0
  8088 ;;Total ram usage:        7 bytes
  8089 ;; Hardware stack levels used: 1
  8090 ;; Hardware stack levels required when called: 3
  8091 ;; This function calls:
  8092 ;;		_fputc
  8093 ;;		_fputs
  8094 ;; This function is called by:
  8095 ;;		_dtoa
  8096 ;;		_efgtoa
  8097 ;; This function uses a non-reentrant model
  8098 ;;
  8099                           
  8100     1FC6                     _pad:	
  8101                           ;psect for function _pad
  8102                           
  8103                           
  8104                           ;incstack = 0
  8105 ;; hardware stack exceeded
  8106                           ; Regs used in _pad: [wreg-fsr0h+status,2+status,0+pclath+cstack]
  8107                           ;pad@fp stored from wreg
  8108     1FC6  1283               	bcf	3,5	;RP0=0, select bank0
  8109     1FC7  1303               	bcf	3,6	;RP1=0, select bank0
  8110     1FC8  00A9               	movwf	pad@fp
  8111     1FC9                     i1l2961:
  8112                           
  8113                           ;/opt/microchip/xc8/v2.45/pic/sources/c99/common/doprnt.c: 193: static void pad(FILE *fp
      +                          , char *buf, int p);/opt/microchip/xc8/v2.45/pic/sources/c99/common/doprnt.c: 194: {;/op
      +                          t/microchip/xc8/v2.45/pic/sources/c99/common/doprnt.c: 195:     int i;;/opt/microchip/xc
      +                          8/v2.45/pic/sources/c99/common/doprnt.c: 205:  if (p < 0) {
  8114     1FC9  1FA6               	btfss	pad@p+1,7
  8115     1FCA  2FCC               	goto	u424_21
  8116     1FCB  2FCD               	goto	u424_20
  8117     1FCC                     u424_21:
  8118     1FCC  2FCF               	goto	i1l689
  8119     1FCD                     u424_20:
  8120     1FCD                     i1l2963:
  8121                           
  8122                           ;/opt/microchip/xc8/v2.45/pic/sources/c99/common/doprnt.c: 206:   p = 0;
  8123     1FCD  01A5               	clrf	pad@p
  8124     1FCE  01A6               	clrf	pad@p+1
  8125     1FCF                     i1l689:	
  8126                           ;/opt/microchip/xc8/v2.45/pic/sources/c99/common/doprnt.c: 207:  }
  8127                           
  8128                           
  8129                           ;/opt/microchip/xc8/v2.45/pic/sources/c99/common/doprnt.c: 208:     i = 0;
  8130     1FCF  01A7               	clrf	pad@i
  8131     1FD0  01A8               	clrf	pad@i+1
  8132                           
  8133                           ;/opt/microchip/xc8/v2.45/pic/sources/c99/common/doprnt.c: 209:     while (i < p) {
  8134     1FD1  2FE7               	goto	i1l2969
  8135     1FD2                     i1l2965:
  8136                           
  8137                           ;/opt/microchip/xc8/v2.45/pic/sources/c99/common/doprnt.c: 210:         fputc(' ', fp);
  8138     1FD2  3020               	movlw	32
  8139     1FD3  00F1               	movwf	fputc@c
  8140     1FD4  3000               	movlw	0
  8141     1FD5  00F2               	movwf	fputc@c+1
  8142     1FD6  1283               	bcf	3,5	;RP0=0, select bank0
  8143     1FD7  1303               	bcf	3,6	;RP1=0, select bank0
  8144     1FD8  0829               	movf	pad@fp,w
  8145     1FD9  00F3               	movwf	fputc@fp
  8146     1FDA  160A  118A  20AE  160A  158A  	fcall	_fputc
  8147     1FDF                     i1l2967:
  8148                           
  8149                           ;/opt/microchip/xc8/v2.45/pic/sources/c99/common/doprnt.c: 211:         ++i;
  8150     1FDF  3001               	movlw	1
  8151     1FE0  1283               	bcf	3,5	;RP0=0, select bank0
  8152     1FE1  1303               	bcf	3,6	;RP1=0, select bank0
  8153     1FE2  07A7               	addwf	pad@i,f
  8154     1FE3  1803               	skipnc
  8155     1FE4  0AA8               	incf	pad@i+1,f
  8156     1FE5  3000               	movlw	0
  8157     1FE6  07A8               	addwf	pad@i+1,f
  8158     1FE7                     i1l2969:
  8159                           
  8160                           ;/opt/microchip/xc8/v2.45/pic/sources/c99/common/doprnt.c: 209:     while (i < p) {
  8161     1FE7  0828               	movf	pad@i+1,w
  8162     1FE8  3A80               	xorlw	128
  8163     1FE9  00FC               	movwf	??_pad
  8164     1FEA  0826               	movf	pad@p+1,w
  8165     1FEB  3A80               	xorlw	128
  8166     1FEC  027C               	subwf	??_pad,w
  8167     1FED  1D03               	skipz
  8168     1FEE  2FF1               	goto	u425_25
  8169     1FEF  0825               	movf	pad@p,w
  8170     1FF0  0227               	subwf	pad@i,w
  8171     1FF1                     u425_25:
  8172     1FF1  1C03               	skipc
  8173     1FF2  2FF4               	goto	u425_21
  8174     1FF3  2FF5               	goto	u425_20
  8175     1FF4                     u425_21:
  8176     1FF4  2FD2               	goto	i1l2965
  8177     1FF5                     u425_20:
  8178     1FF5                     i1l2971:
  8179                           
  8180                           ;/opt/microchip/xc8/v2.45/pic/sources/c99/common/doprnt.c: 218:         fputs((const cha
      +                          r *)buf, fp);
  8181     1FF5  1283               	bcf	3,5	;RP0=0, select bank0
  8182     1FF6  1303               	bcf	3,6	;RP1=0, select bank0
  8183     1FF7  0829               	movf	pad@fp,w
  8184     1FF8  00F9               	movwf	fputs@fp
  8185     1FF9  0824               	movf	pad@buf,w
  8186     1FFA  160A  158A  273C  160A  158A  	fcall	_fputs
  8187     1FFF                     i1l693:
  8188     1FFF  0008               	return
  8189     2000                     __end_of_pad:
  8190                           
  8191                           	psect	text29
  8192     1F3C                     __ptext29:	
  8193 ;; *************** function _fputs *****************
  8194 ;; Defined at:
  8195 ;;		line 8 in file "/opt/microchip/xc8/v2.45/pic/sources/c99/common/nf_fputs.c"
  8196 ;; Parameters:    Size  Location     Type
  8197 ;;  s               1    wreg     PTR const unsigned char 
  8198 ;;		 -> dbuf(80), 
  8199 ;;  fp              1    9[COMMON] PTR struct _IO_FILE
  8200 ;;		 -> NULL(0), 
  8201 ;; Auto vars:     Size  Location     Type
  8202 ;;  s               1    3[BANK0 ] PTR const unsigned char 
  8203 ;;		 -> dbuf(80), 
  8204 ;;  i               2    1[BANK0 ] int 
  8205 ;;  c               1    0[BANK0 ] unsigned char 
  8206 ;; Return value:  Size  Location     Type
  8207 ;;                  2    9[COMMON] int 
  8208 ;; Registers used:
  8209 ;;		wreg, fsr0l, fsr0h, status,2, status,0, pclath, cstack
  8210 ;; Tracked objects:
  8211 ;;		On entry : 0/0
  8212 ;;		On exit  : 0/0
  8213 ;;		Unchanged: 0/0
  8214 ;; Data sizes:     COMMON   BANK0   BANK1   BANK3   BANK2
  8215 ;;      Params:         1       0       0       0       0
  8216 ;;      Locals:         0       4       0       0       0
  8217 ;;      Temps:          2       0       0       0       0
  8218 ;;      Totals:         3       4       0       0       0
  8219 ;;Total ram usage:        7 bytes
  8220 ;; Hardware stack levels used: 1
  8221 ;; Hardware stack levels required when called: 2
  8222 ;; This function calls:
  8223 ;;		_fputc
  8224 ;; This function is called by:
  8225 ;;		_pad
  8226 ;; This function uses a non-reentrant model
  8227 ;;
  8228                           
  8229     1F3C                     _fputs:	
  8230                           ;psect for function _fputs
  8231                           
  8232                           
  8233                           ;incstack = 0
  8234 ;; hardware stack exceeded
  8235                           ; Regs used in _fputs: [wreg-fsr0h+status,2+status,0+pclath+cstack]
  8236                           ;fputs@s stored from wreg
  8237     1F3C  1283               	bcf	3,5	;RP0=0, select bank0
  8238     1F3D  1303               	bcf	3,6	;RP1=0, select bank0
  8239     1F3E  00A3               	movwf	fputs@s
  8240     1F3F                     i1l2493:
  8241     1F3F  01A1               	clrf	fputs@i
  8242     1F40  01A2               	clrf	fputs@i+1
  8243     1F41  2F58               	goto	i1l2499
  8244     1F42                     i1l2495:
  8245     1F42  0820               	movf	fputs@c,w
  8246     1F43  00FA               	movwf	??_fputs
  8247     1F44  01FB               	clrf	??_fputs+1
  8248     1F45  087A               	movf	??_fputs,w
  8249     1F46  00F1               	movwf	fputc@c
  8250     1F47  087B               	movf	??_fputs+1,w
  8251     1F48  00F2               	movwf	fputc@c+1
  8252     1F49  0879               	movf	fputs@fp,w
  8253     1F4A  00F3               	movwf	fputc@fp
  8254     1F4B  160A  118A  20AE  160A  158A  	fcall	_fputc
  8255     1F50                     i1l2497:
  8256     1F50  3001               	movlw	1
  8257     1F51  1283               	bcf	3,5	;RP0=0, select bank0
  8258     1F52  1303               	bcf	3,6	;RP1=0, select bank0
  8259     1F53  07A1               	addwf	fputs@i,f
  8260     1F54  1803               	skipnc
  8261     1F55  0AA2               	incf	fputs@i+1,f
  8262     1F56  3000               	movlw	0
  8263     1F57  07A2               	addwf	fputs@i+1,f
  8264     1F58                     i1l2499:
  8265     1F58  0821               	movf	fputs@i,w
  8266     1F59  0723               	addwf	fputs@s,w
  8267     1F5A  00FA               	movwf	??_fputs
  8268     1F5B  087A               	movf	??_fputs,w
  8269     1F5C  0084               	movwf	4
  8270     1F5D  1783               	bsf	3,7	;select IRP bank2
  8271     1F5E  0800               	movf	0,w
  8272     1F5F  00A0               	movwf	fputs@c
  8273     1F60  0820               	movf	fputs@c,w
  8274     1F61  1D03               	btfss	3,2
  8275     1F62  2F64               	goto	u312_21
  8276     1F63  2F65               	goto	u312_20
  8277     1F64                     u312_21:
  8278     1F64  2F42               	goto	i1l2495
  8279     1F65                     u312_20:
  8280     1F65                     i1l881:
  8281     1F65  0008               	return
  8282     1F66                     __end_of_fputs:
  8283                           
  8284                           	psect	text30
  8285     10AE                     __ptext30:	
  8286 ;; *************** function _fputc *****************
  8287 ;; Defined at:
  8288 ;;		line 8 in file "/opt/microchip/xc8/v2.45/pic/sources/c99/common/nf_fputc.c"
  8289 ;; Parameters:    Size  Location     Type
  8290 ;;  c               2    1[COMMON] int 
  8291 ;;  fp              1    3[COMMON] PTR struct _IO_FILE
  8292 ;;		 -> NULL(0), 
  8293 ;; Auto vars:     Size  Location     Type
  8294 ;;		None
  8295 ;; Return value:  Size  Location     Type
  8296 ;;                  2    1[COMMON] int 
  8297 ;; Registers used:
  8298 ;;		wreg, fsr0l, fsr0h, status,2, status,0, pclath, cstack
  8299 ;; Tracked objects:
  8300 ;;		On entry : 0/0
  8301 ;;		On exit  : 0/0
  8302 ;;		Unchanged: 0/0
  8303 ;; Data sizes:     COMMON   BANK0   BANK1   BANK3   BANK2
  8304 ;;      Params:         3       0       0       0       0
  8305 ;;      Locals:         0       0       0       0       0
  8306 ;;      Temps:          5       0       0       0       0
  8307 ;;      Totals:         8       0       0       0       0
  8308 ;;Total ram usage:        8 bytes
  8309 ;; Hardware stack levels used: 1
  8310 ;; Hardware stack levels required when called: 1
  8311 ;; This function calls:
  8312 ;;		_putch
  8313 ;; This function is called by:
  8314 ;;		_pad
  8315 ;;		_stoa
  8316 ;;		_vfpfcnvrt
  8317 ;;		_fputs
  8318 ;; This function uses a non-reentrant model
  8319 ;;
  8320                           
  8321     10AE                     _fputc:	
  8322                           ;psect for function _fputc
  8323                           
  8324     10AE                     i1l2271:	
  8325                           ;incstack = 0
  8326 ;; hardware stack exceeded
  8327                           ; Regs used in _fputc: [wreg-fsr0h+status,2+status,0+pclath+cstack]
  8328                           
  8329     10AE  0873               	movf	fputc@fp,w
  8330     10AF  1903               	btfsc	3,2
  8331     10B0  28B2               	goto	u259_21
  8332     10B1  28B3               	goto	u259_20
  8333     10B2                     u259_21:
  8334     10B2  28B8               	goto	i1l2275
  8335     10B3                     u259_20:
  8336     10B3                     i1l2273:
  8337     10B3  0873               	movf	fputc@fp,w
  8338     10B4  1D03               	btfss	3,2
  8339     10B5  28B7               	goto	u260_21
  8340     10B6  28B8               	goto	u260_20
  8341     10B7                     u260_21:
  8342     10B7  28BF               	goto	i1l2277
  8343     10B8                     u260_20:
  8344     10B8                     i1l2275:
  8345     10B8  0871               	movf	fputc@c,w
  8346     10B9  160A  158A  25DC  160A  118A  	fcall	_putch
  8347     10BE  2903               	goto	i1l873
  8348     10BF                     i1l2277:
  8349     10BF  0873               	movf	fputc@fp,w
  8350     10C0  3E09               	addlw	9
  8351     10C1  0084               	movwf	4
  8352     10C2  1383               	bcf	3,7	;select IRP bank0
  8353     10C3  0800               	movf	0,w
  8354     10C4  00F4               	movwf	??_fputc
  8355     10C5  0A84               	incf	4,f
  8356     10C6  0800               	movf	0,w
  8357     10C7  00F5               	movwf	??_fputc+1
  8358     10C8  0874               	movf	??_fputc,w
  8359     10C9  0475               	iorwf	??_fputc+1,w
  8360     10CA  1903               	btfsc	3,2
  8361     10CB  28CD               	goto	u261_21
  8362     10CC  28CE               	goto	u261_20
  8363     10CD                     u261_21:
  8364     10CD  28EC               	goto	i1l2281
  8365     10CE                     u261_20:
  8366     10CE                     i1l2279:
  8367     10CE  0873               	movf	fputc@fp,w
  8368     10CF  3E09               	addlw	9
  8369     10D0  0084               	movwf	4
  8370     10D1  0800               	movf	0,w
  8371     10D2  00F4               	movwf	??_fputc
  8372     10D3  0A84               	incf	4,f
  8373     10D4  0800               	movf	0,w
  8374     10D5  00F5               	movwf	??_fputc+1
  8375     10D6  0873               	movf	fputc@fp,w
  8376     10D7  3E02               	addlw	2
  8377     10D8  0084               	movwf	4
  8378     10D9  0800               	movf	0,w
  8379     10DA  00F6               	movwf	??_fputc+2
  8380     10DB  0A84               	incf	4,f
  8381     10DC  0800               	movf	0,w
  8382     10DD  00F7               	movwf	??_fputc+3
  8383     10DE  0877               	movf	??_fputc+3,w
  8384     10DF  3A80               	xorlw	128
  8385     10E0  00F8               	movwf	??_fputc+4
  8386     10E1  0875               	movf	??_fputc+1,w
  8387     10E2  3A80               	xorlw	128
  8388     10E3  0278               	subwf	??_fputc+4,w
  8389     10E4  1D03               	skipz
  8390     10E5  28E8               	goto	u262_25
  8391     10E6  0874               	movf	??_fputc,w
  8392     10E7  0276               	subwf	??_fputc+2,w
  8393     10E8                     u262_25:
  8394     10E8  1803               	skipnc
  8395     10E9  28EB               	goto	u262_21
  8396     10EA  28EC               	goto	u262_20
  8397     10EB                     u262_21:
  8398     10EB  2903               	goto	i1l873
  8399     10EC                     u262_20:
  8400     10EC                     i1l2281:
  8401     10EC  0873               	movf	fputc@fp,w
  8402     10ED  3E02               	addlw	2
  8403     10EE  0084               	movwf	4
  8404     10EF  1383               	bcf	3,7	;select IRP bank0
  8405     10F0  0800               	movf	0,w
  8406     10F1  00F4               	movwf	??_fputc
  8407     10F2  0873               	movf	fputc@fp,w
  8408     10F3  0084               	movwf	4
  8409     10F4  0800               	movf	0,w
  8410     10F5  0774               	addwf	??_fputc,w
  8411     10F6  00F5               	movwf	??_fputc+1
  8412     10F7  0875               	movf	??_fputc+1,w
  8413     10F8  0084               	movwf	4
  8414     10F9  0871               	movf	fputc@c,w
  8415     10FA  0080               	movwf	0
  8416     10FB  0873               	movf	fputc@fp,w
  8417     10FC  3E02               	addlw	2
  8418     10FD  0084               	movwf	4
  8419     10FE  3001               	movlw	1
  8420     10FF  0780               	addwf	0,f
  8421     1100  0A84               	incf	4,f
  8422     1101  1803               	skipnc
  8423     1102  0A80               	incf	0,f
  8424     1103                     i1l873:
  8425     1103  0008               	return
  8426     1104                     __end_of_fputc:
  8427                           
  8428                           	psect	text31
  8429     1DDC                     __ptext31:	
  8430 ;; *************** function _putch *****************
  8431 ;; Defined at:
  8432 ;;		line 46 in file "src/protocols/uart.c"
  8433 ;; Parameters:    Size  Location     Type
  8434 ;;  data            1    wreg     unsigned char 
  8435 ;; Auto vars:     Size  Location     Type
  8436 ;;  data            1    0[COMMON] unsigned char 
  8437 ;; Return value:  Size  Location     Type
  8438 ;;                  1    wreg      void 
  8439 ;; Registers used:
  8440 ;;		wreg
  8441 ;; Tracked objects:
  8442 ;;		On entry : 0/0
  8443 ;;		On exit  : 0/0
  8444 ;;		Unchanged: 0/0
  8445 ;; Data sizes:     COMMON   BANK0   BANK1   BANK3   BANK2
  8446 ;;      Params:         0       0       0       0       0
  8447 ;;      Locals:         1       0       0       0       0
  8448 ;;      Temps:          0       0       0       0       0
  8449 ;;      Totals:         1       0       0       0       0
  8450 ;;Total ram usage:        1 bytes
  8451 ;; Hardware stack levels used: 1
  8452 ;; This function calls:
  8453 ;;		Nothing
  8454 ;; This function is called by:
  8455 ;;		_fputc
  8456 ;; This function uses a non-reentrant model
  8457 ;;
  8458                           
  8459     1DDC                     _putch:	
  8460                           ;psect for function _putch
  8461                           
  8462                           
  8463                           ;incstack = 0
  8464 ;; hardware stack exceeded
  8465                           ; Regs used in _putch: [wreg]
  8466                           ;putch@data stored from wreg
  8467     1DDC  00F0               	movwf	putch@data
  8468     1DDD                     i1l2267:
  8469     1DDD                     i1l51:	
  8470                           ;src/protocols/uart.c: 46: void putch (char data);src/protocols/uart.c: 47: {;src/protoc
      +                          ols/uart.c: 48:     while(!TXIF)
  8471                           
  8472                           
  8473                           ;src/protocols/uart.c: 48:     while(!TXIF)
  8474     1DDD  1283               	bcf	3,5	;RP0=0, select bank0
  8475     1DDE  1303               	bcf	3,6	;RP1=0, select bank0
  8476     1DDF  1E0C               	btfss	12,4	;volatile
  8477     1DE0  2DE2               	goto	u258_21
  8478     1DE1  2DE3               	goto	u258_20
  8479     1DE2                     u258_21:
  8480     1DE2  2DDD               	goto	i1l51
  8481     1DE3                     u258_20:
  8482     1DE3                     i1l2269:
  8483                           
  8484                           ;src/protocols/uart.c: 50:     TXREG = data;
  8485     1DE3  0870               	movf	putch@data,w
  8486     1DE4  0099               	movwf	25	;volatile
  8487     1DE5                     i1l54:
  8488     1DE5  0008               	return
  8489     1DE6                     __end_of_putch:
  8490                           
  8491                           	psect	text32
  8492     1E2D                     __ptext32:	
  8493 ;; *************** function _abs *****************
  8494 ;; Defined at:
  8495 ;;		line 1 in file "/opt/microchip/xc8/v2.45/pic/sources/c99/common/abs.c"
  8496 ;; Parameters:    Size  Location     Type
  8497 ;;  a               2    7[COMMON] int 
  8498 ;; Auto vars:     Size  Location     Type
  8499 ;;		None
  8500 ;; Return value:  Size  Location     Type
  8501 ;;                  2    7[COMMON] int 
  8502 ;; Registers used:
  8503 ;;		wreg, status,2, status,0
  8504 ;; Tracked objects:
  8505 ;;		On entry : 0/0
  8506 ;;		On exit  : 0/0
  8507 ;;		Unchanged: 0/0
  8508 ;; Data sizes:     COMMON   BANK0   BANK1   BANK3   BANK2
  8509 ;;      Params:         2       0       0       0       0
  8510 ;;      Locals:         0       0       0       0       0
  8511 ;;      Temps:          2       0       0       0       0
  8512 ;;      Totals:         4       0       0       0       0
  8513 ;;Total ram usage:        4 bytes
  8514 ;; Hardware stack levels used: 1
  8515 ;; This function calls:
  8516 ;;		Nothing
  8517 ;; This function is called by:
  8518 ;;		_dtoa
  8519 ;; This function uses a non-reentrant model
  8520 ;;
  8521                           
  8522     1E2D                     _abs:	
  8523                           ;psect for function _abs
  8524                           
  8525     1E2D                     i1l2973:	
  8526                           ;incstack = 0
  8527                           ; Regs used in _abs: [wreg+status,2+status,0]
  8528                           
  8529     1E2D  1BF8               	btfsc	abs@a+1,7
  8530     1E2E  2E30               	goto	u426_21
  8531     1E2F  2E31               	goto	u426_20
  8532     1E30                     u426_21:
  8533     1E30  2E32               	goto	i1l2977
  8534     1E31                     u426_20:
  8535     1E31                     i1l2975:
  8536     1E31  2E3D               	goto	i1l835
  8537     1E32                     i1l2977:
  8538     1E32  0977               	comf	abs@a,w
  8539     1E33  00F9               	movwf	??_abs
  8540     1E34  0978               	comf	abs@a+1,w
  8541     1E35  00FA               	movwf	??_abs+1
  8542     1E36  0AF9               	incf	??_abs,f
  8543     1E37  1903               	skipnz
  8544     1E38  0AFA               	incf	??_abs+1,f
  8545     1E39  0879               	movf	??_abs,w
  8546     1E3A  00F7               	movwf	?_abs
  8547     1E3B  087A               	movf	??_abs+1,w
  8548     1E3C  00F8               	movwf	?_abs+1
  8549     1E3D                     i1l835:
  8550     1E3D  0008               	return
  8551     1E3E                     __end_of_abs:
  8552                           
  8553                           	psect	text33
  8554     115C                     __ptext33:	
  8555 ;; *************** function ___awmod *****************
  8556 ;; Defined at:
  8557 ;;		line 5 in file "/opt/microchip/xc8/v2.45/pic/sources/c99/common/awmod.c"
  8558 ;; Parameters:    Size  Location     Type
  8559 ;;  divisor         2    0[COMMON] int 
  8560 ;;  dividend        2    2[COMMON] int 
  8561 ;; Auto vars:     Size  Location     Type
  8562 ;;  sign            1    6[COMMON] unsigned char 
  8563 ;;  counter         1    5[COMMON] unsigned char 
  8564 ;; Return value:  Size  Location     Type
  8565 ;;                  2    0[COMMON] int 
  8566 ;; Registers used:
  8567 ;;		wreg, status,2, status,0
  8568 ;; Tracked objects:
  8569 ;;		On entry : 0/0
  8570 ;;		On exit  : 0/0
  8571 ;;		Unchanged: 0/0
  8572 ;; Data sizes:     COMMON   BANK0   BANK1   BANK3   BANK2
  8573 ;;      Params:         4       0       0       0       0
  8574 ;;      Locals:         2       0       0       0       0
  8575 ;;      Temps:          1       0       0       0       0
  8576 ;;      Totals:         7       0       0       0       0
  8577 ;;Total ram usage:        7 bytes
  8578 ;; Hardware stack levels used: 1
  8579 ;; This function calls:
  8580 ;;		Nothing
  8581 ;; This function is called by:
  8582 ;;		_dtoa
  8583 ;; This function uses a non-reentrant model
  8584 ;;
  8585                           
  8586     115C                     ___awmod:	
  8587                           ;psect for function ___awmod
  8588                           
  8589     115C                     i1l2559:	
  8590                           ;incstack = 0
  8591                           ; Regs used in ___awmod: [wreg+status,2+status,0]
  8592                           
  8593     115C  01F6               	clrf	___awmod@sign
  8594     115D                     i1l2561:
  8595     115D  1FF3               	btfss	___awmod@dividend+1,7
  8596     115E  2960               	goto	u327_21
  8597     115F  2961               	goto	u327_20
  8598     1160                     u327_21:
  8599     1160  2968               	goto	i1l2567
  8600     1161                     u327_20:
  8601     1161                     i1l2563:
  8602     1161  09F2               	comf	___awmod@dividend,f
  8603     1162  09F3               	comf	___awmod@dividend+1,f
  8604     1163  0AF2               	incf	___awmod@dividend,f
  8605     1164  1903               	skipnz
  8606     1165  0AF3               	incf	___awmod@dividend+1,f
  8607     1166                     i1l2565:
  8608     1166  01F6               	clrf	___awmod@sign
  8609     1167  0AF6               	incf	___awmod@sign,f
  8610     1168                     i1l2567:
  8611     1168  1FF1               	btfss	___awmod@divisor+1,7
  8612     1169  296B               	goto	u328_21
  8613     116A  296C               	goto	u328_20
  8614     116B                     u328_21:
  8615     116B  2971               	goto	i1l2571
  8616     116C                     u328_20:
  8617     116C                     i1l2569:
  8618     116C  09F0               	comf	___awmod@divisor,f
  8619     116D  09F1               	comf	___awmod@divisor+1,f
  8620     116E  0AF0               	incf	___awmod@divisor,f
  8621     116F  1903               	skipnz
  8622     1170  0AF1               	incf	___awmod@divisor+1,f
  8623     1171                     i1l2571:
  8624     1171  0870               	movf	___awmod@divisor,w
  8625     1172  0471               	iorwf	___awmod@divisor+1,w
  8626     1173  1903               	btfsc	3,2
  8627     1174  2976               	goto	u329_21
  8628     1175  2977               	goto	u329_20
  8629     1176                     u329_21:
  8630     1176  29A6               	goto	i1l2589
  8631     1177                     u329_20:
  8632     1177                     i1l2573:
  8633     1177  01F5               	clrf	___awmod@counter
  8634     1178  0AF5               	incf	___awmod@counter,f
  8635     1179  2985               	goto	i1l2579
  8636     117A                     i1l2575:
  8637     117A  3001               	movlw	1
  8638     117B                     u330_25:
  8639     117B  1003               	clrc
  8640     117C  0DF0               	rlf	___awmod@divisor,f
  8641     117D  0DF1               	rlf	___awmod@divisor+1,f
  8642     117E  3EFF               	addlw	-1
  8643     117F  1D03               	skipz
  8644     1180  297B               	goto	u330_25
  8645     1181                     i1l2577:
  8646     1181  3001               	movlw	1
  8647     1182  00F4               	movwf	??___awmod
  8648     1183  0874               	movf	??___awmod,w
  8649     1184  07F5               	addwf	___awmod@counter,f
  8650     1185                     i1l2579:
  8651     1185  1FF1               	btfss	___awmod@divisor+1,7
  8652     1186  2988               	goto	u331_21
  8653     1187  2989               	goto	u331_20
  8654     1188                     u331_21:
  8655     1188  297A               	goto	i1l2575
  8656     1189                     u331_20:
  8657     1189                     i1l2581:
  8658     1189  0871               	movf	___awmod@divisor+1,w
  8659     118A  0273               	subwf	___awmod@dividend+1,w
  8660     118B  1D03               	skipz
  8661     118C  298F               	goto	u332_25
  8662     118D  0870               	movf	___awmod@divisor,w
  8663     118E  0272               	subwf	___awmod@dividend,w
  8664     118F                     u332_25:
  8665     118F  1C03               	skipc
  8666     1190  2992               	goto	u332_21
  8667     1191  2993               	goto	u332_20
  8668     1192                     u332_21:
  8669     1192  2999               	goto	i1l2585
  8670     1193                     u332_20:
  8671     1193                     i1l2583:
  8672     1193  0870               	movf	___awmod@divisor,w
  8673     1194  02F2               	subwf	___awmod@dividend,f
  8674     1195  0871               	movf	___awmod@divisor+1,w
  8675     1196  1C03               	skipc
  8676     1197  03F3               	decf	___awmod@dividend+1,f
  8677     1198  02F3               	subwf	___awmod@dividend+1,f
  8678     1199                     i1l2585:
  8679     1199  3001               	movlw	1
  8680     119A                     u333_25:
  8681     119A  1003               	clrc
  8682     119B  0CF1               	rrf	___awmod@divisor+1,f
  8683     119C  0CF0               	rrf	___awmod@divisor,f
  8684     119D  3EFF               	addlw	-1
  8685     119E  1D03               	skipz
  8686     119F  299A               	goto	u333_25
  8687     11A0                     i1l2587:
  8688     11A0  3001               	movlw	1
  8689     11A1  02F5               	subwf	___awmod@counter,f
  8690     11A2  1D03               	btfss	3,2
  8691     11A3  29A5               	goto	u334_21
  8692     11A4  29A6               	goto	u334_20
  8693     11A5                     u334_21:
  8694     11A5  2989               	goto	i1l2581
  8695     11A6                     u334_20:
  8696     11A6                     i1l2589:
  8697     11A6  0876               	movf	___awmod@sign,w
  8698     11A7  1903               	btfsc	3,2
  8699     11A8  29AA               	goto	u335_21
  8700     11A9  29AB               	goto	u335_20
  8701     11AA                     u335_21:
  8702     11AA  29B0               	goto	i1l2593
  8703     11AB                     u335_20:
  8704     11AB                     i1l2591:
  8705     11AB  09F2               	comf	___awmod@dividend,f
  8706     11AC  09F3               	comf	___awmod@dividend+1,f
  8707     11AD  0AF2               	incf	___awmod@dividend,f
  8708     11AE  1903               	skipnz
  8709     11AF  0AF3               	incf	___awmod@dividend+1,f
  8710     11B0                     i1l2593:
  8711     11B0  0873               	movf	___awmod@dividend+1,w
  8712     11B1  00F1               	movwf	?___awmod+1
  8713     11B2  0872               	movf	___awmod@dividend,w
  8714     11B3  00F0               	movwf	?___awmod
  8715     11B4                     i1l363:
  8716     11B4  0008               	return
  8717     11B5                     __end_of___awmod:
  8718                           
  8719                           	psect	text34
  8720     0802                     __ptext34:	
  8721 ;; *************** function ___awdiv *****************
  8722 ;; Defined at:
  8723 ;;		line 5 in file "/opt/microchip/xc8/v2.45/pic/sources/c99/common/awdiv.c"
  8724 ;; Parameters:    Size  Location     Type
  8725 ;;  divisor         2    0[COMMON] int 
  8726 ;;  dividend        2    2[COMMON] int 
  8727 ;; Auto vars:     Size  Location     Type
  8728 ;;  quotient        2    7[COMMON] int 
  8729 ;;  sign            1    6[COMMON] unsigned char 
  8730 ;;  counter         1    5[COMMON] unsigned char 
  8731 ;; Return value:  Size  Location     Type
  8732 ;;                  2    0[COMMON] int 
  8733 ;; Registers used:
  8734 ;;		wreg, status,2, status,0
  8735 ;; Tracked objects:
  8736 ;;		On entry : 0/0
  8737 ;;		On exit  : 0/0
  8738 ;;		Unchanged: 0/0
  8739 ;; Data sizes:     COMMON   BANK0   BANK1   BANK3   BANK2
  8740 ;;      Params:         4       0       0       0       0
  8741 ;;      Locals:         4       0       0       0       0
  8742 ;;      Temps:          1       0       0       0       0
  8743 ;;      Totals:         9       0       0       0       0
  8744 ;;Total ram usage:        9 bytes
  8745 ;; Hardware stack levels used: 1
  8746 ;; This function calls:
  8747 ;;		Nothing
  8748 ;; This function is called by:
  8749 ;;		_dtoa
  8750 ;; This function uses a non-reentrant model
  8751 ;;
  8752                           
  8753     0802                     ___awdiv:	
  8754                           ;psect for function ___awdiv
  8755                           
  8756     0802                     i1l2515:	
  8757                           ;incstack = 0
  8758                           ; Regs used in ___awdiv: [wreg+status,2+status,0]
  8759                           
  8760     0802  01F6               	clrf	___awdiv@sign
  8761     0803                     i1l2517:
  8762     0803  1FF1               	btfss	___awdiv@divisor+1,7
  8763     0804  2806               	goto	u317_21
  8764     0805  2807               	goto	u317_20
  8765     0806                     u317_21:
  8766     0806  280E               	goto	i1l2523
  8767     0807                     u317_20:
  8768     0807                     i1l2519:
  8769     0807  09F0               	comf	___awdiv@divisor,f
  8770     0808  09F1               	comf	___awdiv@divisor+1,f
  8771     0809  0AF0               	incf	___awdiv@divisor,f
  8772     080A  1903               	skipnz
  8773     080B  0AF1               	incf	___awdiv@divisor+1,f
  8774     080C                     i1l2521:
  8775     080C  01F6               	clrf	___awdiv@sign
  8776     080D  0AF6               	incf	___awdiv@sign,f
  8777     080E                     i1l2523:
  8778     080E  1FF3               	btfss	___awdiv@dividend+1,7
  8779     080F  2811               	goto	u318_21
  8780     0810  2812               	goto	u318_20
  8781     0811                     u318_21:
  8782     0811  281B               	goto	i1l2529
  8783     0812                     u318_20:
  8784     0812                     i1l2525:
  8785     0812  09F2               	comf	___awdiv@dividend,f
  8786     0813  09F3               	comf	___awdiv@dividend+1,f
  8787     0814  0AF2               	incf	___awdiv@dividend,f
  8788     0815  1903               	skipnz
  8789     0816  0AF3               	incf	___awdiv@dividend+1,f
  8790     0817                     i1l2527:
  8791     0817  3001               	movlw	1
  8792     0818  00F4               	movwf	??___awdiv
  8793     0819  0874               	movf	??___awdiv,w
  8794     081A  06F6               	xorwf	___awdiv@sign,f
  8795     081B                     i1l2529:
  8796     081B  01F7               	clrf	___awdiv@quotient
  8797     081C  01F8               	clrf	___awdiv@quotient+1
  8798     081D                     i1l2531:
  8799     081D  0870               	movf	___awdiv@divisor,w
  8800     081E  0471               	iorwf	___awdiv@divisor+1,w
  8801     081F  1903               	btfsc	3,2
  8802     0820  2822               	goto	u319_21
  8803     0821  2823               	goto	u319_20
  8804     0822                     u319_21:
  8805     0822  285A               	goto	i1l2551
  8806     0823                     u319_20:
  8807     0823                     i1l2533:
  8808     0823  01F5               	clrf	___awdiv@counter
  8809     0824  0AF5               	incf	___awdiv@counter,f
  8810     0825  2831               	goto	i1l2539
  8811     0826                     i1l2535:
  8812     0826  3001               	movlw	1
  8813     0827                     u320_25:
  8814     0827  1003               	clrc
  8815     0828  0DF0               	rlf	___awdiv@divisor,f
  8816     0829  0DF1               	rlf	___awdiv@divisor+1,f
  8817     082A  3EFF               	addlw	-1
  8818     082B  1D03               	skipz
  8819     082C  2827               	goto	u320_25
  8820     082D                     i1l2537:
  8821     082D  3001               	movlw	1
  8822     082E  00F4               	movwf	??___awdiv
  8823     082F  0874               	movf	??___awdiv,w
  8824     0830  07F5               	addwf	___awdiv@counter,f
  8825     0831                     i1l2539:
  8826     0831  1FF1               	btfss	___awdiv@divisor+1,7
  8827     0832  2834               	goto	u321_21
  8828     0833  2835               	goto	u321_20
  8829     0834                     u321_21:
  8830     0834  2826               	goto	i1l2535
  8831     0835                     u321_20:
  8832     0835                     i1l2541:
  8833     0835  3001               	movlw	1
  8834     0836                     u322_25:
  8835     0836  1003               	clrc
  8836     0837  0DF7               	rlf	___awdiv@quotient,f
  8837     0838  0DF8               	rlf	___awdiv@quotient+1,f
  8838     0839  3EFF               	addlw	-1
  8839     083A  1D03               	skipz
  8840     083B  2836               	goto	u322_25
  8841     083C  0871               	movf	___awdiv@divisor+1,w
  8842     083D  0273               	subwf	___awdiv@dividend+1,w
  8843     083E  1D03               	skipz
  8844     083F  2842               	goto	u323_25
  8845     0840  0870               	movf	___awdiv@divisor,w
  8846     0841  0272               	subwf	___awdiv@dividend,w
  8847     0842                     u323_25:
  8848     0842  1C03               	skipc
  8849     0843  2845               	goto	u323_21
  8850     0844  2846               	goto	u323_20
  8851     0845                     u323_21:
  8852     0845  284D               	goto	i1l2547
  8853     0846                     u323_20:
  8854     0846                     i1l2543:
  8855     0846  0870               	movf	___awdiv@divisor,w
  8856     0847  02F2               	subwf	___awdiv@dividend,f
  8857     0848  0871               	movf	___awdiv@divisor+1,w
  8858     0849  1C03               	skipc
  8859     084A  03F3               	decf	___awdiv@dividend+1,f
  8860     084B  02F3               	subwf	___awdiv@dividend+1,f
  8861     084C                     i1l2545:
  8862     084C  1477               	bsf	___awdiv@quotient,0
  8863     084D                     i1l2547:
  8864     084D  3001               	movlw	1
  8865     084E                     u324_25:
  8866     084E  1003               	clrc
  8867     084F  0CF1               	rrf	___awdiv@divisor+1,f
  8868     0850  0CF0               	rrf	___awdiv@divisor,f
  8869     0851  3EFF               	addlw	-1
  8870     0852  1D03               	skipz
  8871     0853  284E               	goto	u324_25
  8872     0854                     i1l2549:
  8873     0854  3001               	movlw	1
  8874     0855  02F5               	subwf	___awdiv@counter,f
  8875     0856  1D03               	btfss	3,2
  8876     0857  2859               	goto	u325_21
  8877     0858  285A               	goto	u325_20
  8878     0859                     u325_21:
  8879     0859  2835               	goto	i1l2541
  8880     085A                     u325_20:
  8881     085A                     i1l2551:
  8882     085A  0876               	movf	___awdiv@sign,w
  8883     085B  1903               	btfsc	3,2
  8884     085C  285E               	goto	u326_21
  8885     085D  285F               	goto	u326_20
  8886     085E                     u326_21:
  8887     085E  2864               	goto	i1l2555
  8888     085F                     u326_20:
  8889     085F                     i1l2553:
  8890     085F  09F7               	comf	___awdiv@quotient,f
  8891     0860  09F8               	comf	___awdiv@quotient+1,f
  8892     0861  0AF7               	incf	___awdiv@quotient,f
  8893     0862  1903               	skipnz
  8894     0863  0AF8               	incf	___awdiv@quotient+1,f
  8895     0864                     i1l2555:
  8896     0864  0878               	movf	___awdiv@quotient+1,w
  8897     0865  00F1               	movwf	?___awdiv+1
  8898     0866  0877               	movf	___awdiv@quotient,w
  8899     0867  00F0               	movwf	?___awdiv
  8900     0868                     i1l350:
  8901     0868  0008               	return
  8902     0869                     __end_of___awdiv:
  8903                           
  8904                           	psect	text35
  8905     1E0D                     __ptext35:	
  8906 ;; *************** function _read_noise_channel *****************
  8907 ;; Defined at:
  8908 ;;		line 3 in file "src/sensors/noise.c"
  8909 ;; Parameters:    Size  Location     Type
  8910 ;;		None
  8911 ;; Auto vars:     Size  Location     Type
  8912 ;;		None
  8913 ;; Return value:  Size  Location     Type
  8914 ;;                  2   10[COMMON] unsigned short 
  8915 ;; Registers used:
  8916 ;;		wreg, status,2, status,0, pclath, cstack
  8917 ;; Tracked objects:
  8918 ;;		On entry : 0/0
  8919 ;;		On exit  : 0/0
  8920 ;;		Unchanged: 0/0
  8921 ;; Data sizes:     COMMON   BANK0   BANK1   BANK3   BANK2
  8922 ;;      Params:         2       0       0       0       0
  8923 ;;      Locals:         0       0       0       0       0
  8924 ;;      Temps:          0       0       0       0       0
  8925 ;;      Totals:         2       0       0       0       0
  8926 ;;Total ram usage:        2 bytes
  8927 ;; Hardware stack levels used: 1
  8928 ;; Hardware stack levels required when called: 1
  8929 ;; This function calls:
  8930 ;;		_read_adc_channel
  8931 ;; This function is called by:
  8932 ;;		_noise_interruption
  8933 ;; This function uses a non-reentrant model
  8934 ;;
  8935                           
  8936     1E0D                     _read_noise_channel:	
  8937                           ;psect for function _read_noise_channel
  8938                           
  8939     1E0D                     i1l3513:	
  8940                           ;incstack = 0
  8941                           ; Regs used in _read_noise_channel: [wreg+status,2+status,0+pclath+cstack]
  8942                           
  8943                           
  8944                           ;src/sensors/noise.c: 5:     ADCON0bits.CHS = 0b1000;
  8945     1E0D  1283               	bcf	3,5	;RP0=0, select bank0
  8946     1E0E  1303               	bcf	3,6	;RP1=0, select bank0
  8947     1E0F  081F               	movf	31,w	;volatile
  8948     1E10  39C3               	andlw	-61
  8949     1E11  3820               	iorlw	32
  8950     1E12  009F               	movwf	31	;volatile
  8951     1E13                     i1l3515:
  8952                           
  8953                           ;src/sensors/noise.c: 6:     return read_adc_channel ();
  8954     1E13  160A  158A  2683  160A  158A  	fcall	_read_adc_channel
  8955     1E18  0871               	movf	?_read_adc_channel+1,w
  8956     1E19  00FB               	movwf	?_read_noise_channel+1
  8957     1E1A  0870               	movf	?_read_adc_channel,w
  8958     1E1B  00FA               	movwf	?_read_noise_channel
  8959     1E1C                     i1l63:
  8960     1E1C  0008               	return
  8961     1E1D                     __end_of_read_noise_channel:
  8962                           
  8963                           	psect	text36
  8964     1E83                     __ptext36:	
  8965 ;; *************** function _read_adc_channel *****************
  8966 ;; Defined at:
  8967 ;;		line 12 in file "src/adc/adc.c"
  8968 ;; Parameters:    Size  Location     Type
  8969 ;;		None
  8970 ;; Auto vars:     Size  Location     Type
  8971 ;;  adc_value       2    8[COMMON] unsigned short 
  8972 ;; Return value:  Size  Location     Type
  8973 ;;                  2    0[COMMON] unsigned short 
  8974 ;; Registers used:
  8975 ;;		wreg
  8976 ;; Tracked objects:
  8977 ;;		On entry : 0/0
  8978 ;;		On exit  : 0/0
  8979 ;;		Unchanged: 0/0
  8980 ;; Data sizes:     COMMON   BANK0   BANK1   BANK3   BANK2
  8981 ;;      Params:         2       0       0       0       0
  8982 ;;      Locals:         2       0       0       0       0
  8983 ;;      Temps:          6       0       0       0       0
  8984 ;;      Totals:        10       0       0       0       0
  8985 ;;Total ram usage:       10 bytes
  8986 ;; Hardware stack levels used: 1
  8987 ;; This function calls:
  8988 ;;		Nothing
  8989 ;; This function is called by:
  8990 ;;		_read_noise_channel
  8991 ;; This function uses a non-reentrant model
  8992 ;;
  8993                           
  8994     1E83                     _read_adc_channel:	
  8995                           ;psect for function _read_adc_channel
  8996                           
  8997     1E83                     i1l3469:	
  8998                           ;incstack = 0
  8999                           ; Regs used in _read_adc_channel: [wreg]
  9000                           
  9001                           
  9002                           ;src/adc/adc.c: 14:     uint16_t adc_value;;src/adc/adc.c: 15:     ADCON0bits.GO = 1;
  9003     1E83  1283               	bcf	3,5	;RP0=0, select bank0
  9004     1E84  1303               	bcf	3,6	;RP1=0, select bank0
  9005     1E85  149F               	bsf	31,1	;volatile
  9006     1E86                     i1l3471:
  9007                           
  9008                           ;src/adc/adc.c: 16:     adc_value = ADRESH;
  9009     1E86  081E               	movf	30,w	;volatile
  9010     1E87  00F2               	movwf	??_read_adc_channel
  9011     1E88  01F3               	clrf	??_read_adc_channel+1
  9012     1E89  0872               	movf	??_read_adc_channel,w
  9013     1E8A  00F8               	movwf	read_adc_channel@adc_value
  9014     1E8B  0873               	movf	??_read_adc_channel+1,w
  9015     1E8C  00F9               	movwf	read_adc_channel@adc_value+1
  9016                           
  9017                           ;src/adc/adc.c: 17:     adc_value = (adc_value << 8) | ADRESL;
  9018     1E8D  1683               	bsf	3,5	;RP0=1, select bank1
  9019     1E8E  1303               	bcf	3,6	;RP1=0, select bank1
  9020     1E8F  081E               	movf	30,w	;volatile
  9021     1E90  00F2               	movwf	??_read_adc_channel
  9022     1E91  01F3               	clrf	??_read_adc_channel+1
  9023     1E92  0878               	movf	read_adc_channel@adc_value,w
  9024     1E93  00F5               	movwf	??_read_adc_channel+3
  9025     1E94  01F4               	clrf	??_read_adc_channel+2
  9026     1E95  0872               	movf	??_read_adc_channel,w
  9027     1E96  0474               	iorwf	??_read_adc_channel+2,w
  9028     1E97  00F6               	movwf	??_read_adc_channel+4
  9029     1E98  0873               	movf	??_read_adc_channel+1,w
  9030     1E99  0475               	iorwf	??_read_adc_channel+3,w
  9031     1E9A  00F7               	movwf	??_read_adc_channel+5
  9032     1E9B  0876               	movf	??_read_adc_channel+4,w
  9033     1E9C  00F8               	movwf	read_adc_channel@adc_value
  9034     1E9D  0877               	movf	??_read_adc_channel+5,w
  9035     1E9E  00F9               	movwf	read_adc_channel@adc_value+1
  9036                           
  9037                           ;src/adc/adc.c: 18:     return adc_value & 0x03FF;
  9038     1E9F  30FF               	movlw	255
  9039     1EA0  0578               	andwf	read_adc_channel@adc_value,w
  9040     1EA1  00F0               	movwf	?_read_adc_channel
  9041     1EA2  3003               	movlw	3
  9042     1EA3  0579               	andwf	read_adc_channel@adc_value+1,w
  9043     1EA4  00F1               	movwf	?_read_adc_channel+1
  9044     1EA5                     i1l14:
  9045     1EA5  0008               	return
  9046     1EA6                     __end_of_read_adc_channel:
  9047     007E                     btemp	set	126	;btemp
  9048     007E                     wtemp0	set	126
  9049                           
  9050                           	psect	config
  9051                           
  9052                           ;Config register CONFIG1 @ 0x2007
  9053                           ;	Oscillator Selection bits
  9054                           ;	FOSC = HS, HS oscillator: High-speed crystal/resonator on RA6/OSC2/CLKOUT and RA7/OSC1
      +                          /CLKIN
  9055                           ;	Watchdog Timer Enable bit
  9056                           ;	WDTE = OFF, WDT disabled and can be enabled by SWDTEN bit of the WDTCON register
  9057                           ;	Power-up Timer Enable bit
  9058                           ;	PWRTE = ON, PWRT enabled
  9059                           ;	RE3/MCLR pin function select bit
  9060                           ;	MCLRE = ON, RE3/MCLR pin function is MCLR
  9061                           ;	Code Protection bit
  9062                           ;	CP = OFF, Program memory code protection is disabled
  9063                           ;	Data Code Protection bit
  9064                           ;	CPD = OFF, Data memory code protection is disabled
  9065                           ;	Brown Out Reset Selection bits
  9066                           ;	BOREN = OFF, BOR disabled
  9067                           ;	Internal External Switchover bit
  9068                           ;	IESO = OFF, Internal/External Switchover mode is disabled
  9069                           ;	Fail-Safe Clock Monitor Enabled bit
  9070                           ;	FCMEN = OFF, Fail-Safe Clock Monitor is disabled
  9071                           ;	Low Voltage Programming Enable bit
  9072                           ;	LVP = OFF, RB3 pin has digital I/O, HV on MCLR must be used for programming
  9073                           ;	In-Circuit Debugger Mode bit
  9074                           ;	DEBUG = OFF, In-Circuit Debugger disabled, RB6/ICSPCLK and RB7/ICSPDAT are general pur
      +                          pose I/O pins
  9075     2007                     	org	8199
  9076     2007  20E2               	dw	8418
  9077                           
  9078                           ;Config register CONFIG2 @ 0x2008
  9079                           ;	Brown-out Reset Selection bit
  9080                           ;	BOR4V = BOR21V, Brown-out Reset set to 2.1V
  9081                           ;	Flash Program Memory Self Write Enable bits
  9082                           ;	WRT = OFF, Write protection off
  9083     2008                     	org	8200
  9084     2008  3EFF               	dw	16127
  9085                           
  9086                           	psect	text12_split_1
  9087     0032                     i1l3147:
  9088                           
  9089                           ;/opt/microchip/xc8/v2.45/pic/sources/c99/common/doprnt.c: 657:     u.f = 1.0;
  9090     0032  303F               	movlw	63
  9091     0033  1683               	bsf	3,5	;RP0=1, select bank1
  9092     0034  1303               	bcf	3,6	;RP1=0, select bank1
  9093     0035  00CC               	movwf	(efgtoa@u+3)^(0+128)
  9094     0036  3080               	movlw	128
  9095     0037  00CB               	movwf	(efgtoa@u+2)^(0+128)
  9096     0038  3000               	movlw	0
  9097     0039  00CA               	movwf	(efgtoa@u+1)^(0+128)
  9098     003A  3000               	movlw	0
  9099     003B  00C9               	movwf	efgtoa@u^(0+128)
  9100     003C                     i1l3149:
  9101                           
  9102                           ;/opt/microchip/xc8/v2.45/pic/sources/c99/common/doprnt.c: 658:     e = 0;
  9103     003C  01B0               	clrf	efgtoa@e^(0+128)
  9104     003D  01B1               	clrf	(efgtoa@e+1)^(0+128)
  9105     003E                     i1l3151:
  9106                           
  9107                           ;/opt/microchip/xc8/v2.45/pic/sources/c99/common/doprnt.c: 659:  if (!(g.f == 0.0)) {
  9108     003E  0848               	movf	(efgtoa@g+3)^(0+128),w
  9109     003F  00F3               	movwf	___fleq@ff1+3
  9110     0040  0847               	movf	(efgtoa@g+2)^(0+128),w
  9111     0041  00F2               	movwf	___fleq@ff1+2
  9112     0042  0846               	movf	(efgtoa@g+1)^(0+128),w
  9113     0043  00F1               	movwf	___fleq@ff1+1
  9114     0044  0845               	movf	efgtoa@g^(0+128),w
  9115     0045  00F0               	movwf	___fleq@ff1
  9116     0046  3000               	movlw	0
  9117     0047  00F7               	movwf	___fleq@ff2+3
  9118     0048  3000               	movlw	0
  9119     0049  00F6               	movwf	___fleq@ff2+2
  9120     004A  3000               	movlw	0
  9121     004B  00F5               	movwf	___fleq@ff2+1
  9122     004C  3000               	movlw	0
  9123     004D  00F4               	movwf	___fleq@ff2
  9124     004E  160A  118A  2060  120A  118A  	fcall	___fleq
  9125     0053  1803               	btfsc	3,0
  9126     0054  2856               	goto	u466_21
  9127     0055  2857               	goto	u466_20
  9128     0056                     u466_21:
  9129     0056  2A68               	goto	i1l3177
  9130     0057                     u466_20:
  9131     0057  2868               	goto	i1l3157
  9132     0058                     i1l3155:
  9133                           
  9134                           ;/opt/microchip/xc8/v2.45/pic/sources/c99/common/doprnt.c: 661:    u = ou;
  9135     0058  1683               	bsf	3,5	;RP0=1, select bank1
  9136     0059  1303               	bcf	3,6	;RP1=0, select bank1
  9137     005A  0837               	movf	(efgtoa@ou+3)^(0+128),w
  9138     005B  00CC               	movwf	(efgtoa@u+3)^(0+128)
  9139     005C  0836               	movf	(efgtoa@ou+2)^(0+128),w
  9140     005D  00CB               	movwf	(efgtoa@u+2)^(0+128)
  9141     005E  0835               	movf	(efgtoa@ou+1)^(0+128),w
  9142     005F  00CA               	movwf	(efgtoa@u+1)^(0+128)
  9143     0060  0834               	movf	efgtoa@ou^(0+128),w
  9144     0061  00C9               	movwf	efgtoa@u^(0+128)
  9145                           
  9146                           ;/opt/microchip/xc8/v2.45/pic/sources/c99/common/doprnt.c: 662:    ++e;
  9147     0062  3001               	movlw	1
  9148     0063  07B0               	addwf	efgtoa@e^(0+128),f
  9149     0064  1803               	skipnc
  9150     0065  0AB1               	incf	(efgtoa@e+1)^(0+128),f
  9151     0066  3000               	movlw	0
  9152     0067  07B1               	addwf	(efgtoa@e+1)^(0+128),f
  9153     0068                     i1l3157:
  9154                           
  9155                           ;/opt/microchip/xc8/v2.45/pic/sources/c99/common/doprnt.c: 660:   while ((labs((g).u-((o
      +                          u.f = u.f*10.0,ou)).u) <= 1) || g.f > ou.f) {
  9156     0068  3041               	movlw	65
  9157     0069  1283               	bcf	3,5	;RP0=0, select bank0
  9158     006A  1303               	bcf	3,6	;RP1=0, select bank0
  9159     006B  00A3               	movwf	___flmul@b+3
  9160     006C  3020               	movlw	32
  9161     006D  00A2               	movwf	___flmul@b+2
  9162     006E  3000               	movlw	0
  9163     006F  00A1               	movwf	___flmul@b+1
  9164     0070  3000               	movlw	0
  9165     0071  00A0               	movwf	___flmul@b
  9166     0072  1683               	bsf	3,5	;RP0=1, select bank1
  9167     0073  1303               	bcf	3,6	;RP1=0, select bank1
  9168     0074  084C               	movf	(efgtoa@u+3)^(0+128),w
  9169     0075  1283               	bcf	3,5	;RP0=0, select bank0
  9170     0076  1303               	bcf	3,6	;RP1=0, select bank0
  9171     0077  00A7               	movwf	___flmul@a+3
  9172     0078  1683               	bsf	3,5	;RP0=1, select bank1
  9173     0079  1303               	bcf	3,6	;RP1=0, select bank1
  9174     007A  084B               	movf	(efgtoa@u+2)^(0+128),w
  9175     007B  1283               	bcf	3,5	;RP0=0, select bank0
  9176     007C  1303               	bcf	3,6	;RP1=0, select bank0
  9177     007D  00A6               	movwf	___flmul@a+2
  9178     007E  1683               	bsf	3,5	;RP0=1, select bank1
  9179     007F  1303               	bcf	3,6	;RP1=0, select bank1
  9180     0080  084A               	movf	(efgtoa@u+1)^(0+128),w
  9181     0081  1283               	bcf	3,5	;RP0=0, select bank0
  9182     0082  1303               	bcf	3,6	;RP1=0, select bank0
  9183     0083  00A5               	movwf	___flmul@a+1
  9184     0084  1683               	bsf	3,5	;RP0=1, select bank1
  9185     0085  1303               	bcf	3,6	;RP1=0, select bank1
  9186     0086  0849               	movf	efgtoa@u^(0+128),w
  9187     0087  1283               	bcf	3,5	;RP0=0, select bank0
  9188     0088  1303               	bcf	3,6	;RP1=0, select bank0
  9189     0089  00A4               	movwf	___flmul@a
  9190     008A  120A  158A  24BB  120A  118A  	fcall	___flmul
  9191     008F  1283               	bcf	3,5	;RP0=0, select bank0
  9192     0090  1303               	bcf	3,6	;RP1=0, select bank0
  9193     0091  0823               	movf	?___flmul+3,w
  9194     0092  1683               	bsf	3,5	;RP0=1, select bank1
  9195     0093  1303               	bcf	3,6	;RP1=0, select bank1
  9196     0094  00B7               	movwf	(efgtoa@ou+3)^(0+128)
  9197     0095  1283               	bcf	3,5	;RP0=0, select bank0
  9198     0096  1303               	bcf	3,6	;RP1=0, select bank0
  9199     0097  0822               	movf	?___flmul+2,w
  9200     0098  1683               	bsf	3,5	;RP0=1, select bank1
  9201     0099  1303               	bcf	3,6	;RP1=0, select bank1
  9202     009A  00B6               	movwf	(efgtoa@ou+2)^(0+128)
  9203     009B  1283               	bcf	3,5	;RP0=0, select bank0
  9204     009C  1303               	bcf	3,6	;RP1=0, select bank0
  9205     009D  0821               	movf	?___flmul+1,w
  9206     009E  1683               	bsf	3,5	;RP0=1, select bank1
  9207     009F  1303               	bcf	3,6	;RP1=0, select bank1
  9208     00A0  00B5               	movwf	(efgtoa@ou+1)^(0+128)
  9209     00A1  1283               	bcf	3,5	;RP0=0, select bank0
  9210     00A2  1303               	bcf	3,6	;RP1=0, select bank0
  9211     00A3  0820               	movf	?___flmul,w
  9212     00A4  1683               	bsf	3,5	;RP0=1, select bank1
  9213     00A5  1303               	bcf	3,6	;RP1=0, select bank1
  9214     00A6  00B4               	movwf	efgtoa@ou^(0+128)
  9215     00A7                     i1l3159:
  9216     00A7  0845               	movf	efgtoa@g^(0+128),w
  9217     00A8  1283               	bcf	3,5	;RP0=0, select bank0
  9218     00A9  1303               	bcf	3,6	;RP1=0, select bank0
  9219     00AA  00C6               	movwf	??_efgtoa
  9220     00AB  1683               	bsf	3,5	;RP0=1, select bank1
  9221     00AC  1303               	bcf	3,6	;RP1=0, select bank1
  9222     00AD  0846               	movf	(efgtoa@g+1)^(0+128),w
  9223     00AE  1283               	bcf	3,5	;RP0=0, select bank0
  9224     00AF  1303               	bcf	3,6	;RP1=0, select bank0
  9225     00B0  00C7               	movwf	??_efgtoa+1
  9226     00B1  1683               	bsf	3,5	;RP0=1, select bank1
  9227     00B2  1303               	bcf	3,6	;RP1=0, select bank1
  9228     00B3  0847               	movf	(efgtoa@g+2)^(0+128),w
  9229     00B4  1283               	bcf	3,5	;RP0=0, select bank0
  9230     00B5  1303               	bcf	3,6	;RP1=0, select bank0
  9231     00B6  00C8               	movwf	??_efgtoa+2
  9232     00B7  1683               	bsf	3,5	;RP0=1, select bank1
  9233     00B8  1303               	bcf	3,6	;RP1=0, select bank1
  9234     00B9  0848               	movf	(efgtoa@g+3)^(0+128),w
  9235     00BA  1283               	bcf	3,5	;RP0=0, select bank0
  9236     00BB  1303               	bcf	3,6	;RP1=0, select bank0
  9237     00BC  00C9               	movwf	??_efgtoa+3
  9238     00BD  1683               	bsf	3,5	;RP0=1, select bank1
  9239     00BE  1303               	bcf	3,6	;RP1=0, select bank1
  9240     00BF  0834               	movf	efgtoa@ou^(0+128),w
  9241     00C0  1283               	bcf	3,5	;RP0=0, select bank0
  9242     00C1  1303               	bcf	3,6	;RP1=0, select bank0
  9243     00C2  02C6               	subwf	??_efgtoa,f
  9244     00C3  1683               	bsf	3,5	;RP0=1, select bank1
  9245     00C4  1303               	bcf	3,6	;RP1=0, select bank1
  9246     00C5  0835               	movf	(efgtoa@ou+1)^(0+128),w
  9247     00C6  1C03               	skipc
  9248     00C7  0F35               	incfsz	(efgtoa@ou+1)^(0+128),w
  9249     00C8  28CA               	goto	u467_21
  9250     00C9  28CD               	goto	u467_22
  9251     00CA                     u467_21:
  9252     00CA  1283               	bcf	3,5	;RP0=0, select bank0
  9253     00CB  1303               	bcf	3,6	;RP1=0, select bank0
  9254     00CC  02C7               	subwf	??_efgtoa+1,f
  9255     00CD                     u467_22:
  9256     00CD  1683               	bsf	3,5	;RP0=1, select bank1
  9257     00CE  1303               	bcf	3,6	;RP1=0, select bank1
  9258     00CF  0836               	movf	(efgtoa@ou+2)^(0+128),w
  9259     00D0  1C03               	skipc
  9260     00D1  0F36               	incfsz	(efgtoa@ou+2)^(0+128),w
  9261     00D2  28D4               	goto	u467_23
  9262     00D3  28D7               	goto	u467_24
  9263     00D4                     u467_23:
  9264     00D4  1283               	bcf	3,5	;RP0=0, select bank0
  9265     00D5  1303               	bcf	3,6	;RP1=0, select bank0
  9266     00D6  02C8               	subwf	??_efgtoa+2,f
  9267     00D7                     u467_24:
  9268     00D7  1683               	bsf	3,5	;RP0=1, select bank1
  9269     00D8  1303               	bcf	3,6	;RP1=0, select bank1
  9270     00D9  0837               	movf	(efgtoa@ou+3)^(0+128),w
  9271     00DA  1C03               	skipc
  9272     00DB  0F37               	incfsz	(efgtoa@ou+3)^(0+128),w
  9273     00DC  28DE               	goto	u467_25
  9274     00DD  28E1               	goto	u467_26
  9275     00DE                     u467_25:
  9276     00DE  1283               	bcf	3,5	;RP0=0, select bank0
  9277     00DF  1303               	bcf	3,6	;RP1=0, select bank0
  9278     00E0  02C9               	subwf	??_efgtoa+3,f
  9279     00E1                     u467_26:
  9280     00E1  1683               	bsf	3,5	;RP0=1, select bank1
  9281     00E2  1303               	bcf	3,6	;RP1=0, select bank1
  9282     00E3  1283               	bcf	3,5	;RP0=0, select bank0
  9283     00E4  1303               	bcf	3,6	;RP1=0, select bank0
  9284     00E5  0849               	movf	??_efgtoa+3,w
  9285     00E6  00F3               	movwf	labs@a+3
  9286     00E7  0848               	movf	??_efgtoa+2,w
  9287     00E8  00F2               	movwf	labs@a+2
  9288     00E9  0847               	movf	??_efgtoa+1,w
  9289     00EA  00F1               	movwf	labs@a+1
  9290     00EB  0846               	movf	??_efgtoa,w
  9291     00EC  00F0               	movwf	labs@a
  9292     00ED  160A  118A  204B  120A  118A  	fcall	_labs
  9293     00F2  1BF3               	btfsc	?_labs+3,7
  9294     00F3  2904               	goto	u468_21
  9295     00F4  0873               	movf	?_labs+3,w
  9296     00F5  1D03               	btfss	3,2
  9297     00F6  2905               	goto	u468_20
  9298     00F7  0872               	movf	?_labs+2,w
  9299     00F8  1D03               	btfss	3,2
  9300     00F9  2905               	goto	u468_20
  9301     00FA  0871               	movf	?_labs+1,w
  9302     00FB  1D03               	btfss	3,2
  9303     00FC  2905               	goto	u468_20
  9304     00FD  3002               	movlw	2
  9305     00FE  0270               	subwf	?_labs,w
  9306     00FF  1D03               	skipz
  9307     0100  2901               	goto	u468_23
  9308     0101                     u468_23:
  9309     0101  1C03               	btfss	3,0
  9310     0102  2904               	goto	u468_21
  9311     0103  2905               	goto	u468_20
  9312     0104                     u468_21:
  9313     0104  2858               	goto	i1l3155
  9314     0105                     u468_20:
  9315     0105                     i1l3161:
  9316     0105  1683               	bsf	3,5	;RP0=1, select bank1
  9317     0106  1303               	bcf	3,6	;RP1=0, select bank1
  9318     0107  0837               	movf	(efgtoa@ou+3)^(0+128),w
  9319     0108  1283               	bcf	3,5	;RP0=0, select bank0
  9320     0109  1303               	bcf	3,6	;RP1=0, select bank0
  9321     010A  00B8               	movwf	___flge@ff1+3
  9322     010B  1683               	bsf	3,5	;RP0=1, select bank1
  9323     010C  1303               	bcf	3,6	;RP1=0, select bank1
  9324     010D  0836               	movf	(efgtoa@ou+2)^(0+128),w
  9325     010E  1283               	bcf	3,5	;RP0=0, select bank0
  9326     010F  1303               	bcf	3,6	;RP1=0, select bank0
  9327     0110  00B7               	movwf	___flge@ff1+2
  9328     0111  1683               	bsf	3,5	;RP0=1, select bank1
  9329     0112  1303               	bcf	3,6	;RP1=0, select bank1
  9330     0113  0835               	movf	(efgtoa@ou+1)^(0+128),w
  9331     0114  1283               	bcf	3,5	;RP0=0, select bank0
  9332     0115  1303               	bcf	3,6	;RP1=0, select bank0
  9333     0116  00B6               	movwf	___flge@ff1+1
  9334     0117  1683               	bsf	3,5	;RP0=1, select bank1
  9335     0118  1303               	bcf	3,6	;RP1=0, select bank1
  9336     0119  0834               	movf	efgtoa@ou^(0+128),w
  9337     011A  1283               	bcf	3,5	;RP0=0, select bank0
  9338     011B  1303               	bcf	3,6	;RP1=0, select bank0
  9339     011C  00B5               	movwf	___flge@ff1
  9340     011D  1683               	bsf	3,5	;RP0=1, select bank1
  9341     011E  1303               	bcf	3,6	;RP1=0, select bank1
  9342     011F  0848               	movf	(efgtoa@g+3)^(0+128),w
  9343     0120  1283               	bcf	3,5	;RP0=0, select bank0
  9344     0121  1303               	bcf	3,6	;RP1=0, select bank0
  9345     0122  00BC               	movwf	___flge@ff2+3
  9346     0123  1683               	bsf	3,5	;RP0=1, select bank1
  9347     0124  1303               	bcf	3,6	;RP1=0, select bank1
  9348     0125  0847               	movf	(efgtoa@g+2)^(0+128),w
  9349     0126  1283               	bcf	3,5	;RP0=0, select bank0
  9350     0127  1303               	bcf	3,6	;RP1=0, select bank0
  9351     0128  00BB               	movwf	___flge@ff2+2
  9352     0129  1683               	bsf	3,5	;RP0=1, select bank1
  9353     012A  1303               	bcf	3,6	;RP1=0, select bank1
  9354     012B  0846               	movf	(efgtoa@g+1)^(0+128),w
  9355     012C  1283               	bcf	3,5	;RP0=0, select bank0
  9356     012D  1303               	bcf	3,6	;RP1=0, select bank0
  9357     012E  00BA               	movwf	___flge@ff2+1
  9358     012F  1683               	bsf	3,5	;RP0=1, select bank1
  9359     0130  1303               	bcf	3,6	;RP1=0, select bank1
  9360     0131  0845               	movf	efgtoa@g^(0+128),w
  9361     0132  1283               	bcf	3,5	;RP0=0, select bank0
  9362     0133  1303               	bcf	3,6	;RP1=0, select bank0
  9363     0134  00B9               	movwf	___flge@ff2
  9364     0135  120A  118A  273D  120A  118A  	fcall	___flge
  9365     013A  1C03               	btfss	3,0
  9366     013B  293D               	goto	u469_21
  9367     013C  293E               	goto	u469_20
  9368     013D                     u469_21:
  9369     013D  2858               	goto	i1l3155
  9370     013E                     u469_20:
  9371     013E                     i1l3163:
  9372                           
  9373                           ;/opt/microchip/xc8/v2.45/pic/sources/c99/common/doprnt.c: 664:   if ((labs((g).u-(u).u)
      +                           <= 1)) {
  9374     013E  1683               	bsf	3,5	;RP0=1, select bank1
  9375     013F  1303               	bcf	3,6	;RP1=0, select bank1
  9376     0140  0845               	movf	efgtoa@g^(0+128),w
  9377     0141  1283               	bcf	3,5	;RP0=0, select bank0
  9378     0142  1303               	bcf	3,6	;RP1=0, select bank0
  9379     0143  00C6               	movwf	??_efgtoa
  9380     0144  1683               	bsf	3,5	;RP0=1, select bank1
  9381     0145  1303               	bcf	3,6	;RP1=0, select bank1
  9382     0146  0846               	movf	(efgtoa@g+1)^(0+128),w
  9383     0147  1283               	bcf	3,5	;RP0=0, select bank0
  9384     0148  1303               	bcf	3,6	;RP1=0, select bank0
  9385     0149  00C7               	movwf	??_efgtoa+1
  9386     014A  1683               	bsf	3,5	;RP0=1, select bank1
  9387     014B  1303               	bcf	3,6	;RP1=0, select bank1
  9388     014C  0847               	movf	(efgtoa@g+2)^(0+128),w
  9389     014D  1283               	bcf	3,5	;RP0=0, select bank0
  9390     014E  1303               	bcf	3,6	;RP1=0, select bank0
  9391     014F  00C8               	movwf	??_efgtoa+2
  9392     0150  1683               	bsf	3,5	;RP0=1, select bank1
  9393     0151  1303               	bcf	3,6	;RP1=0, select bank1
  9394     0152  0848               	movf	(efgtoa@g+3)^(0+128),w
  9395     0153  1283               	bcf	3,5	;RP0=0, select bank0
  9396     0154  1303               	bcf	3,6	;RP1=0, select bank0
  9397     0155  00C9               	movwf	??_efgtoa+3
  9398     0156  1683               	bsf	3,5	;RP0=1, select bank1
  9399     0157  1303               	bcf	3,6	;RP1=0, select bank1
  9400     0158  0849               	movf	efgtoa@u^(0+128),w
  9401     0159  1283               	bcf	3,5	;RP0=0, select bank0
  9402     015A  1303               	bcf	3,6	;RP1=0, select bank0
  9403     015B  02C6               	subwf	??_efgtoa,f
  9404     015C  1683               	bsf	3,5	;RP0=1, select bank1
  9405     015D  1303               	bcf	3,6	;RP1=0, select bank1
  9406     015E  084A               	movf	(efgtoa@u+1)^(0+128),w
  9407     015F  1C03               	skipc
  9408     0160  0F4A               	incfsz	(efgtoa@u+1)^(0+128),w
  9409     0161  2963               	goto	u470_21
  9410     0162  2966               	goto	u470_22
  9411     0163                     u470_21:
  9412     0163  1283               	bcf	3,5	;RP0=0, select bank0
  9413     0164  1303               	bcf	3,6	;RP1=0, select bank0
  9414     0165  02C7               	subwf	??_efgtoa+1,f
  9415     0166                     u470_22:
  9416     0166  1683               	bsf	3,5	;RP0=1, select bank1
  9417     0167  1303               	bcf	3,6	;RP1=0, select bank1
  9418     0168  084B               	movf	(efgtoa@u+2)^(0+128),w
  9419     0169  1C03               	skipc
  9420     016A  0F4B               	incfsz	(efgtoa@u+2)^(0+128),w
  9421     016B  296D               	goto	u470_23
  9422     016C  2970               	goto	u470_24
  9423     016D                     u470_23:
  9424     016D  1283               	bcf	3,5	;RP0=0, select bank0
  9425     016E  1303               	bcf	3,6	;RP1=0, select bank0
  9426     016F  02C8               	subwf	??_efgtoa+2,f
  9427     0170                     u470_24:
  9428     0170  1683               	bsf	3,5	;RP0=1, select bank1
  9429     0171  1303               	bcf	3,6	;RP1=0, select bank1
  9430     0172  084C               	movf	(efgtoa@u+3)^(0+128),w
  9431     0173  1C03               	skipc
  9432     0174  0F4C               	incfsz	(efgtoa@u+3)^(0+128),w
  9433     0175  2977               	goto	u470_25
  9434     0176  297A               	goto	u470_26
  9435     0177                     u470_25:
  9436     0177  1283               	bcf	3,5	;RP0=0, select bank0
  9437     0178  1303               	bcf	3,6	;RP1=0, select bank0
  9438     0179  02C9               	subwf	??_efgtoa+3,f
  9439     017A                     u470_26:
  9440     017A  1683               	bsf	3,5	;RP0=1, select bank1
  9441     017B  1303               	bcf	3,6	;RP1=0, select bank1
  9442     017C  1283               	bcf	3,5	;RP0=0, select bank0
  9443     017D  1303               	bcf	3,6	;RP1=0, select bank0
  9444     017E  0849               	movf	??_efgtoa+3,w
  9445     017F  00F3               	movwf	labs@a+3
  9446     0180  0848               	movf	??_efgtoa+2,w
  9447     0181  00F2               	movwf	labs@a+2
  9448     0182  0847               	movf	??_efgtoa+1,w
  9449     0183  00F1               	movwf	labs@a+1
  9450     0184  0846               	movf	??_efgtoa,w
  9451     0185  00F0               	movwf	labs@a
  9452     0186  160A  118A  204B  120A  118A  	fcall	_labs
  9453     018B  1BF3               	btfsc	?_labs+3,7
  9454     018C  299E               	goto	u471_20
  9455     018D  0873               	movf	?_labs+3,w
  9456     018E  1D03               	btfss	3,2
  9457     018F  299D               	goto	u471_21
  9458     0190  0872               	movf	?_labs+2,w
  9459     0191  1D03               	btfss	3,2
  9460     0192  299D               	goto	u471_21
  9461     0193  0871               	movf	?_labs+1,w
  9462     0194  1D03               	btfss	3,2
  9463     0195  299D               	goto	u471_21
  9464     0196  3002               	movlw	2
  9465     0197  0270               	subwf	?_labs,w
  9466     0198  1D03               	skipz
  9467     0199  299A               	goto	u471_23
  9468     019A                     u471_23:
  9469     019A  1803               	btfsc	3,0
  9470     019B  299D               	goto	u471_21
  9471     019C  299E               	goto	u471_20
  9472     019D                     u471_21:
  9473     019D  2A2F               	goto	i1l3175
  9474     019E                     u471_20:
  9475     019E                     i1l3165:
  9476                           
  9477                           ;/opt/microchip/xc8/v2.45/pic/sources/c99/common/doprnt.c: 665:    g = u;
  9478     019E  1683               	bsf	3,5	;RP0=1, select bank1
  9479     019F  1303               	bcf	3,6	;RP1=0, select bank1
  9480     01A0  084C               	movf	(efgtoa@u+3)^(0+128),w
  9481     01A1  00C8               	movwf	(efgtoa@g+3)^(0+128)
  9482     01A2  084B               	movf	(efgtoa@u+2)^(0+128),w
  9483     01A3  00C7               	movwf	(efgtoa@g+2)^(0+128)
  9484     01A4  084A               	movf	(efgtoa@u+1)^(0+128),w
  9485     01A5  00C6               	movwf	(efgtoa@g+1)^(0+128)
  9486     01A6  0849               	movf	efgtoa@u^(0+128),w
  9487     01A7  00C5               	movwf	efgtoa@g^(0+128)
  9488                           
  9489                           ;/opt/microchip/xc8/v2.45/pic/sources/c99/common/doprnt.c: 666:   }
  9490     01A8  2A68               	goto	i1l3177
  9491     01A9                     i1l3167:
  9492                           
  9493                           ;/opt/microchip/xc8/v2.45/pic/sources/c99/common/doprnt.c: 669:     u.f = u.f/10.0;
  9494     01A9  3041               	movlw	65
  9495     01AA  00F3               	movwf	___fldiv@a+3
  9496     01AB  3020               	movlw	32
  9497     01AC  00F2               	movwf	___fldiv@a+2
  9498     01AD  3000               	movlw	0
  9499     01AE  00F1               	movwf	___fldiv@a+1
  9500     01AF  3000               	movlw	0
  9501     01B0  00F0               	movwf	___fldiv@a
  9502     01B1  1683               	bsf	3,5	;RP0=1, select bank1
  9503     01B2  1303               	bcf	3,6	;RP1=0, select bank1
  9504     01B3  084C               	movf	(efgtoa@u+3)^(0+128),w
  9505     01B4  00F7               	movwf	___fldiv@b+3
  9506     01B5  084B               	movf	(efgtoa@u+2)^(0+128),w
  9507     01B6  00F6               	movwf	___fldiv@b+2
  9508     01B7  084A               	movf	(efgtoa@u+1)^(0+128),w
  9509     01B8  00F5               	movwf	___fldiv@b+1
  9510     01B9  0849               	movf	efgtoa@u^(0+128),w
  9511     01BA  00F4               	movwf	___fldiv@b
  9512     01BB  160A  118A  2627  120A  118A  	fcall	___fldiv
  9513     01C0  0873               	movf	?___fldiv+3,w
  9514     01C1  1683               	bsf	3,5	;RP0=1, select bank1
  9515     01C2  1303               	bcf	3,6	;RP1=0, select bank1
  9516     01C3  00CC               	movwf	(efgtoa@u+3)^(0+128)
  9517     01C4  0872               	movf	?___fldiv+2,w
  9518     01C5  00CB               	movwf	(efgtoa@u+2)^(0+128)
  9519     01C6  0871               	movf	?___fldiv+1,w
  9520     01C7  00CA               	movwf	(efgtoa@u+1)^(0+128)
  9521     01C8  0870               	movf	?___fldiv,w
  9522     01C9  00C9               	movwf	efgtoa@u^(0+128)
  9523     01CA                     i1l3169:
  9524                           
  9525                           ;/opt/microchip/xc8/v2.45/pic/sources/c99/common/doprnt.c: 670:     --e;
  9526     01CA  30FF               	movlw	255
  9527     01CB  07B0               	addwf	efgtoa@e^(0+128),f
  9528     01CC  1803               	skipnc
  9529     01CD  0AB1               	incf	(efgtoa@e+1)^(0+128),f
  9530     01CE  30FF               	movlw	255
  9531     01CF  07B1               	addwf	(efgtoa@e+1)^(0+128),f
  9532     01D0                     i1l3171:
  9533                           
  9534                           ;/opt/microchip/xc8/v2.45/pic/sources/c99/common/doprnt.c: 671:     if ((labs((g).u-(u).
      +                          u) <= 1)) {
  9535     01D0  0845               	movf	efgtoa@g^(0+128),w
  9536     01D1  1283               	bcf	3,5	;RP0=0, select bank0
  9537     01D2  1303               	bcf	3,6	;RP1=0, select bank0
  9538     01D3  00C6               	movwf	??_efgtoa
  9539     01D4  1683               	bsf	3,5	;RP0=1, select bank1
  9540     01D5  1303               	bcf	3,6	;RP1=0, select bank1
  9541     01D6  0846               	movf	(efgtoa@g+1)^(0+128),w
  9542     01D7  1283               	bcf	3,5	;RP0=0, select bank0
  9543     01D8  1303               	bcf	3,6	;RP1=0, select bank0
  9544     01D9  00C7               	movwf	??_efgtoa+1
  9545     01DA  1683               	bsf	3,5	;RP0=1, select bank1
  9546     01DB  1303               	bcf	3,6	;RP1=0, select bank1
  9547     01DC  0847               	movf	(efgtoa@g+2)^(0+128),w
  9548     01DD  1283               	bcf	3,5	;RP0=0, select bank0
  9549     01DE  1303               	bcf	3,6	;RP1=0, select bank0
  9550     01DF  00C8               	movwf	??_efgtoa+2
  9551     01E0  1683               	bsf	3,5	;RP0=1, select bank1
  9552     01E1  1303               	bcf	3,6	;RP1=0, select bank1
  9553     01E2  0848               	movf	(efgtoa@g+3)^(0+128),w
  9554     01E3  1283               	bcf	3,5	;RP0=0, select bank0
  9555     01E4  1303               	bcf	3,6	;RP1=0, select bank0
  9556     01E5  00C9               	movwf	??_efgtoa+3
  9557     01E6  1683               	bsf	3,5	;RP0=1, select bank1
  9558     01E7  1303               	bcf	3,6	;RP1=0, select bank1
  9559     01E8  0849               	movf	efgtoa@u^(0+128),w
  9560     01E9  1283               	bcf	3,5	;RP0=0, select bank0
  9561     01EA  1303               	bcf	3,6	;RP1=0, select bank0
  9562     01EB  02C6               	subwf	??_efgtoa,f
  9563     01EC  1683               	bsf	3,5	;RP0=1, select bank1
  9564     01ED  1303               	bcf	3,6	;RP1=0, select bank1
  9565     01EE  084A               	movf	(efgtoa@u+1)^(0+128),w
  9566     01EF  1C03               	skipc
  9567     01F0  0F4A               	incfsz	(efgtoa@u+1)^(0+128),w
  9568     01F1  29F3               	goto	u472_21
  9569     01F2  29F6               	goto	u472_22
  9570     01F3                     u472_21:
  9571     01F3  1283               	bcf	3,5	;RP0=0, select bank0
  9572     01F4  1303               	bcf	3,6	;RP1=0, select bank0
  9573     01F5  02C7               	subwf	??_efgtoa+1,f
  9574     01F6                     u472_22:
  9575     01F6  1683               	bsf	3,5	;RP0=1, select bank1
  9576     01F7  1303               	bcf	3,6	;RP1=0, select bank1
  9577     01F8  084B               	movf	(efgtoa@u+2)^(0+128),w
  9578     01F9  1C03               	skipc
  9579     01FA  0F4B               	incfsz	(efgtoa@u+2)^(0+128),w
  9580     01FB  29FD               	goto	u472_23
  9581     01FC  2A00               	goto	u472_24
  9582     01FD                     u472_23:
  9583     01FD  1283               	bcf	3,5	;RP0=0, select bank0
  9584     01FE  1303               	bcf	3,6	;RP1=0, select bank0
  9585     01FF  02C8               	subwf	??_efgtoa+2,f
  9586     0200                     u472_24:
  9587     0200  1683               	bsf	3,5	;RP0=1, select bank1
  9588     0201  1303               	bcf	3,6	;RP1=0, select bank1
  9589     0202  084C               	movf	(efgtoa@u+3)^(0+128),w
  9590     0203  1C03               	skipc
  9591     0204  0F4C               	incfsz	(efgtoa@u+3)^(0+128),w
  9592     0205  2A07               	goto	u472_25
  9593     0206  2A0A               	goto	u472_26
  9594     0207                     u472_25:
  9595     0207  1283               	bcf	3,5	;RP0=0, select bank0
  9596     0208  1303               	bcf	3,6	;RP1=0, select bank0
  9597     0209  02C9               	subwf	??_efgtoa+3,f
  9598     020A                     u472_26:
  9599     020A  1683               	bsf	3,5	;RP0=1, select bank1
  9600     020B  1303               	bcf	3,6	;RP1=0, select bank1
  9601     020C  1283               	bcf	3,5	;RP0=0, select bank0
  9602     020D  1303               	bcf	3,6	;RP1=0, select bank0
  9603     020E  0849               	movf	??_efgtoa+3,w
  9604     020F  00F3               	movwf	labs@a+3
  9605     0210  0848               	movf	??_efgtoa+2,w
  9606     0211  00F2               	movwf	labs@a+2
  9607     0212  0847               	movf	??_efgtoa+1,w
  9608     0213  00F1               	movwf	labs@a+1
  9609     0214  0846               	movf	??_efgtoa,w
  9610     0215  00F0               	movwf	labs@a
  9611     0216  160A  118A  204B  120A  118A  	fcall	_labs
  9612     021B  1BF3               	btfsc	?_labs+3,7
  9613     021C  2A2E               	goto	u473_20
  9614     021D  0873               	movf	?_labs+3,w
  9615     021E  1D03               	btfss	3,2
  9616     021F  2A2D               	goto	u473_21
  9617     0220  0872               	movf	?_labs+2,w
  9618     0221  1D03               	btfss	3,2
  9619     0222  2A2D               	goto	u473_21
  9620     0223  0871               	movf	?_labs+1,w
  9621     0224  1D03               	btfss	3,2
  9622     0225  2A2D               	goto	u473_21
  9623     0226  3002               	movlw	2
  9624     0227  0270               	subwf	?_labs,w
  9625     0228  1D03               	skipz
  9626     0229  2A2A               	goto	u473_23
  9627     022A                     u473_23:
  9628     022A  1803               	btfsc	3,0
  9629     022B  2A2D               	goto	u473_21
  9630     022C  2A2E               	goto	u473_20
  9631     022D                     u473_21:
  9632     022D  2A2F               	goto	i1l3175
  9633     022E                     u473_20:
  9634     022E  299E               	goto	i1l3165
  9635     022F                     i1l3175:
  9636                           
  9637                           ;/opt/microchip/xc8/v2.45/pic/sources/c99/common/doprnt.c: 668:    while (g.f < u.f) {
  9638     022F  1683               	bsf	3,5	;RP0=1, select bank1
  9639     0230  1303               	bcf	3,6	;RP1=0, select bank1
  9640     0231  0848               	movf	(efgtoa@g+3)^(0+128),w
  9641     0232  1283               	bcf	3,5	;RP0=0, select bank0
  9642     0233  1303               	bcf	3,6	;RP1=0, select bank0
  9643     0234  00B8               	movwf	___flge@ff1+3
  9644     0235  1683               	bsf	3,5	;RP0=1, select bank1
  9645     0236  1303               	bcf	3,6	;RP1=0, select bank1
  9646     0237  0847               	movf	(efgtoa@g+2)^(0+128),w
  9647     0238  1283               	bcf	3,5	;RP0=0, select bank0
  9648     0239  1303               	bcf	3,6	;RP1=0, select bank0
  9649     023A  00B7               	movwf	___flge@ff1+2
  9650     023B  1683               	bsf	3,5	;RP0=1, select bank1
  9651     023C  1303               	bcf	3,6	;RP1=0, select bank1
  9652     023D  0846               	movf	(efgtoa@g+1)^(0+128),w
  9653     023E  1283               	bcf	3,5	;RP0=0, select bank0
  9654     023F  1303               	bcf	3,6	;RP1=0, select bank0
  9655     0240  00B6               	movwf	___flge@ff1+1
  9656     0241  1683               	bsf	3,5	;RP0=1, select bank1
  9657     0242  1303               	bcf	3,6	;RP1=0, select bank1
  9658     0243  0845               	movf	efgtoa@g^(0+128),w
  9659     0244  1283               	bcf	3,5	;RP0=0, select bank0
  9660     0245  1303               	bcf	3,6	;RP1=0, select bank0
  9661     0246  00B5               	movwf	___flge@ff1
  9662     0247  1683               	bsf	3,5	;RP0=1, select bank1
  9663     0248  1303               	bcf	3,6	;RP1=0, select bank1
  9664     0249  084C               	movf	(efgtoa@u+3)^(0+128),w
  9665     024A  1283               	bcf	3,5	;RP0=0, select bank0
  9666     024B  1303               	bcf	3,6	;RP1=0, select bank0
  9667     024C  00BC               	movwf	___flge@ff2+3
  9668     024D  1683               	bsf	3,5	;RP0=1, select bank1
  9669     024E  1303               	bcf	3,6	;RP1=0, select bank1
  9670     024F  084B               	movf	(efgtoa@u+2)^(0+128),w
  9671     0250  1283               	bcf	3,5	;RP0=0, select bank0
  9672     0251  1303               	bcf	3,6	;RP1=0, select bank0
  9673     0252  00BB               	movwf	___flge@ff2+2
  9674     0253  1683               	bsf	3,5	;RP0=1, select bank1
  9675     0254  1303               	bcf	3,6	;RP1=0, select bank1
  9676     0255  084A               	movf	(efgtoa@u+1)^(0+128),w
  9677     0256  1283               	bcf	3,5	;RP0=0, select bank0
  9678     0257  1303               	bcf	3,6	;RP1=0, select bank0
  9679     0258  00BA               	movwf	___flge@ff2+1
  9680     0259  1683               	bsf	3,5	;RP0=1, select bank1
  9681     025A  1303               	bcf	3,6	;RP1=0, select bank1
  9682     025B  0849               	movf	efgtoa@u^(0+128),w
  9683     025C  1283               	bcf	3,5	;RP0=0, select bank0
  9684     025D  1303               	bcf	3,6	;RP1=0, select bank0
  9685     025E  00B9               	movwf	___flge@ff2
  9686     025F  120A  118A  273D  120A  118A  	fcall	___flge
  9687     0264  1C03               	btfss	3,0
  9688     0265  2A67               	goto	u474_21
  9689     0266  2A68               	goto	u474_20
  9690     0267                     u474_21:
  9691     0267  29A9               	goto	i1l3167
  9692     0268                     u474_20:
  9693     0268                     i1l3177:
  9694                           
  9695                           ;/opt/microchip/xc8/v2.45/pic/sources/c99/common/doprnt.c: 683:  mode = c;
  9696     0268  1283               	bcf	3,5	;RP0=0, select bank0
  9697     0269  1303               	bcf	3,6	;RP1=0, select bank0
  9698     026A  0845               	movf	efgtoa@c,w
  9699     026B  1683               	bsf	3,5	;RP0=1, select bank1
  9700     026C  1303               	bcf	3,6	;RP1=0, select bank1
  9701     026D  00A9               	movwf	efgtoa@mode^(0+128)
  9702                           
  9703                           ;/opt/microchip/xc8/v2.45/pic/sources/c99/common/doprnt.c: 685:     nmode = mode;
  9704     026E  0829               	movf	efgtoa@mode^(0+128),w
  9705     026F  00AA               	movwf	efgtoa@nmode^(0+128)
  9706     0270                     i1l3179:
  9707                           
  9708                           ;/opt/microchip/xc8/v2.45/pic/sources/c99/common/doprnt.c: 695:  {;/opt/microchip/xc8/v2
      +                          .45/pic/sources/c99/common/doprnt.c: 696:         p = (prec < 0) ? 6 : prec;
  9709     0270  1283               	bcf	3,5	;RP0=0, select bank0
  9710     0271  1303               	bcf	3,6	;RP1=0, select bank0
  9711     0272  1BE7               	btfsc	_prec+1,7
  9712     0273  2A75               	goto	u475_21
  9713     0274  2A76               	goto	u475_20
  9714     0275                     u475_21:
  9715     0275  2A81               	goto	i1l3183
  9716     0276                     u475_20:
  9717     0276                     i1l3181:
  9718     0276  0867               	movf	_prec+1,w
  9719     0277  1683               	bsf	3,5	;RP0=1, select bank1
  9720     0278  1303               	bcf	3,6	;RP1=0, select bank1
  9721     0279  00A3               	movwf	(efgtoa@p+1)^(0+128)
  9722     027A  1283               	bcf	3,5	;RP0=0, select bank0
  9723     027B  1303               	bcf	3,6	;RP1=0, select bank0
  9724     027C  0866               	movf	_prec,w
  9725     027D  1683               	bsf	3,5	;RP0=1, select bank1
  9726     027E  1303               	bcf	3,6	;RP1=0, select bank1
  9727     027F  00A2               	movwf	efgtoa@p^(0+128)
  9728     0280  2A87               	goto	i1l738
  9729     0281                     i1l3183:
  9730     0281  3006               	movlw	6
  9731     0282  1683               	bsf	3,5	;RP0=1, select bank1
  9732     0283  1303               	bcf	3,6	;RP1=0, select bank1
  9733     0284  00A2               	movwf	efgtoa@p^(0+128)
  9734     0285  3000               	movlw	0
  9735     0286  00A3               	movwf	(efgtoa@p^(0+128)+1)
  9736     0287                     i1l738:
  9737                           
  9738                           ;/opt/microchip/xc8/v2.45/pic/sources/c99/common/doprnt.c: 697:     };/opt/microchip/xc8
      +                          /v2.45/pic/sources/c99/common/doprnt.c: 711:     m = p;
  9739     0287  0823               	movf	(efgtoa@p+1)^(0+128),w
  9740     0288  00AE               	movwf	(efgtoa@m+1)^(0+128)
  9741     0289  0822               	movf	efgtoa@p^(0+128),w
  9742     028A  00AD               	movwf	efgtoa@m^(0+128)
  9743                           
  9744                           ;/opt/microchip/xc8/v2.45/pic/sources/c99/common/doprnt.c: 715:  {;/opt/microchip/xc8/v2
      +                          .45/pic/sources/c99/common/doprnt.c: 716:         ++m;
  9745     028B  3001               	movlw	1
  9746     028C  07AD               	addwf	efgtoa@m^(0+128),f
  9747     028D  1803               	skipnc
  9748     028E  0AAE               	incf	(efgtoa@m+1)^(0+128),f
  9749     028F  3000               	movlw	0
  9750     0290  07AE               	addwf	(efgtoa@m+1)^(0+128),f
  9751     0291                     i1l3185:
  9752                           
  9753                           ;/opt/microchip/xc8/v2.45/pic/sources/c99/common/doprnt.c: 717:     };/opt/microchip/xc8
      +                          /v2.45/pic/sources/c99/common/doprnt.c: 721:     if (nmode == 'f') {
  9754     0291  3066               	movlw	102
  9755     0292  062A               	xorwf	efgtoa@nmode^(0+128),w
  9756     0293  1D03               	btfss	3,2
  9757     0294  2A96               	goto	u476_21
  9758     0295  2A97               	goto	u476_20
  9759     0296                     u476_21:
  9760     0296  2AB1               	goto	i1l3197
  9761     0297                     u476_20:
  9762     0297                     i1l3187:
  9763                           
  9764                           ;/opt/microchip/xc8/v2.45/pic/sources/c99/common/doprnt.c: 722:         if (e < 0) {
  9765     0297  1FB1               	btfss	(efgtoa@e+1)^(0+128),7
  9766     0298  2A9A               	goto	u477_21
  9767     0299  2A9B               	goto	u477_20
  9768     029A                     u477_21:
  9769     029A  2AA5               	goto	i1l3193
  9770     029B                     u477_20:
  9771     029B                     i1l3189:
  9772                           
  9773                           ;/opt/microchip/xc8/v2.45/pic/sources/c99/common/doprnt.c: 723:             u.f = 1.0;
  9774     029B  303F               	movlw	63
  9775     029C  00CC               	movwf	(efgtoa@u+3)^(0+128)
  9776     029D  3080               	movlw	128
  9777     029E  00CB               	movwf	(efgtoa@u+2)^(0+128)
  9778     029F  3000               	movlw	0
  9779     02A0  00CA               	movwf	(efgtoa@u+1)^(0+128)
  9780     02A1  3000               	movlw	0
  9781     02A2  00C9               	movwf	efgtoa@u^(0+128)
  9782     02A3                     i1l3191:
  9783                           
  9784                           ;/opt/microchip/xc8/v2.45/pic/sources/c99/common/doprnt.c: 724:             e = 0;
  9785     02A3  01B0               	clrf	efgtoa@e^(0+128)
  9786     02A4  01B1               	clrf	(efgtoa@e+1)^(0+128)
  9787     02A5                     i1l3193:
  9788                           
  9789                           ;/opt/microchip/xc8/v2.45/pic/sources/c99/common/doprnt.c: 726:         if (!(mode == 'g
      +                          ')) {
  9790     02A5  3067               	movlw	103
  9791     02A6  0629               	xorwf	efgtoa@mode^(0+128),w
  9792     02A7  1903               	btfsc	3,2
  9793     02A8  2AAA               	goto	u478_21
  9794     02A9  2AAB               	goto	u478_20
  9795     02AA                     u478_21:
  9796     02AA  2AB1               	goto	i1l3197
  9797     02AB                     u478_20:
  9798     02AB                     i1l3195:
  9799                           
  9800                           ;/opt/microchip/xc8/v2.45/pic/sources/c99/common/doprnt.c: 727:             m += e;
  9801     02AB  0830               	movf	efgtoa@e^(0+128),w
  9802     02AC  07AD               	addwf	efgtoa@m^(0+128),f
  9803     02AD  1803               	skipnc
  9804     02AE  0AAE               	incf	(efgtoa@m+1)^(0+128),f
  9805     02AF  0831               	movf	(efgtoa@e+1)^(0+128),w
  9806     02B0  07AE               	addwf	(efgtoa@m+1)^(0+128),f
  9807     02B1                     i1l3197:
  9808                           
  9809                           ;/opt/microchip/xc8/v2.45/pic/sources/c99/common/doprnt.c: 733:     i = 0;
  9810     02B1  01B8               	clrf	efgtoa@i^(0+128)
  9811     02B2  01B9               	clrf	(efgtoa@i+1)^(0+128)
  9812     02B3                     i1l3199:
  9813                           
  9814                           ;/opt/microchip/xc8/v2.45/pic/sources/c99/common/doprnt.c: 734:     h = g.f;
  9815     02B3  0848               	movf	(efgtoa@g+3)^(0+128),w
  9816     02B4  00BD               	movwf	(efgtoa@h+3)^(0+128)
  9817     02B5  0847               	movf	(efgtoa@g+2)^(0+128),w
  9818     02B6  00BC               	movwf	(efgtoa@h+2)^(0+128)
  9819     02B7  0846               	movf	(efgtoa@g+1)^(0+128),w
  9820     02B8  00BB               	movwf	(efgtoa@h+1)^(0+128)
  9821     02B9  0845               	movf	efgtoa@g^(0+128),w
  9822     02BA  00BA               	movwf	efgtoa@h^(0+128)
  9823     02BB                     i1l3201:
  9824                           
  9825                           ;/opt/microchip/xc8/v2.45/pic/sources/c99/common/doprnt.c: 735:     ou = u;
  9826     02BB  084C               	movf	(efgtoa@u+3)^(0+128),w
  9827     02BC  00B7               	movwf	(efgtoa@ou+3)^(0+128)
  9828     02BD  084B               	movf	(efgtoa@u+2)^(0+128),w
  9829     02BE  00B6               	movwf	(efgtoa@ou+2)^(0+128)
  9830     02BF  084A               	movf	(efgtoa@u+1)^(0+128),w
  9831     02C0  00B5               	movwf	(efgtoa@ou+1)^(0+128)
  9832     02C1  0849               	movf	efgtoa@u^(0+128),w
  9833     02C2  00B4               	movwf	efgtoa@ou^(0+128)
  9834                           
  9835                           ;/opt/microchip/xc8/v2.45/pic/sources/c99/common/doprnt.c: 736:     while (i < m) {
  9836     02C3  2BAC               	goto	i1l3213
  9837     02C4                     i1l3203:
  9838                           
  9839                           ;/opt/microchip/xc8/v2.45/pic/sources/c99/common/doprnt.c: 737:         l = floorf(h/u.f
      +                          );
  9840     02C4  1683               	bsf	3,5	;RP0=1, select bank1
  9841     02C5  1303               	bcf	3,6	;RP1=0, select bank1
  9842     02C6  084C               	movf	(efgtoa@u+3)^(0+128),w
  9843     02C7  00F3               	movwf	___fldiv@a+3
  9844     02C8  084B               	movf	(efgtoa@u+2)^(0+128),w
  9845     02C9  00F2               	movwf	___fldiv@a+2
  9846     02CA  084A               	movf	(efgtoa@u+1)^(0+128),w
  9847     02CB  00F1               	movwf	___fldiv@a+1
  9848     02CC  0849               	movf	efgtoa@u^(0+128),w
  9849     02CD  00F0               	movwf	___fldiv@a
  9850     02CE  083D               	movf	(efgtoa@h+3)^(0+128),w
  9851     02CF  00F7               	movwf	___fldiv@b+3
  9852     02D0  083C               	movf	(efgtoa@h+2)^(0+128),w
  9853     02D1  00F6               	movwf	___fldiv@b+2
  9854     02D2  083B               	movf	(efgtoa@h+1)^(0+128),w
  9855     02D3  00F5               	movwf	___fldiv@b+1
  9856     02D4  083A               	movf	efgtoa@h^(0+128),w
  9857     02D5  00F4               	movwf	___fldiv@b
  9858     02D6  160A  118A  2627  120A  118A  	fcall	___fldiv
  9859     02DB  0873               	movf	?___fldiv+3,w
  9860     02DC  1283               	bcf	3,5	;RP0=0, select bank0
  9861     02DD  1303               	bcf	3,6	;RP1=0, select bank0
  9862     02DE  00B0               	movwf	floorf@x+3
  9863     02DF  0872               	movf	?___fldiv+2,w
  9864     02E0  00AF               	movwf	floorf@x+2
  9865     02E1  0871               	movf	?___fldiv+1,w
  9866     02E2  00AE               	movwf	floorf@x+1
  9867     02E3  0870               	movf	?___fldiv,w
  9868     02E4  00AD               	movwf	floorf@x
  9869     02E5  160A  118A  23F5  120A  118A  	fcall	_floorf
  9870     02EA  1283               	bcf	3,5	;RP0=0, select bank0
  9871     02EB  1303               	bcf	3,6	;RP1=0, select bank0
  9872     02EC  0830               	movf	?_floorf+3,w
  9873     02ED  1683               	bsf	3,5	;RP0=1, select bank1
  9874     02EE  1303               	bcf	3,6	;RP1=0, select bank1
  9875     02EF  00C1               	movwf	(efgtoa@l+3)^(0+128)
  9876     02F0  1283               	bcf	3,5	;RP0=0, select bank0
  9877     02F1  1303               	bcf	3,6	;RP1=0, select bank0
  9878     02F2  082F               	movf	?_floorf+2,w
  9879     02F3  1683               	bsf	3,5	;RP0=1, select bank1
  9880     02F4  1303               	bcf	3,6	;RP1=0, select bank1
  9881     02F5  00C0               	movwf	(efgtoa@l+2)^(0+128)
  9882     02F6  1283               	bcf	3,5	;RP0=0, select bank0
  9883     02F7  1303               	bcf	3,6	;RP1=0, select bank0
  9884     02F8  082E               	movf	?_floorf+1,w
  9885     02F9  1683               	bsf	3,5	;RP0=1, select bank1
  9886     02FA  1303               	bcf	3,6	;RP1=0, select bank1
  9887     02FB  00BF               	movwf	(efgtoa@l+1)^(0+128)
  9888     02FC  1283               	bcf	3,5	;RP0=0, select bank0
  9889     02FD  1303               	bcf	3,6	;RP1=0, select bank0
  9890     02FE  082D               	movf	?_floorf,w
  9891     02FF  1683               	bsf	3,5	;RP0=1, select bank1
  9892     0300  1303               	bcf	3,6	;RP1=0, select bank1
  9893     0301  00BE               	movwf	efgtoa@l^(0+128)
  9894     0302                     i1l3205:
  9895                           
  9896                           ;/opt/microchip/xc8/v2.45/pic/sources/c99/common/doprnt.c: 738:         d = (int)l;
  9897     0302  0841               	movf	(efgtoa@l+3)^(0+128),w
  9898     0303  00F3               	movwf	___fltol@f1+3
  9899     0304  0840               	movf	(efgtoa@l+2)^(0+128),w
  9900     0305  00F2               	movwf	___fltol@f1+2
  9901     0306  083F               	movf	(efgtoa@l+1)^(0+128),w
  9902     0307  00F1               	movwf	___fltol@f1+1
  9903     0308  083E               	movf	efgtoa@l^(0+128),w
  9904     0309  00F0               	movwf	___fltol@f1
  9905     030A  160A  118A  21B5  120A  118A  	fcall	___fltol
  9906     030F  0871               	movf	?___fltol+1,w
  9907     0310  1683               	bsf	3,5	;RP0=1, select bank1
  9908     0311  1303               	bcf	3,6	;RP1=0, select bank1
  9909     0312  00AC               	movwf	(efgtoa@d+1)^(0+128)
  9910     0313  0870               	movf	?___fltol,w
  9911     0314  00AB               	movwf	efgtoa@d^(0+128)
  9912     0315                     i1l3207:
  9913                           
  9914                           ;/opt/microchip/xc8/v2.45/pic/sources/c99/common/doprnt.c: 739:         h -= l*u.f;
  9915     0315  084C               	movf	(efgtoa@u+3)^(0+128),w
  9916     0316  1283               	bcf	3,5	;RP0=0, select bank0
  9917     0317  1303               	bcf	3,6	;RP1=0, select bank0
  9918     0318  00A7               	movwf	___flmul@a+3
  9919     0319  1683               	bsf	3,5	;RP0=1, select bank1
  9920     031A  1303               	bcf	3,6	;RP1=0, select bank1
  9921     031B  084B               	movf	(efgtoa@u+2)^(0+128),w
  9922     031C  1283               	bcf	3,5	;RP0=0, select bank0
  9923     031D  1303               	bcf	3,6	;RP1=0, select bank0
  9924     031E  00A6               	movwf	___flmul@a+2
  9925     031F  1683               	bsf	3,5	;RP0=1, select bank1
  9926     0320  1303               	bcf	3,6	;RP1=0, select bank1
  9927     0321  084A               	movf	(efgtoa@u+1)^(0+128),w
  9928     0322  1283               	bcf	3,5	;RP0=0, select bank0
  9929     0323  1303               	bcf	3,6	;RP1=0, select bank0
  9930     0324  00A5               	movwf	___flmul@a+1
  9931     0325  1683               	bsf	3,5	;RP0=1, select bank1
  9932     0326  1303               	bcf	3,6	;RP1=0, select bank1
  9933     0327  0849               	movf	efgtoa@u^(0+128),w
  9934     0328  1283               	bcf	3,5	;RP0=0, select bank0
  9935     0329  1303               	bcf	3,6	;RP1=0, select bank0
  9936     032A  00A4               	movwf	___flmul@a
  9937     032B  1683               	bsf	3,5	;RP0=1, select bank1
  9938     032C  1303               	bcf	3,6	;RP1=0, select bank1
  9939     032D  0841               	movf	(efgtoa@l+3)^(0+128),w
  9940     032E  1283               	bcf	3,5	;RP0=0, select bank0
  9941     032F  1303               	bcf	3,6	;RP1=0, select bank0
  9942     0330  00A3               	movwf	___flmul@b+3
  9943     0331  1683               	bsf	3,5	;RP0=1, select bank1
  9944     0332  1303               	bcf	3,6	;RP1=0, select bank1
  9945     0333  0840               	movf	(efgtoa@l+2)^(0+128),w
  9946     0334  1283               	bcf	3,5	;RP0=0, select bank0
  9947     0335  1303               	bcf	3,6	;RP1=0, select bank0
  9948     0336  00A2               	movwf	___flmul@b+2
  9949     0337  1683               	bsf	3,5	;RP0=1, select bank1
  9950     0338  1303               	bcf	3,6	;RP1=0, select bank1
  9951     0339  083F               	movf	(efgtoa@l+1)^(0+128),w
  9952     033A  1283               	bcf	3,5	;RP0=0, select bank0
  9953     033B  1303               	bcf	3,6	;RP1=0, select bank0
  9954     033C  00A1               	movwf	___flmul@b+1
  9955     033D  1683               	bsf	3,5	;RP0=1, select bank1
  9956     033E  1303               	bcf	3,6	;RP1=0, select bank1
  9957     033F  083E               	movf	efgtoa@l^(0+128),w
  9958     0340  1283               	bcf	3,5	;RP0=0, select bank0
  9959     0341  1303               	bcf	3,6	;RP1=0, select bank0
  9960     0342  00A0               	movwf	___flmul@b
  9961     0343  120A  158A  24BB  120A  118A  	fcall	___flmul
  9962     0348  1283               	bcf	3,5	;RP0=0, select bank0
  9963     0349  1303               	bcf	3,6	;RP1=0, select bank0
  9964     034A  0823               	movf	?___flmul+3,w
  9965     034B  00B8               	movwf	___flsub@a+3
  9966     034C  0822               	movf	?___flmul+2,w
  9967     034D  00B7               	movwf	___flsub@a+2
  9968     034E  0821               	movf	?___flmul+1,w
  9969     034F  00B6               	movwf	___flsub@a+1
  9970     0350  0820               	movf	?___flmul,w
  9971     0351  00B5               	movwf	___flsub@a
  9972     0352  1683               	bsf	3,5	;RP0=1, select bank1
  9973     0353  1303               	bcf	3,6	;RP1=0, select bank1
  9974     0354  083D               	movf	(efgtoa@h+3)^(0+128),w
  9975     0355  1283               	bcf	3,5	;RP0=0, select bank0
  9976     0356  1303               	bcf	3,6	;RP1=0, select bank0
  9977     0357  00BC               	movwf	___flsub@b+3
  9978     0358  1683               	bsf	3,5	;RP0=1, select bank1
  9979     0359  1303               	bcf	3,6	;RP1=0, select bank1
  9980     035A  083C               	movf	(efgtoa@h+2)^(0+128),w
  9981     035B  1283               	bcf	3,5	;RP0=0, select bank0
  9982     035C  1303               	bcf	3,6	;RP1=0, select bank0
  9983     035D  00BB               	movwf	___flsub@b+2
  9984     035E  1683               	bsf	3,5	;RP0=1, select bank1
  9985     035F  1303               	bcf	3,6	;RP1=0, select bank1
  9986     0360  083B               	movf	(efgtoa@h+1)^(0+128),w
  9987     0361  1283               	bcf	3,5	;RP0=0, select bank0
  9988     0362  1303               	bcf	3,6	;RP1=0, select bank0
  9989     0363  00BA               	movwf	___flsub@b+1
  9990     0364  1683               	bsf	3,5	;RP0=1, select bank1
  9991     0365  1303               	bcf	3,6	;RP1=0, select bank1
  9992     0366  083A               	movf	efgtoa@h^(0+128),w
  9993     0367  1283               	bcf	3,5	;RP0=0, select bank0
  9994     0368  1303               	bcf	3,6	;RP1=0, select bank0
  9995     0369  00B9               	movwf	___flsub@b
  9996     036A  160A  158A  26A6  120A  118A  	fcall	___flsub
  9997     036F  1283               	bcf	3,5	;RP0=0, select bank0
  9998     0370  1303               	bcf	3,6	;RP1=0, select bank0
  9999     0371  0838               	movf	?___flsub+3,w
 10000     0372  1683               	bsf	3,5	;RP0=1, select bank1
 10001     0373  1303               	bcf	3,6	;RP1=0, select bank1
 10002     0374  00BD               	movwf	(efgtoa@h+3)^(0+128)
 10003     0375  1283               	bcf	3,5	;RP0=0, select bank0
 10004     0376  1303               	bcf	3,6	;RP1=0, select bank0
 10005     0377  0837               	movf	?___flsub+2,w
 10006     0378  1683               	bsf	3,5	;RP0=1, select bank1
 10007     0379  1303               	bcf	3,6	;RP1=0, select bank1
 10008     037A  00BC               	movwf	(efgtoa@h+2)^(0+128)
 10009     037B  1283               	bcf	3,5	;RP0=0, select bank0
 10010     037C  1303               	bcf	3,6	;RP1=0, select bank0
 10011     037D  0836               	movf	?___flsub+1,w
 10012     037E  1683               	bsf	3,5	;RP0=1, select bank1
 10013     037F  1303               	bcf	3,6	;RP1=0, select bank1
 10014     0380  00BB               	movwf	(efgtoa@h+1)^(0+128)
 10015     0381  1283               	bcf	3,5	;RP0=0, select bank0
 10016     0382  1303               	bcf	3,6	;RP1=0, select bank0
 10017     0383  0835               	movf	?___flsub,w
 10018     0384  1683               	bsf	3,5	;RP0=1, select bank1
 10019     0385  1303               	bcf	3,6	;RP1=0, select bank1
 10020     0386  00BA               	movwf	efgtoa@h^(0+128)
 10021     0387                     i1l3209:
 10022                           
 10023                           ;/opt/microchip/xc8/v2.45/pic/sources/c99/common/doprnt.c: 740:         u.f = u.f/10.0;
 10024     0387  3041               	movlw	65
 10025     0388  00F3               	movwf	___fldiv@a+3
 10026     0389  3020               	movlw	32
 10027     038A  00F2               	movwf	___fldiv@a+2
 10028     038B  3000               	movlw	0
 10029     038C  00F1               	movwf	___fldiv@a+1
 10030     038D  3000               	movlw	0
 10031     038E  00F0               	movwf	___fldiv@a
 10032     038F  084C               	movf	(efgtoa@u+3)^(0+128),w
 10033     0390  00F7               	movwf	___fldiv@b+3
 10034     0391  084B               	movf	(efgtoa@u+2)^(0+128),w
 10035     0392  00F6               	movwf	___fldiv@b+2
 10036     0393  084A               	movf	(efgtoa@u+1)^(0+128),w
 10037     0394  00F5               	movwf	___fldiv@b+1
 10038     0395  0849               	movf	efgtoa@u^(0+128),w
 10039     0396  00F4               	movwf	___fldiv@b
 10040     0397  160A  118A  2627  120A  118A  	fcall	___fldiv
 10041     039C  0873               	movf	?___fldiv+3,w
 10042     039D  1683               	bsf	3,5	;RP0=1, select bank1
 10043     039E  1303               	bcf	3,6	;RP1=0, select bank1
 10044     039F  00CC               	movwf	(efgtoa@u+3)^(0+128)
 10045     03A0  0872               	movf	?___fldiv+2,w
 10046     03A1  00CB               	movwf	(efgtoa@u+2)^(0+128)
 10047     03A2  0871               	movf	?___fldiv+1,w
 10048     03A3  00CA               	movwf	(efgtoa@u+1)^(0+128)
 10049     03A4  0870               	movf	?___fldiv,w
 10050     03A5  00C9               	movwf	efgtoa@u^(0+128)
 10051     03A6                     i1l3211:
 10052                           
 10053                           ;/opt/microchip/xc8/v2.45/pic/sources/c99/common/doprnt.c: 741:         ++i;
 10054     03A6  3001               	movlw	1
 10055     03A7  07B8               	addwf	efgtoa@i^(0+128),f
 10056     03A8  1803               	skipnc
 10057     03A9  0AB9               	incf	(efgtoa@i+1)^(0+128),f
 10058     03AA  3000               	movlw	0
 10059     03AB  07B9               	addwf	(efgtoa@i+1)^(0+128),f
 10060     03AC                     i1l3213:
 10061                           
 10062                           ;/opt/microchip/xc8/v2.45/pic/sources/c99/common/doprnt.c: 736:     while (i < m) {
 10063     03AC  0839               	movf	(efgtoa@i+1)^(0+128),w
 10064     03AD  3A80               	xorlw	128
 10065     03AE  1283               	bcf	3,5	;RP0=0, select bank0
 10066     03AF  1303               	bcf	3,6	;RP1=0, select bank0
 10067     03B0  00C6               	movwf	??_efgtoa
 10068     03B1  1683               	bsf	3,5	;RP0=1, select bank1
 10069     03B2  1303               	bcf	3,6	;RP1=0, select bank1
 10070     03B3  082E               	movf	(efgtoa@m+1)^(0+128),w
 10071     03B4  3A80               	xorlw	128
 10072     03B5  1283               	bcf	3,5	;RP0=0, select bank0
 10073     03B6  1303               	bcf	3,6	;RP1=0, select bank0
 10074     03B7  0246               	subwf	??_efgtoa,w
 10075     03B8  1D03               	skipz
 10076     03B9  2BBE               	goto	u479_25
 10077     03BA  1683               	bsf	3,5	;RP0=1, select bank1
 10078     03BB  1303               	bcf	3,6	;RP1=0, select bank1
 10079     03BC  082D               	movf	efgtoa@m^(0+128),w
 10080     03BD  0238               	subwf	efgtoa@i^(0+128),w
 10081     03BE                     u479_25:
 10082     03BE  1C03               	skipc
 10083     03BF  2BC1               	goto	u479_21
 10084     03C0  2BC2               	goto	u479_20
 10085     03C1                     u479_21:
 10086     03C1  2AC4               	goto	i1l3203
 10087     03C2                     u479_20:
 10088     03C2                     i1l3215:
 10089                           
 10090                           ;/opt/microchip/xc8/v2.45/pic/sources/c99/common/doprnt.c: 745:     l = u.f*5.0;
 10091     03C2  3040               	movlw	64
 10092     03C3  1283               	bcf	3,5	;RP0=0, select bank0
 10093     03C4  1303               	bcf	3,6	;RP1=0, select bank0
 10094     03C5  00A3               	movwf	___flmul@b+3
 10095     03C6  30A0               	movlw	160
 10096     03C7  00A2               	movwf	___flmul@b+2
 10097     03C8  3000               	movlw	0
 10098     03C9  00A1               	movwf	___flmul@b+1
 10099     03CA  3000               	movlw	0
 10100     03CB  00A0               	movwf	___flmul@b
 10101     03CC  1683               	bsf	3,5	;RP0=1, select bank1
 10102     03CD  1303               	bcf	3,6	;RP1=0, select bank1
 10103     03CE  084C               	movf	(efgtoa@u+3)^(0+128),w
 10104     03CF  1283               	bcf	3,5	;RP0=0, select bank0
 10105     03D0  1303               	bcf	3,6	;RP1=0, select bank0
 10106     03D1  00A7               	movwf	___flmul@a+3
 10107     03D2  1683               	bsf	3,5	;RP0=1, select bank1
 10108     03D3  1303               	bcf	3,6	;RP1=0, select bank1
 10109     03D4  084B               	movf	(efgtoa@u+2)^(0+128),w
 10110     03D5  1283               	bcf	3,5	;RP0=0, select bank0
 10111     03D6  1303               	bcf	3,6	;RP1=0, select bank0
 10112     03D7  00A6               	movwf	___flmul@a+2
 10113     03D8  1683               	bsf	3,5	;RP0=1, select bank1
 10114     03D9  1303               	bcf	3,6	;RP1=0, select bank1
 10115     03DA  084A               	movf	(efgtoa@u+1)^(0+128),w
 10116     03DB  1283               	bcf	3,5	;RP0=0, select bank0
 10117     03DC  1303               	bcf	3,6	;RP1=0, select bank0
 10118     03DD  00A5               	movwf	___flmul@a+1
 10119     03DE  1683               	bsf	3,5	;RP0=1, select bank1
 10120     03DF  1303               	bcf	3,6	;RP1=0, select bank1
 10121     03E0  0849               	movf	efgtoa@u^(0+128),w
 10122     03E1  1283               	bcf	3,5	;RP0=0, select bank0
 10123     03E2  1303               	bcf	3,6	;RP1=0, select bank0
 10124     03E3  00A4               	movwf	___flmul@a
 10125     03E4  120A  158A  24BB  120A  118A  	fcall	___flmul
 10126     03E9  1283               	bcf	3,5	;RP0=0, select bank0
 10127     03EA  1303               	bcf	3,6	;RP1=0, select bank0
 10128     03EB  0823               	movf	?___flmul+3,w
 10129     03EC  1683               	bsf	3,5	;RP0=1, select bank1
 10130     03ED  1303               	bcf	3,6	;RP1=0, select bank1
 10131     03EE  00C1               	movwf	(efgtoa@l+3)^(0+128)
 10132     03EF  1283               	bcf	3,5	;RP0=0, select bank0
 10133     03F0  1303               	bcf	3,6	;RP1=0, select bank0
 10134     03F1  0822               	movf	?___flmul+2,w
 10135     03F2  1683               	bsf	3,5	;RP0=1, select bank1
 10136     03F3  1303               	bcf	3,6	;RP1=0, select bank1
 10137     03F4  00C0               	movwf	(efgtoa@l+2)^(0+128)
 10138     03F5  1283               	bcf	3,5	;RP0=0, select bank0
 10139     03F6  1303               	bcf	3,6	;RP1=0, select bank0
 10140     03F7  0821               	movf	?___flmul+1,w
 10141     03F8  1683               	bsf	3,5	;RP0=1, select bank1
 10142     03F9  1303               	bcf	3,6	;RP1=0, select bank1
 10143     03FA  00BF               	movwf	(efgtoa@l+1)^(0+128)
 10144     03FB  1283               	bcf	3,5	;RP0=0, select bank0
 10145     03FC  1303               	bcf	3,6	;RP1=0, select bank0
 10146     03FD  0820               	movf	?___flmul,w
 10147     03FE  1683               	bsf	3,5	;RP0=1, select bank1
 10148     03FF  1303               	bcf	3,6	;RP1=0, select bank1
 10149     0400  00BE               	movwf	efgtoa@l^(0+128)
 10150     0401                     i1l3217:
 10151                           
 10152                           ;/opt/microchip/xc8/v2.45/pic/sources/c99/common/doprnt.c: 746:     if (h < l) {
 10153     0401  083D               	movf	(efgtoa@h+3)^(0+128),w
 10154     0402  1283               	bcf	3,5	;RP0=0, select bank0
 10155     0403  1303               	bcf	3,6	;RP1=0, select bank0
 10156     0404  00B8               	movwf	___flge@ff1+3
 10157     0405  1683               	bsf	3,5	;RP0=1, select bank1
 10158     0406  1303               	bcf	3,6	;RP1=0, select bank1
 10159     0407  083C               	movf	(efgtoa@h+2)^(0+128),w
 10160     0408  1283               	bcf	3,5	;RP0=0, select bank0
 10161     0409  1303               	bcf	3,6	;RP1=0, select bank0
 10162     040A  00B7               	movwf	___flge@ff1+2
 10163     040B  1683               	bsf	3,5	;RP0=1, select bank1
 10164     040C  1303               	bcf	3,6	;RP1=0, select bank1
 10165     040D  083B               	movf	(efgtoa@h+1)^(0+128),w
 10166     040E  1283               	bcf	3,5	;RP0=0, select bank0
 10167     040F  1303               	bcf	3,6	;RP1=0, select bank0
 10168     0410  00B6               	movwf	___flge@ff1+1
 10169     0411  1683               	bsf	3,5	;RP0=1, select bank1
 10170     0412  1303               	bcf	3,6	;RP1=0, select bank1
 10171     0413  083A               	movf	efgtoa@h^(0+128),w
 10172     0414  1283               	bcf	3,5	;RP0=0, select bank0
 10173     0415  1303               	bcf	3,6	;RP1=0, select bank0
 10174     0416  00B5               	movwf	___flge@ff1
 10175     0417  1683               	bsf	3,5	;RP0=1, select bank1
 10176     0418  1303               	bcf	3,6	;RP1=0, select bank1
 10177     0419  0841               	movf	(efgtoa@l+3)^(0+128),w
 10178     041A  1283               	bcf	3,5	;RP0=0, select bank0
 10179     041B  1303               	bcf	3,6	;RP1=0, select bank0
 10180     041C  00BC               	movwf	___flge@ff2+3
 10181     041D  1683               	bsf	3,5	;RP0=1, select bank1
 10182     041E  1303               	bcf	3,6	;RP1=0, select bank1
 10183     041F  0840               	movf	(efgtoa@l+2)^(0+128),w
 10184     0420  1283               	bcf	3,5	;RP0=0, select bank0
 10185     0421  1303               	bcf	3,6	;RP1=0, select bank0
 10186     0422  00BB               	movwf	___flge@ff2+2
 10187     0423  1683               	bsf	3,5	;RP0=1, select bank1
 10188     0424  1303               	bcf	3,6	;RP1=0, select bank1
 10189     0425  083F               	movf	(efgtoa@l+1)^(0+128),w
 10190     0426  1283               	bcf	3,5	;RP0=0, select bank0
 10191     0427  1303               	bcf	3,6	;RP1=0, select bank0
 10192     0428  00BA               	movwf	___flge@ff2+1
 10193     0429  1683               	bsf	3,5	;RP0=1, select bank1
 10194     042A  1303               	bcf	3,6	;RP1=0, select bank1
 10195     042B  083E               	movf	efgtoa@l^(0+128),w
 10196     042C  1283               	bcf	3,5	;RP0=0, select bank0
 10197     042D  1303               	bcf	3,6	;RP1=0, select bank0
 10198     042E  00B9               	movwf	___flge@ff2
 10199     042F  120A  118A  273D  120A  118A  	fcall	___flge
 10200     0434  1803               	btfsc	3,0
 10201     0435  2C37               	goto	u480_21
 10202     0436  2C38               	goto	u480_20
 10203     0437                     u480_21:
 10204     0437  2C43               	goto	i1l3221
 10205     0438                     u480_20:
 10206     0438                     i1l3219:
 10207                           
 10208                           ;/opt/microchip/xc8/v2.45/pic/sources/c99/common/doprnt.c: 747:         l = 0.0;
 10209     0438  3000               	movlw	0
 10210     0439  1683               	bsf	3,5	;RP0=1, select bank1
 10211     043A  1303               	bcf	3,6	;RP1=0, select bank1
 10212     043B  00C1               	movwf	(efgtoa@l+3)^(0+128)
 10213     043C  3000               	movlw	0
 10214     043D  00C0               	movwf	(efgtoa@l+2)^(0+128)
 10215     043E  3000               	movlw	0
 10216     043F  00BF               	movwf	(efgtoa@l+1)^(0+128)
 10217     0440  3000               	movlw	0
 10218     0441  00BE               	movwf	efgtoa@l^(0+128)
 10219                           
 10220                           ;/opt/microchip/xc8/v2.45/pic/sources/c99/common/doprnt.c: 748:     } else {
 10221     0442  2C6C               	goto	i1l3227
 10222     0443                     i1l3221:
 10223                           
 10224                           ;/opt/microchip/xc8/v2.45/pic/sources/c99/common/doprnt.c: 750:         if ((h == l) && 
      +                          !(d % 2)) {
 10225     0443  1683               	bsf	3,5	;RP0=1, select bank1
 10226     0444  1303               	bcf	3,6	;RP1=0, select bank1
 10227     0445  083D               	movf	(efgtoa@h+3)^(0+128),w
 10228     0446  00F3               	movwf	___fleq@ff1+3
 10229     0447  083C               	movf	(efgtoa@h+2)^(0+128),w
 10230     0448  00F2               	movwf	___fleq@ff1+2
 10231     0449  083B               	movf	(efgtoa@h+1)^(0+128),w
 10232     044A  00F1               	movwf	___fleq@ff1+1
 10233     044B  083A               	movf	efgtoa@h^(0+128),w
 10234     044C  00F0               	movwf	___fleq@ff1
 10235     044D  0841               	movf	(efgtoa@l+3)^(0+128),w
 10236     044E  00F7               	movwf	___fleq@ff2+3
 10237     044F  0840               	movf	(efgtoa@l+2)^(0+128),w
 10238     0450  00F6               	movwf	___fleq@ff2+2
 10239     0451  083F               	movf	(efgtoa@l+1)^(0+128),w
 10240     0452  00F5               	movwf	___fleq@ff2+1
 10241     0453  083E               	movf	efgtoa@l^(0+128),w
 10242     0454  00F4               	movwf	___fleq@ff2
 10243     0455  160A  118A  2060  120A  118A  	fcall	___fleq
 10244     045A  1C03               	btfss	3,0
 10245     045B  2C5D               	goto	u481_21
 10246     045C  2C5E               	goto	u481_20
 10247     045D                     u481_21:
 10248     045D  2C6C               	goto	i1l3227
 10249     045E                     u481_20:
 10250     045E                     i1l3223:
 10251     045E  1683               	bsf	3,5	;RP0=1, select bank1
 10252     045F  1303               	bcf	3,6	;RP1=0, select bank1
 10253     0460  182B               	btfsc	efgtoa@d^(0+128),0
 10254     0461  2C63               	goto	u482_21
 10255     0462  2C64               	goto	u482_20
 10256     0463                     u482_21:
 10257     0463  2C6C               	goto	i1l3227
 10258     0464                     u482_20:
 10259     0464                     i1l3225:
 10260                           
 10261                           ;/opt/microchip/xc8/v2.45/pic/sources/c99/common/doprnt.c: 751:             l = 0.0;
 10262     0464  3000               	movlw	0
 10263     0465  00C1               	movwf	(efgtoa@l+3)^(0+128)
 10264     0466  3000               	movlw	0
 10265     0467  00C0               	movwf	(efgtoa@l+2)^(0+128)
 10266     0468  3000               	movlw	0
 10267     0469  00BF               	movwf	(efgtoa@l+1)^(0+128)
 10268     046A  3000               	movlw	0
 10269     046B  00BE               	movwf	efgtoa@l^(0+128)
 10270     046C                     i1l3227:
 10271                           
 10272                           ;/opt/microchip/xc8/v2.45/pic/sources/c99/common/doprnt.c: 756:     h = g.f + l;
 10273     046C  1683               	bsf	3,5	;RP0=1, select bank1
 10274     046D  1303               	bcf	3,6	;RP1=0, select bank1
 10275     046E  0841               	movf	(efgtoa@l+3)^(0+128),w
 10276     046F  00F3               	movwf	___fladd@b+3
 10277     0470  0840               	movf	(efgtoa@l+2)^(0+128),w
 10278     0471  00F2               	movwf	___fladd@b+2
 10279     0472  083F               	movf	(efgtoa@l+1)^(0+128),w
 10280     0473  00F1               	movwf	___fladd@b+1
 10281     0474  083E               	movf	efgtoa@l^(0+128),w
 10282     0475  00F0               	movwf	___fladd@b
 10283     0476  0848               	movf	(efgtoa@g+3)^(0+128),w
 10284     0477  00F7               	movwf	___fladd@a+3
 10285     0478  0847               	movf	(efgtoa@g+2)^(0+128),w
 10286     0479  00F6               	movwf	___fladd@a+2
 10287     047A  0846               	movf	(efgtoa@g+1)^(0+128),w
 10288     047B  00F5               	movwf	___fladd@a+1
 10289     047C  0845               	movf	efgtoa@g^(0+128),w
 10290     047D  00F4               	movwf	___fladd@a
 10291     047E  120A  158A  2255  120A  118A  	fcall	___fladd
 10292     0483  0873               	movf	?___fladd+3,w
 10293     0484  1683               	bsf	3,5	;RP0=1, select bank1
 10294     0485  1303               	bcf	3,6	;RP1=0, select bank1
 10295     0486  00BD               	movwf	(efgtoa@h+3)^(0+128)
 10296     0487  0872               	movf	?___fladd+2,w
 10297     0488  00BC               	movwf	(efgtoa@h+2)^(0+128)
 10298     0489  0871               	movf	?___fladd+1,w
 10299     048A  00BB               	movwf	(efgtoa@h+1)^(0+128)
 10300     048B  0870               	movf	?___fladd,w
 10301     048C  00BA               	movwf	efgtoa@h^(0+128)
 10302     048D                     i1l3229:
 10303                           
 10304                           ;/opt/microchip/xc8/v2.45/pic/sources/c99/common/doprnt.c: 758:  if (h >= (ou.f*10.0)) {
 10305     048D  083D               	movf	(efgtoa@h+3)^(0+128),w
 10306     048E  1283               	bcf	3,5	;RP0=0, select bank0
 10307     048F  1303               	bcf	3,6	;RP1=0, select bank0
 10308     0490  00B8               	movwf	___flge@ff1+3
 10309     0491  1683               	bsf	3,5	;RP0=1, select bank1
 10310     0492  1303               	bcf	3,6	;RP1=0, select bank1
 10311     0493  083C               	movf	(efgtoa@h+2)^(0+128),w
 10312     0494  1283               	bcf	3,5	;RP0=0, select bank0
 10313     0495  1303               	bcf	3,6	;RP1=0, select bank0
 10314     0496  00B7               	movwf	___flge@ff1+2
 10315     0497  1683               	bsf	3,5	;RP0=1, select bank1
 10316     0498  1303               	bcf	3,6	;RP1=0, select bank1
 10317     0499  083B               	movf	(efgtoa@h+1)^(0+128),w
 10318     049A  1283               	bcf	3,5	;RP0=0, select bank0
 10319     049B  1303               	bcf	3,6	;RP1=0, select bank0
 10320     049C  00B6               	movwf	___flge@ff1+1
 10321     049D  1683               	bsf	3,5	;RP0=1, select bank1
 10322     049E  1303               	bcf	3,6	;RP1=0, select bank1
 10323     049F  083A               	movf	efgtoa@h^(0+128),w
 10324     04A0  1283               	bcf	3,5	;RP0=0, select bank0
 10325     04A1  1303               	bcf	3,6	;RP1=0, select bank0
 10326     04A2  00B5               	movwf	___flge@ff1
 10327     04A3  3041               	movlw	65
 10328     04A4  00A3               	movwf	___flmul@b+3
 10329     04A5  3020               	movlw	32
 10330     04A6  00A2               	movwf	___flmul@b+2
 10331     04A7  3000               	movlw	0
 10332     04A8  00A1               	movwf	___flmul@b+1
 10333     04A9  3000               	movlw	0
 10334     04AA  00A0               	movwf	___flmul@b
 10335     04AB  1683               	bsf	3,5	;RP0=1, select bank1
 10336     04AC  1303               	bcf	3,6	;RP1=0, select bank1
 10337     04AD  0837               	movf	(efgtoa@ou+3)^(0+128),w
 10338     04AE  1283               	bcf	3,5	;RP0=0, select bank0
 10339     04AF  1303               	bcf	3,6	;RP1=0, select bank0
 10340     04B0  00A7               	movwf	___flmul@a+3
 10341     04B1  1683               	bsf	3,5	;RP0=1, select bank1
 10342     04B2  1303               	bcf	3,6	;RP1=0, select bank1
 10343     04B3  0836               	movf	(efgtoa@ou+2)^(0+128),w
 10344     04B4  1283               	bcf	3,5	;RP0=0, select bank0
 10345     04B5  1303               	bcf	3,6	;RP1=0, select bank0
 10346     04B6  00A6               	movwf	___flmul@a+2
 10347     04B7  1683               	bsf	3,5	;RP0=1, select bank1
 10348     04B8  1303               	bcf	3,6	;RP1=0, select bank1
 10349     04B9  0835               	movf	(efgtoa@ou+1)^(0+128),w
 10350     04BA  1283               	bcf	3,5	;RP0=0, select bank0
 10351     04BB  1303               	bcf	3,6	;RP1=0, select bank0
 10352     04BC  00A5               	movwf	___flmul@a+1
 10353     04BD  1683               	bsf	3,5	;RP0=1, select bank1
 10354     04BE  1303               	bcf	3,6	;RP1=0, select bank1
 10355     04BF  0834               	movf	efgtoa@ou^(0+128),w
 10356     04C0  1283               	bcf	3,5	;RP0=0, select bank0
 10357     04C1  1303               	bcf	3,6	;RP1=0, select bank0
 10358     04C2  00A4               	movwf	___flmul@a
 10359     04C3  120A  158A  24BB  120A  118A  	fcall	___flmul
 10360     04C8  1283               	bcf	3,5	;RP0=0, select bank0
 10361     04C9  1303               	bcf	3,6	;RP1=0, select bank0
 10362     04CA  0823               	movf	?___flmul+3,w
 10363     04CB  00BC               	movwf	___flge@ff2+3
 10364     04CC  0822               	movf	?___flmul+2,w
 10365     04CD  00BB               	movwf	___flge@ff2+2
 10366     04CE  0821               	movf	?___flmul+1,w
 10367     04CF  00BA               	movwf	___flge@ff2+1
 10368     04D0  0820               	movf	?___flmul,w
 10369     04D1  00B9               	movwf	___flge@ff2
 10370     04D2  120A  118A  273D  120A  118A  	fcall	___flge
 10371     04D7  1C03               	btfss	3,0
 10372     04D8  2CDA               	goto	u483_21
 10373     04D9  2CDB               	goto	u483_20
 10374     04DA                     u483_21:
 10375     04DA  2D2E               	goto	i1l748
 10376     04DB                     u483_20:
 10377     04DB                     i1l3231:
 10378                           
 10379                           ;/opt/microchip/xc8/v2.45/pic/sources/c99/common/doprnt.c: 759:   e++;
 10380     04DB  3001               	movlw	1
 10381     04DC  1683               	bsf	3,5	;RP0=1, select bank1
 10382     04DD  1303               	bcf	3,6	;RP1=0, select bank1
 10383     04DE  07B0               	addwf	efgtoa@e^(0+128),f
 10384     04DF  1803               	skipnc
 10385     04E0  0AB1               	incf	(efgtoa@e+1)^(0+128),f
 10386     04E1  3000               	movlw	0
 10387     04E2  07B1               	addwf	(efgtoa@e+1)^(0+128),f
 10388     04E3                     i1l3233:
 10389                           
 10390                           ;/opt/microchip/xc8/v2.45/pic/sources/c99/common/doprnt.c: 760:   ou.f *= 10.0;
 10391     04E3  3041               	movlw	65
 10392     04E4  1283               	bcf	3,5	;RP0=0, select bank0
 10393     04E5  1303               	bcf	3,6	;RP1=0, select bank0
 10394     04E6  00A3               	movwf	___flmul@b+3
 10395     04E7  3020               	movlw	32
 10396     04E8  00A2               	movwf	___flmul@b+2
 10397     04E9  3000               	movlw	0
 10398     04EA  00A1               	movwf	___flmul@b+1
 10399     04EB  3000               	movlw	0
 10400     04EC  00A0               	movwf	___flmul@b
 10401     04ED  1683               	bsf	3,5	;RP0=1, select bank1
 10402     04EE  1303               	bcf	3,6	;RP1=0, select bank1
 10403     04EF  0837               	movf	(efgtoa@ou+3)^(0+128),w
 10404     04F0  1283               	bcf	3,5	;RP0=0, select bank0
 10405     04F1  1303               	bcf	3,6	;RP1=0, select bank0
 10406     04F2  00A7               	movwf	___flmul@a+3
 10407     04F3  1683               	bsf	3,5	;RP0=1, select bank1
 10408     04F4  1303               	bcf	3,6	;RP1=0, select bank1
 10409     04F5  0836               	movf	(efgtoa@ou+2)^(0+128),w
 10410     04F6  1283               	bcf	3,5	;RP0=0, select bank0
 10411     04F7  1303               	bcf	3,6	;RP1=0, select bank0
 10412     04F8  00A6               	movwf	___flmul@a+2
 10413     04F9  1683               	bsf	3,5	;RP0=1, select bank1
 10414     04FA  1303               	bcf	3,6	;RP1=0, select bank1
 10415     04FB  0835               	movf	(efgtoa@ou+1)^(0+128),w
 10416     04FC  1283               	bcf	3,5	;RP0=0, select bank0
 10417     04FD  1303               	bcf	3,6	;RP1=0, select bank0
 10418     04FE  00A5               	movwf	___flmul@a+1
 10419     04FF  1683               	bsf	3,5	;RP0=1, select bank1
 10420     0500  1303               	bcf	3,6	;RP1=0, select bank1
 10421     0501  0834               	movf	efgtoa@ou^(0+128),w
 10422     0502  1283               	bcf	3,5	;RP0=0, select bank0
 10423     0503  1303               	bcf	3,6	;RP1=0, select bank0
 10424     0504  00A4               	movwf	___flmul@a
 10425     0505  120A  158A  24BB  120A  118A  	fcall	___flmul
 10426     050A  1283               	bcf	3,5	;RP0=0, select bank0
 10427     050B  1303               	bcf	3,6	;RP1=0, select bank0
 10428     050C  0823               	movf	?___flmul+3,w
 10429     050D  1683               	bsf	3,5	;RP0=1, select bank1
 10430     050E  1303               	bcf	3,6	;RP1=0, select bank1
 10431     050F  00B7               	movwf	(efgtoa@ou+3)^(0+128)
 10432     0510  1283               	bcf	3,5	;RP0=0, select bank0
 10433     0511  1303               	bcf	3,6	;RP1=0, select bank0
 10434     0512  0822               	movf	?___flmul+2,w
 10435     0513  1683               	bsf	3,5	;RP0=1, select bank1
 10436     0514  1303               	bcf	3,6	;RP1=0, select bank1
 10437     0515  00B6               	movwf	(efgtoa@ou+2)^(0+128)
 10438     0516  1283               	bcf	3,5	;RP0=0, select bank0
 10439     0517  1303               	bcf	3,6	;RP1=0, select bank0
 10440     0518  0821               	movf	?___flmul+1,w
 10441     0519  1683               	bsf	3,5	;RP0=1, select bank1
 10442     051A  1303               	bcf	3,6	;RP1=0, select bank1
 10443     051B  00B5               	movwf	(efgtoa@ou+1)^(0+128)
 10444     051C  1283               	bcf	3,5	;RP0=0, select bank0
 10445     051D  1303               	bcf	3,6	;RP1=0, select bank0
 10446     051E  0820               	movf	?___flmul,w
 10447     051F  1683               	bsf	3,5	;RP0=1, select bank1
 10448     0520  1303               	bcf	3,6	;RP1=0, select bank1
 10449     0521  00B4               	movwf	efgtoa@ou^(0+128)
 10450     0522                     i1l3235:
 10451                           
 10452                           ;/opt/microchip/xc8/v2.45/pic/sources/c99/common/doprnt.c: 762:   if (nmode == 'f') {
 10453     0522  3066               	movlw	102
 10454     0523  062A               	xorwf	efgtoa@nmode^(0+128),w
 10455     0524  1D03               	btfss	3,2
 10456     0525  2D27               	goto	u484_21
 10457     0526  2D28               	goto	u484_20
 10458     0527                     u484_21:
 10459     0527  2D2E               	goto	i1l748
 10460     0528                     u484_20:
 10461     0528                     i1l3237:
 10462                           
 10463                           ;/opt/microchip/xc8/v2.45/pic/sources/c99/common/doprnt.c: 764:    m++;
 10464     0528  3001               	movlw	1
 10465     0529  07AD               	addwf	efgtoa@m^(0+128),f
 10466     052A  1803               	skipnc
 10467     052B  0AAE               	incf	(efgtoa@m+1)^(0+128),f
 10468     052C  3000               	movlw	0
 10469     052D  07AE               	addwf	(efgtoa@m+1)^(0+128),f
 10470     052E                     i1l748:	
 10471                           ;/opt/microchip/xc8/v2.45/pic/sources/c99/common/doprnt.c: 767:  }
 10472                           
 10473                           
 10474                           ;/opt/microchip/xc8/v2.45/pic/sources/c99/common/doprnt.c: 770:     u = ou;
 10475     052E  1683               	bsf	3,5	;RP0=1, select bank1
 10476     052F  1303               	bcf	3,6	;RP1=0, select bank1
 10477     0530  0837               	movf	(efgtoa@ou+3)^(0+128),w
 10478     0531  00CC               	movwf	(efgtoa@u+3)^(0+128)
 10479     0532  0836               	movf	(efgtoa@ou+2)^(0+128),w
 10480     0533  00CB               	movwf	(efgtoa@u+2)^(0+128)
 10481     0534  0835               	movf	(efgtoa@ou+1)^(0+128),w
 10482     0535  00CA               	movwf	(efgtoa@u+1)^(0+128)
 10483     0536  0834               	movf	efgtoa@ou^(0+128),w
 10484     0537  00C9               	movwf	efgtoa@u^(0+128)
 10485                           
 10486                           ;/opt/microchip/xc8/v2.45/pic/sources/c99/common/doprnt.c: 774:  ne = e;
 10487     0538  0831               	movf	(efgtoa@e+1)^(0+128),w
 10488     0539  00A1               	movwf	(efgtoa@ne+1)^(0+128)
 10489     053A  0830               	movf	efgtoa@e^(0+128),w
 10490     053B  00A0               	movwf	efgtoa@ne^(0+128)
 10491     053C                     i1l3239:
 10492                           
 10493                           ;/opt/microchip/xc8/v2.45/pic/sources/c99/common/doprnt.c: 776:     pp = 0;
 10494     053C  01A8               	clrf	efgtoa@pp^(0+128)
 10495     053D                     i1l3241:
 10496                           
 10497                           ;/opt/microchip/xc8/v2.45/pic/sources/c99/common/doprnt.c: 777:     t = 0;
 10498     053D  01A4               	clrf	efgtoa@t^(0+128)
 10499     053E  01A5               	clrf	(efgtoa@t+1)^(0+128)
 10500     053F                     i1l3243:
 10501                           
 10502                           ;/opt/microchip/xc8/v2.45/pic/sources/c99/common/doprnt.c: 778:     i = 0;
 10503     053F  01B8               	clrf	efgtoa@i^(0+128)
 10504     0540  01B9               	clrf	(efgtoa@i+1)^(0+128)
 10505                           
 10506                           ;/opt/microchip/xc8/v2.45/pic/sources/c99/common/doprnt.c: 779:     while ((i < m) && (n
      +                           < (80 - 5))) {
 10507     0541  2EA2               	goto	i1l3287
 10508     0542                     i1l3245:
 10509                           
 10510                           ;/opt/microchip/xc8/v2.45/pic/sources/c99/common/doprnt.c: 780:         l = floorf(h/u.f
      +                          );
 10511     0542  1683               	bsf	3,5	;RP0=1, select bank1
 10512     0543  1303               	bcf	3,6	;RP1=0, select bank1
 10513     0544  084C               	movf	(efgtoa@u+3)^(0+128),w
 10514     0545  00F3               	movwf	___fldiv@a+3
 10515     0546  084B               	movf	(efgtoa@u+2)^(0+128),w
 10516     0547  00F2               	movwf	___fldiv@a+2
 10517     0548  084A               	movf	(efgtoa@u+1)^(0+128),w
 10518     0549  00F1               	movwf	___fldiv@a+1
 10519     054A  0849               	movf	efgtoa@u^(0+128),w
 10520     054B  00F0               	movwf	___fldiv@a
 10521     054C  083D               	movf	(efgtoa@h+3)^(0+128),w
 10522     054D  00F7               	movwf	___fldiv@b+3
 10523     054E  083C               	movf	(efgtoa@h+2)^(0+128),w
 10524     054F  00F6               	movwf	___fldiv@b+2
 10525     0550  083B               	movf	(efgtoa@h+1)^(0+128),w
 10526     0551  00F5               	movwf	___fldiv@b+1
 10527     0552  083A               	movf	efgtoa@h^(0+128),w
 10528     0553  00F4               	movwf	___fldiv@b
 10529     0554  160A  118A  2627  120A  118A  	fcall	___fldiv
 10530     0559  0873               	movf	?___fldiv+3,w
 10531     055A  1283               	bcf	3,5	;RP0=0, select bank0
 10532     055B  1303               	bcf	3,6	;RP1=0, select bank0
 10533     055C  00B0               	movwf	floorf@x+3
 10534     055D  0872               	movf	?___fldiv+2,w
 10535     055E  00AF               	movwf	floorf@x+2
 10536     055F  0871               	movf	?___fldiv+1,w
 10537     0560  00AE               	movwf	floorf@x+1
 10538     0561  0870               	movf	?___fldiv,w
 10539     0562  00AD               	movwf	floorf@x
 10540     0563  160A  118A  23F5  120A  118A  	fcall	_floorf
 10541     0568  1283               	bcf	3,5	;RP0=0, select bank0
 10542     0569  1303               	bcf	3,6	;RP1=0, select bank0
 10543     056A  0830               	movf	?_floorf+3,w
 10544     056B  1683               	bsf	3,5	;RP0=1, select bank1
 10545     056C  1303               	bcf	3,6	;RP1=0, select bank1
 10546     056D  00C1               	movwf	(efgtoa@l+3)^(0+128)
 10547     056E  1283               	bcf	3,5	;RP0=0, select bank0
 10548     056F  1303               	bcf	3,6	;RP1=0, select bank0
 10549     0570  082F               	movf	?_floorf+2,w
 10550     0571  1683               	bsf	3,5	;RP0=1, select bank1
 10551     0572  1303               	bcf	3,6	;RP1=0, select bank1
 10552     0573  00C0               	movwf	(efgtoa@l+2)^(0+128)
 10553     0574  1283               	bcf	3,5	;RP0=0, select bank0
 10554     0575  1303               	bcf	3,6	;RP1=0, select bank0
 10555     0576  082E               	movf	?_floorf+1,w
 10556     0577  1683               	bsf	3,5	;RP0=1, select bank1
 10557     0578  1303               	bcf	3,6	;RP1=0, select bank1
 10558     0579  00BF               	movwf	(efgtoa@l+1)^(0+128)
 10559     057A  1283               	bcf	3,5	;RP0=0, select bank0
 10560     057B  1303               	bcf	3,6	;RP1=0, select bank0
 10561     057C  082D               	movf	?_floorf,w
 10562     057D  1683               	bsf	3,5	;RP0=1, select bank1
 10563     057E  1303               	bcf	3,6	;RP1=0, select bank1
 10564     057F  00BE               	movwf	efgtoa@l^(0+128)
 10565                           
 10566                           ;/opt/microchip/xc8/v2.45/pic/sources/c99/common/doprnt.c: 781:         d = (int)l > 9 ?
      +                           9 : (int)l;
 10567     0580  0841               	movf	(efgtoa@l+3)^(0+128),w
 10568     0581  00F3               	movwf	___fltol@f1+3
 10569     0582  0840               	movf	(efgtoa@l+2)^(0+128),w
 10570     0583  00F2               	movwf	___fltol@f1+2
 10571     0584  083F               	movf	(efgtoa@l+1)^(0+128),w
 10572     0585  00F1               	movwf	___fltol@f1+1
 10573     0586  083E               	movf	efgtoa@l^(0+128),w
 10574     0587  00F0               	movwf	___fltol@f1
 10575     0588  160A  118A  21B5  120A  118A  	fcall	___fltol
 10576     058D  0871               	movf	?___fltol+1,w
 10577     058E  3A80               	xorlw	128
 10578     058F  00FF               	movwf	btemp+1
 10579     0590  3080               	movlw	128
 10580     0591  027F               	subwf	btemp+1,w
 10581     0592  1D03               	skipz
 10582     0593  2D96               	goto	u485_25
 10583     0594  300A               	movlw	10
 10584     0595  0270               	subwf	?___fltol,w
 10585     0596                     u485_25:
 10586     0596  1803               	skipnc
 10587     0597  2D99               	goto	u485_21
 10588     0598  2D9A               	goto	u485_20
 10589     0599                     u485_21:
 10590     0599  2DB0               	goto	i1l3249
 10591     059A                     u485_20:
 10592     059A                     i1l3247:
 10593     059A  1683               	bsf	3,5	;RP0=1, select bank1
 10594     059B  1303               	bcf	3,6	;RP1=0, select bank1
 10595     059C  0841               	movf	(efgtoa@l+3)^(0+128),w
 10596     059D  00F3               	movwf	___fltol@f1+3
 10597     059E  0840               	movf	(efgtoa@l+2)^(0+128),w
 10598     059F  00F2               	movwf	___fltol@f1+2
 10599     05A0  083F               	movf	(efgtoa@l+1)^(0+128),w
 10600     05A1  00F1               	movwf	___fltol@f1+1
 10601     05A2  083E               	movf	efgtoa@l^(0+128),w
 10602     05A3  00F0               	movwf	___fltol@f1
 10603     05A4  160A  118A  21B5  120A  118A  	fcall	___fltol
 10604     05A9  0871               	movf	?___fltol+1,w
 10605     05AA  1683               	bsf	3,5	;RP0=1, select bank1
 10606     05AB  1303               	bcf	3,6	;RP1=0, select bank1
 10607     05AC  00AC               	movwf	(efgtoa@d+1)^(0+128)
 10608     05AD  0870               	movf	?___fltol,w
 10609     05AE  00AB               	movwf	efgtoa@d^(0+128)
 10610     05AF  2DB6               	goto	i1l3251
 10611     05B0                     i1l3249:
 10612     05B0  3009               	movlw	9
 10613     05B1  1683               	bsf	3,5	;RP0=1, select bank1
 10614     05B2  1303               	bcf	3,6	;RP1=0, select bank1
 10615     05B3  00AB               	movwf	efgtoa@d^(0+128)
 10616     05B4  3000               	movlw	0
 10617     05B5  00AC               	movwf	(efgtoa@d^(0+128)+1)
 10618     05B6                     i1l3251:
 10619                           
 10620                           ;/opt/microchip/xc8/v2.45/pic/sources/c99/common/doprnt.c: 792:   {;/opt/microchip/xc8/v
      +                          2.45/pic/sources/c99/common/doprnt.c: 793:             if (!pp && (ne < 0)) {
 10621     05B6  0828               	movf	efgtoa@pp^(0+128),w
 10622     05B7  1D03               	btfss	3,2
 10623     05B8  2DBA               	goto	u486_21
 10624     05B9  2DBB               	goto	u486_20
 10625     05BA                     u486_21:
 10626     05BA  2DEC               	goto	i1l3271
 10627     05BB                     u486_20:
 10628     05BB                     i1l3253:
 10629     05BB  1FA1               	btfss	(efgtoa@ne+1)^(0+128),7
 10630     05BC  2DBE               	goto	u487_21
 10631     05BD  2DBF               	goto	u487_20
 10632     05BE                     u487_21:
 10633     05BE  2DEC               	goto	i1l3271
 10634     05BF                     u487_20:
 10635     05BF                     i1l3255:
 10636                           
 10637                           ;/opt/microchip/xc8/v2.45/pic/sources/c99/common/doprnt.c: 794:                 dbuf[n++
      +                          ] = '.';
 10638     05BF  0843               	movf	efgtoa@n^(0+128),w
 10639     05C0  3E90               	addlw	(low (_dbuf| (0+256)))& (0+255)
 10640     05C1  0084               	movwf	4
 10641     05C2  302E               	movlw	46
 10642     05C3  1783               	bsf	3,7	;select IRP bank3
 10643     05C4  0080               	movwf	0
 10644     05C5                     i1l3257:
 10645     05C5  3001               	movlw	1
 10646     05C6  07C3               	addwf	efgtoa@n^(0+128),f
 10647     05C7  1803               	skipnc
 10648     05C8  0AC4               	incf	(efgtoa@n+1)^(0+128),f
 10649     05C9  3000               	movlw	0
 10650     05CA  07C4               	addwf	(efgtoa@n+1)^(0+128),f
 10651     05CB                     i1l3259:
 10652                           
 10653                           ;/opt/microchip/xc8/v2.45/pic/sources/c99/common/doprnt.c: 795:                 --w;
 10654     05CB  30FF               	movlw	255
 10655     05CC  07B2               	addwf	efgtoa@w^(0+128),f
 10656     05CD  1803               	skipnc
 10657     05CE  0AB3               	incf	(efgtoa@w+1)^(0+128),f
 10658     05CF  30FF               	movlw	255
 10659     05D0  07B3               	addwf	(efgtoa@w+1)^(0+128),f
 10660     05D1                     i1l3261:
 10661                           
 10662                           ;/opt/microchip/xc8/v2.45/pic/sources/c99/common/doprnt.c: 796:                 pp = 1;
 10663     05D1  01A8               	clrf	efgtoa@pp^(0+128)
 10664     05D2  0AA8               	incf	efgtoa@pp^(0+128),f
 10665     05D3  2DEC               	goto	i1l3271
 10666     05D4                     i1l3263:
 10667                           
 10668                           ;/opt/microchip/xc8/v2.45/pic/sources/c99/common/doprnt.c: 799:                 dbuf[n++
      +                          ] = '0';
 10669     05D4  0843               	movf	efgtoa@n^(0+128),w
 10670     05D5  3E90               	addlw	(low (_dbuf| (0+256)))& (0+255)
 10671     05D6  0084               	movwf	4
 10672     05D7  3030               	movlw	48
 10673     05D8  1783               	bsf	3,7	;select IRP bank3
 10674     05D9  0080               	movwf	0
 10675     05DA                     i1l3265:
 10676     05DA  3001               	movlw	1
 10677     05DB  07C3               	addwf	efgtoa@n^(0+128),f
 10678     05DC  1803               	skipnc
 10679     05DD  0AC4               	incf	(efgtoa@n+1)^(0+128),f
 10680     05DE  3000               	movlw	0
 10681     05DF  07C4               	addwf	(efgtoa@n+1)^(0+128),f
 10682     05E0                     i1l3267:
 10683                           
 10684                           ;/opt/microchip/xc8/v2.45/pic/sources/c99/common/doprnt.c: 800:                 --w;
 10685     05E0  30FF               	movlw	255
 10686     05E1  07B2               	addwf	efgtoa@w^(0+128),f
 10687     05E2  1803               	skipnc
 10688     05E3  0AB3               	incf	(efgtoa@w+1)^(0+128),f
 10689     05E4  30FF               	movlw	255
 10690     05E5  07B3               	addwf	(efgtoa@w+1)^(0+128),f
 10691     05E6                     i1l3269:
 10692                           
 10693                           ;/opt/microchip/xc8/v2.45/pic/sources/c99/common/doprnt.c: 801:                 --t;
 10694     05E6  30FF               	movlw	255
 10695     05E7  07A4               	addwf	efgtoa@t^(0+128),f
 10696     05E8  1803               	skipnc
 10697     05E9  0AA5               	incf	(efgtoa@t+1)^(0+128),f
 10698     05EA  30FF               	movlw	255
 10699     05EB  07A5               	addwf	(efgtoa@t+1)^(0+128),f
 10700     05EC                     i1l3271:
 10701                           
 10702                           ;/opt/microchip/xc8/v2.45/pic/sources/c99/common/doprnt.c: 798:             while (t) {
 10703     05EC  0824               	movf	efgtoa@t^(0+128),w
 10704     05ED  0425               	iorwf	(efgtoa@t+1)^(0+128),w
 10705     05EE  1D03               	btfss	3,2
 10706     05EF  2DF1               	goto	u488_21
 10707     05F0  2DF2               	goto	u488_20
 10708     05F1                     u488_21:
 10709     05F1  2DD4               	goto	i1l3263
 10710     05F2                     u488_20:
 10711     05F2                     i1l3273:
 10712                           
 10713                           ;/opt/microchip/xc8/v2.45/pic/sources/c99/common/doprnt.c: 803:             dbuf[n++] = 
      +                          (char)((int)'0' + d);
 10714     05F2  0843               	movf	efgtoa@n^(0+128),w
 10715     05F3  3E90               	addlw	(low (_dbuf| (0+256)))& (0+255)
 10716     05F4  0084               	movwf	4
 10717     05F5  082B               	movf	efgtoa@d^(0+128),w
 10718     05F6  3E30               	addlw	48
 10719     05F7  1783               	bsf	3,7	;select IRP bank3
 10720     05F8  0080               	movwf	0
 10721     05F9                     i1l3275:
 10722     05F9  3001               	movlw	1
 10723     05FA  07C3               	addwf	efgtoa@n^(0+128),f
 10724     05FB  1803               	skipnc
 10725     05FC  0AC4               	incf	(efgtoa@n+1)^(0+128),f
 10726     05FD  3000               	movlw	0
 10727     05FE  07C4               	addwf	(efgtoa@n+1)^(0+128),f
 10728     05FF                     i1l3277:
 10729                           
 10730                           ;/opt/microchip/xc8/v2.45/pic/sources/c99/common/doprnt.c: 804:             --w;
 10731     05FF  30FF               	movlw	255
 10732     0600  07B2               	addwf	efgtoa@w^(0+128),f
 10733     0601  1803               	skipnc
 10734     0602  0AB3               	incf	(efgtoa@w+1)^(0+128),f
 10735     0603  30FF               	movlw	255
 10736     0604  07B3               	addwf	(efgtoa@w+1)^(0+128),f
 10737     0605                     i1l3279:
 10738                           
 10739                           ;/opt/microchip/xc8/v2.45/pic/sources/c99/common/doprnt.c: 805:         };/opt/microchip
      +                          /xc8/v2.45/pic/sources/c99/common/doprnt.c: 806:         h -= l*u.f;
 10740     0605  084C               	movf	(efgtoa@u+3)^(0+128),w
 10741     0606  1283               	bcf	3,5	;RP0=0, select bank0
 10742     0607  1303               	bcf	3,6	;RP1=0, select bank0
 10743     0608  00A7               	movwf	___flmul@a+3
 10744     0609  1683               	bsf	3,5	;RP0=1, select bank1
 10745     060A  1303               	bcf	3,6	;RP1=0, select bank1
 10746     060B  084B               	movf	(efgtoa@u+2)^(0+128),w
 10747     060C  1283               	bcf	3,5	;RP0=0, select bank0
 10748     060D  1303               	bcf	3,6	;RP1=0, select bank0
 10749     060E  00A6               	movwf	___flmul@a+2
 10750     060F  1683               	bsf	3,5	;RP0=1, select bank1
 10751     0610  1303               	bcf	3,6	;RP1=0, select bank1
 10752     0611  084A               	movf	(efgtoa@u+1)^(0+128),w
 10753     0612  1283               	bcf	3,5	;RP0=0, select bank0
 10754     0613  1303               	bcf	3,6	;RP1=0, select bank0
 10755     0614  00A5               	movwf	___flmul@a+1
 10756     0615  1683               	bsf	3,5	;RP0=1, select bank1
 10757     0616  1303               	bcf	3,6	;RP1=0, select bank1
 10758     0617  0849               	movf	efgtoa@u^(0+128),w
 10759     0618  1283               	bcf	3,5	;RP0=0, select bank0
 10760     0619  1303               	bcf	3,6	;RP1=0, select bank0
 10761     061A  00A4               	movwf	___flmul@a
 10762     061B  1683               	bsf	3,5	;RP0=1, select bank1
 10763     061C  1303               	bcf	3,6	;RP1=0, select bank1
 10764     061D  0841               	movf	(efgtoa@l+3)^(0+128),w
 10765     061E  1283               	bcf	3,5	;RP0=0, select bank0
 10766     061F  1303               	bcf	3,6	;RP1=0, select bank0
 10767     0620  00A3               	movwf	___flmul@b+3
 10768     0621  1683               	bsf	3,5	;RP0=1, select bank1
 10769     0622  1303               	bcf	3,6	;RP1=0, select bank1
 10770     0623  0840               	movf	(efgtoa@l+2)^(0+128),w
 10771     0624  1283               	bcf	3,5	;RP0=0, select bank0
 10772     0625  1303               	bcf	3,6	;RP1=0, select bank0
 10773     0626  00A2               	movwf	___flmul@b+2
 10774     0627  1683               	bsf	3,5	;RP0=1, select bank1
 10775     0628  1303               	bcf	3,6	;RP1=0, select bank1
 10776     0629  083F               	movf	(efgtoa@l+1)^(0+128),w
 10777     062A  1283               	bcf	3,5	;RP0=0, select bank0
 10778     062B  1303               	bcf	3,6	;RP1=0, select bank0
 10779     062C  00A1               	movwf	___flmul@b+1
 10780     062D  1683               	bsf	3,5	;RP0=1, select bank1
 10781     062E  1303               	bcf	3,6	;RP1=0, select bank1
 10782     062F  083E               	movf	efgtoa@l^(0+128),w
 10783     0630  1283               	bcf	3,5	;RP0=0, select bank0
 10784     0631  1303               	bcf	3,6	;RP1=0, select bank0
 10785     0632  00A0               	movwf	___flmul@b
 10786     0633  120A  158A  24BB  120A  118A  	fcall	___flmul
 10787     0638  1283               	bcf	3,5	;RP0=0, select bank0
 10788     0639  1303               	bcf	3,6	;RP1=0, select bank0
 10789     063A  0823               	movf	?___flmul+3,w
 10790     063B  00B8               	movwf	___flsub@a+3
 10791     063C  0822               	movf	?___flmul+2,w
 10792     063D  00B7               	movwf	___flsub@a+2
 10793     063E  0821               	movf	?___flmul+1,w
 10794     063F  00B6               	movwf	___flsub@a+1
 10795     0640  0820               	movf	?___flmul,w
 10796     0641  00B5               	movwf	___flsub@a
 10797     0642  1683               	bsf	3,5	;RP0=1, select bank1
 10798     0643  1303               	bcf	3,6	;RP1=0, select bank1
 10799     0644  083D               	movf	(efgtoa@h+3)^(0+128),w
 10800     0645  1283               	bcf	3,5	;RP0=0, select bank0
 10801     0646  1303               	bcf	3,6	;RP1=0, select bank0
 10802     0647  00BC               	movwf	___flsub@b+3
 10803     0648  1683               	bsf	3,5	;RP0=1, select bank1
 10804     0649  1303               	bcf	3,6	;RP1=0, select bank1
 10805     064A  083C               	movf	(efgtoa@h+2)^(0+128),w
 10806     064B  1283               	bcf	3,5	;RP0=0, select bank0
 10807     064C  1303               	bcf	3,6	;RP1=0, select bank0
 10808     064D  00BB               	movwf	___flsub@b+2
 10809     064E  1683               	bsf	3,5	;RP0=1, select bank1
 10810     064F  1303               	bcf	3,6	;RP1=0, select bank1
 10811     0650  083B               	movf	(efgtoa@h+1)^(0+128),w
 10812     0651  1283               	bcf	3,5	;RP0=0, select bank0
 10813     0652  1303               	bcf	3,6	;RP1=0, select bank0
 10814     0653  00BA               	movwf	___flsub@b+1
 10815     0654  1683               	bsf	3,5	;RP0=1, select bank1
 10816     0655  1303               	bcf	3,6	;RP1=0, select bank1
 10817     0656  083A               	movf	efgtoa@h^(0+128),w
 10818     0657  1283               	bcf	3,5	;RP0=0, select bank0
 10819     0658  1303               	bcf	3,6	;RP1=0, select bank0
 10820     0659  00B9               	movwf	___flsub@b
 10821     065A  160A  158A  26A6  120A  118A  	fcall	___flsub
 10822     065F  1283               	bcf	3,5	;RP0=0, select bank0
 10823     0660  1303               	bcf	3,6	;RP1=0, select bank0
 10824     0661  0838               	movf	?___flsub+3,w
 10825     0662  1683               	bsf	3,5	;RP0=1, select bank1
 10826     0663  1303               	bcf	3,6	;RP1=0, select bank1
 10827     0664  00BD               	movwf	(efgtoa@h+3)^(0+128)
 10828     0665  1283               	bcf	3,5	;RP0=0, select bank0
 10829     0666  1303               	bcf	3,6	;RP1=0, select bank0
 10830     0667  0837               	movf	?___flsub+2,w
 10831     0668  1683               	bsf	3,5	;RP0=1, select bank1
 10832     0669  1303               	bcf	3,6	;RP1=0, select bank1
 10833     066A  00BC               	movwf	(efgtoa@h+2)^(0+128)
 10834     066B  1283               	bcf	3,5	;RP0=0, select bank0
 10835     066C  1303               	bcf	3,6	;RP1=0, select bank0
 10836     066D  0836               	movf	?___flsub+1,w
 10837     066E  1683               	bsf	3,5	;RP0=1, select bank1
 10838     066F  1303               	bcf	3,6	;RP1=0, select bank1
 10839     0670  00BB               	movwf	(efgtoa@h+1)^(0+128)
 10840     0671  1283               	bcf	3,5	;RP0=0, select bank0
 10841     0672  1303               	bcf	3,6	;RP1=0, select bank0
 10842     0673  0835               	movf	?___flsub,w
 10843     0674  1683               	bsf	3,5	;RP0=1, select bank1
 10844     0675  1303               	bcf	3,6	;RP1=0, select bank1
 10845     0676  00BA               	movwf	efgtoa@h^(0+128)
 10846     0677                     i1l3281:
 10847                           
 10848                           ;/opt/microchip/xc8/v2.45/pic/sources/c99/common/doprnt.c: 807:         u.f = u.f/10.0;
 10849     0677  3041               	movlw	65
 10850     0678  00F3               	movwf	___fldiv@a+3
 10851     0679  3020               	movlw	32
 10852     067A  00F2               	movwf	___fldiv@a+2
 10853     067B  3000               	movlw	0
 10854     067C  00F1               	movwf	___fldiv@a+1
 10855     067D  3000               	movlw	0
 10856     067E  00F0               	movwf	___fldiv@a
 10857     067F  084C               	movf	(efgtoa@u+3)^(0+128),w
 10858     0680  00F7               	movwf	___fldiv@b+3
 10859     0681  084B               	movf	(efgtoa@u+2)^(0+128),w
 10860     0682  00F6               	movwf	___fldiv@b+2
 10861     0683  084A               	movf	(efgtoa@u+1)^(0+128),w
 10862     0684  00F5               	movwf	___fldiv@b+1
 10863     0685  0849               	movf	efgtoa@u^(0+128),w
 10864     0686  00F4               	movwf	___fldiv@b
 10865     0687  160A  118A  2627  120A  118A  	fcall	___fldiv
 10866     068C  0873               	movf	?___fldiv+3,w
 10867     068D  1683               	bsf	3,5	;RP0=1, select bank1
 10868     068E  1303               	bcf	3,6	;RP1=0, select bank1
 10869     068F  00CC               	movwf	(efgtoa@u+3)^(0+128)
 10870     0690  0872               	movf	?___fldiv+2,w
 10871     0691  00CB               	movwf	(efgtoa@u+2)^(0+128)
 10872     0692  0871               	movf	?___fldiv+1,w
 10873     0693  00CA               	movwf	(efgtoa@u+1)^(0+128)
 10874     0694  0870               	movf	?___fldiv,w
 10875     0695  00C9               	movwf	efgtoa@u^(0+128)
 10876     0696                     i1l3283:
 10877                           
 10878                           ;/opt/microchip/xc8/v2.45/pic/sources/c99/common/doprnt.c: 808:         --ne;
 10879     0696  30FF               	movlw	255
 10880     0697  07A0               	addwf	efgtoa@ne^(0+128),f
 10881     0698  1803               	skipnc
 10882     0699  0AA1               	incf	(efgtoa@ne+1)^(0+128),f
 10883     069A  30FF               	movlw	255
 10884     069B  07A1               	addwf	(efgtoa@ne+1)^(0+128),f
 10885     069C                     i1l3285:
 10886                           
 10887                           ;/opt/microchip/xc8/v2.45/pic/sources/c99/common/doprnt.c: 809:         ++i;
 10888     069C  3001               	movlw	1
 10889     069D  07B8               	addwf	efgtoa@i^(0+128),f
 10890     069E  1803               	skipnc
 10891     069F  0AB9               	incf	(efgtoa@i+1)^(0+128),f
 10892     06A0  3000               	movlw	0
 10893     06A1  07B9               	addwf	(efgtoa@i+1)^(0+128),f
 10894     06A2                     i1l3287:
 10895                           
 10896                           ;/opt/microchip/xc8/v2.45/pic/sources/c99/common/doprnt.c: 779:     while ((i < m) && (n
      +                           < (80 - 5))) {
 10897     06A2  0839               	movf	(efgtoa@i+1)^(0+128),w
 10898     06A3  3A80               	xorlw	128
 10899     06A4  1283               	bcf	3,5	;RP0=0, select bank0
 10900     06A5  1303               	bcf	3,6	;RP1=0, select bank0
 10901     06A6  00C6               	movwf	??_efgtoa
 10902     06A7  1683               	bsf	3,5	;RP0=1, select bank1
 10903     06A8  1303               	bcf	3,6	;RP1=0, select bank1
 10904     06A9  082E               	movf	(efgtoa@m+1)^(0+128),w
 10905     06AA  3A80               	xorlw	128
 10906     06AB  1283               	bcf	3,5	;RP0=0, select bank0
 10907     06AC  1303               	bcf	3,6	;RP1=0, select bank0
 10908     06AD  0246               	subwf	??_efgtoa,w
 10909     06AE  1D03               	skipz
 10910     06AF  2EB4               	goto	u489_25
 10911     06B0  1683               	bsf	3,5	;RP0=1, select bank1
 10912     06B1  1303               	bcf	3,6	;RP1=0, select bank1
 10913     06B2  082D               	movf	efgtoa@m^(0+128),w
 10914     06B3  0238               	subwf	efgtoa@i^(0+128),w
 10915     06B4                     u489_25:
 10916     06B4  1803               	skipnc
 10917     06B5  2EB7               	goto	u489_21
 10918     06B6  2EB8               	goto	u489_20
 10919     06B7                     u489_21:
 10920     06B7  2EC7               	goto	i1l3291
 10921     06B8                     u489_20:
 10922     06B8                     i1l3289:
 10923     06B8  1683               	bsf	3,5	;RP0=1, select bank1
 10924     06B9  1303               	bcf	3,6	;RP1=0, select bank1
 10925     06BA  0844               	movf	(efgtoa@n+1)^(0+128),w
 10926     06BB  3A80               	xorlw	128
 10927     06BC  00FF               	movwf	btemp+1
 10928     06BD  3080               	movlw	128
 10929     06BE  027F               	subwf	btemp+1,w
 10930     06BF  1D03               	skipz
 10931     06C0  2EC3               	goto	u490_25
 10932     06C1  304B               	movlw	75
 10933     06C2  0243               	subwf	efgtoa@n^(0+128),w
 10934     06C3                     u490_25:
 10935     06C3  1C03               	skipc
 10936     06C4  2EC6               	goto	u490_21
 10937     06C5  2EC7               	goto	u490_20
 10938     06C6                     u490_21:
 10939     06C6  2D42               	goto	i1l3245
 10940     06C7                     u490_20:
 10941     06C7                     i1l3291:
 10942                           
 10943                           ;/opt/microchip/xc8/v2.45/pic/sources/c99/common/doprnt.c: 816:  i = sizeof(dbuf) - 1;
 10944     06C7  304F               	movlw	79
 10945     06C8  1683               	bsf	3,5	;RP0=1, select bank1
 10946     06C9  1303               	bcf	3,6	;RP1=0, select bank1
 10947     06CA  00B8               	movwf	efgtoa@i^(0+128)
 10948     06CB  3000               	movlw	0
 10949     06CC  00B9               	movwf	(efgtoa@i^(0+128)+1)
 10950     06CD                     i1l3293:
 10951                           
 10952                           ;/opt/microchip/xc8/v2.45/pic/sources/c99/common/doprnt.c: 817:     dbuf[i] = '\0';
 10953     06CD  0838               	movf	efgtoa@i^(0+128),w
 10954     06CE  3E90               	addlw	(low (_dbuf| (0+256)))& (0+255)
 10955     06CF  0084               	movwf	4
 10956     06D0  1783               	bsf	3,7	;select IRP bank3
 10957     06D1  0180               	clrf	0
 10958     06D2                     i1l3295:
 10959                           
 10960                           ;/opt/microchip/xc8/v2.45/pic/sources/c99/common/doprnt.c: 848:  memcpy(&dbuf[i-n], &dbu
      +                          f[0], (size_t)n);
 10961     06D2  3090               	movlw	(low (_dbuf| (0+256)))& (0+255)
 10962     06D3  00F0               	movwf	memcpy@s1
 10963     06D4  0844               	movf	(efgtoa@n+1)^(0+128),w
 10964     06D5  00F2               	movwf	memcpy@n+1
 10965     06D6  0843               	movf	efgtoa@n^(0+128),w
 10966     06D7  00F1               	movwf	memcpy@n
 10967     06D8  3090               	movlw	(low (_dbuf| (0+256)))& (0+255)
 10968     06D9  1283               	bcf	3,5	;RP0=0, select bank0
 10969     06DA  1303               	bcf	3,6	;RP1=0, select bank0
 10970     06DB  00C6               	movwf	??_efgtoa
 10971     06DC  1683               	bsf	3,5	;RP0=1, select bank1
 10972     06DD  1303               	bcf	3,6	;RP1=0, select bank1
 10973     06DE  0843               	movf	efgtoa@n^(0+128),w
 10974     06DF  1283               	bcf	3,5	;RP0=0, select bank0
 10975     06E0  1303               	bcf	3,6	;RP1=0, select bank0
 10976     06E1  02C6               	subwf	??_efgtoa,f
 10977     06E2  1683               	bsf	3,5	;RP0=1, select bank1
 10978     06E3  1303               	bcf	3,6	;RP1=0, select bank1
 10979     06E4  0838               	movf	efgtoa@i^(0+128),w
 10980     06E5  1283               	bcf	3,5	;RP0=0, select bank0
 10981     06E6  1303               	bcf	3,6	;RP1=0, select bank0
 10982     06E7  0746               	addwf	??_efgtoa,w
 10983     06E8  160A  158A  26EF  120A  118A  	fcall	_memcpy
 10984     06ED                     i1l3297:
 10985                           
 10986                           ;/opt/microchip/xc8/v2.45/pic/sources/c99/common/doprnt.c: 849:  n = i-n;
 10987     06ED  1683               	bsf	3,5	;RP0=1, select bank1
 10988     06EE  1303               	bcf	3,6	;RP1=0, select bank1
 10989     06EF  0843               	movf	efgtoa@n^(0+128),w
 10990     06F0  0238               	subwf	efgtoa@i^(0+128),w
 10991     06F1  00C3               	movwf	efgtoa@n^(0+128)
 10992     06F2  0844               	movf	(efgtoa@n+1)^(0+128),w
 10993     06F3  1C03               	skipc
 10994     06F4  0A44               	incf	(efgtoa@n+1)^(0+128),w
 10995     06F5  0239               	subwf	(efgtoa@i+1)^(0+128),w
 10996     06F6  00C4               	movwf	(efgtoa@n+1)^(0+128)
 10997     06F7                     i1l3299:
 10998                           
 10999                           ;/opt/microchip/xc8/v2.45/pic/sources/c99/common/doprnt.c: 850:  i = sign == 0 ? 0 : 1;
 11000     06F7  0842               	movf	efgtoa@sign^(0+128),w
 11001     06F8  1D03               	btfss	3,2
 11002     06F9  2EFB               	goto	u491_21
 11003     06FA  2EFD               	goto	u491_20
 11004     06FB                     u491_21:
 11005     06FB  3001               	movlw	1
 11006     06FC  2EFE               	goto	u492_20
 11007     06FD                     u491_20:
 11008     06FD  3000               	movlw	0
 11009     06FE                     u492_20:
 11010     06FE  1283               	bcf	3,5	;RP0=0, select bank0
 11011     06FF  1303               	bcf	3,6	;RP1=0, select bank0
 11012     0700  00C6               	movwf	??_efgtoa
 11013     0701  01C7               	clrf	??_efgtoa+1
 11014     0702  0846               	movf	??_efgtoa,w
 11015     0703  1683               	bsf	3,5	;RP0=1, select bank1
 11016     0704  1303               	bcf	3,6	;RP1=0, select bank1
 11017     0705  00B8               	movwf	efgtoa@i^(0+128)
 11018     0706  1283               	bcf	3,5	;RP0=0, select bank0
 11019     0707  1303               	bcf	3,6	;RP1=0, select bank0
 11020     0708  0847               	movf	??_efgtoa+1,w
 11021     0709  1683               	bsf	3,5	;RP0=1, select bank1
 11022     070A  1303               	bcf	3,6	;RP1=0, select bank1
 11023     070B  00B9               	movwf	(efgtoa@i+1)^(0+128)
 11024     070C                     i1l3301:
 11025                           
 11026                           ;/opt/microchip/xc8/v2.45/pic/sources/c99/common/doprnt.c: 861:  if (sign) {
 11027     070C  0842               	movf	efgtoa@sign^(0+128),w
 11028     070D  1903               	btfsc	3,2
 11029     070E  2F10               	goto	u493_21
 11030     070F  2F11               	goto	u493_20
 11031     0710                     u493_21:
 11032     0710  2F1D               	goto	i1l3305
 11033     0711                     u493_20:
 11034     0711                     i1l3303:
 11035                           
 11036                           ;/opt/microchip/xc8/v2.45/pic/sources/c99/common/doprnt.c: 862:   dbuf[--n] = sign;
 11037     0711  30FF               	movlw	255
 11038     0712  07C3               	addwf	efgtoa@n^(0+128),f
 11039     0713  1803               	skipnc
 11040     0714  0AC4               	incf	(efgtoa@n+1)^(0+128),f
 11041     0715  30FF               	movlw	255
 11042     0716  07C4               	addwf	(efgtoa@n+1)^(0+128),f
 11043     0717  0843               	movf	efgtoa@n^(0+128),w
 11044     0718  3E90               	addlw	(low (_dbuf| (0+256)))& (0+255)
 11045     0719  0084               	movwf	4
 11046     071A  0842               	movf	efgtoa@sign^(0+128),w
 11047     071B  1783               	bsf	3,7	;select IRP bank3
 11048     071C  0080               	movwf	0
 11049     071D                     i1l3305:
 11050                           
 11051                           ;/opt/microchip/xc8/v2.45/pic/sources/c99/common/doprnt.c: 864:  w -= i;
 11052     071D  0838               	movf	efgtoa@i^(0+128),w
 11053     071E  02B2               	subwf	efgtoa@w^(0+128),f
 11054     071F  0839               	movf	(efgtoa@i+1)^(0+128),w
 11055     0720  1C03               	skipc
 11056     0721  03B3               	decf	(efgtoa@w+1)^(0+128),f
 11057     0722  02B3               	subwf	(efgtoa@w+1)^(0+128),f
 11058     0723                     i1l3307:
 11059                           
 11060                           ;/opt/microchip/xc8/v2.45/pic/sources/c99/common/doprnt.c: 867:     return (void) pad(fp
      +                          , &dbuf[n], w);
 11061     0723  0843               	movf	efgtoa@n^(0+128),w
 11062     0724  3E90               	addlw	(low (_dbuf| (0+256)))& (0+255)
 11063     0725  1283               	bcf	3,5	;RP0=0, select bank0
 11064     0726  1303               	bcf	3,6	;RP1=0, select bank0
 11065     0727  00A4               	movwf	pad@buf
 11066     0728  1683               	bsf	3,5	;RP0=1, select bank1
 11067     0729  1303               	bcf	3,6	;RP1=0, select bank1
 11068     072A  0833               	movf	(efgtoa@w+1)^(0+128),w
 11069     072B  1283               	bcf	3,5	;RP0=0, select bank0
 11070     072C  1303               	bcf	3,6	;RP1=0, select bank0
 11071     072D  00A6               	movwf	pad@p+1
 11072     072E  1683               	bsf	3,5	;RP0=1, select bank1
 11073     072F  1303               	bcf	3,6	;RP1=0, select bank1
 11074     0730  0832               	movf	efgtoa@w^(0+128),w
 11075     0731  1283               	bcf	3,5	;RP0=0, select bank0
 11076     0732  1303               	bcf	3,6	;RP1=0, select bank0
 11077     0733  00A5               	movwf	pad@p
 11078     0734  1683               	bsf	3,5	;RP0=1, select bank1
 11079     0735  1303               	bcf	3,6	;RP1=0, select bank1
 11080     0736  082F               	movf	efgtoa@fp^(0+128),w
 11081     0737  160A  158A  27C6  120A  118A  	fcall	_pad
 11082     073C                     i1l722:
 11083     073C  0008               	return
 11084     073D                     __end_of_efgtoa:

Data Sizes:
    Strings     56
    Constant    0
    Data        0
    BSS         99
    Persistent  0
    Stack       0

Auto Spaces:
    Space          Size  Autos    Used
    COMMON           14     14      14
    BANK0            80     60      74
    BANK1            80     56      61
    BANK3            96      0      80
    BANK2            96      0       0

Pointer List with Targets:

    dtoa@fp	PTR struct _IO_FILE size(1) Largest target is 0
		 -> NULL(NULL[0]), 

    efgtoa@fp	PTR struct _IO_FILE size(1) Largest target is 0
		 -> NULL(NULL[0]), 

    fputc@fp	PTR struct _IO_FILE size(1) Largest target is 0
		 -> NULL(NULL[0]), 

    fputc@fp$.$buffer	PTR unsigned char  size(1) Largest target is 0

    fputc@fp$.$source	PTR const unsigned char  size(1) Largest target is 0

    fputs@fp	PTR struct _IO_FILE size(1) Largest target is 0
		 -> NULL(NULL[0]), 

    fputs@s	PTR const unsigned char  size(1) Largest target is 80
		 -> dbuf(BANK3[80]), 

    memcpy@d	PTR unsigned char  size(1) Largest target is 80
		 -> dbuf(BANK3[80]), 

    memcpy@d1	PTR void  size(1) Largest target is 80
		 -> dbuf(BANK3[80]), 

    memcpy@s	PTR const unsigned char  size(1) Largest target is 80
		 -> dbuf(BANK3[80]), 

    memcpy@s1	PTR const void  size(1) Largest target is 80
		 -> dbuf(BANK3[80]), 

    pad@buf	PTR unsigned char  size(1) Largest target is 80
		 -> dbuf(BANK3[80]), 

    pad@fp	PTR struct _IO_FILE size(1) Largest target is 0
		 -> NULL(NULL[0]), 

    printf@ap	PTR void [1] size(1) Largest target is 2
		 -> ?_printf(BANK1[2]), 

    printf@fmt	PTR const unsigned char  size(1) Largest target is 21
		 -> STR_1(CODE[21]), STR_2(CODE[20]), 

    read_prec_or_width@ap	PTR PTR void [1] size(1) Largest target is 1
		 -> printf@ap(BANK0[1]), 

    read_prec_or_width@fmt	PTR PTR const unsigned char  size(1) Largest target is 1
		 -> vfprintf@cfmt(BANK0[1]), 

    S875$buffer	PTR unsigned char  size(1) Largest target is 0

    S875$source	PTR const unsigned char  size(1) Largest target is 0

    sp__memcpy	PTR void  size(1) Largest target is 80
		 -> dbuf(BANK3[80]), 

    sp__strcpy	PTR unsigned char  size(1) Largest target is 80
		 -> dbuf(BANK3[80]), 

    stoa@cp	PTR unsigned char  size(2) Largest target is 7
		 -> ?_printf(BANK1[2]), STR_9(CODE[7]), 

    stoa@fp	PTR struct _IO_FILE size(1) Largest target is 0
		 -> NULL(NULL[0]), 

    stoa@s	PTR unsigned char  size(1) Largest target is 2
		 -> ?_printf(BANK1[2]), 

    strcpy@d	PTR unsigned char  size(1) Largest target is 80
		 -> dbuf(BANK3[80]), 

    strcpy@dest	PTR unsigned char  size(1) Largest target is 80
		 -> dbuf(BANK3[80]), 

    strcpy@src	PTR const unsigned char  size(1) Largest target is 4
		 -> STR_3(CODE[4]), STR_6(CODE[4]), 

    vfpfcnvrt@ap	PTR PTR void  size(1) Largest target is 1
		 -> printf@ap(BANK0[1]), 

    vfpfcnvrt@cp	PTR unsigned char  size(1) Largest target is 21
		 -> STR_1(CODE[21]), STR_2(CODE[20]), 

    vfpfcnvrt@fmt	PTR PTR unsigned char  size(1) Largest target is 1
		 -> vfprintf@cfmt(BANK0[1]), 

    vfpfcnvrt@fp	PTR struct _IO_FILE size(1) Largest target is 0
		 -> NULL(NULL[0]), 

    vfprintf@ap	PTR PTR void  size(1) Largest target is 1
		 -> printf@ap(BANK0[1]), 

    vfprintf@cfmt	PTR unsigned char  size(1) Largest target is 21
		 -> STR_1(CODE[21]), STR_2(CODE[20]), 

    vfprintf@fmt	PTR const unsigned char  size(1) Largest target is 21
		 -> STR_1(CODE[21]), STR_2(CODE[20]), 

    vfprintf@fp	PTR struct _IO_FILE size(1) Largest target is 0
		 -> NULL(NULL[0]), 


Critical Paths under _main in COMMON

    None.

Critical Paths under _noise_interruption in COMMON

    _stoa->_fputc
    _read_prec_or_width->___wmul
    _efgtoa->___flmul
    _floorf->___fldiv
    ___flsub->___flmul
    ___flmul->__Umul8_16
    ___flge->___flmul
    _dtoa->_pad
    _pad->_fputs
    _fputs->_fputc
    _fputc->_putch
    _abs->___awmod
    _read_noise_channel->_read_adc_channel

Critical Paths under _main in BANK0

    None.

Critical Paths under _noise_interruption in BANK0

    _send_noise_to_uart->_printf
    _printf->_vfprintf
    _vfprintf->_vfpfcnvrt
    _vfpfcnvrt->_efgtoa
    _efgtoa->___flge
    _efgtoa->_floorf
    _floorf->___fldiv
    ___flsub->___flmul
    ___flge->___flmul
    _dtoa->_pad
    _pad->_fputs

Critical Paths under _main in BANK1

    None.

Critical Paths under _noise_interruption in BANK1

    _noise_interruption->_send_noise_to_uart
    _send_noise_to_uart->_printf
    _printf->_vfprintf
    _vfprintf->_vfpfcnvrt
    _vfpfcnvrt->_efgtoa

Critical Paths under _main in BANK3

    None.

Critical Paths under _noise_interruption in BANK3

    None.

Critical Paths under _main in BANK2

    None.

Critical Paths under _noise_interruption in BANK2

    None.

Call Graph Tables:

 ---------------------------------------------------------------------------------
 (Depth) Function   	        Calls       Base Space   Used Autos Params    Refs
 ---------------------------------------------------------------------------------
 (0) _main                                                 0     0      0       0
                 _config_adc_channel
                        _config_tmr0
                        _config_uart
 ---------------------------------------------------------------------------------
 (1) _config_uart                                          0     0      0       0
 ---------------------------------------------------------------------------------
 (1) _config_tmr0                                          0     0      0       0
 ---------------------------------------------------------------------------------
 (1) _config_adc_channel                                   0     0      0       0
 ---------------------------------------------------------------------------------
 Estimated maximum stack depth 1
 ---------------------------------------------------------------------------------
 (Depth) Function   	        Calls       Base Space   Used Autos Params    Refs
 ---------------------------------------------------------------------------------
 (2) _noise_interruption                                   4     4      0   27581
                                             56 BANK0      4     4      0
                 _read_noise_channel
                 _send_noise_to_uart
 ---------------------------------------------------------------------------------
 (3) _send_noise_to_uart                                   2     0      2   27535
                                             54 BANK1      2     0      2
                             _printf
 ---------------------------------------------------------------------------------
 (4) _printf                                               9     4      5   27437
                                             54 BANK0      2     2      0
                                             49 BANK1      5     0      5
                           _vfprintf
 ---------------------------------------------------------------------------------
 (5) _vfprintf                                             4     2      2   27309
                                             52 BANK0      2     2      0
                                             47 BANK1      2     0      2
                          _vfpfcnvrt
 ---------------------------------------------------------------------------------
 (6) _vfpfcnvrt                                           12    10      2   26965
                                             42 BANK0     10    10      0
                                             45 BANK1      2     0      2
                               _dtoa
                             _efgtoa
                              _fputc
                 _read_prec_or_width
                               _stoa
 ---------------------------------------------------------------------------------
 (7) _stoa                                                11    10      1    1187
                                              9 COMMON     4     3      1
                                              0 BANK0      7     7      0
                              _fputc
 ---------------------------------------------------------------------------------
 (7) _read_prec_or_width                                   7     5      2     533
                                              6 COMMON     7     5      2
                             ___wmul
 ---------------------------------------------------------------------------------
 (8) ___wmul                                               6     2      4     244
                                              0 COMMON     6     2      4
 ---------------------------------------------------------------------------------
 (7) _efgtoa                                              55    50      5   18878
                                             33 BANK0      9     4      5
                                              0 BANK1     45    45      0
                            ___fladd
                            ___fldiv
                             ___fleq
                             ___flge
                            ___flmul
                            ___flneg
                            ___flsub
                            ___fltol
                      ___fpclassifyf
                             _floorf
                               _labs
                             _memcpy
                                _pad
                             _strcpy
 ---------------------------------------------------------------------------------
 (9) _strcpy                                               4     3      1     291
                                              0 COMMON     4     3      1
 ---------------------------------------------------------------------------------
 (8) _memcpy                                               8     5      3     328
                                              0 COMMON     8     5      3
 ---------------------------------------------------------------------------------
 (8) _labs                                                 4     0      4     294
                                              0 COMMON     4     0      4
 ---------------------------------------------------------------------------------
 (8) _floorf                                              20    16      4     490
                                             13 BANK0     20    16      4
                            ___fldiv (ARG)
 ---------------------------------------------------------------------------------
 (8) ___fpclassifyf                                       16    12      4     287
                                              0 COMMON    10     6      4
                                              0 BANK0      6     6      0
 ---------------------------------------------------------------------------------
 (8) ___fltol                                             10     6      4     457
                                              0 COMMON    10     6      4
 ---------------------------------------------------------------------------------
 (8) ___flsub                                              8     0      8    2637
                                             21 BANK0      8     0      8
                            ___fladd
                            ___flmul (ARG)
 ---------------------------------------------------------------------------------
 (9) ___fladd                                             20    12      8    2288
                                              0 COMMON    12     4      8
                                              0 BANK0      8     8      0
 ---------------------------------------------------------------------------------
 (8) ___flneg                                              4     0      4     121
                                              0 COMMON     4     0      4
 ---------------------------------------------------------------------------------
 (8) ___flmul                                             26    18      8    3177
                                              9 COMMON     5     5      0
                                              0 BANK0     21    13      8
                          __Umul8_16
 ---------------------------------------------------------------------------------
 (9) __Umul8_16                                            9     7      2     799
                                              0 COMMON     9     7      2
 ---------------------------------------------------------------------------------
 (8) ___flge                                              12     4      8     942
                                             21 BANK0     12     4      8
                            ___flmul (ARG)
 ---------------------------------------------------------------------------------
 (8) ___fleq                                              12     4      8     394
                                              0 COMMON    12     4      8
 ---------------------------------------------------------------------------------
 (8) ___fldiv                                             26    18      8    1881
                                              0 COMMON    13     5      8
                                              0 BANK0     13    13      0
 ---------------------------------------------------------------------------------
 (7) _dtoa                                                12    10      2    4417
                                             10 BANK0     12    10      2
                            ___awdiv
                            ___awmod
                                _abs
                                _pad
 ---------------------------------------------------------------------------------
 (8) _pad                                                  7     4      3    2861
                                             12 COMMON     1     1      0
                                              4 BANK0      6     3      3
                              _fputc
                              _fputs
 ---------------------------------------------------------------------------------
 (9) _fputs                                                7     6      1    1062
                                              9 COMMON     3     2      1
                                              0 BANK0      4     4      0
                              _fputc
 ---------------------------------------------------------------------------------
 (8) _fputc                                                8     5      3     856
                                              1 COMMON     8     5      3
                              _putch
 ---------------------------------------------------------------------------------
 (9) _putch                                                1     1      0      22
                                              0 COMMON     1     1      0
 ---------------------------------------------------------------------------------
 (8) _abs                                                  4     2      2     142
                                              7 COMMON     4     2      2
                            ___awmod (ARG)
 ---------------------------------------------------------------------------------
 (8) ___awmod                                              7     3      4     448
                                              0 COMMON     7     3      4
 ---------------------------------------------------------------------------------
 (8) ___awdiv                                              9     5      4     452
                                              0 COMMON     9     5      4
 ---------------------------------------------------------------------------------
 (3) _read_noise_channel                                   2     0      2      46
                                             10 COMMON     2     0      2
                   _read_adc_channel
 ---------------------------------------------------------------------------------
 (4) _read_adc_channel                                    10     8      2      46
                                              0 COMMON    10     8      2
 ---------------------------------------------------------------------------------
 Estimated maximum stack depth 9
 ---------------------------------------------------------------------------------

 Call Graph Graphs:

 _main (ROOT)
   _config_adc_channel
   _config_tmr0
   _config_uart

 _noise_interruption (ROOT)
   _read_noise_channel
     _read_adc_channel
   _send_noise_to_uart
     _printf
       _vfprintf
         _vfpfcnvrt
           _dtoa
             ___awdiv
             ___awmod
             _abs
               ___awmod (ARG)
             _pad
               _fputc
                 _putch
               _fputs
                 _fputc
           _efgtoa
             ___fladd
             ___fldiv
             ___fleq
             ___flge
               ___flmul (ARG)
                 __Umul8_16
             ___flmul
             ___flneg
             ___flsub
               ___fladd
               ___flmul (ARG)
             ___fltol
             ___fpclassifyf
             _floorf
               ___fldiv (ARG)
             _labs
             _memcpy
             _pad
             _strcpy
           _fputc
           _read_prec_or_width
             ___wmul
           _stoa
             _fputc

 Address spaces:
Name               Size   Autos  Total    Cost      Usage
BITCOMMON            E      0       0       0        0.0%
EEDATA             100      0       0       0        0.0%
NULL                 0      0       0       0        0.0%
CODE                 0      0       0       0        0.0%
COMMON               E      E       E       1      100.0%
BITSFR0              0      0       0       1        0.0%
SFR0                 0      0       0       1        0.0%
BITSFR1              0      0       0       2        0.0%
SFR1                 0      0       0       2        0.0%
STACK                0      0       0       2        0.0%
ABS                  0      0      E5       3        0.0%
BITBANK0            50      0       0       4        0.0%
BITSFR3              0      0       0       4        0.0%
SFR3                 0      0       0       4        0.0%
BANK0               50     3C      4A       5       92.5%
BITSFR2              0      0       0       5        0.0%
SFR2                 0      0       0       5        0.0%
BITBANK1            50      0       0       6        0.0%
BANK1               50     38      3D       7       76.2%
BITBANK3            60      0       0       8        0.0%
BANK3               60      0      50       9       83.3%
BITBANK2            60      0       0      10        0.0%
BANK2               60      0       0      11        0.0%
DATA                 0      0      E5      12        0.0%


Microchip Technology PIC Macro Assembler V2.45 build 20230818022343 
Symbol Table                                                                                   Fri Dec 22 12:56:50 2023

              ___fldiv@aexp 002C                ___fldiv@bexp 002B                           pc 0002  
              ___fldiv@sign 0024                          l11 1E0C                          l39 1E82  
                        l79 1E2C                ___awdiv@sign 0076                          fsr 0004  
       ___wmul@multiplicand 0072         __Umul8_16@word_mpld 0076                         l102 1E5F  
                       l103 1E5F                         _abs 1E2D                         _pad 1FC6  
                       fsr0 0004                         indf 0000                ___awmod@sign 0076  
              ___flmul@aexp 002D                ___flmul@bexp 002E                ___flmul@sign 0028  
              ___flmul@temp 0033                ___flmul@prod 002F                ___fltol@exp1 0079  
                      ?_abs 0077                        l3501 1E77                        l3503 1E7A  
                      l3521 1E23                        l3505 1E7D                        l3523 1E27  
                      l3507 1E7E                        l3525 1E2B                        l3509 1E81  
                      l3519 1E1D                        l3535 1E50                        l3481 1DFE  
                      l3483 1E06                        l3491 1E6E                        l3493 1E6F  
                      l3485 1E63                        ?_pad 0024                        l3495 1E70  
                      l3487 1E69                        l3497 1E73                        l3489 1E6C  
                      l3499 1E76                        STR_1 1010                        STR_2 1025  
                      STR_3 1040                        STR_6 1044                        STR_9 1039  
                      i1l14 1EA5                        i1l42 1DFD                        i1l51 1DDD  
                      i1l54 1DE5                        i1l63 1E1C                        _TMR0 0001  
                      _TXIF 0064                        abs@a 0077                        _dbuf 0190  
                      _labs 104B                        _main 1E50                        _dtoa 132C  
                      _prec 0066                        pad@i 0027                        pad@p 0025  
                      _stoa 12AA                        btemp 007E               ___fpclassifyf 122B  
                      start 0012             ___fldiv@new_exp 0025                       ??_abs 0079  
                     ??_pad 007C               ___fltol@sign1 0078                       ?_labs 0070  
           __end_of___fladd 0CBB                       ?_main 0070                       ?_dtoa 002A  
           __end_of___fldiv 1800             __end_of___awdiv 0869             __end_of___flneg 1DF1  
           __end_of___awmod 11B5             __end_of___flmul 1000             __end_of___flsub 1ECA  
           __end_of___fltol 122B                       ?_stoa 0079  __end_of_config_adc_channel 1E0D  
           ___awdiv@divisor 0070                       i1l111 1FB9                       i1l401 122A  
                     i1l350 0868                       i1l502 0B33                       i1l511 0CBA  
                     i1l600 0F6F                       i1l504 0B0A                       i1l363 11B4  
                     i1l523 0C28                       i1l700 1362                       i1l372 10AD  
                     i1l540 0CAE                       i1l532 0C8A                       i1l613 1F29  
                     i1l541 0CBA                       i1l197 1ED6                       i1l366 107C  
                     i1l606 0FF3                       i1l711 13F4                       i1l367 1098  
                     i1l383 07E0                       i1l375 075B                       i1l615 1F3B  
                     i1l519 0C02                       i1l391 122A                       i1l199 1EEE  
                     i1l704 1360                       i1l544 1EC9                       i1l529 0C4A  
                     i1l570 1775                       i1l554 167D                       i1l378 07C7  
                     i1l722 073C                       i1l387 1DF0                       i1l556 17FF  
                     i1l660 1E4F                       i1l398 1215                       i1l719 1577  
                     i1l576 17E7                       i1l840 1434                       i1l841 14F5  
                     i1l817 1F90                       i1l578 17F5                       i1l594 0FFF  
                     i1l498 0AB0                       i1l738 0287                       i1l770 12E0  
                     i1l835 1E3D                       i1l827 12A9                       i1l771 12F8  
                     i1l748 052E                       i1l693 1FFF                       i1l845 14ED  
                     i1l861 1F14                       i1l855 105F                       i1l783 115B  
                     i1l775 132B                       i1l791 0A54                       i1l873 1103  
                     i1l881 1F65                       i1l689 1FCF                       i1l858 1F06  
                     i1l699 1343                       i1l887 07FB             ___awdiv@counter 0075  
                     _RCREG 001A                vfpfcnvrt@fmt 00CD                       _SPBRG 0099  
                     _TXREG 0019  __end_of_read_noise_channel 1E1D                       _flags 00DC  
       read_prec_or_width@c 0079         read_prec_or_width@n 007A                       _fputc 10AE  
                     _fputs 1F3C                       _noise 00DA                       labs@a 0070  
                     pad@fp 0029                       _width 0064                       _putch 1DDC  
                     dtoa@d 002A                       dtoa@i 0034                       dtoa@p 0030  
                     dtoa@s 0033                       dtoa@w 002E                       pclath 000A  
                     stoa@l 0025                       stoa@p 0020                       stoa@s 0079  
                     status 0003                       wtemp0 007E              ?___fpclassifyf 0070  
           __initialization 0015                __end_of_labs 1060                __end_of_main 1E63  
              __end_of_dtoa 13F5                __end_of_stoa 132C                      ??_labs 0074  
                    ??_main 0000                      ??_dtoa 007D                      ??_stoa 007A  
__end_of_read_prec_or_width 115C                      ?_fputc 0071                      ?_fputs 0079  
                    _ADRESH 001E                      _ADRESL 009E            ___awdiv@dividend 0072  
                    ?_putch 0070                      i1l3001 12A5                      i1l3011 104F  
                    i1l2301 0A76                      i1l3021 1426                      i1l3013 1050  
                    i1l3005 07E2                      i1l3101 14F9                      i1l2311 0A8A  
                    i1l2303 0A78                      i1l3031 1469                      i1l3023 1433  
                    i1l3007 07E4                      i1l3111 1554                      i1l3103 14FA  
                    i1l2401 0B73                      i1l2321 0A9D                      i1l2313 0A8E  
                    i1l2305 0A80                      i1l3041 14CC                      i1l3033 1482  
                    i1l3025 143A                      i1l3017 13F5                      i1l3009 104B  
                    i1l3201 02BB                      i1l3121 1573                      i1l3113 1558  
                    i1l3105 1512                      i1l2411 0BDA                      i1l2403 0B74  
                    i1l2331 0ABA                      i1l2323 0AA5                      i1l2315 0A92  
                    i1l2307 0A83                      i1l3043 14E5                      i1l3035 1499  
                    i1l3027 1454                      i1l3019 1407                      i1l3051 1EFA  
                    i1l3211 03A6                      i1l3203 02C4                      i1l3131 15AC  
                    i1l3123 1579                      i1l3115 1564                      i1l3107 1539  
                    i1l3061 133F                      i1l2421 0C0F                      i1l2413 0BE0  
                    i1l2405 0B7F                      i1l2341 0AC6                      i1l2333 0ABE  
                    i1l2325 0AA6                      i1l2317 0A93                      i1l2309 0A89  
                    i1l3037 14AA                      i1l3053 1EFE                      i1l3301 070C  
                    i1l3221 0443                      i1l3205 0302                      i1l3213 03AC  
                    i1l3141 15FD                      i1l3125 158C                      i1l3117 1569  
                    i1l3109 153D                      i1l2501 1ECA                      i1l2271 10AE  
                    i1l3071 135C                      i1l3063 1347                      i1l3055 132F  
                    i1l2431 0C2C                      i1l2415 0BE5                      i1l2407 0B84  
                    i1l2351 0AD0                      i1l2343 0AC8                      i1l2335 0AC0  
                    i1l2319 0A98                      i1l2327 0AA8                      i1l3039 14C3  
                    i1l3047 1EF0                      i1l3303 0711                      i1l3231 04DB  
                    i1l3223 045E                      i1l3215 03C2                      i1l3207 0315  
                    i1l3151 003E                      i1l3143 1606                      i1l3127 1593  
                    i1l3135 15CF                      i1l3119 156E                      i1l2511 1EEA  
                    i1l2503 1ECC                      i1l3311 12AD                      i1l2521 080C  
                    i1l2281 10EC                      i1l2273 10B3                      i1l3081 1397  
                    i1l3073 1366                      i1l3065 134C                      i1l3057 1336  
                    i1l2601 1090                      i1l2433 0C2F                      i1l2425 0C18  
                    i1l2409 0B9A                      i1l2417 0BF4                      i1l2441 0C3C  
                    i1l2361 0ADA                      i1l2353 0AD2                      i1l2345 0ACA  
                    i1l2337 0AC2                      i1l2329 0AB6                      i1l3049 1EF5  
                    i1l3305 071D                      i1l3241 053D                      i1l3233 04E3  
                    i1l3225 0464                      i1l3217 0401                      i1l3209 0387  
                    i1l3161 0105                      i1l3137 15E6                      i1l3129 15A3  
                    i1l2505 1ED0                      i1l3321 12E4                      i1l3313 12B7  
                    i1l3401 098F                      i1l2531 081D                      i1l2523 080E  
                    i1l2515 0802                      i1l2267 1DDD                      i1l2275 10B8  
                    i1l3091 13D4                      i1l3083 139D                      i1l3075 136A  
                    i1l3067 1352                      i1l3059 133A                      i1l2603 10AA  
                    i1l2611 0753                      i1l2451 0C4F                      i1l2443 0C3D  
                    i1l2435 0C31                      i1l2427 0C23                      i1l2419 0C0A  
                    i1l2371 0B17                      i1l2355 0AD4                      i1l2347 0ACC  
                    i1l2339 0AC4                      i1l2363 0ADC                      i1l2291 0A62  
                    i1l3307 0723                      i1l3251 05B6                      i1l3243 053F  
                    i1l3235 0522                      i1l3227 046C                      i1l3219 0438  
                    i1l3171 01D0                      i1l3163 013E                      i1l3155 0058  
                    i1l3139 15ED                      i1l3147 0032                      i1l2507 1EDD  
                    i1l3331 1105                      i1l3323 12F2                      i1l3315 12BB  
                    i1l3403 0994                      i1l3411 09AC                      i1l2541 0835  
                    i1l2533 0823                      i1l2525 0812                      i1l2517 0803  
                    i1l2269 1DE3                      i1l2277 10BF                      i1l3093 13DB  
                    i1l3077 1372                      i1l3085 13B0                      i1l3069 1357  
                    i1l2701 1657                      i1l2605 10AC                      i1l2621 07A3  
                    i1l2613 076F                      i1l2461 0C8F                      i1l2453 0C54  
                    i1l2445 0C41                      i1l2437 0C36                      i1l2429 0C27  
                    i1l2373 0B19                      i1l2381 0B2D                      i1l2365 0ADD  
                    i1l2357 0AD6                      i1l2349 0ACE                      i1l2293 0A63  
                    i1l2285 0A55                      i1l3261 05D1                      i1l3253 05BB  
                    i1l3245 0542                      i1l3237 0528                      i1l3229 048D  
                    i1l3181 0276                      i1l3165 019E                      i1l3157 0068  
                    i1l3149 003C                      i1l2509 1EE4                      i1l3341 1146  
                    i1l3333 1107                      i1l3325 12FF                      i1l3317 12BE  
                    i1l3421 09F9                      i1l3413 09B9                      i1l3405 0997  
                    i1l2543 0846                      i1l2535 0826                      i1l2551 085A  
                    i1l2527 0817                      i1l2519 0807                      i1l2279 10CE  
                    i1l3095 13E1                      i1l3087 13BF                      i1l3079 138F  
                    i1l2711 166A                      i1l2703 165B                      i1l2623 07DD  
                    i1l2615 0777                      i1l2631 1DEE                      i1l2471 0CA6  
                    i1l2463 0C94                      i1l2455 0C62                      i1l2447 0C47  
                    i1l2439 0C38                      i1l2391 0B5C                      i1l2383 0B37  
                    i1l2375 0B1D                      i1l2367 0AF4                      i1l2359 0AD8  
                    i1l2295 0A68                      i1l2287 0A58                      i1l3263 05D4  
                    i1l3255 05BF                      i1l3271 05EC                      i1l3247 059A  
                    i1l3239 053C                      i1l3191 02A3                      i1l3183 0281  
                    i1l3167 01A9                      i1l3175 022F                      i1l3159 00A7  
                    i1l3343 1157                      i1l3335 1116                      i1l3327 1315  
                    i1l3319 12C4                      i1l3423 0A03                      i1l3415 09D1  
                    i1l3431 0A2D                      i1l3351 0889                      i1l3511 1DF1  
                    i1l3513 1E0D                      i1l2553 085F                      i1l2545 084C  
                    i1l2537 082D                      i1l2529 081B                      i1l2561 115D  
                    i1l3097 13E7                      i1l3089 13C7                      i1l2801 17BD  
                    i1l2721 1691                      i1l2713 1672                      i1l2705 165F  
                    i1l2625 07DF                      i1l2617 077B                      i1l2609 073D  
                    i1l2481 1F18                      i1l2633 1DF0                      i1l2473 0CA8  
                    i1l2465 0C9C                      i1l2457 0C66                      i1l2393 0B60  
                    i1l2385 0B3C                      i1l2377 0B1E                      i1l2369 0B0E  
                    i1l2297 0A6D                      i1l2289 0A5E                      i1l3281 0677  
                    i1l3273 05F2                      i1l3265 05DA                      i1l3257 05C5  
                    i1l3249 05B0                      i1l3193 02A5                      i1l3185 0291  
                    i1l3169 01CA                      i1l3177 0268                      i1l3337 112A  
                    i1l3329 131D                      i1l3409 0999                      i1l3361 08C4  
                    i1l3353 0892                      i1l3515 1E13                      i1l2555 0864  
                    i1l2547 084D                      i1l2539 0831                      i1l2571 1171  
                    i1l2563 1161                      i1l2811 17EB                      i1l2803 17CB  
                    i1l2723 1695                      i1l2715 1673                      i1l2707 1660  
                    i1l2619 079F                      i1l2483 1F1F                      i1l2475 0CB5  
                    i1l2467 0CA1                      i1l2459 0C86                      i1l2395 0B64  
                    i1l2379 0B29                      i1l2299 0A75                      i1l2651 11E5  
                    i1l2643 11C7                      i1l3291 06C7                      i1l3283 0696  
                    i1l3275 05F9                      i1l3267 05E0                      i1l3259 05CB  
                    i1l3195 02AB                      i1l3187 0297                      i1l3179 0270  
                    i1l3339 113F                      i1l3419 09E9                      i1l3363 08CD  
                    i1l3355 0898                      i1l3435 0A3B                      i1l3347 086C  
                    i1l2549 0854                      i1l2581 1189                      i1l2573 1177  
                    i1l2565 1166                      i1l2493 1F3F                      i1l2813 17EF  
                    i1l2805 17DA                      i1l2741 16D6                      i1l2733 16AC  
                    i1l2709 1665                      i1l2717 1675                      i1l2485 1F23  
                    i1l2901 0EF3                      i1l2821 0CBB                      i1l2629 1DE6  
                    i1l2477 0CB9                      i1l2469 0CA2                      i1l2397 0B6D  
                    i1l2389 0B45                      i1l2653 11E9                      i1l2661 1203  
                    i1l2645 11DA                      i1l2637 11B5                      i1l3293 06CD  
                    i1l3285 069C                      i1l3277 05FF                      i1l3269 05E6  
                    i1l3189 029B                      i1l3197 02B1                      i1l3429 0A1A  
                    i1l3381 092A                      i1l3373 090A                      i1l3365 08D9  
                    i1l3357 08A8                      i1l3349 087D                      i1l3461 1F70  
                    i1l3541 1F9B                      i1l3471 1E86                      i1l2591 11AB  
                    i1l2583 1193                      i1l2575 117A                      i1l2567 1168  
                    i1l2559 115C                      i1l2495 1F42                      i1l2815 17F1  
                    i1l2807 17DE                      i1l2751 16F4                      i1l2743 16D8  
                    i1l2735 16BE                      i1l2719 1685                      i1l2727 169E  
                    i1l2487 1F32                      i1l2479 1F16                      i1l2911 0F3F  
                    i1l2903 0F1B                      i1l2831 0CCE                      i1l2823 0CC0  
                    i1l2399 0B6F                      i1l2671 121F                      i1l2647 11DB  
                    i1l2639 11BE                      i1l3295 06D2                      i1l3279 0605  
                    i1l3287 06A2                      i1l3199 02B3                      i1l3383 0938  
                    i1l3391 0963                      i1l3375 090B                      i1l3367 08E5  
                    i1l3359 08B4                      i1l3463 1F7E                      i1l3543 1FA6  
                    i1l2593 11B0                      i1l2585 1199                      i1l2577 1181  
                    i1l2569 116C                      i1l2497 1F50                      i1l2809 17E6  
                    i1l2745 16DD                      i1l2753 16FD                      i1l2761 1728  
                    i1l2737 16C6                      i1l2729 16A3                      i1l2681 162C  
                    i1l2489 1F37                      i1l2921 0F54                      i1l2913 0F40  
                    i1l2905 0F24                      i1l2841 0CEA                      i1l2833 0CD3  
                    i1l2825 0CC4                      i1l2673 1EA6                      i1l2649 11E3  
                    i1l3297 06ED                      i1l3289 06B8                      i1l3641 09F1  
                    i1l3393 0969                      i1l3385 0947                      i1l3377 091B  
                    i1l3369 08FF                      i1l3465 1F8C                      i1l3545 1FAF  
                    i1l3537 1F91                      i1l2587 11A0                      i1l2579 1185  
                    i1l2499 1F58                      i1l2771 1745                      i1l2763 172E  
                    i1l2755 170F                      i1l2747 16EF                      i1l2739 16CE  
                    i1l2691 163F                      i1l2683 1630                      i1l2931 0F79  
                    i1l2923 0F58                      i1l2915 0F49                      i1l2907 0F32  
                    i1l2851 0CFD                      i1l2843 0CEE                      i1l2835 0CDB  
                    i1l2827 0CC8                      i1l2675 1EAA                      i1l2667 120A  
                    i1l2659 11F1                      i1l3299 06F7                      i1l3643 0A28  
                    i1l3387 0956                      i1l3379 0927                      i1l3459 1F69  
                    i1l3475 1E41                      i1l3539 1F9A                      i1l3547 1FB3  
                    i1l3469 1E83                      i1l2589 11A6                      i1l2781 175A  
                    i1l2773 1746                      i1l2765 1736                      i1l2757 1710  
                    i1l2749 16F3                      i1l2693 1647                      i1l2685 1634  
                    i1l2597 1060                      i1l2941 0FB7                      i1l2933 0F87  
                    i1l2925 0F6C                      i1l2909 0F3B                      i1l2917 0F4F  
                    i1l2861 0D19                      i1l2853 0D05                      i1l2845 0CF2  
                    i1l2837 0CDD                      i1l2829 0CC9                      i1l2669 121A  
                    i1l3397 097E                      i1l3477 1E43                      i1l2791 177F  
                    i1l2783 175E                      i1l2775 174F                      i1l2767 1738  
                    i1l2759 1724                      i1l2695 1648                      i1l2687 1635  
                    i1l2679 1627                      i1l2599 1074                      i1l2951 0FE9  
                    i1l2943 0FC2                      i1l2935 0F8B                      i1l2919 0F53  
                    i1l2871 0D58                      i1l2855 0D07                      i1l2847 0CF3  
                    i1l2839 0CE5                      i1l3639 09A1                      i1l3399 0986  
                    u300_20 0C54                      i1l2961 1FC9                      i1l2793 178D  
                    i1l2785 1772                      i1l2769 1741                      i1l2777 1755  
                    i1l2689 163A                      i1l2697 164A                      i1l2953 0FED  
                    i1l2945 0FD1                      i1l2937 0FA4                      i1l2929 0F74  
                    i1l2881 0DDF                      i1l2873 0D74                      i1l2865 0D22  
                    i1l2857 0D0F                      i1l2849 0CF8                      u300_21 0C53  
                    i1l2971 1FF5                      i1l2963 1FCD                      i1l2795 1791  
                    i1l2779 1759                      i1l2699 1652                      i1l2955 0FEE  
                    i1l2947 0FDB                      i1l2939 0FAA                      i1l2891 0E4C  
                    i1l2883 0DED                      i1l2875 0D9E                      i1l2867 0D30  
                    i1l2859 0D14                      i1l2973 1E2D                      i1l2965 1FD2  
                    i1l2797 17AA                      i1l2789 177A                      i1l2957 0FF7  
                    i1l2949 0FDD                      i1l2893 0E69                      i1l2885 0E0A  
                    i1l2877 0DBA                      i1l2869 0D3D                      i1l2981 122B  
                    i1l2975 1E31                      i1l2967 1FDF                      i1l2799 17B0  
                    i1l2895 0E94                      i1l2887 0E18                      i1l2879 0DD6  
                    i1l2991 1278                      i1l2983 123D                      u301_20 0C66  
                    i1l2977 1E32                      i1l2969 1FE7                      i1l2897 0EA2  
                    i1l2889 0E35                      u301_21 0C65                      i1l2985 1254  
                    i1l2899 0ECD                      i1l2987 125A                      i1l2995 127D  
                    i1l2997 1283                      i1l2989 1273                      u302_20 0C77  
                    u310_25 1F2A                      u302_25 0C72                      u311_20 1F37  
                    u303_20 0C86                      u311_21 1F36                      u303_21 0C85  
                    u312_20 1F65                      u304_20 0C8F                      u312_21 1F64  
                    u400_21 0DFC                      u304_21 0C8E                      u400_22 0E03  
                    u400_23 0E0A                      u320_25 0827                      u321_20 0835  
                    u305_20 0C94                      u313_20 1ED0                      u321_21 0834  
                    u401_21 0E27                      u305_21 0C93                      u313_21 1ECF  
                    u401_22 0E2E                      u401_23 0E35                      u306_20 0CA1  
                    u306_21 0CA0                      u322_25 0836                      u330_25 117B  
                    u410_25 0F1D                      u402_25 0E37                      u314_25 1ED7  
                    u323_20 0846                      u331_20 1189                      u307_20 0CA6  
                    u323_21 0845                      u331_21 1188                      u403_21 0E5B  
                    u307_21 0CA5                      u403_22 0E62                      u403_23 0E69  
                    u323_25 0842                      u411_25 0F34                      u315_25 1EDE  
                    u332_20 1193                      u260_20 10B8                      u340_20 076F  
                    u420_20 0F9A                      u412_20 0F3F                      u308_20 0CB9  
                    u316_20 1EEA                      u500_20 1116                      u332_21 1192  
                    u260_21 10B7                      u340_21 076E                      u412_21 0F3E  
                    u404_21 0E86                      u308_21 0CB8                      u316_21 1EE9  
                    u500_21 1115                      u404_22 0E8D                      u404_23 0E94  
                    u324_25 084E                      u332_25 118F                      u420_25 0F95  
                    u325_20 085A                      u317_20 0807                      u261_20 10CE  
                    u341_20 077B                      u309_20 1F23                      u421_20 0FB7  
                    u501_20 1157                      u325_21 0859                      u317_21 0806  
                    u261_21 10CD                      u341_21 077A                      u309_21 1F22  
                    u421_21 0FB6                      u405_21 0EB1                      u501_21 1156  
                    u405_22 0EB8                      u405_23 0EBF                      u333_25 119A  
                    u421_25 0FB3                      u413_25 0F42                      u326_20 085F  
                    u318_20 0812                      u334_20 11A6                      u262_20 10EC  
                    u422_20 0FD1                      u414_20 0F53                      u406_20 0ED9  
                    u270_20 0AB6                      u350_20 11F0                      u430_20 1273  
                    u510_20 0969                      u502_20 087D                      u326_21 085E  
                    u318_21 0811                      u334_21 11A5                      u262_21 10EB  
                    u342_21 078A                      u422_21 0FD0                      u414_21 0F52  
                    u270_21 0AB5                      u350_21 11EF                      u430_21 1272  
                    u510_21 0968                      u502_21 087C                      u342_22 078B  
                    u342_23 0790                      u342_24 0791                      u262_25 10E8  
                    u342_25 0796                      u422_25 0FCD                      u406_25 0ED4  
                    u342_26 0797                      u319_20 0823                      u335_20 11AB  
                    u327_20 1161                      u343_20 07A3                      u423_20 0FED  
                    u415_20 0F58                      u271_20 0ABA                      u263_20 0A62  
                    u431_20 1283                      u511_20 09B8                      u503_20 08A8  
                    u319_21 0822                      u335_21 11AA                      u327_21 1160  
                    u343_21 07A2                      u423_21 0FEC                      u415_21 0F57  
                    u407_21 0EE5                      u271_21 0AB9                      u263_21 0A61  
                    u431_21 1282                      u511_21 09B7                      u503_21 08A7  
                    u407_22 0EEC                      u407_23 0EF3                      u351_25 11F2  
                    u328_20 116C                      u424_20 1FCD                      u360_20 165F  
                    u336_20 1074                      u416_20 0F6C                      u408_20 0F01  
                    u280_20 0B3C                      u272_20 0AF4                      u264_20 0A68  
                    u352_20 1202                      u432_20 1291                      u440_20 144A  
                    u504_20 08D9                      u512_20 1F8C                      u328_21 116B  
                    u424_21 1FCC                      u360_21 165E                      u336_21 1073  
                    u344_21 07B2                      u416_21 0F6B                      u280_21 0B3B  
                    u272_21 0AF3                      u264_21 0A67                      u352_21 1201  
                    u504_21 08D8                      u512_21 1F8B                      u344_22 07B3  
                    u344_23 07B8                      u344_24 07B9                      u344_25 07BE  
                    u408_25 0EFC                      u272_25 0AF0                      u432_25 128C  
                    u440_25 1445                      u344_26 07BF                      u329_20 1177  
                    u425_20 1FF5                      u361_20 1665                      u337_20 1090  
                    u345_20 07DD                      u417_20 0F73                      u273_20 0AFD  
                    u265_20 0A6D                      u353_20 1209                      u433_20 129D  
                    u441_20 1468                      u505_20 08E5                      u329_21 1176  
                    u425_21 1FF4                      u361_21 1664                      u337_21 108F  
                    u345_21 07DC                      u417_21 0F72                      u409_21 0F0D  
                    u281_21 0B4E                      u273_21 0AFB                      u265_21 0A6C  
                    u353_21 1208                      u433_21 129B                      u441_21 1467  
                    u505_21 08E4                      u409_22 0F14                      u281_22 0B55  
                    u409_23 0F1B                      u281_23 0B5C                      u425_25 1FF1  
                    u345_25 07D9                      u426_20 1E31                      u258_20 1DE3  
                    u450_20 1334                      u370_20 170F                      u362_20 166A  
                    u338_20 10AA                      u418_20 0F79                      u346_20 1DEE  
                    u290_20 0C0A                      u282_20 0B60                      u274_20 0AFE  
                    u266_20 0A89                      u434_20 129E                      u442_20 1477  
                    u506_20 091B                      u514_20 1F9A                      u426_21 1E30  
                    u258_21 1DE2                      u450_21 1332                      u370_21 170E  
                    u362_21 1669                      u338_21 10A9                      u418_21 0F78  
                    u346_21 1DED                      u290_21 0C09                      u282_21 0B5F  
                    u266_21 0A88                      u506_21 091A                      u514_21 1F99  
                    u370_25 170B                      u338_25 10A6                      u354_25 120C  
                    u442_25 1472                      u259_20 10B3                      u451_20 1335  
                    u371_20 1724                      u363_20 1685                      u339_20 0753  
                    u419_20 0F8B                      u291_20 0C0F                      u283_20 0B64  
                    u275_20 0B0E                      u267_20 0A92                      u355_20 121A  
                    u347_20 11BE                      u427_20 124B                      u443_20 1482  
                    u435_20 07FB                      u507_20 0938                      u259_21 10B2  
                    u363_21 1684                      u339_21 0752                      u419_21 0F8A  
                    u291_21 0C0E                      u283_21 0B63                      u275_21 0B0D  
                    u267_21 0A91                      u355_21 1219                      u347_21 11BD  
                    u443_21 1481                      u435_21 07FA                      u507_21 0937  
                    u371_25 1717                      u427_25 1246                      u371_26 1718  
                    u371_27 171D                      u452_20 133A                      u380_20 1779  
                    u372_20 172E                      u371_28 171E                      u364_20 16A3  
                    u284_20 0B73                      u276_20 0B1D                      u268_20 0A98  
                    u356_20 121F                      u348_20 11D5                      u428_20 125A  
                    u436_20 104F                      u460_20 1569                      u508_20 0947  
                    u452_21 1339                      u380_21 1778                      u372_21 172D  
                    u371_29 1723                      u364_21 16A2                      u284_21 0B72  
                    u276_21 0B1C                      u268_21 0A97                      u356_21 121E  
                    u428_21 1259                      u444_21 148B                      u436_21 104E  
                    u460_21 1568                      u508_21 0946                      u444_22 1492  
                    u444_23 1499                      u292_25 0C1C                      u348_25 11D0  
                    u453_20 134C                      u381_20 177F                      u373_20 1736  
                    u365_20 16DD                      u357_20 1634                      u293_20 0C27  
                    u269_20 0A9D                      u349_20 11E9                      u429_20 1268  
                    u445_20 14B8                      u437_20 1415                      u461_20 156E  
                    u509_20 0956                      u453_21 134B                      u381_21 177E  
                    u373_21 1735                      u365_21 16DC                      u357_21 1633  
                    u293_21 0C26                      u269_21 0A9C                      u349_21 11E8  
                    u461_21 156D                      u509_21 0955                      u285_25 0B78  
                    u277_25 0B22                      u429_25 1263                      u445_25 14B3  
                    u437_25 1410                      u454_20 1357                      u382_20 1791  
                    u358_20 163A                      u390_20 0CF2                      u294_20 0C2C  
                    u286_20 0B9A                      u278_20 0B33                      u446_20 14C3  
                    u438_20 1433                      u462_20 158C                      u454_21 1356  
                    u382_21 1790                      u358_21 1639                      u390_21 0CF1  
                    u294_21 0C2B                      u286_21 0B99                      u278_21 0B32  
                    u446_21 14C2                      u438_21 1432                      u470_21 0163  
                    u462_21 158B                      u470_22 0166                      u286_23 0B96  
                    u470_23 016D                      u470_24 0170                      u374_25 173A  
                    u366_25 16DF                      u438_25 142F                      u470_25 0177  
                    u470_26 017A                      u455_20 13BF                      u383_20 17A0  
                    u375_20 1745                      u359_20 163F                      u391_20 0CF8  
                    u295_20 0C36                      u279_20 0B37                      u447_20 14DA  
                    u439_20 143A                      u471_20 019E                      u463_20 1593  
                    u455_21 13BE                      u375_21 1744                      u359_21 163E  
                    u391_21 0CF7                      u295_21 0C35                      u287_21 0BB3  
                    u279_21 0B36                      u439_21 1439                      u471_21 019D  
                    u463_21 1592                      u287_22 0BB4                      u287_23 0BB9  
                    u471_23 019A                      u287_24 0BBA                      u455_25 13BB  
                    u383_25 179B                      u367_25 16E8                      u287_25 0BBF  
                    u447_25 14D5                      u287_26 0BC0                      u456_20 13C7  
                    u384_20 17BD                      u368_20 16F3                      u392_20 0CFD  
                    u296_20 0C3C                      u288_20 0BC7                      u448_20 14E5  
                    u480_20 0438                      u464_20 15E6                      u456_21 13C6  
                    u384_21 17BC                      u368_21 16F2                      u392_21 0CFC  
                    u296_21 0C3B                      u288_21 0BC8                      u448_21 14E4  
                    u480_21 0437                      u472_21 01F3                      u464_21 15E3  
                    u288_22 0BCD                      u472_22 01F6                      u288_23 0BCE  
                    u472_23 01FD                      u472_24 0200                      u384_25 17B9  
                    u376_25 1748                      u472_25 0207                      u472_26 020A  
                    u457_20 13D4                      u385_20 17DA                      u377_20 1759  
                    u393_20 0D14                      u297_20 0C41                      u289_20 0BE5  
                    u449_20 1F14                      u481_20 045E                      u473_20 022E  
                    u465_20 15ED                      u457_21 13D3                      u385_21 17D9  
                    u377_21 1758                      u393_21 0D13                      u297_21 0C40  
                    u289_21 0BE4                      u449_21 1F13                      u481_21 045D  
                    u473_21 022D                      u465_21 15EC                      u473_23 022A  
                    u457_25 13D0                      u385_25 17D6                      u369_25 16F6  
                    u458_20 13DB                      u386_20 17EF                      u378_20 175E  
                    u394_20 0D19                      u298_20 0C47                      u490_20 06C7  
                    u482_20 0464                      u474_20 0268                      u466_20 0057  
                    u458_21 13DA                      u386_21 17EE                      u378_21 175D  
                    u394_21 0D18                      u298_21 0C46                      u490_21 06C6  
                    u482_21 0463                      u474_21 0267                      u466_21 0056  
                    u490_25 06C3                      u379_20 1772                      u387_20 0CC8  
                    u299_20 0C4E                      u491_20 06FD                      u483_20 04DB  
                    u475_20 0276                      u459_20 1539                      u379_21 1771  
                    u395_21 0D66                      u387_21 0CC7                      u299_21 0C4D  
                    u491_21 06FB                      u483_21 04DA                      u475_21 0275  
                    u467_21 00CA                      u459_21 1538                      u395_22 0D6D  
                    u467_22 00CD                      u395_23 0D74                      u467_23 00D4  
                    u467_24 00D7                      u467_25 00DE                      u467_26 00E1  
                    u388_20 0CCE                      u492_20 06FE                      u484_20 0528  
                    u476_20 0297                      u468_20 0105                      u396_21 0D82  
                    u388_21 0CCD                      u484_21 0527                      u476_21 0296  
                    u468_21 0104                      u396_22 0D89                      u396_23 0D90  
                    u468_23 0101                      u389_20 0CD3                      u493_20 0711  
                    u485_20 059A                      u477_20 029B                      u469_20 013E  
                    u397_21 0DAC                      u389_21 0CD2                      u493_21 0710  
                    u485_21 0599                      u477_21 029A                      u469_21 013D  
                    u397_22 0DB3                      u397_23 0DBA                      u485_25 0596  
                    u486_20 05BB                      u478_20 02AB                      u494_20 12B7  
                    u398_21 0DC8                      u486_21 05BA                      u478_21 02AA  
                    u494_21 12B6                      u398_22 0DCF                      u398_23 0DD6  
                    u487_20 05BF                      u479_20 03C2                      u495_20 12CE  
                    u487_21 05BE                      u479_21 03C1                      u399_25 0DD8  
                    u479_25 03BE                      u488_20 05F2                      u496_20 12E0  
                    u488_21 05F1                      u496_21 12DF               vfpfcnvrt@done 004C  
                    u489_20 06B8                      u497_20 12E4                      u489_21 06B7  
                    u497_21 12E3                      u489_25 06B4                      u498_20 12F2  
                    u498_21 12F1                      u498_25 12EE                      u499_20 132B  
                    u499_21 132A                      _SPBRGH 009A                vfprintf@cfmt 0055  
                    ___flge 073D                      ___fleq 1060                   ??___fladd 0020  
                    ___wmul 1ECA                   ??___fldiv 0078                   ??___awdiv 0074  
                 ??___flneg 0074                   ??___awmod 0074                   ??___flmul 0079  
                 ??___flsub 007E                   ??___fltol 0074                      _efgtoa 14F6  
                    _floorf 13F5                      _memcpy 1EEF        read_prec_or_width@ap 0076  
          ___awdiv@quotient 0077             ___awmod@divisor 0070             ___awmod@counter 0075  
                    _printf 1E3E                      pad@buf 0024                      dtoa@fp 0032  
                    _strcpy 07E1                      fputc@c 0071                      fputs@c 0020  
                    fputs@i 0021                      fputs@s 0023             ___fpclassifyf@e 0020  
           ___fpclassifyf@u 0022             ___fpclassifyf@x 0070                      saved_w 007E  
                    stoa@cp 0023                      stoa@fp 0022            __end_of_vfprintf 1F91  
                ___flge@ff1 0035                  ___flge@ff2 0039             ??___fpclassifyf 0074  
                ___fleq@ff1 0070                  ___fleq@ff2 0074     __end_of__initialization 002E  
                ___flneg@f1 0070                  ___fltol@f1 0070              __pcstackCOMMON 0070  
             __end_of_fputc 1104               __end_of_fputs 1F66               __end_of_putch 1DE6  
            _OPTION_REGbits 0081                     ??_fputc 0074                     ??_fputs 007A  
                   ??_putch 0070                  __pbssBANK0 005C                  __pbssBANK1 00D8  
                __pbssBANK3 0190           __end_of__Umul8_16 1F3C                  __pmaintext 1E50  
__end_of_send_noise_to_uart 1DFE                     ?___flge 0035                     ?___fleq 0070  
                _best_noise 0068                     ?___wmul 0070                  __pintentry 0004  
                   ?_efgtoa 0041                     ?_floorf 002D                     ?_memcpy 0070  
                   ?_printf 00D1                     ?_strcpy 0070                  __stringtab 1000  
        _config_adc_channel 1DFE         ?_config_adc_channel 0070          _read_noise_channel 1E0D  
                   ___fladd 0A55                     ___fldiv 1627                     ___awdiv 0802  
                   ___flneg 1DE6                     ___awmod 115C                     ___flmul 0CBB  
                   ___flsub 1EA6                     ___fltol 11B5                   ?_vfprintf 00CF  
       ?_read_noise_channel 007A                     __ptext1 1E63                     __ptext2 1E1D  
                   __ptext3 1DFE                     __ptext4 1F91                     __ptext5 1DF1  
                   __ptext6 1E3E                     __ptext7 1F66                     __ptext8 0869  
                   __ptext9 12AA  __end_of_noise_interruption 1FC6                     _counter 00D8  
     read_prec_or_width@fmt 007C            ___awmod@dividend 0072        ??_config_adc_channel 0000  
                   efgtoa@c 0045                     efgtoa@d 00AB                     efgtoa@e 00B0  
                   efgtoa@f 0041                     efgtoa@g 00C5                     efgtoa@h 00BA  
                   efgtoa@i 00B8                     efgtoa@l 00BE                     efgtoa@m 00AD  
                   efgtoa@n 00C3                     efgtoa@p 00A2                     efgtoa@t 00A4  
                   efgtoa@u 00C9                     efgtoa@w 00B2                     clrloop0 1DD5  
      end_of_initialization 002E        ??_read_noise_channel 007C                     floorf@e 003B  
                   floorf@m 0037                     floorf@u 003D                     floorf@x 002D  
                   memcpy@d 0076                     memcpy@n 0071                     memcpy@s 0077  
                   fputc@fp 0073                     fputs@fp 0079          _read_prec_or_width 1104  
         __end_of_vfpfcnvrt 0A55                  efgtoa@mode 00A9                  efgtoa@sign 00C2  
                 _RCSTAbits 0018         ?_read_prec_or_width 0076                     psplit$0 190033  
          _read_adc_channel 1E83            vfpfcnvrt@convarg 004D                  ??_vfprintf 007E  
                   strcpy@d 0072                 ___fladd@grs 007B        ??_read_prec_or_width 0078  
               ___fldiv@grs 0027                 ___fldiv@rem 0020                 ___flmul@grs 0029  
                 _TXSTAbits 0098               ??_config_tmr0 0000               ??_config_uart 0000  
            __end_of___flge 07E1              __end_of___fleq 10AE                 vfpfcnvrt@ap 00CE  
               vfpfcnvrt@cp 0053                 vfpfcnvrt@fp 0052              __end_of___wmul 1EEF  
            __end_of_efgtoa 073D                 _BAUDCTLbits 0187              __end_of_floorf 14F6  
            __end_of_memcpy 1F15                  floorf@F521 005C              __end_of_printf 1E50  
            __end_of_strcpy 07FC         start_initialization 0015                 __end_of_abs 1E3E  
               __end_of_pad 2000       __end_of___fpclassifyf 12AA                 vfprintf@fmt 00CF  
                  ??___flge 003D                    ??___fleq 0078                    ??___wmul 0074  
                  ??_efgtoa 0046                   __Umul8_16 1F15                    ??_floorf 0031  
                  ??_memcpy 0073         __end_of_config_tmr0 1E2D         __end_of_config_uart 1E83  
                  ??_printf 007E                    ??_strcpy 0071                   ___fladd@a 0074  
                 ___fladd@b 0070                   ___fldiv@a 0070                   ___fldiv@b 0074  
        _send_noise_to_uart 1DF1                   ___flmul@a 0024                   ___flmul@b 0020  
                 ___flsub@a 0035                   ___flsub@b 0039                   ___latbits 0002  
             __pcstackBANK0 0020               __pcstackBANK1 00A0               __pcstackBANK3 0000  
       ?_send_noise_to_uart 00D6                 _efgtoa$1003 00A6                    ?___fladd 0070  
                  ?___fldiv 0070                    ?___awdiv 0070                    ?___flneg 0070  
                  ?___awmod 0070                    ?___flmul 0020                    ?___flsub 0035  
                  ?___fltol 0070        ??_send_noise_to_uart 007E                  ?__Umul8_16 0070  
                 __pstrings 1000    __end_of_read_adc_channel 1EA6                  pnum$text12 0019  
 read_adc_channel@adc_value 0078          _noise_interruption 1F91           interrupt_function 0004  
            ___wmul@product 0074     send_noise_to_uart@value 00D6                   clear_ram0 1DD4  
                  _PIE1bits 008C         ?_noise_interruption 0070                    _PIR1bits 000C  
               _config_tmr0 1E1D                 _config_uart 1E63                   _vfpfcnvrt 0869  
                _ADCON0bits 001F                 __stringbase 100F                  _ADCON1bits 009F  
         ___wmul@multiplier 0070        ??_noise_interruption 0058                  vfpfcnvrt@c 0051  
                 memcpy@tmp 0074                  vfprintf@ap 00D0                  vfprintf@fp 0054  
               ??__Umul8_16 0072                  ?_vfpfcnvrt 00CD          __end_of__stringtab 1010  
        ___fpclassifyf@F465 0060                    _dtoa$972 002C                    __ptext10 1104  
                  __ptext11 1ECA                    __ptext20 0A55                    __ptext12 14F6  
                  __ptext21 1DE6                    __ptext13 07E1                    __ptext30 10AE  
                  __ptext22 0CBB                    __ptext14 1EEF                    __ptext31 1DDC  
                  __ptext23 1F15                    __ptext15 104B                    __ptext32 1E2D  
                  __ptext24 073D                    __ptext16 13F5                    __ptext33 115C  
                  __ptext25 1060                    __ptext17 122B                    __ptext34 0802  
                  __ptext26 1627                    __ptext18 11B5                    __ptext35 1E0D  
                  __ptext27 132C                    __ptext19 1EA6                    __ptext36 1E83  
                  __ptext28 1FC6                    __ptext29 1F3C                  strcpy@dest 0073  
                  efgtoa@fp 00AF                    efgtoa@ne 00A0                    efgtoa@pp 00A8  
                  efgtoa@ou 00B4          pnum$text12_split_1 0033                    _vfprintf 1F66  
                 printf@fmt 0056                   putch@data 0070                  _INTCONbits 000B  
                  memcpy@d1 0075                    memcpy@s1 0070                    intlevel1 0000  
                 strcpy@src 0070                   stringcode 100A                 efgtoa@nmode 00AA  
                  printf@ap 0057                 ??_vfpfcnvrt 004A      __Umul8_16@multiplicand 0070  
                  stringdir 100A                    stringtab 1000               ___fladd@signs 0078  
         ?_read_adc_channel 0070          ??_read_adc_channel 0072                ___fladd@aexp 0079  
              ___fladd@bexp 007A        __Umul8_16@multiplier 0078                ?_config_tmr0 0070  
              ?_config_uart 0070           __Umul8_16@product 0074  
