

Microchip MPLAB XC8 Assembler V2.45 build 20230818022343 
                                                                                               Fri Dec 22 12:31:28 2023

Microchip MPLAB XC8 C Compiler v2.45 (Free license) build 20230818022343 Og1 
     1                           	processor	16F886
     2                           	pagewidth 120
     3                           	opt	flic
     4                           	psect	strings,global,class=STRING,delta=2,noexec
     5                           	psect	cinit,global,class=CODE,merge=1,delta=2
     6                           	psect	bssBANK1,global,class=BANK1,space=1,delta=1,noexec
     7                           	psect	bssBANK3,global,class=BANK3,space=1,delta=1,noexec
     8                           	psect	bssBANK2,global,class=BANK2,space=1,delta=1,noexec
     9                           	psect	clrtext,global,class=CODE,delta=2
    10                           	psect	cstackBANK3,global,class=BANK3,space=1,delta=1,noexec
    11                           	psect	cstackBANK1,global,class=BANK1,space=1,delta=1,noexec
    12                           	psect	cstackCOMMON,global,class=COMMON,space=1,delta=1,noexec
    13                           	psect	cstackBANK0,global,class=BANK0,space=1,delta=1,noexec
    14                           	psect	maintext,global,class=CODE,split=1,delta=2
    15                           	psect	text1,local,class=CODE,merge=1,delta=2
    16                           	psect	text2,local,class=CODE,merge=1,delta=2
    17                           	psect	text3,local,class=CODE,merge=1,delta=2
    18                           	psect	text4,local,class=CODE,merge=1,delta=2
    19                           	psect	text5,local,class=CODE,merge=1,delta=2
    20                           	psect	text6,local,class=CODE,merge=1,delta=2
    21                           	psect	text7,local,class=CODE,merge=1,delta=2
    22                           	psect	text8,local,class=CODE,merge=1,delta=2
    23                           	psect	text9,local,class=CODE,merge=1,delta=2
    24                           	psect	text10,local,class=CODE,merge=1,delta=2
    25                           	psect	text11,local,class=CODE,merge=1,delta=2
    26                           	psect	text12,local,class=CODE,merge=1,delta=2
    27                           	psect	text13,local,class=CODE,merge=1,delta=2
    28                           	psect	text14,local,class=CODE,merge=1,delta=2
    29                           	psect	intentry,global,class=CODE,delta=2
    30                           	psect	text15,local,class=CODE,merge=1,delta=2
    31                           	psect	text16,local,class=CODE,merge=1,delta=2
    32                           	psect	text17,local,class=CODE,merge=1,delta=2
    33                           	psect	text18,local,class=CODE,merge=1,delta=2,group=3
    34                           	psect	text19,local,class=CODE,merge=1,delta=2,group=1
    35                           	psect	text20,local,class=CODE,merge=1,delta=2,group=1
    36                           	psect	text21,local,class=CODE,merge=1,delta=2,group=1
    37                           	psect	text22,local,class=CODE,merge=1,delta=2,group=1
    38                           	psect	text23,local,class=CODE,merge=1,delta=2,group=2
    39                           	psect	text24,local,class=CODE,merge=1,delta=2,group=1
    40                           	psect	text25,local,class=CODE,merge=1,delta=2,group=3
    41                           	psect	text26,local,class=CODE,merge=1,delta=2,group=3
    42                           	psect	text27,local,class=CODE,merge=1,delta=2,group=3
    43                           	psect	text28,local,class=CODE,merge=1,delta=2,group=3
    44                           	psect	text29,local,class=CODE,merge=1,delta=2,group=3
    45                           	psect	text30,local,class=CODE,merge=1,delta=2,group=2
    46                           	psect	text31,local,class=CODE,merge=1,delta=2,group=2
    47                           	psect	text32,local,class=CODE,merge=1,delta=2,group=2
    48                           	psect	text33,local,class=CODE,merge=1,delta=2,group=2
    49                           	psect	text34,local,class=CODE,merge=1,delta=2,group=1
    50                           	psect	text35,local,class=CODE,merge=1,delta=2,group=1
    51                           	psect	text36,local,class=CODE,merge=1,delta=2,group=3
    52                           	psect	text37,local,class=CODE,merge=1,delta=2,group=3
    53                           	psect	text38,local,class=CODE,merge=1,delta=2
    54                           	psect	text39,local,class=CODE,merge=1,delta=2,group=3
    55                           	psect	text40,local,class=CODE,merge=1,delta=2,group=2
    56                           	psect	text41,local,class=CODE,merge=1,delta=2,group=2
    57                           	psect	text42,local,class=CODE,merge=1,delta=2
    58                           	psect	text43,local,class=CODE,merge=1,delta=2,group=2
    59                           	psect	text44,local,class=CODE,merge=1,delta=2
    60                           	psect	text45,local,class=CODE,merge=1,delta=2
    61                           	psect	text46,local,class=CODE,merge=1,delta=2
    62                           	psect	text47,local,class=CODE,merge=1,delta=2
    63                           	psect	text48,local,class=CODE,merge=1,delta=2
    64                           	psect	text49,local,class=CODE,merge=1,delta=2,group=2
    65                           	psect	text50,local,class=CODE,merge=1,delta=2,group=2
    66                           	psect	text51,local,class=CODE,merge=1,delta=2
    67                           	psect	text52,local,class=CODE,merge=1,delta=2
    68                           	psect	text53,local,class=CODE,merge=1,delta=2,group=2
    69                           	psect	text54,local,class=CODE,merge=1,delta=2,group=2
    70                           	psect	text55,local,class=CODE,merge=1,delta=2,group=2
    71                           	psect	text56,local,class=CODE,merge=1,delta=2
    72                           	psect	text57,local,class=CODE,merge=1,delta=2
    73                           	psect	text58,local,class=CODE,merge=1,delta=2
    74                           	psect	text59,local,class=CODE,merge=1,delta=2
    75                           	psect	text60,local,class=CODE,merge=1,delta=2
    76                           	psect	text61,local,class=CODE,merge=1,delta=2
    77                           	psect	text62,local,class=CODE,merge=1,delta=2
    78                           	psect	text63,local,class=CODE,merge=1,delta=2
    79                           	psect	text64,local,class=CODE,merge=1,delta=2
    80                           	psect	config,global,abs,ovrld,class=CONFIG,space=4,delta=2,noexec
    81                           	psect	text24_split_1,local,class=CODE,merge=1,delta=2
    82                           	dabs	1,0x7E,2
    83  0000                     
    84                           ; Generated 22/03/2023 GMT
    85                           ; 
    86                           ; Copyright © 2023, Microchip Technology Inc. and its subsidiaries ("Microchip")
    87                           ; All rights reserved.
    88                           ; 
    89                           ; This software is developed by Microchip Technology Inc. and its subsidiaries ("Microch
      +                          ip").
    90                           ; 
    91                           ; Redistribution and use in source and binary forms, with or without modification, are
    92                           ; permitted provided that the following conditions are met:
    93                           ; 
    94                           ;     1. Redistributions of source code must retain the above copyright notice, this lis
      +                          t of
    95                           ;        conditions and the following disclaimer.
    96                           ; 
    97                           ;     2. Redistributions in binary form must reproduce the above copyright notice, this 
      +                          list
    98                           ;        of conditions and the following disclaimer in the documentation and/or other
    99                           ;        materials provided with the distribution. Publication is not required when
   100                           ;        this file is used in an embedded application.
   101                           ; 
   102                           ;     3. Microchip's name may not be used to endorse or promote products derived from th
      +                          is
   103                           ;        software without specific prior written permission.
   104                           ; 
   105                           ; THIS SOFTWARE IS PROVIDED BY MICROCHIP "AS IS" AND ANY EXPRESS OR IMPLIED WARRANTIES,
   106                           ; INCLUDING, BUT NOT LIMITED TO, THE IMPLIED WARRANTIES OF MERCHANTABILITY AND FITNESS F
      +                          OR
   107                           ; PURPOSE ARE DISCLAIMED.  IN NO EVENT SHALL MICROCHIP BE LIABLE FOR ANY DIRECT, INDIREC
      +                          T,
   108                           ; INCIDENTAL, SPECIAL, EXEMPLARY, OR CONSEQUENTIAL DAMAGES (INCLUDING BUT NOT LIMITED TO
   109                           ; PROCUREMENT OF SUBSTITUTE GOODS OR SERVICES; LOSS OF USE, DATA OR PROFITS; OR BUSINESS
   110                           ; INTERRUPTION) HOWSOEVER CAUSED AND ON ANY THEORY OF LIABILITY, WHETHER IN CONTRACT, ST
      +                          RICT
   111                           ; LIABILITY, OR TORT (INCLUDING NEGLIGENCE OR OTHERWISE) ARISING IN ANY WAY OUT OF THE U
      +                          SE OF
   112                           ; THIS SOFTWARE, EVEN IF ADVISED OF THE POSSIBILITY OF SUCH DAMAGE.
   113                           ; 
   114                           ; 
   115                           ; Code-generator required, PIC16F886 Definitions
   116                           ; 
   117                           ; SFR Addresses
   118  0000                     	;# 
   119  0001                     	;# 
   120  0002                     	;# 
   121  0003                     	;# 
   122  0004                     	;# 
   123  0005                     	;# 
   124  0006                     	;# 
   125  0007                     	;# 
   126  0009                     	;# 
   127  000A                     	;# 
   128  000B                     	;# 
   129  000C                     	;# 
   130  000D                     	;# 
   131  000E                     	;# 
   132  000E                     	;# 
   133  000F                     	;# 
   134  0010                     	;# 
   135  0011                     	;# 
   136  0012                     	;# 
   137  0013                     	;# 
   138  0014                     	;# 
   139  0015                     	;# 
   140  0015                     	;# 
   141  0016                     	;# 
   142  0017                     	;# 
   143  0018                     	;# 
   144  0019                     	;# 
   145  001A                     	;# 
   146  001B                     	;# 
   147  001B                     	;# 
   148  001C                     	;# 
   149  001D                     	;# 
   150  001E                     	;# 
   151  001F                     	;# 
   152  0081                     	;# 
   153  0085                     	;# 
   154  0086                     	;# 
   155  0087                     	;# 
   156  0089                     	;# 
   157  008C                     	;# 
   158  008D                     	;# 
   159  008E                     	;# 
   160  008F                     	;# 
   161  0090                     	;# 
   162  0091                     	;# 
   163  0092                     	;# 
   164  0093                     	;# 
   165  0093                     	;# 
   166  0093                     	;# 
   167  0094                     	;# 
   168  0095                     	;# 
   169  0096                     	;# 
   170  0097                     	;# 
   171  0098                     	;# 
   172  0099                     	;# 
   173  009A                     	;# 
   174  009B                     	;# 
   175  009C                     	;# 
   176  009D                     	;# 
   177  009E                     	;# 
   178  009F                     	;# 
   179  0105                     	;# 
   180  0107                     	;# 
   181  0108                     	;# 
   182  0109                     	;# 
   183  010C                     	;# 
   184  010C                     	;# 
   185  010D                     	;# 
   186  010E                     	;# 
   187  010F                     	;# 
   188  0185                     	;# 
   189  0187                     	;# 
   190  0188                     	;# 
   191  0189                     	;# 
   192  018C                     	;# 
   193  018D                     	;# 
   194  0000                     	;# 
   195  0001                     	;# 
   196  0002                     	;# 
   197  0003                     	;# 
   198  0004                     	;# 
   199  0005                     	;# 
   200  0006                     	;# 
   201  0007                     	;# 
   202  0009                     	;# 
   203  000A                     	;# 
   204  000B                     	;# 
   205  000C                     	;# 
   206  000D                     	;# 
   207  000E                     	;# 
   208  000E                     	;# 
   209  000F                     	;# 
   210  0010                     	;# 
   211  0011                     	;# 
   212  0012                     	;# 
   213  0013                     	;# 
   214  0014                     	;# 
   215  0015                     	;# 
   216  0015                     	;# 
   217  0016                     	;# 
   218  0017                     	;# 
   219  0018                     	;# 
   220  0019                     	;# 
   221  001A                     	;# 
   222  001B                     	;# 
   223  001B                     	;# 
   224  001C                     	;# 
   225  001D                     	;# 
   226  001E                     	;# 
   227  001F                     	;# 
   228  0081                     	;# 
   229  0085                     	;# 
   230  0086                     	;# 
   231  0087                     	;# 
   232  0089                     	;# 
   233  008C                     	;# 
   234  008D                     	;# 
   235  008E                     	;# 
   236  008F                     	;# 
   237  0090                     	;# 
   238  0091                     	;# 
   239  0092                     	;# 
   240  0093                     	;# 
   241  0093                     	;# 
   242  0093                     	;# 
   243  0094                     	;# 
   244  0095                     	;# 
   245  0096                     	;# 
   246  0097                     	;# 
   247  0098                     	;# 
   248  0099                     	;# 
   249  009A                     	;# 
   250  009B                     	;# 
   251  009C                     	;# 
   252  009D                     	;# 
   253  009E                     	;# 
   254  009F                     	;# 
   255  0105                     	;# 
   256  0107                     	;# 
   257  0108                     	;# 
   258  0109                     	;# 
   259  010C                     	;# 
   260  010C                     	;# 
   261  010D                     	;# 
   262  010E                     	;# 
   263  010F                     	;# 
   264  0185                     	;# 
   265  0187                     	;# 
   266  0188                     	;# 
   267  0189                     	;# 
   268  018C                     	;# 
   269  018D                     	;# 
   270  0000                     	;# 
   271  0001                     	;# 
   272  0002                     	;# 
   273  0003                     	;# 
   274  0004                     	;# 
   275  0005                     	;# 
   276  0006                     	;# 
   277  0007                     	;# 
   278  0009                     	;# 
   279  000A                     	;# 
   280  000B                     	;# 
   281  000C                     	;# 
   282  000D                     	;# 
   283  000E                     	;# 
   284  000E                     	;# 
   285  000F                     	;# 
   286  0010                     	;# 
   287  0011                     	;# 
   288  0012                     	;# 
   289  0013                     	;# 
   290  0014                     	;# 
   291  0015                     	;# 
   292  0015                     	;# 
   293  0016                     	;# 
   294  0017                     	;# 
   295  0018                     	;# 
   296  0019                     	;# 
   297  001A                     	;# 
   298  001B                     	;# 
   299  001B                     	;# 
   300  001C                     	;# 
   301  001D                     	;# 
   302  001E                     	;# 
   303  001F                     	;# 
   304  0081                     	;# 
   305  0085                     	;# 
   306  0086                     	;# 
   307  0087                     	;# 
   308  0089                     	;# 
   309  008C                     	;# 
   310  008D                     	;# 
   311  008E                     	;# 
   312  008F                     	;# 
   313  0090                     	;# 
   314  0091                     	;# 
   315  0092                     	;# 
   316  0093                     	;# 
   317  0093                     	;# 
   318  0093                     	;# 
   319  0094                     	;# 
   320  0095                     	;# 
   321  0096                     	;# 
   322  0097                     	;# 
   323  0098                     	;# 
   324  0099                     	;# 
   325  009A                     	;# 
   326  009B                     	;# 
   327  009C                     	;# 
   328  009D                     	;# 
   329  009E                     	;# 
   330  009F                     	;# 
   331  0105                     	;# 
   332  0107                     	;# 
   333  0108                     	;# 
   334  0109                     	;# 
   335  010C                     	;# 
   336  010C                     	;# 
   337  010D                     	;# 
   338  010E                     	;# 
   339  010F                     	;# 
   340  0185                     	;# 
   341  0187                     	;# 
   342  0188                     	;# 
   343  0189                     	;# 
   344  018C                     	;# 
   345  018D                     	;# 
   346  0000                     	;# 
   347  0001                     	;# 
   348  0002                     	;# 
   349  0003                     	;# 
   350  0004                     	;# 
   351  0005                     	;# 
   352  0006                     	;# 
   353  0007                     	;# 
   354  0009                     	;# 
   355  000A                     	;# 
   356  000B                     	;# 
   357  000C                     	;# 
   358  000D                     	;# 
   359  000E                     	;# 
   360  000E                     	;# 
   361  000F                     	;# 
   362  0010                     	;# 
   363  0011                     	;# 
   364  0012                     	;# 
   365  0013                     	;# 
   366  0014                     	;# 
   367  0015                     	;# 
   368  0015                     	;# 
   369  0016                     	;# 
   370  0017                     	;# 
   371  0018                     	;# 
   372  0019                     	;# 
   373  001A                     	;# 
   374  001B                     	;# 
   375  001B                     	;# 
   376  001C                     	;# 
   377  001D                     	;# 
   378  001E                     	;# 
   379  001F                     	;# 
   380  0081                     	;# 
   381  0085                     	;# 
   382  0086                     	;# 
   383  0087                     	;# 
   384  0089                     	;# 
   385  008C                     	;# 
   386  008D                     	;# 
   387  008E                     	;# 
   388  008F                     	;# 
   389  0090                     	;# 
   390  0091                     	;# 
   391  0092                     	;# 
   392  0093                     	;# 
   393  0093                     	;# 
   394  0093                     	;# 
   395  0094                     	;# 
   396  0095                     	;# 
   397  0096                     	;# 
   398  0097                     	;# 
   399  0098                     	;# 
   400  0099                     	;# 
   401  009A                     	;# 
   402  009B                     	;# 
   403  009C                     	;# 
   404  009D                     	;# 
   405  009E                     	;# 
   406  009F                     	;# 
   407  0105                     	;# 
   408  0107                     	;# 
   409  0108                     	;# 
   410  0109                     	;# 
   411  010C                     	;# 
   412  010C                     	;# 
   413  010D                     	;# 
   414  010E                     	;# 
   415  010F                     	;# 
   416  0185                     	;# 
   417  0187                     	;# 
   418  0188                     	;# 
   419  0189                     	;# 
   420  018C                     	;# 
   421  018D                     	;# 
   422  0000                     	;# 
   423  0001                     	;# 
   424  0002                     	;# 
   425  0003                     	;# 
   426  0004                     	;# 
   427  0005                     	;# 
   428  0006                     	;# 
   429  0007                     	;# 
   430  0009                     	;# 
   431  000A                     	;# 
   432  000B                     	;# 
   433  000C                     	;# 
   434  000D                     	;# 
   435  000E                     	;# 
   436  000E                     	;# 
   437  000F                     	;# 
   438  0010                     	;# 
   439  0011                     	;# 
   440  0012                     	;# 
   441  0013                     	;# 
   442  0014                     	;# 
   443  0015                     	;# 
   444  0015                     	;# 
   445  0016                     	;# 
   446  0017                     	;# 
   447  0018                     	;# 
   448  0019                     	;# 
   449  001A                     	;# 
   450  001B                     	;# 
   451  001B                     	;# 
   452  001C                     	;# 
   453  001D                     	;# 
   454  001E                     	;# 
   455  001F                     	;# 
   456  0081                     	;# 
   457  0085                     	;# 
   458  0086                     	;# 
   459  0087                     	;# 
   460  0089                     	;# 
   461  008C                     	;# 
   462  008D                     	;# 
   463  008E                     	;# 
   464  008F                     	;# 
   465  0090                     	;# 
   466  0091                     	;# 
   467  0092                     	;# 
   468  0093                     	;# 
   469  0093                     	;# 
   470  0093                     	;# 
   471  0094                     	;# 
   472  0095                     	;# 
   473  0096                     	;# 
   474  0097                     	;# 
   475  0098                     	;# 
   476  0099                     	;# 
   477  009A                     	;# 
   478  009B                     	;# 
   479  009C                     	;# 
   480  009D                     	;# 
   481  009E                     	;# 
   482  009F                     	;# 
   483  0105                     	;# 
   484  0107                     	;# 
   485  0108                     	;# 
   486  0109                     	;# 
   487  010C                     	;# 
   488  010C                     	;# 
   489  010D                     	;# 
   490  010E                     	;# 
   491  010F                     	;# 
   492  0185                     	;# 
   493  0187                     	;# 
   494  0188                     	;# 
   495  0189                     	;# 
   496  018C                     	;# 
   497  018D                     	;# 
   498  0000                     	;# 
   499  0001                     	;# 
   500  0002                     	;# 
   501  0003                     	;# 
   502  0004                     	;# 
   503  0005                     	;# 
   504  0006                     	;# 
   505  0007                     	;# 
   506  0009                     	;# 
   507  000A                     	;# 
   508  000B                     	;# 
   509  000C                     	;# 
   510  000D                     	;# 
   511  000E                     	;# 
   512  000E                     	;# 
   513  000F                     	;# 
   514  0010                     	;# 
   515  0011                     	;# 
   516  0012                     	;# 
   517  0013                     	;# 
   518  0014                     	;# 
   519  0015                     	;# 
   520  0015                     	;# 
   521  0016                     	;# 
   522  0017                     	;# 
   523  0018                     	;# 
   524  0019                     	;# 
   525  001A                     	;# 
   526  001B                     	;# 
   527  001B                     	;# 
   528  001C                     	;# 
   529  001D                     	;# 
   530  001E                     	;# 
   531  001F                     	;# 
   532  0081                     	;# 
   533  0085                     	;# 
   534  0086                     	;# 
   535  0087                     	;# 
   536  0089                     	;# 
   537  008C                     	;# 
   538  008D                     	;# 
   539  008E                     	;# 
   540  008F                     	;# 
   541  0090                     	;# 
   542  0091                     	;# 
   543  0092                     	;# 
   544  0093                     	;# 
   545  0093                     	;# 
   546  0093                     	;# 
   547  0094                     	;# 
   548  0095                     	;# 
   549  0096                     	;# 
   550  0097                     	;# 
   551  0098                     	;# 
   552  0099                     	;# 
   553  009A                     	;# 
   554  009B                     	;# 
   555  009C                     	;# 
   556  009D                     	;# 
   557  009E                     	;# 
   558  009F                     	;# 
   559  0105                     	;# 
   560  0107                     	;# 
   561  0108                     	;# 
   562  0109                     	;# 
   563  010C                     	;# 
   564  010C                     	;# 
   565  010D                     	;# 
   566  010E                     	;# 
   567  010F                     	;# 
   568  0185                     	;# 
   569  0187                     	;# 
   570  0188                     	;# 
   571  0189                     	;# 
   572  018C                     	;# 
   573  018D                     	;# 
   574  0000                     	;# 
   575  0001                     	;# 
   576  0002                     	;# 
   577  0003                     	;# 
   578  0004                     	;# 
   579  0005                     	;# 
   580  0006                     	;# 
   581  0007                     	;# 
   582  0009                     	;# 
   583  000A                     	;# 
   584  000B                     	;# 
   585  000C                     	;# 
   586  000D                     	;# 
   587  000E                     	;# 
   588  000E                     	;# 
   589  000F                     	;# 
   590  0010                     	;# 
   591  0011                     	;# 
   592  0012                     	;# 
   593  0013                     	;# 
   594  0014                     	;# 
   595  0015                     	;# 
   596  0015                     	;# 
   597  0016                     	;# 
   598  0017                     	;# 
   599  0018                     	;# 
   600  0019                     	;# 
   601  001A                     	;# 
   602  001B                     	;# 
   603  001B                     	;# 
   604  001C                     	;# 
   605  001D                     	;# 
   606  001E                     	;# 
   607  001F                     	;# 
   608  0081                     	;# 
   609  0085                     	;# 
   610  0086                     	;# 
   611  0087                     	;# 
   612  0089                     	;# 
   613  008C                     	;# 
   614  008D                     	;# 
   615  008E                     	;# 
   616  008F                     	;# 
   617  0090                     	;# 
   618  0091                     	;# 
   619  0092                     	;# 
   620  0093                     	;# 
   621  0093                     	;# 
   622  0093                     	;# 
   623  0094                     	;# 
   624  0095                     	;# 
   625  0096                     	;# 
   626  0097                     	;# 
   627  0098                     	;# 
   628  0099                     	;# 
   629  009A                     	;# 
   630  009B                     	;# 
   631  009C                     	;# 
   632  009D                     	;# 
   633  009E                     	;# 
   634  009F                     	;# 
   635  0105                     	;# 
   636  0107                     	;# 
   637  0108                     	;# 
   638  0109                     	;# 
   639  010C                     	;# 
   640  010C                     	;# 
   641  010D                     	;# 
   642  010E                     	;# 
   643  010F                     	;# 
   644  0185                     	;# 
   645  0187                     	;# 
   646  0188                     	;# 
   647  0189                     	;# 
   648  018C                     	;# 
   649  018D                     	;# 
   650  0000                     	;# 
   651  0001                     	;# 
   652  0002                     	;# 
   653  0003                     	;# 
   654  0004                     	;# 
   655  0005                     	;# 
   656  0006                     	;# 
   657  0007                     	;# 
   658  0009                     	;# 
   659  000A                     	;# 
   660  000B                     	;# 
   661  000C                     	;# 
   662  000D                     	;# 
   663  000E                     	;# 
   664  000E                     	;# 
   665  000F                     	;# 
   666  0010                     	;# 
   667  0011                     	;# 
   668  0012                     	;# 
   669  0013                     	;# 
   670  0014                     	;# 
   671  0015                     	;# 
   672  0015                     	;# 
   673  0016                     	;# 
   674  0017                     	;# 
   675  0018                     	;# 
   676  0019                     	;# 
   677  001A                     	;# 
   678  001B                     	;# 
   679  001B                     	;# 
   680  001C                     	;# 
   681  001D                     	;# 
   682  001E                     	;# 
   683  001F                     	;# 
   684  0081                     	;# 
   685  0085                     	;# 
   686  0086                     	;# 
   687  0087                     	;# 
   688  0089                     	;# 
   689  008C                     	;# 
   690  008D                     	;# 
   691  008E                     	;# 
   692  008F                     	;# 
   693  0090                     	;# 
   694  0091                     	;# 
   695  0092                     	;# 
   696  0093                     	;# 
   697  0093                     	;# 
   698  0093                     	;# 
   699  0094                     	;# 
   700  0095                     	;# 
   701  0096                     	;# 
   702  0097                     	;# 
   703  0098                     	;# 
   704  0099                     	;# 
   705  009A                     	;# 
   706  009B                     	;# 
   707  009C                     	;# 
   708  009D                     	;# 
   709  009E                     	;# 
   710  009F                     	;# 
   711  0105                     	;# 
   712  0107                     	;# 
   713  0108                     	;# 
   714  0109                     	;# 
   715  010C                     	;# 
   716  010C                     	;# 
   717  010D                     	;# 
   718  010E                     	;# 
   719  010F                     	;# 
   720  0185                     	;# 
   721  0187                     	;# 
   722  0188                     	;# 
   723  0189                     	;# 
   724  018C                     	;# 
   725  018D                     	;# 
   726  0000                     	;# 
   727  0001                     	;# 
   728  0002                     	;# 
   729  0003                     	;# 
   730  0004                     	;# 
   731  0005                     	;# 
   732  0006                     	;# 
   733  0007                     	;# 
   734  0009                     	;# 
   735  000A                     	;# 
   736  000B                     	;# 
   737  000C                     	;# 
   738  000D                     	;# 
   739  000E                     	;# 
   740  000E                     	;# 
   741  000F                     	;# 
   742  0010                     	;# 
   743  0011                     	;# 
   744  0012                     	;# 
   745  0013                     	;# 
   746  0014                     	;# 
   747  0015                     	;# 
   748  0015                     	;# 
   749  0016                     	;# 
   750  0017                     	;# 
   751  0018                     	;# 
   752  0019                     	;# 
   753  001A                     	;# 
   754  001B                     	;# 
   755  001B                     	;# 
   756  001C                     	;# 
   757  001D                     	;# 
   758  001E                     	;# 
   759  001F                     	;# 
   760  0081                     	;# 
   761  0085                     	;# 
   762  0086                     	;# 
   763  0087                     	;# 
   764  0089                     	;# 
   765  008C                     	;# 
   766  008D                     	;# 
   767  008E                     	;# 
   768  008F                     	;# 
   769  0090                     	;# 
   770  0091                     	;# 
   771  0092                     	;# 
   772  0093                     	;# 
   773  0093                     	;# 
   774  0093                     	;# 
   775  0094                     	;# 
   776  0095                     	;# 
   777  0096                     	;# 
   778  0097                     	;# 
   779  0098                     	;# 
   780  0099                     	;# 
   781  009A                     	;# 
   782  009B                     	;# 
   783  009C                     	;# 
   784  009D                     	;# 
   785  009E                     	;# 
   786  009F                     	;# 
   787  0105                     	;# 
   788  0107                     	;# 
   789  0108                     	;# 
   790  0109                     	;# 
   791  010C                     	;# 
   792  010C                     	;# 
   793  010D                     	;# 
   794  010E                     	;# 
   795  010F                     	;# 
   796  0185                     	;# 
   797  0187                     	;# 
   798  0188                     	;# 
   799  0189                     	;# 
   800  018C                     	;# 
   801  018D                     	;# 
   802  0000                     	;# 
   803  0001                     	;# 
   804  0002                     	;# 
   805  0003                     	;# 
   806  0004                     	;# 
   807  0005                     	;# 
   808  0006                     	;# 
   809  0007                     	;# 
   810  0009                     	;# 
   811  000A                     	;# 
   812  000B                     	;# 
   813  000C                     	;# 
   814  000D                     	;# 
   815  000E                     	;# 
   816  000E                     	;# 
   817  000F                     	;# 
   818  0010                     	;# 
   819  0011                     	;# 
   820  0012                     	;# 
   821  0013                     	;# 
   822  0014                     	;# 
   823  0015                     	;# 
   824  0015                     	;# 
   825  0016                     	;# 
   826  0017                     	;# 
   827  0018                     	;# 
   828  0019                     	;# 
   829  001A                     	;# 
   830  001B                     	;# 
   831  001B                     	;# 
   832  001C                     	;# 
   833  001D                     	;# 
   834  001E                     	;# 
   835  001F                     	;# 
   836  0081                     	;# 
   837  0085                     	;# 
   838  0086                     	;# 
   839  0087                     	;# 
   840  0089                     	;# 
   841  008C                     	;# 
   842  008D                     	;# 
   843  008E                     	;# 
   844  008F                     	;# 
   845  0090                     	;# 
   846  0091                     	;# 
   847  0092                     	;# 
   848  0093                     	;# 
   849  0093                     	;# 
   850  0093                     	;# 
   851  0094                     	;# 
   852  0095                     	;# 
   853  0096                     	;# 
   854  0097                     	;# 
   855  0098                     	;# 
   856  0099                     	;# 
   857  009A                     	;# 
   858  009B                     	;# 
   859  009C                     	;# 
   860  009D                     	;# 
   861  009E                     	;# 
   862  009F                     	;# 
   863  0105                     	;# 
   864  0107                     	;# 
   865  0108                     	;# 
   866  0109                     	;# 
   867  010C                     	;# 
   868  010C                     	;# 
   869  010D                     	;# 
   870  010E                     	;# 
   871  010F                     	;# 
   872  0185                     	;# 
   873  0187                     	;# 
   874  0188                     	;# 
   875  0189                     	;# 
   876  018C                     	;# 
   877  018D                     	;# 
   878  0000                     	;# 
   879  0001                     	;# 
   880  0002                     	;# 
   881  0003                     	;# 
   882  0004                     	;# 
   883  0005                     	;# 
   884  0006                     	;# 
   885  0007                     	;# 
   886  0009                     	;# 
   887  000A                     	;# 
   888  000B                     	;# 
   889  000C                     	;# 
   890  000D                     	;# 
   891  000E                     	;# 
   892  000E                     	;# 
   893  000F                     	;# 
   894  0010                     	;# 
   895  0011                     	;# 
   896  0012                     	;# 
   897  0013                     	;# 
   898  0014                     	;# 
   899  0015                     	;# 
   900  0015                     	;# 
   901  0016                     	;# 
   902  0017                     	;# 
   903  0018                     	;# 
   904  0019                     	;# 
   905  001A                     	;# 
   906  001B                     	;# 
   907  001B                     	;# 
   908  001C                     	;# 
   909  001D                     	;# 
   910  001E                     	;# 
   911  001F                     	;# 
   912  0081                     	;# 
   913  0085                     	;# 
   914  0086                     	;# 
   915  0087                     	;# 
   916  0089                     	;# 
   917  008C                     	;# 
   918  008D                     	;# 
   919  008E                     	;# 
   920  008F                     	;# 
   921  0090                     	;# 
   922  0091                     	;# 
   923  0092                     	;# 
   924  0093                     	;# 
   925  0093                     	;# 
   926  0093                     	;# 
   927  0094                     	;# 
   928  0095                     	;# 
   929  0096                     	;# 
   930  0097                     	;# 
   931  0098                     	;# 
   932  0099                     	;# 
   933  009A                     	;# 
   934  009B                     	;# 
   935  009C                     	;# 
   936  009D                     	;# 
   937  009E                     	;# 
   938  009F                     	;# 
   939  0105                     	;# 
   940  0107                     	;# 
   941  0108                     	;# 
   942  0109                     	;# 
   943  010C                     	;# 
   944  010C                     	;# 
   945  010D                     	;# 
   946  010E                     	;# 
   947  010F                     	;# 
   948  0185                     	;# 
   949  0187                     	;# 
   950  0188                     	;# 
   951  0189                     	;# 
   952  018C                     	;# 
   953  018D                     	;# 
   954  0000                     	;# 
   955  0001                     	;# 
   956  0002                     	;# 
   957  0003                     	;# 
   958  0004                     	;# 
   959  0005                     	;# 
   960  0006                     	;# 
   961  0007                     	;# 
   962  0009                     	;# 
   963  000A                     	;# 
   964  000B                     	;# 
   965  000C                     	;# 
   966  000D                     	;# 
   967  000E                     	;# 
   968  000E                     	;# 
   969  000F                     	;# 
   970  0010                     	;# 
   971  0011                     	;# 
   972  0012                     	;# 
   973  0013                     	;# 
   974  0014                     	;# 
   975  0015                     	;# 
   976  0015                     	;# 
   977  0016                     	;# 
   978  0017                     	;# 
   979  0018                     	;# 
   980  0019                     	;# 
   981  001A                     	;# 
   982  001B                     	;# 
   983  001B                     	;# 
   984  001C                     	;# 
   985  001D                     	;# 
   986  001E                     	;# 
   987  001F                     	;# 
   988  0081                     	;# 
   989  0085                     	;# 
   990  0086                     	;# 
   991  0087                     	;# 
   992  0089                     	;# 
   993  008C                     	;# 
   994  008D                     	;# 
   995  008E                     	;# 
   996  008F                     	;# 
   997  0090                     	;# 
   998  0091                     	;# 
   999  0092                     	;# 
  1000  0093                     	;# 
  1001  0093                     	;# 
  1002  0093                     	;# 
  1003  0094                     	;# 
  1004  0095                     	;# 
  1005  0096                     	;# 
  1006  0097                     	;# 
  1007  0098                     	;# 
  1008  0099                     	;# 
  1009  009A                     	;# 
  1010  009B                     	;# 
  1011  009C                     	;# 
  1012  009D                     	;# 
  1013  009E                     	;# 
  1014  009F                     	;# 
  1015  0105                     	;# 
  1016  0107                     	;# 
  1017  0108                     	;# 
  1018  0109                     	;# 
  1019  010C                     	;# 
  1020  010C                     	;# 
  1021  010D                     	;# 
  1022  010E                     	;# 
  1023  010F                     	;# 
  1024  0185                     	;# 
  1025  0187                     	;# 
  1026  0188                     	;# 
  1027  0189                     	;# 
  1028  018C                     	;# 
  1029  018D                     	;# 
  1030  0000                     	;# 
  1031  0001                     	;# 
  1032  0002                     	;# 
  1033  0003                     	;# 
  1034  0004                     	;# 
  1035  0005                     	;# 
  1036  0006                     	;# 
  1037  0007                     	;# 
  1038  0009                     	;# 
  1039  000A                     	;# 
  1040  000B                     	;# 
  1041  000C                     	;# 
  1042  000D                     	;# 
  1043  000E                     	;# 
  1044  000E                     	;# 
  1045  000F                     	;# 
  1046  0010                     	;# 
  1047  0011                     	;# 
  1048  0012                     	;# 
  1049  0013                     	;# 
  1050  0014                     	;# 
  1051  0015                     	;# 
  1052  0015                     	;# 
  1053  0016                     	;# 
  1054  0017                     	;# 
  1055  0018                     	;# 
  1056  0019                     	;# 
  1057  001A                     	;# 
  1058  001B                     	;# 
  1059  001B                     	;# 
  1060  001C                     	;# 
  1061  001D                     	;# 
  1062  001E                     	;# 
  1063  001F                     	;# 
  1064  0081                     	;# 
  1065  0085                     	;# 
  1066  0086                     	;# 
  1067  0087                     	;# 
  1068  0089                     	;# 
  1069  008C                     	;# 
  1070  008D                     	;# 
  1071  008E                     	;# 
  1072  008F                     	;# 
  1073  0090                     	;# 
  1074  0091                     	;# 
  1075  0092                     	;# 
  1076  0093                     	;# 
  1077  0093                     	;# 
  1078  0093                     	;# 
  1079  0094                     	;# 
  1080  0095                     	;# 
  1081  0096                     	;# 
  1082  0097                     	;# 
  1083  0098                     	;# 
  1084  0099                     	;# 
  1085  009A                     	;# 
  1086  009B                     	;# 
  1087  009C                     	;# 
  1088  009D                     	;# 
  1089  009E                     	;# 
  1090  009F                     	;# 
  1091  0105                     	;# 
  1092  0107                     	;# 
  1093  0108                     	;# 
  1094  0109                     	;# 
  1095  010C                     	;# 
  1096  010C                     	;# 
  1097  010D                     	;# 
  1098  010E                     	;# 
  1099  010F                     	;# 
  1100  0185                     	;# 
  1101  0187                     	;# 
  1102  0188                     	;# 
  1103  0189                     	;# 
  1104  018C                     	;# 
  1105  018D                     	;# 
  1106  0000                     	;# 
  1107  0001                     	;# 
  1108  0002                     	;# 
  1109  0003                     	;# 
  1110  0004                     	;# 
  1111  0005                     	;# 
  1112  0006                     	;# 
  1113  0007                     	;# 
  1114  0009                     	;# 
  1115  000A                     	;# 
  1116  000B                     	;# 
  1117  000C                     	;# 
  1118  000D                     	;# 
  1119  000E                     	;# 
  1120  000E                     	;# 
  1121  000F                     	;# 
  1122  0010                     	;# 
  1123  0011                     	;# 
  1124  0012                     	;# 
  1125  0013                     	;# 
  1126  0014                     	;# 
  1127  0015                     	;# 
  1128  0015                     	;# 
  1129  0016                     	;# 
  1130  0017                     	;# 
  1131  0018                     	;# 
  1132  0019                     	;# 
  1133  001A                     	;# 
  1134  001B                     	;# 
  1135  001B                     	;# 
  1136  001C                     	;# 
  1137  001D                     	;# 
  1138  001E                     	;# 
  1139  001F                     	;# 
  1140  0081                     	;# 
  1141  0085                     	;# 
  1142  0086                     	;# 
  1143  0087                     	;# 
  1144  0089                     	;# 
  1145  008C                     	;# 
  1146  008D                     	;# 
  1147  008E                     	;# 
  1148  008F                     	;# 
  1149  0090                     	;# 
  1150  0091                     	;# 
  1151  0092                     	;# 
  1152  0093                     	;# 
  1153  0093                     	;# 
  1154  0093                     	;# 
  1155  0094                     	;# 
  1156  0095                     	;# 
  1157  0096                     	;# 
  1158  0097                     	;# 
  1159  0098                     	;# 
  1160  0099                     	;# 
  1161  009A                     	;# 
  1162  009B                     	;# 
  1163  009C                     	;# 
  1164  009D                     	;# 
  1165  009E                     	;# 
  1166  009F                     	;# 
  1167  0105                     	;# 
  1168  0107                     	;# 
  1169  0108                     	;# 
  1170  0109                     	;# 
  1171  010C                     	;# 
  1172  010C                     	;# 
  1173  010D                     	;# 
  1174  010E                     	;# 
  1175  010F                     	;# 
  1176  0185                     	;# 
  1177  0187                     	;# 
  1178  0188                     	;# 
  1179  0189                     	;# 
  1180  018C                     	;# 
  1181  018D                     	;# 
  1182  0000                     	;# 
  1183  0001                     	;# 
  1184  0002                     	;# 
  1185  0003                     	;# 
  1186  0004                     	;# 
  1187  0005                     	;# 
  1188  0006                     	;# 
  1189  0007                     	;# 
  1190  0009                     	;# 
  1191  000A                     	;# 
  1192  000B                     	;# 
  1193  000C                     	;# 
  1194  000D                     	;# 
  1195  000E                     	;# 
  1196  000E                     	;# 
  1197  000F                     	;# 
  1198  0010                     	;# 
  1199  0011                     	;# 
  1200  0012                     	;# 
  1201  0013                     	;# 
  1202  0014                     	;# 
  1203  0015                     	;# 
  1204  0015                     	;# 
  1205  0016                     	;# 
  1206  0017                     	;# 
  1207  0018                     	;# 
  1208  0019                     	;# 
  1209  001A                     	;# 
  1210  001B                     	;# 
  1211  001B                     	;# 
  1212  001C                     	;# 
  1213  001D                     	;# 
  1214  001E                     	;# 
  1215  001F                     	;# 
  1216  0081                     	;# 
  1217  0085                     	;# 
  1218  0086                     	;# 
  1219  0087                     	;# 
  1220  0089                     	;# 
  1221  008C                     	;# 
  1222  008D                     	;# 
  1223  008E                     	;# 
  1224  008F                     	;# 
  1225  0090                     	;# 
  1226  0091                     	;# 
  1227  0092                     	;# 
  1228  0093                     	;# 
  1229  0093                     	;# 
  1230  0093                     	;# 
  1231  0094                     	;# 
  1232  0095                     	;# 
  1233  0096                     	;# 
  1234  0097                     	;# 
  1235  0098                     	;# 
  1236  0099                     	;# 
  1237  009A                     	;# 
  1238  009B                     	;# 
  1239  009C                     	;# 
  1240  009D                     	;# 
  1241  009E                     	;# 
  1242  009F                     	;# 
  1243  0105                     	;# 
  1244  0107                     	;# 
  1245  0108                     	;# 
  1246  0109                     	;# 
  1247  010C                     	;# 
  1248  010C                     	;# 
  1249  010D                     	;# 
  1250  010E                     	;# 
  1251  010F                     	;# 
  1252  0185                     	;# 
  1253  0187                     	;# 
  1254  0188                     	;# 
  1255  0189                     	;# 
  1256  018C                     	;# 
  1257  018D                     	;# 
  1258  0012                     _T2CONbits	set	18
  1259  0001                     _TMR0	set	1
  1260  000B                     _INTCONbits	set	11
  1261  0015                     _CCPR1L	set	21
  1262  0017                     _CCP1CONbits	set	23
  1263  0013                     _SSPBUF	set	19
  1264  0014                     _SSPCONbits	set	20
  1265  0005                     _PORTAbits	set	5
  1266  0007                     _PORTCbits	set	7
  1267  0019                     _TXREG	set	25
  1268  001A                     _RCREG	set	26
  1269  000C                     _PIR1bits	set	12
  1270  0018                     _RCSTAbits	set	24
  1271  001E                     _ADRESH	set	30
  1272  001F                     _ADCON0bits	set	31
  1273  0064                     _TXIF	set	100
  1274  0092                     _PR2	set	146
  1275  0081                     _OPTION_REGbits	set	129
  1276  0087                     _TRISC	set	135
  1277  0091                     _SSPCON2bits	set	145
  1278  008C                     _PIE1bits	set	140
  1279  0099                     _SPBRG	set	153
  1280  009A                     _SPBRGH	set	154
  1281  0098                     _TXSTAbits	set	152
  1282  009E                     _ADRESL	set	158
  1283  009F                     _ADCON1bits	set	159
  1284  0187                     _BAUDCTLbits	set	391
  1285                           
  1286                           	psect	strings
  1287  0000'                    __pstrings:
  1288  0000'                    stringtab:
  1289  0000'                    __stringtab:
  1290                           
  1291                           ;	String table - string pointers are 1 byte each
  1292  0000' 1BFF               	btfsc	btemp+1,7
  1293  0001' 2800'              	ljmp	stringcode
  1294  0002' 1383               	bcf	3,7
  1295  0003' 187F               	btfsc	btemp+1,0
  1296  0004' 1783               	bsf	3,7
  1297  0005' 0800               	movf	0,w
  1298  0006' 0A84               	incf	4,f
  1299  0007' 1903               	skipnz
  1300  0008' 0AFF               	incf	btemp+1,f
  1301  0009' 0008               	return
  1302  000A'                    stringcode:
  1303  000A'                    stringdir:
  1304  000A' 3000'              	movlw	high stringdir
  1305  000B' 008A               	movwf	10
  1306  000C' 0804               	movf	4,w
  1307  000D' 0A84               	incf	4,f
  1308  000E' 0782               	addwf	2,f
  1309  000F'                    __stringbase:
  1310  000F' 3400               	retlw	0
  1311  0010'                    __end_of__stringtab:
  1312  0010'                    STR_2:
  1313  0010' 3425               	retlw	37	;'%'
  1314  0011' 3473               	retlw	115	;'s'
  1315  0012' 3420               	retlw	32	;' '
  1316  0013' 3476               	retlw	118	;'v'
  1317  0014' 3461               	retlw	97	;'a'
  1318  0015' 346C               	retlw	108	;'l'
  1319  0016' 3475               	retlw	117	;'u'
  1320  0017' 3465               	retlw	101	;'e'
  1321  0018' 343A               	retlw	58	;':'
  1322  0019' 3420               	retlw	32	;' '
  1323  001A' 345B               	retlw	91	;'['
  1324  001B' 3425               	retlw	37	;'%'
  1325  001C' 342E               	retlw	46	;'.'
  1326  001D' 3432               	retlw	50	;'2'
  1327  001E' 3466               	retlw	102	;'f'
  1328  001F' 345D               	retlw	93	;']'
  1329  0020' 3420               	retlw	32	;' '
  1330  0021' 340D               	retlw	13
  1331  0022' 340A               	retlw	10
  1332  0023' 3400               	retlw	0
  1333  0024'                    STR_1:
  1334  0024' 3425               	retlw	37	;'%'
  1335  0025' 3473               	retlw	115	;'s'
  1336  0026' 3420               	retlw	32	;' '
  1337  0027' 3476               	retlw	118	;'v'
  1338  0028' 3461               	retlw	97	;'a'
  1339  0029' 346C               	retlw	108	;'l'
  1340  002A' 3475               	retlw	117	;'u'
  1341  002B' 3465               	retlw	101	;'e'
  1342  002C' 343A               	retlw	58	;':'
  1343  002D' 3420               	retlw	32	;' '
  1344  002E' 345B               	retlw	91	;'['
  1345  002F' 3425               	retlw	37	;'%'
  1346  0030' 3469               	retlw	105	;'i'
  1347  0031' 345D               	retlw	93	;']'
  1348  0032' 3420               	retlw	32	;' '
  1349  0033' 340D               	retlw	13
  1350  0034' 340A               	retlw	10
  1351  0035' 3400               	retlw	0
  1352  0036'                    STR_8:
  1353  0036' 3474               	retlw	116	;'t'
  1354  0037' 3465               	retlw	101	;'e'
  1355  0038' 346D               	retlw	109	;'m'
  1356  0039' 3470               	retlw	112	;'p'
  1357  003A' 3465               	retlw	101	;'e'
  1358  003B' 3472               	retlw	114	;'r'
  1359  003C' 3461               	retlw	97	;'a'
  1360  003D' 3474               	retlw	116	;'t'
  1361  003E' 3475               	retlw	117	;'u'
  1362  003F' 3472               	retlw	114	;'r'
  1363  0040' 3465               	retlw	101	;'e'
  1364  0041' 3400               	retlw	0
  1365  0042'                    STR_7:
  1366  0042' 346C               	retlw	108	;'l'
  1367  0043' 3475               	retlw	117	;'u'
  1368  0044' 346D               	retlw	109	;'m'
  1369  0045' 3469               	retlw	105	;'i'
  1370  0046' 346E               	retlw	110	;'n'
  1371  0047' 346F               	retlw	111	;'o'
  1372  0048' 3473               	retlw	115	;'s'
  1373  0049' 3469               	retlw	105	;'i'
  1374  004A' 3474               	retlw	116	;'t'
  1375  004B' 3479               	retlw	121	;'y'
  1376  004C' 3400               	retlw	0
  1377  004D'                    STR_6:
  1378  004D' 3468               	retlw	104	;'h'
  1379  004E' 3475               	retlw	117	;'u'
  1380  004F' 346D               	retlw	109	;'m'
  1381  0050' 3469               	retlw	105	;'i'
  1382  0051' 3464               	retlw	100	;'d'
  1383  0052' 3469               	retlw	105	;'i'
  1384  0053' 3474               	retlw	116	;'t'
  1385  0054' 3479               	retlw	121	;'y'
  1386  0055' 3400               	retlw	0
  1387  0056'                    STR_15:
  1388  0056' 3428               	retlw	40	;'('
  1389  0057' 346E               	retlw	110	;'n'
  1390  0058' 3475               	retlw	117	;'u'
  1391  0059' 346C               	retlw	108	;'l'
  1392  005A' 346C               	retlw	108	;'l'
  1393  005B' 3429               	retlw	41	;')'
  1394  005C' 3400               	retlw	0
  1395  005D'                    STR_3:
  1396  005D' 346E               	retlw	110	;'n'
  1397  005E' 346F               	retlw	111	;'o'
  1398  005F' 3469               	retlw	105	;'i'
  1399  0060' 3473               	retlw	115	;'s'
  1400  0061' 3465               	retlw	101	;'e'
  1401  0062' 3400               	retlw	0
  1402  0063' 3400               	retlw	0
  1403  0064'                    STR_5:
  1404  0064' 346E               	retlw	110	;'n'
  1405  0065' 346F               	retlw	111	;'o'
  1406  0066' 3469               	retlw	105	;'i'
  1407  0067' 3473               	retlw	115	;'s'
  1408  0068' 3465               	retlw	101	;'e'
  1409  0069' 3400               	retlw	0
  1410  006A'                    STR_9:
  1411  006A' 3469               	retlw	105	;'i'
  1412  006B' 346E               	retlw	110	;'n'
  1413  006C' 3466               	retlw	102	;'f'
  1414  006D' 3400               	retlw	0
  1415  006E'                    STR_12:
  1416  006E' 346E               	retlw	110	;'n'
  1417  006F' 3461               	retlw	97	;'a'
  1418  0070' 346E               	retlw	110	;'n'
  1419  0071' 3400               	retlw	0
  1420  0072'                    STR_4:
  1421  0072' 3463               	retlw	99	;'c'
  1422  0073' 346F               	retlw	111	;'o'
  1423  0074' 3432               	retlw	50	;'2'
  1424  0075' 3400               	retlw	0
  1425  006A'                    
  1426                           	psect	cinit
  1427  0000'                    start_initialization:	
  1428                           ; #config settings
  1429                           
  1430  0000'                    __initialization:
  1431                           
  1432                           ; Clear objects allocated to BANK1
  1433  0000' 1683               	bsf	3,5	;RP0=1, select bank1
  1434  0001' 1303               	bcf	3,6	;RP1=0, select bank1
  1435  0002' 0180'              	clrf	__pbssBANK1& (0+127)
  1436  0003' 0180'              	clrf	(__pbssBANK1+1)& (0+127)
  1437  0004' 0180'              	clrf	(__pbssBANK1+2)& (0+127)
  1438                           
  1439                           ; Clear objects allocated to BANK3
  1440  0005' 1783               	bsf	3,7	;select IRP bank2
  1441  0006' 3000'              	movlw	low __pbssBANK3
  1442  0007' 0084               	movwf	4
  1443  0008' 3000'              	movlw	low (__pbssBANK3+37)
  1444  0009' 120A' 118A' 2000' 120A' 118A' 	fcall	clear_ram0
  1445                           
  1446                           ; Clear objects allocated to BANK2
  1447  000E' 3000'              	movlw	low __pbssBANK2
  1448  000F' 0084               	movwf	4
  1449  0010' 3000'              	movlw	low (__pbssBANK2+80)
  1450  0011' 120A' 118A' 2000' 120A' 118A' 	fcall	clear_ram0
  1451  0016'                    end_of_initialization:	
  1452                           ;End of C runtime variable initialization code
  1453                           
  1454  0016'                    __end_of__initialization:
  1455  0016' 0183               	clrf	3
  1456  0017' 120A' 118A' 2800'  	ljmp	_main	;jump to C main() function
  1457                           
  1458                           	psect	bssBANK1
  1459  0000'                    __pbssBANK1:
  1460  0000'                    _prec:
  1461  0000'                    	ds	2
  1462  0002'                    _serial:
  1463  0002'                    	ds	1
  1464                           
  1465                           	psect	bssBANK3
  1466  0000'                    __pbssBANK3:
  1467  0000'                    floorf@F521:
  1468  0000'                    	ds	4
  1469  0004'                    ___fpclassifyf@F465:
  1470  0004'                    	ds	4
  1471  0008'                    _lamp:
  1472  0008'                    	ds	4
  1473  000C'                    _temperature:
  1474  000C'                    	ds	4
  1475  0010'                    _brightness:
  1476  0010'                    	ds	4
  1477  0014'                    _humidity:
  1478  0014'                    	ds	4
  1479  0018'                    _width:
  1480  0018'                    	ds	2
  1481  001A'                    _i:
  1482  001A'                    	ds	2
  1483  001C'                    _timer_counter:
  1484  001C'                    	ds	2
  1485  001E'                    _noise:
  1486  001E'                    	ds	2
  1487  0020'                    _co2:
  1488  0020'                    	ds	2
  1489  0022'                    _best_noise:
  1490  0022'                    	ds	2
  1491  0024'                    _flags:
  1492  0024'                    	ds	1
  1493                           
  1494                           	psect	bssBANK2
  1495  0000'                    __pbssBANK2:
  1496  0000'                    _dbuf:
  1497  0000'                    	ds	80
  1498                           
  1499                           	psect	clrtext
  1500  0000'                    clear_ram0:	
  1501                           ;	Called with FSR containing the base address, and
  1502                           ;	W with the last address+1
  1503                           
  1504  0000' 0064               	clrwdt	;clear the watchdog before getting into this loop
  1505  0001'                    clrloop0:
  1506  0001' 0180               	clrf	0	;clear RAM location pointed to by FSR
  1507  0002' 0A84               	incf	4,f	;increment pointer
  1508  0003' 0604               	xorwf	4,w	;XOR with final address
  1509  0004' 1903               	btfsc	3,2	;have we reached the end yet?
  1510  0005' 3400               	retlw	0	;all done for this memory range, return
  1511  0006' 0604               	xorwf	4,w	;XOR again to restore value
  1512  0007' 2800'              	goto	clrloop0	;do the next byte
  1513                           
  1514                           	psect	cstackBANK3
  1515  0000'                    __pcstackBANK3:
  1516  0000'                    ??_config_tmr2:
  1517  0000'                    ??_config_adc_channel:	
  1518                           ; 1 bytes @ 0x0
  1519                           
  1520  0000'                    ??_config_uart:	
  1521                           ; 1 bytes @ 0x0
  1522                           
  1523  0000'                    ??_i2c_config:	
  1524                           ; 1 bytes @ 0x0
  1525                           
  1526  0000'                    ??_wait_MSSP:	
  1527                           ; 1 bytes @ 0x0
  1528                           
  1529  0000'                    ??_i2c_start:	
  1530                           ; 1 bytes @ 0x0
  1531                           
  1532  0000'                    ??_i2c_stop:	
  1533                           ; 1 bytes @ 0x0
  1534                           
  1535  0000'                    ??_i2c_write:	
  1536                           ; 1 bytes @ 0x0
  1537                           
  1538  0000'                    ??_config_CCP1:	
  1539                           ; 1 bytes @ 0x0
  1540                           
  1541  0000'                    ??_config_pwm:	
  1542                           ; 1 bytes @ 0x0
  1543                           
  1544  0000'                    ??_config_tmr0:	
  1545                           ; 1 bytes @ 0x0
  1546                           
  1547  0000'                    i2c_write@I2C_data:	
  1548                           ; 1 bytes @ 0x0
  1549                           
  1550                           
  1551                           ; 1 bytes @ 0x0
  1552  0000'                    	ds	1
  1553  0001'                    ??_config_sma:
  1554  0001'                    ??_config_luminosity:	
  1555                           ; 1 bytes @ 0x1
  1556                           
  1557  0001'                    ??_main:	
  1558                           ; 1 bytes @ 0x1
  1559                           
  1560                           
  1561                           	psect	cstackBANK1
  1562  0000'                    __pcstackBANK1:	
  1563                           ; 1 bytes @ 0x1
  1564                           
  1565  0000'                    efgtoa@ne:
  1566                           
  1567                           ; 2 bytes @ 0x0
  1568  0000'                    	ds	2
  1569  0002'                    efgtoa@p:
  1570                           
  1571                           ; 2 bytes @ 0x2
  1572  0002'                    	ds	2
  1573  0004'                    efgtoa@t:
  1574                           
  1575                           ; 2 bytes @ 0x4
  1576  0004'                    	ds	2
  1577  0006'                    _efgtoa$1420:
  1578                           
  1579                           ; 2 bytes @ 0x6
  1580  0006'                    	ds	2
  1581  0008'                    efgtoa@pp:
  1582                           
  1583                           ; 1 bytes @ 0x8
  1584  0008'                    	ds	1
  1585  0009'                    efgtoa@mode:
  1586                           
  1587                           ; 1 bytes @ 0x9
  1588  0009'                    	ds	1
  1589  000A'                    efgtoa@nmode:
  1590                           
  1591                           ; 1 bytes @ 0xA
  1592  000A'                    	ds	1
  1593  000B'                    efgtoa@d:
  1594                           
  1595                           ; 2 bytes @ 0xB
  1596  000B'                    	ds	2
  1597  000D'                    efgtoa@m:
  1598                           
  1599                           ; 2 bytes @ 0xD
  1600  000D'                    	ds	2
  1601  000F'                    efgtoa@fp:
  1602                           
  1603                           ; 1 bytes @ 0xF
  1604  000F'                    	ds	1
  1605  0010'                    efgtoa@e:
  1606                           
  1607                           ; 2 bytes @ 0x10
  1608  0010'                    	ds	2
  1609  0012'                    efgtoa@w:
  1610                           
  1611                           ; 2 bytes @ 0x12
  1612  0012'                    	ds	2
  1613  0014'                    efgtoa@ou:
  1614                           
  1615                           ; 4 bytes @ 0x14
  1616  0014'                    	ds	4
  1617  0018'                    efgtoa@i:
  1618                           
  1619                           ; 2 bytes @ 0x18
  1620  0018'                    	ds	2
  1621  001A'                    efgtoa@h:
  1622                           
  1623                           ; 4 bytes @ 0x1A
  1624  001A'                    	ds	4
  1625  001E'                    efgtoa@l:
  1626                           
  1627                           ; 4 bytes @ 0x1E
  1628  001E'                    	ds	4
  1629  0022'                    efgtoa@sign:
  1630                           
  1631                           ; 1 bytes @ 0x22
  1632  0022'                    	ds	1
  1633  0023'                    efgtoa@n:
  1634                           
  1635                           ; 2 bytes @ 0x23
  1636  0023'                    	ds	2
  1637  0025'                    efgtoa@g:
  1638                           
  1639                           ; 4 bytes @ 0x25
  1640  0025'                    	ds	4
  1641  0029'                    efgtoa@u:
  1642                           
  1643                           ; 4 bytes @ 0x29
  1644  0029'                    	ds	4
  1645  002D'                    vfpfcnvrt@done:
  1646                           
  1647                           ; 1 bytes @ 0x2D
  1648  002D'                    	ds	1
  1649  002E'                    vfpfcnvrt@convarg:
  1650                           
  1651                           ; 4 bytes @ 0x2E
  1652  002E'                    	ds	4
  1653  0032'                    vfpfcnvrt@c:
  1654                           
  1655                           ; 1 bytes @ 0x32
  1656  0032'                    	ds	1
  1657  0033'                    vfpfcnvrt@fp:
  1658                           
  1659                           ; 1 bytes @ 0x33
  1660  0033'                    	ds	1
  1661  0034'                    vfpfcnvrt@cp:
  1662                           
  1663                           ; 1 bytes @ 0x34
  1664  0034'                    	ds	1
  1665  0035'                    ?_vfprintf:
  1666  0035'                    vfprintf@fmt:	
  1667                           ; 2 bytes @ 0x35
  1668                           
  1669                           
  1670                           ; 1 bytes @ 0x35
  1671  0035'                    	ds	1
  1672  0036'                    vfprintf@ap:
  1673                           
  1674                           ; 1 bytes @ 0x36
  1675  0036'                    	ds	1
  1676  0037'                    vfprintf@fp:
  1677                           
  1678                           ; 1 bytes @ 0x37
  1679  0037'                    	ds	1
  1680  0038'                    vfprintf@cfmt:
  1681                           
  1682                           ; 1 bytes @ 0x38
  1683  0038'                    	ds	1
  1684  0039'                    ?_printf:
  1685                           
  1686                           ; 2 bytes @ 0x39
  1687  0039'                    	ds	6
  1688  003F'                    printf@fmt:
  1689                           
  1690                           ; 1 bytes @ 0x3F
  1691  003F'                    	ds	1
  1692  0040'                    printf@ap:
  1693                           
  1694                           ; 1 bytes @ 0x40
  1695  0040'                    	ds	1
  1696  0041'                    ?_send_uint16t_to_uart:
  1697  0041'                    ?_send_float_to_uart:	
  1698                           ; 1 bytes @ 0x41
  1699                           
  1700  0041'                    send_uint16t_to_uart@value:	
  1701                           ; 1 bytes @ 0x41
  1702                           
  1703  0041'                    send_float_to_uart@value:	
  1704                           ; 2 bytes @ 0x41
  1705                           
  1706                           
  1707                           ; 4 bytes @ 0x41
  1708  0041'                    	ds	4
  1709  0045'                    ??_interrupt_rutine:
  1710                           
  1711                           ; 1 bytes @ 0x45
  1712  0045'                    	ds	8
  1713                           
  1714                           	psect	cstackCOMMON
  1715  0000'                    __pcstackCOMMON:
  1716  0000'                    ?___fleq:
  1717  0000'                    ?_spi_write_read:	
  1718                           ; 1 bit 
  1719                           
  1720  0000'                    ??_spi_write_read:	
  1721                           ; 1 bytes @ 0x0
  1722                           
  1723  0000'                    ?_config_tmr2:	
  1724                           ; 1 bytes @ 0x0
  1725                           
  1726  0000'                    ?_config_sma:	
  1727                           ; 1 bytes @ 0x0
  1728                           
  1729  0000'                    ?_strcpy:	
  1730                           ; 1 bytes @ 0x0
  1731                           
  1732  0000'                    ?_memcpy:	
  1733                           ; 1 bytes @ 0x0
  1734                           
  1735  0000'                    ?_change_brightness_lamp:	
  1736                           ; 1 bytes @ 0x0
  1737                           
  1738  0000'                    ?_config_adc_channel:	
  1739                           ; 1 bytes @ 0x0
  1740                           
  1741  0000'                    ?_config_uart:	
  1742                           ; 1 bytes @ 0x0
  1743                           
  1744  0000'                    ?_receive_uart:	
  1745                           ; 1 bytes @ 0x0
  1746                           
  1747  0000'                    ??_receive_uart:	
  1748                           ; 1 bytes @ 0x0
  1749                           
  1750  0000'                    ?_putch:	
  1751                           ; 1 bytes @ 0x0
  1752                           
  1753  0000'                    ??_putch:	
  1754                           ; 1 bytes @ 0x0
  1755                           
  1756  0000'                    ?_i2c_config:	
  1757                           ; 1 bytes @ 0x0
  1758                           
  1759  0000'                    ?_wait_MSSP:	
  1760                           ; 1 bytes @ 0x0
  1761                           
  1762  0000'                    ?_i2c_start:	
  1763                           ; 1 bytes @ 0x0
  1764                           
  1765  0000'                    ?_i2c_stop:	
  1766                           ; 1 bytes @ 0x0
  1767                           
  1768  0000'                    ?_i2c_write:	
  1769                           ; 1 bytes @ 0x0
  1770                           
  1771  0000'                    ?_i2c_read:	
  1772                           ; 1 bytes @ 0x0
  1773                           
  1774  0000'                    ??_i2c_read:	
  1775                           ; 1 bytes @ 0x0
  1776                           
  1777  0000'                    ?_config_CCP1:	
  1778                           ; 1 bytes @ 0x0
  1779                           
  1780  0000'                    ?_config_pwm:	
  1781                           ; 1 bytes @ 0x0
  1782                           
  1783  0000'                    ?_config_luminosity:	
  1784                           ; 1 bytes @ 0x0
  1785                           
  1786  0000'                    ?_take_best_noise:	
  1787                           ; 1 bytes @ 0x0
  1788                           
  1789  0000'                    ?_reset_best_noise:	
  1790                           ; 1 bytes @ 0x0
  1791                           
  1792  0000'                    ??_reset_best_noise:	
  1793                           ; 1 bytes @ 0x0
  1794                           
  1795  0000'                    ?_config_tmr0:	
  1796                           ; 1 bytes @ 0x0
  1797                           
  1798  0000'                    ?_main:	
  1799                           ; 1 bytes @ 0x0
  1800                           
  1801  0000'                    ?_interrupt_rutine:	
  1802                           ; 1 bytes @ 0x0
  1803                           
  1804  0000'                    ?i1_wait_MSSP:	
  1805                           ; 1 bytes @ 0x0
  1806                           
  1807  0000'                    ??i1_wait_MSSP:	
  1808                           ; 1 bytes @ 0x0
  1809                           
  1810  0000'                    ?i1_i2c_start:	
  1811                           ; 1 bytes @ 0x0
  1812                           
  1813  0000'                    ??i1_i2c_start:	
  1814                           ; 1 bytes @ 0x0
  1815                           
  1816  0000'                    ?i1_i2c_stop:	
  1817                           ; 1 bytes @ 0x0
  1818                           
  1819  0000'                    ??i1_i2c_stop:	
  1820                           ; 1 bytes @ 0x0
  1821                           
  1822  0000'                    ?i1_i2c_write:	
  1823                           ; 1 bytes @ 0x0
  1824                           
  1825  0000'                    ??i1_i2c_write:	
  1826                           ; 1 bytes @ 0x0
  1827                           
  1828  0000'                    ?__Umul8_16:	
  1829                           ; 1 bytes @ 0x0
  1830                           
  1831  0000'                    ?___fpclassifyf:	
  1832                           ; 2 bytes @ 0x0
  1833                           
  1834  0000'                    ?_read_adc_channel:	
  1835                           ; 2 bytes @ 0x0
  1836                           
  1837  0000'                    ?___wmul:	
  1838                           ; 2 bytes @ 0x0
  1839                           
  1840  0000'                    ?___awdiv:	
  1841                           ; 2 bytes @ 0x0
  1842                           
  1843  0000'                    ?___awmod:	
  1844                           ; 2 bytes @ 0x0
  1845                           
  1846  0000'                    ?_labs:	
  1847                           ; 2 bytes @ 0x0
  1848                           
  1849  0000'                    ?___flneg:	
  1850                           ; 4 bytes @ 0x0
  1851                           
  1852  0000'                    ?___xxtofl:	
  1853                           ; 4 bytes @ 0x0
  1854                           
  1855  0000'                    putch@data:	
  1856                           ; 4 bytes @ 0x0
  1857                           
  1858  0000'                    i2c_read@master_ack:	
  1859                           ; 1 bytes @ 0x0
  1860                           
  1861  0000'                    __Umul8_16@multiplicand:	
  1862                           ; 1 bytes @ 0x0
  1863                           
  1864  0000'                    memcpy@s1:	
  1865                           ; 1 bytes @ 0x0
  1866                           
  1867  0000'                    strcpy@src:	
  1868                           ; 1 bytes @ 0x0
  1869                           
  1870  0000'                    i1i2c_write@I2C_data:	
  1871                           ; 1 bytes @ 0x0
  1872                           
  1873  0000'                    take_best_noise@noise:	
  1874                           ; 1 bytes @ 0x0
  1875                           
  1876  0000'                    ___wmul@multiplier:	
  1877                           ; 2 bytes @ 0x0
  1878                           
  1879  0000'                    ___awdiv@divisor:	
  1880                           ; 2 bytes @ 0x0
  1881                           
  1882  0000'                    ___awmod@divisor:	
  1883                           ; 2 bytes @ 0x0
  1884                           
  1885  0000'                    ___fleq@ff1:	
  1886                           ; 2 bytes @ 0x0
  1887                           
  1888  0000'                    ___flneg@f1:	
  1889                           ; 4 bytes @ 0x0
  1890                           
  1891  0000'                    ___xxtofl@val:	
  1892                           ; 4 bytes @ 0x0
  1893                           
  1894  0000'                    ___fpclassifyf@x:	
  1895                           ; 4 bytes @ 0x0
  1896                           
  1897  0000'                    labs@a:	
  1898                           ; 4 bytes @ 0x0
  1899                           
  1900                           
  1901                           ; 4 bytes @ 0x0
  1902  0000'                    	ds	1
  1903  0001'                    ??_strcpy:
  1904  0001'                    ?_fputc:	
  1905                           ; 1 bytes @ 0x1
  1906                           
  1907  0001'                    i2c_read@I2C_data:	
  1908                           ; 2 bytes @ 0x1
  1909                           
  1910  0001'                    memcpy@n:	
  1911                           ; 1 bytes @ 0x1
  1912                           
  1913  0001'                    fputc@c:	
  1914                           ; 2 bytes @ 0x1
  1915                           
  1916                           
  1917                           ; 2 bytes @ 0x1
  1918  0001'                    	ds	1
  1919  0002'                    ??__Umul8_16:
  1920  0002'                    ??_read_adc_channel:	
  1921                           ; 1 bytes @ 0x2
  1922                           
  1923  0002'                    ??_take_best_noise:	
  1924                           ; 1 bytes @ 0x2
  1925                           
  1926  0002'                    ?_read_co2_environment:	
  1927                           ; 1 bytes @ 0x2
  1928                           
  1929  0002'                    spi_write_read@one_byte:	
  1930                           ; 2 bytes @ 0x2
  1931                           
  1932  0002'                    strcpy@d:	
  1933                           ; 1 bytes @ 0x2
  1934                           
  1935  0002'                    ___wmul@multiplicand:	
  1936                           ; 1 bytes @ 0x2
  1937                           
  1938  0002'                    ___awdiv@dividend:	
  1939                           ; 2 bytes @ 0x2
  1940                           
  1941  0002'                    ___awmod@dividend:	
  1942                           ; 2 bytes @ 0x2
  1943                           
  1944                           
  1945                           ; 2 bytes @ 0x2
  1946  0002'                    	ds	1
  1947  0003'                    ??_memcpy:
  1948  0003'                    spi_write_read@answer:	
  1949                           ; 1 bytes @ 0x3
  1950                           
  1951  0003'                    fputc@fp:	
  1952                           ; 1 bytes @ 0x3
  1953                           
  1954  0003'                    strcpy@dest:	
  1955                           ; 1 bytes @ 0x3
  1956                           
  1957                           
  1958                           ; 1 bytes @ 0x3
  1959  0003'                    	ds	1
  1960  0004'                    ??_fputc:
  1961  0004'                    ??___fpclassifyf:	
  1962                           ; 1 bytes @ 0x4
  1963                           
  1964  0004'                    ??_labs:	
  1965                           ; 1 bytes @ 0x4
  1966                           
  1967  0004'                    ??_read_co2_environment:	
  1968                           ; 1 bytes @ 0x4
  1969                           
  1970  0004'                    ??___wmul:	
  1971                           ; 1 bytes @ 0x4
  1972                           
  1973  0004'                    ??___awdiv:	
  1974                           ; 1 bytes @ 0x4
  1975                           
  1976  0004'                    ??___awmod:	
  1977                           ; 1 bytes @ 0x4
  1978                           
  1979  0004'                    ??___flneg:	
  1980                           ; 1 bytes @ 0x4
  1981                           
  1982  0004'                    ??___xxtofl:	
  1983                           ; 1 bytes @ 0x4
  1984                           
  1985  0004'                    spi_write_read@x:	
  1986                           ; 1 bytes @ 0x4
  1987                           
  1988  0004'                    memcpy@tmp:	
  1989                           ; 1 bytes @ 0x4
  1990                           
  1991  0004'                    ___wmul@product:	
  1992                           ; 1 bytes @ 0x4
  1993                           
  1994  0004'                    __Umul8_16@product:	
  1995                           ; 2 bytes @ 0x4
  1996                           
  1997  0004'                    ___fleq@ff2:	
  1998                           ; 2 bytes @ 0x4
  1999                           
  2000                           
  2001                           ; 4 bytes @ 0x4
  2002  0004'                    	ds	1
  2003  0005'                    ??_change_brightness_lamp:
  2004  0005'                    ?_change_color_lamp:	
  2005                           ; 1 bytes @ 0x5
  2006                           
  2007  0005'                    change_brightness_lamp@brightness:	
  2008                           ; 1 bytes @ 0x5
  2009                           
  2010  0005'                    change_color_lamp@G:	
  2011                           ; 1 bytes @ 0x5
  2012                           
  2013  0005'                    ___awdiv@counter:	
  2014                           ; 1 bytes @ 0x5
  2015                           
  2016  0005'                    ___awmod@counter:	
  2017                           ; 1 bytes @ 0x5
  2018                           
  2019  0005'                    memcpy@d1:	
  2020                           ; 1 bytes @ 0x5
  2021                           
  2022                           
  2023                           ; 1 bytes @ 0x5
  2024  0005'                    	ds	1
  2025  0006'                    ?_read_prec_or_width:
  2026  0006'                    change_color_lamp@B:	
  2027                           ; 2 bytes @ 0x6
  2028                           
  2029  0006'                    ___awdiv@sign:	
  2030                           ; 1 bytes @ 0x6
  2031                           
  2032  0006'                    ___awmod@sign:	
  2033                           ; 1 bytes @ 0x6
  2034                           
  2035  0006'                    read_prec_or_width@ap:	
  2036                           ; 1 bytes @ 0x6
  2037                           
  2038  0006'                    memcpy@d:	
  2039                           ; 1 bytes @ 0x6
  2040                           
  2041  0006'                    __Umul8_16@word_mpld:	
  2042                           ; 1 bytes @ 0x6
  2043                           
  2044                           
  2045                           ; 2 bytes @ 0x6
  2046  0006'                    	ds	1
  2047  0007'                    ??_change_color_lamp:
  2048  0007'                    ?_abs:	
  2049                           ; 1 bytes @ 0x7
  2050                           
  2051  0007'                    change_color_lamp@R:	
  2052                           ; 2 bytes @ 0x7
  2053                           
  2054  0007'                    memcpy@s:	
  2055                           ; 1 bytes @ 0x7
  2056                           
  2057  0007'                    ___awdiv@quotient:	
  2058                           ; 1 bytes @ 0x7
  2059                           
  2060  0007'                    abs@a:	
  2061                           ; 2 bytes @ 0x7
  2062                           
  2063                           
  2064                           ; 2 bytes @ 0x7
  2065  0007'                    	ds	1
  2066  0008'                    ??___fleq:
  2067  0008'                    ??_read_prec_or_width:	
  2068                           ; 1 bytes @ 0x8
  2069                           
  2070  0008'                    __Umul8_16@multiplier:	
  2071                           ; 1 bytes @ 0x8
  2072                           
  2073  0008'                    ___xxtofl@sign:	
  2074                           ; 1 bytes @ 0x8
  2075                           
  2076  0008'                    read_adc_channel@adc_value:	
  2077                           ; 1 bytes @ 0x8
  2078                           
  2079  0008'                    read_co2_environment@co2_value:	
  2080                           ; 2 bytes @ 0x8
  2081                           
  2082                           
  2083                           ; 2 bytes @ 0x8
  2084  0008'                    	ds	1
  2085  0009'                    ??_abs:
  2086  0009'                    ?_stoa:	
  2087                           ; 1 bytes @ 0x9
  2088                           
  2089  0009'                    ?_fputs:	
  2090                           ; 1 bytes @ 0x9
  2091                           
  2092  0009'                    ___xxtofl@exp:	
  2093                           ; 2 bytes @ 0x9
  2094                           
  2095  0009'                    read_prec_or_width@c:	
  2096                           ; 1 bytes @ 0x9
  2097                           
  2098  0009'                    fputs@fp:	
  2099                           ; 1 bytes @ 0x9
  2100                           
  2101  0009'                    stoa@s:	
  2102                           ; 1 bytes @ 0x9
  2103                           
  2104                           
  2105                           ; 2 bytes @ 0x9
  2106  0009'                    	ds	1
  2107  000A'                    ??_fputs:
  2108  000A'                    ?_read_noise_channel:	
  2109                           ; 1 bytes @ 0xA
  2110                           
  2111  000A'                    read_prec_or_width@n:	
  2112                           ; 2 bytes @ 0xA
  2113                           
  2114  000A'                    ___xxtofl@arg:	
  2115                           ; 2 bytes @ 0xA
  2116                           
  2117                           
  2118                           ; 4 bytes @ 0xA
  2119  000A'                    	ds	1
  2120  000B'                    ??_stoa:
  2121                           
  2122                           ; 1 bytes @ 0xB
  2123  000B'                    	ds	1
  2124  000C'                    ??_read_noise_channel:
  2125  000C'                    ??_pad:	
  2126                           ; 1 bytes @ 0xC
  2127                           
  2128  000C'                    read_prec_or_width@fmt:	
  2129                           ; 1 bytes @ 0xC
  2130                           
  2131                           
  2132                           ; 1 bytes @ 0xC
  2133  000C'                    	ds	1
  2134  000D'                    ??_dtoa:
  2135                           
  2136                           ; 1 bytes @ 0xD
  2137  000D'                    	ds	1
  2138  000E'                    ??_printf:
  2139  000E'                    ??_vfprintf:	
  2140                           ; 1 bytes @ 0xE
  2141                           
  2142  000E'                    ??_send_uint16t_to_uart:	
  2143                           ; 1 bytes @ 0xE
  2144                           
  2145  000E'                    ??_send_float_to_uart:	
  2146                           ; 1 bytes @ 0xE
  2147                           
  2148  000E'                    ??_send_PWM_sign:	
  2149                           ; 1 bytes @ 0xE
  2150                           
  2151  000E'                    ??_read_humidity_channel:	
  2152                           ; 1 bytes @ 0xE
  2153                           
  2154  000E'                    ??_read_temperature:	
  2155                           ; 1 bytes @ 0xE
  2156                           
  2157  000E'                    ??___flsub:	
  2158                           ; 1 bytes @ 0xE
  2159                           
  2160                           
  2161                           	psect	cstackBANK0
  2162  0000'                    __pcstackBANK0:	
  2163                           ; 1 bytes @ 0xE
  2164                           
  2165  0000'                    ?___fladd:
  2166  0000'                    ?___flmul:	
  2167                           ; 4 bytes @ 0x0
  2168                           
  2169  0000'                    fputs@c:	
  2170                           ; 4 bytes @ 0x0
  2171                           
  2172  0000'                    stoa@p:	
  2173                           ; 1 bytes @ 0x0
  2174                           
  2175  0000'                    ___fpclassifyf@e:	
  2176                           ; 2 bytes @ 0x0
  2177                           
  2178  0000'                    ___fladd@b:	
  2179                           ; 2 bytes @ 0x0
  2180                           
  2181  0000'                    ___flmul@b:	
  2182                           ; 4 bytes @ 0x0
  2183                           
  2184                           
  2185                           ; 4 bytes @ 0x0
  2186  0000'                    	ds	1
  2187  0001'                    fputs@i:
  2188                           
  2189                           ; 2 bytes @ 0x1
  2190  0001'                    	ds	1
  2191  0002'                    stoa@fp:
  2192  0002'                    ___fpclassifyf@u:	
  2193                           ; 1 bytes @ 0x2
  2194                           
  2195                           
  2196                           ; 4 bytes @ 0x2
  2197  0002'                    	ds	1
  2198  0003'                    fputs@s:
  2199  0003'                    stoa@cp:	
  2200                           ; 1 bytes @ 0x3
  2201                           
  2202                           
  2203                           ; 2 bytes @ 0x3
  2204  0003'                    	ds	1
  2205  0004'                    ?_pad:
  2206  0004'                    pad@buf:	
  2207                           ; 1 bytes @ 0x4
  2208                           
  2209  0004'                    ___fladd@a:	
  2210                           ; 1 bytes @ 0x4
  2211                           
  2212  0004'                    ___flmul@a:	
  2213                           ; 4 bytes @ 0x4
  2214                           
  2215                           
  2216                           ; 4 bytes @ 0x4
  2217  0004'                    	ds	1
  2218  0005'                    pad@p:
  2219  0005'                    stoa@l:	
  2220                           ; 2 bytes @ 0x5
  2221                           
  2222                           
  2223                           ; 2 bytes @ 0x5
  2224  0005'                    	ds	2
  2225  0007'                    pad@i:
  2226                           
  2227                           ; 2 bytes @ 0x7
  2228  0007'                    	ds	1
  2229  0008'                    ??___fladd:
  2230  0008'                    ??___flmul:	
  2231                           ; 1 bytes @ 0x8
  2232                           
  2233                           
  2234                           ; 1 bytes @ 0x8
  2235  0008'                    	ds	1
  2236  0009'                    pad@fp:
  2237                           
  2238                           ; 1 bytes @ 0x9
  2239  0009'                    	ds	1
  2240  000A'                    ?_dtoa:
  2241  000A'                    dtoa@d:	
  2242                           ; 1 bytes @ 0xA
  2243                           
  2244                           
  2245                           ; 2 bytes @ 0xA
  2246  000A'                    	ds	2
  2247  000C'                    _dtoa$1389:
  2248                           
  2249                           ; 2 bytes @ 0xC
  2250  000C'                    	ds	1
  2251  000D'                    ___flmul@sign:
  2252                           
  2253                           ; 1 bytes @ 0xD
  2254  000D'                    	ds	1
  2255  000E'                    dtoa@w:
  2256  000E'                    ___flmul@grs:	
  2257                           ; 2 bytes @ 0xE
  2258                           
  2259                           
  2260                           ; 4 bytes @ 0xE
  2261  000E'                    	ds	2
  2262  0010'                    ___fladd@signs:
  2263  0010'                    dtoa@p:	
  2264                           ; 1 bytes @ 0x10
  2265                           
  2266                           
  2267                           ; 2 bytes @ 0x10
  2268  0010'                    	ds	1
  2269  0011'                    ___fladd@aexp:
  2270                           
  2271                           ; 1 bytes @ 0x11
  2272  0011'                    	ds	1
  2273  0012'                    ___fladd@bexp:
  2274  0012'                    ___flmul@aexp:	
  2275                           ; 1 bytes @ 0x12
  2276                           
  2277  0012'                    dtoa@fp:	
  2278                           ; 1 bytes @ 0x12
  2279                           
  2280                           
  2281                           ; 1 bytes @ 0x12
  2282  0012'                    	ds	1
  2283  0013'                    ___fladd@grs:
  2284  0013'                    ___flmul@bexp:	
  2285                           ; 1 bytes @ 0x13
  2286                           
  2287  0013'                    dtoa@s:	
  2288                           ; 1 bytes @ 0x13
  2289                           
  2290                           
  2291                           ; 1 bytes @ 0x13
  2292  0013'                    	ds	1
  2293  0014'                    ?___fldiv:
  2294  0014'                    dtoa@i:	
  2295                           ; 4 bytes @ 0x14
  2296                           
  2297  0014'                    ___fldiv@a:	
  2298                           ; 2 bytes @ 0x14
  2299                           
  2300  0014'                    ___flmul@prod:	
  2301                           ; 4 bytes @ 0x14
  2302                           
  2303                           
  2304                           ; 4 bytes @ 0x14
  2305  0014'                    	ds	4
  2306  0018'                    ___flmul@temp:
  2307  0018'                    ___fldiv@b:	
  2308                           ; 2 bytes @ 0x18
  2309                           
  2310                           
  2311                           ; 4 bytes @ 0x18
  2312  0018'                    	ds	2
  2313  001A'                    ?___flge:
  2314  001A'                    ?_read_luminosity:	
  2315                           ; 1 bit 
  2316                           
  2317  001A'                    ?___fltol:	
  2318                           ; 4 bytes @ 0x1A
  2319                           
  2320  001A'                    ?___flsub:	
  2321                           ; 4 bytes @ 0x1A
  2322                           
  2323  001A'                    ___flge@ff1:	
  2324                           ; 4 bytes @ 0x1A
  2325                           
  2326  001A'                    ___fltol@f1:	
  2327                           ; 4 bytes @ 0x1A
  2328                           
  2329  001A'                    ___flsub@a:	
  2330                           ; 4 bytes @ 0x1A
  2331                           
  2332                           
  2333                           ; 4 bytes @ 0x1A
  2334  001A'                    	ds	2
  2335  001C'                    ??___fldiv:
  2336                           
  2337                           ; 1 bytes @ 0x1C
  2338  001C'                    	ds	2
  2339  001E'                    ??_read_luminosity:
  2340  001E'                    ??___fltol:	
  2341                           ; 1 bytes @ 0x1E
  2342                           
  2343  001E'                    ___flge@ff2:	
  2344                           ; 1 bytes @ 0x1E
  2345                           
  2346  001E'                    ___flsub@b:	
  2347                           ; 4 bytes @ 0x1E
  2348                           
  2349                           
  2350                           ; 4 bytes @ 0x1E
  2351  001E'                    	ds	3
  2352  0021'                    ___fldiv@rem:
  2353                           
  2354                           ; 4 bytes @ 0x21
  2355  0021'                    	ds	1
  2356  0022'                    ??___flge:
  2357  0022'                    ___fltol@sign1:	
  2358                           ; 1 bytes @ 0x22
  2359                           
  2360  0022'                    read_luminosity@lum:	
  2361                           ; 1 bytes @ 0x22
  2362                           
  2363                           
  2364                           ; 2 bytes @ 0x22
  2365  0022'                    	ds	1
  2366  0023'                    ___fltol@exp1:
  2367                           
  2368                           ; 1 bytes @ 0x23
  2369  0023'                    	ds	2
  2370  0025'                    ___fldiv@sign:
  2371                           
  2372                           ; 1 bytes @ 0x25
  2373  0025'                    	ds	1
  2374  0026'                    ___fldiv@new_exp:
  2375                           
  2376                           ; 2 bytes @ 0x26
  2377  0026'                    	ds	2
  2378  0028'                    ___fldiv@grs:
  2379                           
  2380                           ; 4 bytes @ 0x28
  2381  0028'                    	ds	4
  2382  002C'                    ___fldiv@bexp:
  2383                           
  2384                           ; 1 bytes @ 0x2C
  2385  002C'                    	ds	1
  2386  002D'                    ___fldiv@aexp:
  2387                           
  2388                           ; 1 bytes @ 0x2D
  2389  002D'                    	ds	1
  2390  002E'                    ?_send_PWM_sign:
  2391  002E'                    ?_floorf:	
  2392                           ; 1 bytes @ 0x2E
  2393                           
  2394  002E'                    ?_read_humidity_channel:	
  2395                           ; 4 bytes @ 0x2E
  2396                           
  2397  002E'                    ?_read_temperature:	
  2398                           ; 4 bytes @ 0x2E
  2399                           
  2400  002E'                    send_PWM_sign@percent:	
  2401                           ; 4 bytes @ 0x2E
  2402                           
  2403  002E'                    floorf@x:	
  2404                           ; 4 bytes @ 0x2E
  2405                           
  2406                           
  2407                           ; 4 bytes @ 0x2E
  2408  002E'                    	ds	4
  2409  0032'                    ??_floorf:
  2410  0032'                    read_humidity_channel@adc_value:	
  2411                           ; 1 bytes @ 0x32
  2412                           
  2413  0032'                    read_temperature@adc_value:	
  2414                           ; 2 bytes @ 0x32
  2415                           
  2416                           
  2417                           ; 2 bytes @ 0x32
  2418  0032'                    	ds	6
  2419  0038'                    floorf@m:
  2420                           
  2421                           ; 4 bytes @ 0x38
  2422  0038'                    	ds	4
  2423  003C'                    floorf@e:
  2424                           
  2425                           ; 2 bytes @ 0x3C
  2426  003C'                    	ds	2
  2427  003E'                    floorf@u:
  2428                           
  2429                           ; 4 bytes @ 0x3E
  2430  003E'                    	ds	4
  2431  0042'                    ?_efgtoa:
  2432  0042'                    efgtoa@f:	
  2433                           ; 1 bytes @ 0x42
  2434                           
  2435                           
  2436                           ; 4 bytes @ 0x42
  2437  0042'                    	ds	4
  2438  0046'                    efgtoa@c:
  2439                           
  2440                           ; 1 bytes @ 0x46
  2441  0046'                    	ds	1
  2442  0047'                    ??_efgtoa:
  2443                           
  2444                           ; 1 bytes @ 0x47
  2445  0047'                    	ds	4
  2446  004B'                    ?_vfpfcnvrt:
  2447  004B'                    vfpfcnvrt@fmt:	
  2448                           ; 1 bytes @ 0x4B
  2449                           
  2450                           
  2451                           ; 1 bytes @ 0x4B
  2452  004B'                    	ds	1
  2453  004C'                    vfpfcnvrt@ap:
  2454                           
  2455                           ; 1 bytes @ 0x4C
  2456  004C'                    	ds	1
  2457  004D'                    ??_vfpfcnvrt:
  2458                           
  2459                           ; 1 bytes @ 0x4D
  2460  004D'                    	ds	2
  2461  004F'                    send_uint16t_to_uart@name:
  2462  004F'                    send_float_to_uart@name:	
  2463                           ; 1 bytes @ 0x4F
  2464                           
  2465                           
  2466                           ; 1 bytes @ 0x4F
  2467  004F'                    	ds	1
  2468                           
  2469                           	psect	maintext
  2470  0000'                    __pmaintext:	
  2471 ;;
  2472 ;;Main: autosize = 0, tempsize = 0, incstack = 0, save=0
  2473 ;;
  2474 ;; *************** function _main *****************
  2475 ;; Defined at:
  2476 ;;		line 42 in file "main.c"
  2477 ;; Parameters:    Size  Location     Type
  2478 ;;		None
  2479 ;; Auto vars:     Size  Location     Type
  2480 ;;		None
  2481 ;; Return value:  Size  Location     Type
  2482 ;;                  1    wreg      void 
  2483 ;; Registers used:
  2484 ;;		wreg, status,2, status,0, pclath, cstack
  2485 ;; Tracked objects:
  2486 ;;		On entry : B00/0
  2487 ;;		On exit  : 0/0
  2488 ;;		Unchanged: 0/0
  2489 ;; Data sizes:     COMMON   BANK0   BANK1   BANK3   BANK2
  2490 ;;      Params:         0       0       0       0       0
  2491 ;;      Locals:         0       0       0       0       0
  2492 ;;      Temps:          0       0       0       0       0
  2493 ;;      Totals:         0       0       0       0       0
  2494 ;;Total ram usage:        0 bytes
  2495 ;; Hardware stack levels required when called: 14
  2496 ;; This function calls:
  2497 ;;		_config_sma
  2498 ;; This function is called by:
  2499 ;;		Startup code after reset
  2500 ;; This function uses a non-reentrant model
  2501 ;;
  2502                           
  2503  0000'                    _main:	
  2504                           ;psect for function _main
  2505                           
  2506  0000'                    l4240:	
  2507                           ;incstack = 0
  2508 ;; hardware stack exceeded
  2509                           ; Regs used in _main: [wreg+status,2+status,0+pclath+cstack]
  2510                           
  2511                           
  2512                           ;main.c: 43:     config_sma();
  2513  0000' 120A' 118A' 2000' 120A' 118A' 	fcall	_config_sma
  2514  0005'                    l269:	
  2515                           ;main.c: 44:     while(1);
  2516                           
  2517  0005'                    l270:
  2518  0005' 2800'              	goto	l269
  2519  0006' 120A' 118A' 2800'  	ljmp	start
  2520  0009'                    __end_of_main:
  2521                           
  2522                           	psect	text1
  2523  0000'                    __ptext1:	
  2524 ;; *************** function _config_sma *****************
  2525 ;; Defined at:
  2526 ;;		line 49 in file "main.c"
  2527 ;; Parameters:    Size  Location     Type
  2528 ;;		None
  2529 ;; Auto vars:     Size  Location     Type
  2530 ;;		None
  2531 ;; Return value:  Size  Location     Type
  2532 ;;                  1    wreg      void 
  2533 ;; Registers used:
  2534 ;;		wreg, status,2, status,0, pclath, cstack
  2535 ;; Tracked objects:
  2536 ;;		On entry : 0/0
  2537 ;;		On exit  : 0/0
  2538 ;;		Unchanged: 0/0
  2539 ;; Data sizes:     COMMON   BANK0   BANK1   BANK3   BANK2
  2540 ;;      Params:         0       0       0       0       0
  2541 ;;      Locals:         0       0       0       0       0
  2542 ;;      Temps:          0       0       0       0       0
  2543 ;;      Totals:         0       0       0       0       0
  2544 ;;Total ram usage:        0 bytes
  2545 ;; Hardware stack levels used: 1
  2546 ;; Hardware stack levels required when called: 13
  2547 ;; This function calls:
  2548 ;;		_config_adc_channel
  2549 ;;		_config_luminosity
  2550 ;;		_config_pwm
  2551 ;;		_config_tmr0
  2552 ;;		_config_uart
  2553 ;;		_i2c_config
  2554 ;; This function is called by:
  2555 ;;		_main
  2556 ;; This function uses a non-reentrant model
  2557 ;;
  2558                           
  2559  0000'                    _config_sma:	
  2560                           ;psect for function _config_sma
  2561                           
  2562  0000'                    l4232:	
  2563                           ;incstack = 0
  2564 ;; hardware stack exceeded
  2565                           ; Regs used in _config_sma: [wreg+status,2+status,0+pclath+cstack]
  2566                           
  2567                           
  2568                           ;main.c: 51:     i2c_config();
  2569  0000' 120A' 118A' 2000' 120A' 118A' 	fcall	_i2c_config
  2570                           
  2571                           ;main.c: 52:     config_adc_channel();
  2572  0005' 120A' 118A' 2000' 120A' 118A' 	fcall	_config_adc_channel
  2573                           
  2574                           ;main.c: 53:     config_pwm();
  2575  000A' 120A' 118A' 2000' 120A' 118A' 	fcall	_config_pwm
  2576                           
  2577                           ;main.c: 54:     config_tmr0();
  2578  000F' 120A' 118A' 2000' 120A' 118A' 	fcall	_config_tmr0
  2579                           
  2580                           ;main.c: 55:     config_uart();
  2581  0014' 120A' 118A' 2000' 120A' 118A' 	fcall	_config_uart
  2582                           
  2583                           ;main.c: 56:     config_luminosity();
  2584  0019' 120A' 118A' 2000' 120A' 118A' 	fcall	_config_luminosity
  2585  001E'                    l275:
  2586  001E' 0008               	return
  2587  001F'                    __end_of_config_sma:
  2588                           
  2589                           	psect	text2
  2590  0000'                    __ptext2:	
  2591 ;; *************** function _i2c_config *****************
  2592 ;; Defined at:
  2593 ;;		line 9 in file "src/protocols/I2C/i2c-v2.c"
  2594 ;; Parameters:    Size  Location     Type
  2595 ;;		None
  2596 ;; Auto vars:     Size  Location     Type
  2597 ;;		None
  2598 ;; Return value:  Size  Location     Type
  2599 ;;                  1    wreg      void 
  2600 ;; Registers used:
  2601 ;;		wreg, status,2, status,0
  2602 ;; Tracked objects:
  2603 ;;		On entry : 0/0
  2604 ;;		On exit  : 0/0
  2605 ;;		Unchanged: 0/0
  2606 ;; Data sizes:     COMMON   BANK0   BANK1   BANK3   BANK2
  2607 ;;      Params:         0       0       0       0       0
  2608 ;;      Locals:         0       0       0       0       0
  2609 ;;      Temps:          0       0       0       0       0
  2610 ;;      Totals:         0       0       0       0       0
  2611 ;;Total ram usage:        0 bytes
  2612 ;; Hardware stack levels used: 1
  2613 ;; Hardware stack levels required when called: 10
  2614 ;; This function calls:
  2615 ;;		Nothing
  2616 ;; This function is called by:
  2617 ;;		_config_sma
  2618 ;; This function uses a non-reentrant model
  2619 ;;
  2620                           
  2621  0000'                    _i2c_config:	
  2622                           ;psect for function _i2c_config
  2623                           
  2624  0000'                    l4028:	
  2625                           ;incstack = 0
  2626 ;; hardware stack exceeded
  2627                           ; Regs used in _i2c_config: [wreg+status,2+status,0]
  2628                           
  2629                           
  2630                           ;src/protocols/I2C/i2c-v2.c: 11:     SSPCONbits.SSPM = 0b1000;
  2631  0000' 1283               	bcf	3,5	;RP0=0, select bank0
  2632  0001' 1303               	bcf	3,6	;RP1=0, select bank0
  2633  0002' 0814               	movf	20,w	;volatile
  2634  0003' 39F0               	andlw	-16
  2635  0004' 3808               	iorlw	8
  2636  0005' 0094               	movwf	20	;volatile
  2637  0006'                    l4030:
  2638                           
  2639                           ;src/protocols/I2C/i2c-v2.c: 12:     SSPCONbits.SSPEN = 1;
  2640  0006' 1694               	bsf	20,5	;volatile
  2641  0007'                    l83:
  2642  0007' 0008               	return
  2643  0008'                    __end_of_i2c_config:
  2644                           
  2645                           	psect	text3
  2646  0000'                    __ptext3:	
  2647 ;; *************** function _config_uart *****************
  2648 ;; Defined at:
  2649 ;;		line 3 in file "src/protocols/UART/uart.c"
  2650 ;; Parameters:    Size  Location     Type
  2651 ;;		None
  2652 ;; Auto vars:     Size  Location     Type
  2653 ;;		None
  2654 ;; Return value:  Size  Location     Type
  2655 ;;                  1    wreg      void 
  2656 ;; Registers used:
  2657 ;;		wreg, status,2
  2658 ;; Tracked objects:
  2659 ;;		On entry : 0/0
  2660 ;;		On exit  : 0/0
  2661 ;;		Unchanged: 0/0
  2662 ;; Data sizes:     COMMON   BANK0   BANK1   BANK3   BANK2
  2663 ;;      Params:         0       0       0       0       0
  2664 ;;      Locals:         0       0       0       0       0
  2665 ;;      Temps:          0       0       0       0       0
  2666 ;;      Totals:         0       0       0       0       0
  2667 ;;Total ram usage:        0 bytes
  2668 ;; Hardware stack levels used: 1
  2669 ;; Hardware stack levels required when called: 10
  2670 ;; This function calls:
  2671 ;;		Nothing
  2672 ;; This function is called by:
  2673 ;;		_config_sma
  2674 ;; This function uses a non-reentrant model
  2675 ;;
  2676                           
  2677  0000'                    _config_uart:	
  2678                           ;psect for function _config_uart
  2679                           
  2680  0000'                    l3996:	
  2681                           ;incstack = 0
  2682 ;; hardware stack exceeded
  2683                           ; Regs used in _config_uart: [wreg+status,2]
  2684                           
  2685                           
  2686                           ;src/protocols/UART/uart.c: 5:   TXSTAbits.BRGH = 0;
  2687  0000' 1683               	bsf	3,5	;RP0=1, select bank1
  2688  0001' 1303               	bcf	3,6	;RP1=0, select bank1
  2689  0002' 1118               	bcf	24,2	;volatile
  2690                           
  2691                           ;src/protocols/UART/uart.c: 6:   BAUDCTLbits.BRG16 = 0;
  2692  0003' 1683               	bsf	3,5	;RP0=1, select bank3
  2693  0004' 1703               	bsf	3,6	;RP1=1, select bank3
  2694  0005' 1187               	bcf	7,3	;volatile
  2695  0006'                    l3998:
  2696                           
  2697                           ;src/protocols/UART/uart.c: 9:   SPBRGH = 0;
  2698  0006' 1683               	bsf	3,5	;RP0=1, select bank1
  2699  0007' 1303               	bcf	3,6	;RP1=0, select bank1
  2700  0008' 019A               	clrf	26	;volatile
  2701  0009'                    l4000:
  2702                           
  2703                           ;src/protocols/UART/uart.c: 10:   SPBRG = 32;
  2704  0009' 3020               	movlw	32
  2705  000A' 0099               	movwf	25	;volatile
  2706  000B'                    l4002:
  2707                           
  2708                           ;src/protocols/UART/uart.c: 12:   TXSTAbits.SYNC = 0;
  2709  000B' 1218               	bcf	24,4	;volatile
  2710  000C'                    l4004:
  2711                           
  2712                           ;src/protocols/UART/uart.c: 13:   TXSTAbits.TX9 = 0;
  2713  000C' 1318               	bcf	24,6	;volatile
  2714  000D'                    l4006:
  2715                           
  2716                           ;src/protocols/UART/uart.c: 14:   RCSTAbits.RX9 = 0;
  2717  000D' 1283               	bcf	3,5	;RP0=0, select bank0
  2718  000E' 1303               	bcf	3,6	;RP1=0, select bank0
  2719  000F' 1318               	bcf	24,6	;volatile
  2720  0010'                    l4008:
  2721                           
  2722                           ;src/protocols/UART/uart.c: 16:   PIE1bits.TXIE = 0;
  2723  0010' 1683               	bsf	3,5	;RP0=1, select bank1
  2724  0011' 1303               	bcf	3,6	;RP1=0, select bank1
  2725  0012' 120C               	bcf	12,4	;volatile
  2726  0013'                    l4010:
  2727                           
  2728                           ;src/protocols/UART/uart.c: 17:   PIE1bits.RCIE = 1;
  2729  0013' 168C               	bsf	12,5	;volatile
  2730  0014'                    l4012:
  2731                           
  2732                           ;src/protocols/UART/uart.c: 19:   RCSTAbits.SPEN = 1;
  2733  0014' 1283               	bcf	3,5	;RP0=0, select bank0
  2734  0015' 1303               	bcf	3,6	;RP1=0, select bank0
  2735  0016' 1798               	bsf	24,7	;volatile
  2736  0017'                    l4014:
  2737                           
  2738                           ;src/protocols/UART/uart.c: 21:   TXSTAbits.TXEN = 0;
  2739  0017' 1683               	bsf	3,5	;RP0=1, select bank1
  2740  0018' 1303               	bcf	3,6	;RP1=0, select bank1
  2741  0019' 1298               	bcf	24,5	;volatile
  2742  001A'                    l4016:
  2743                           
  2744                           ;src/protocols/UART/uart.c: 22:   TXSTAbits.TXEN = 1;
  2745  001A' 1698               	bsf	24,5	;volatile
  2746  001B'                    l4018:
  2747                           
  2748                           ;src/protocols/UART/uart.c: 24:   RCSTAbits.CREN = 0;
  2749  001B' 1283               	bcf	3,5	;RP0=0, select bank0
  2750  001C' 1303               	bcf	3,6	;RP1=0, select bank0
  2751  001D' 1218               	bcf	24,4	;volatile
  2752  001E'                    l4020:
  2753                           
  2754                           ;src/protocols/UART/uart.c: 25:   RCSTAbits.CREN = 1;
  2755  001E' 1618               	bsf	24,4	;volatile
  2756  001F'                    l47:
  2757  001F' 0008               	return
  2758  0020'                    __end_of_config_uart:
  2759                           
  2760                           	psect	text4
  2761  0000'                    __ptext4:	
  2762 ;; *************** function _config_tmr0 *****************
  2763 ;; Defined at:
  2764 ;;		line 3 in file "src/timers/tmr0.c"
  2765 ;; Parameters:    Size  Location     Type
  2766 ;;		None
  2767 ;; Auto vars:     Size  Location     Type
  2768 ;;		None
  2769 ;; Return value:  Size  Location     Type
  2770 ;;                  1    wreg      void 
  2771 ;; Registers used:
  2772 ;;		wreg, status,2, status,0
  2773 ;; Tracked objects:
  2774 ;;		On entry : 0/0
  2775 ;;		On exit  : 0/0
  2776 ;;		Unchanged: 0/0
  2777 ;; Data sizes:     COMMON   BANK0   BANK1   BANK3   BANK2
  2778 ;;      Params:         0       0       0       0       0
  2779 ;;      Locals:         0       0       0       0       0
  2780 ;;      Temps:          0       0       0       0       0
  2781 ;;      Totals:         0       0       0       0       0
  2782 ;;Total ram usage:        0 bytes
  2783 ;; Hardware stack levels used: 1
  2784 ;; Hardware stack levels required when called: 10
  2785 ;; This function calls:
  2786 ;;		Nothing
  2787 ;; This function is called by:
  2788 ;;		_config_sma
  2789 ;; This function uses a non-reentrant model
  2790 ;;
  2791                           
  2792  0000'                    _config_tmr0:	
  2793                           ;psect for function _config_tmr0
  2794                           
  2795  0000'                    l4084:	
  2796                           ;incstack = 0
  2797 ;; hardware stack exceeded
  2798                           ; Regs used in _config_tmr0: [wreg+status,2+status,0]
  2799                           
  2800                           
  2801                           ;src/timers/tmr0.c: 5:     INTCONbits.GIE = 1;
  2802  0000' 178B               	bsf	11,7	;volatile
  2803                           
  2804                           ;src/timers/tmr0.c: 6:     INTCONbits.T0IE = 1;
  2805  0001' 168B               	bsf	11,5	;volatile
  2806                           
  2807                           ;src/timers/tmr0.c: 7:     OPTION_REGbits.T0CS = 0;
  2808  0002' 1683               	bsf	3,5	;RP0=1, select bank1
  2809  0003' 1303               	bcf	3,6	;RP1=0, select bank1
  2810  0004' 1281               	bcf	1,5	;volatile
  2811                           
  2812                           ;src/timers/tmr0.c: 8:     OPTION_REGbits.PSA = 0;
  2813  0005' 1181               	bcf	1,3	;volatile
  2814  0006'                    l4086:
  2815                           
  2816                           ;src/timers/tmr0.c: 9:     OPTION_REGbits.PS = 0b110;
  2817  0006' 0801               	movf	1,w	;volatile
  2818  0007' 39F8               	andlw	-8
  2819  0008' 3806               	iorlw	6
  2820  0009' 0081               	movwf	1	;volatile
  2821  000A'                    l4088:
  2822                           
  2823                           ;src/timers/tmr0.c: 10:     TMR0 = 61;
  2824  000A' 303D               	movlw	61
  2825  000B' 1283               	bcf	3,5	;RP0=0, select bank0
  2826  000C' 1303               	bcf	3,6	;RP1=0, select bank0
  2827  000D' 0081               	movwf	1	;volatile
  2828  000E'                    l4090:
  2829                           
  2830                           ;src/timers/tmr0.c: 11:     INTCONbits.T0IF = 0;
  2831  000E' 110B               	bcf	11,2	;volatile
  2832  000F'                    l187:
  2833  000F' 0008               	return
  2834  0010'                    __end_of_config_tmr0:
  2835                           
  2836                           	psect	text5
  2837  0000'                    __ptext5:	
  2838 ;; *************** function _config_pwm *****************
  2839 ;; Defined at:
  2840 ;;		line 11 in file "src/pwm/pwm.c"
  2841 ;; Parameters:    Size  Location     Type
  2842 ;;		None
  2843 ;; Auto vars:     Size  Location     Type
  2844 ;;		None
  2845 ;; Return value:  Size  Location     Type
  2846 ;;                  1    wreg      void 
  2847 ;; Registers used:
  2848 ;;		wreg, status,2, status,0, pclath, cstack
  2849 ;; Tracked objects:
  2850 ;;		On entry : 0/0
  2851 ;;		On exit  : 0/0
  2852 ;;		Unchanged: 0/0
  2853 ;; Data sizes:     COMMON   BANK0   BANK1   BANK3   BANK2
  2854 ;;      Params:         0       0       0       0       0
  2855 ;;      Locals:         0       0       0       0       0
  2856 ;;      Temps:          0       0       0       0       0
  2857 ;;      Totals:         0       0       0       0       0
  2858 ;;Total ram usage:        0 bytes
  2859 ;; Hardware stack levels used: 1
  2860 ;; Hardware stack levels required when called: 11
  2861 ;; This function calls:
  2862 ;;		_config_CCP1
  2863 ;;		_config_tmr2
  2864 ;; This function is called by:
  2865 ;;		_config_sma
  2866 ;; This function uses a non-reentrant model
  2867 ;;
  2868                           
  2869  0000'                    _config_pwm:	
  2870                           ;psect for function _config_pwm
  2871                           
  2872  0000'                    l4048:	
  2873                           ;incstack = 0
  2874 ;; hardware stack exceeded
  2875                           ; Regs used in _config_pwm: [wreg+status,2+status,0+pclath+cstack]
  2876                           
  2877                           
  2878                           ;src/pwm/pwm.c: 13:     TRISC = 0;
  2879  0000' 1683               	bsf	3,5	;RP0=1, select bank1
  2880  0001' 1303               	bcf	3,6	;RP1=0, select bank1
  2881  0002' 0187               	clrf	7	;volatile
  2882  0003'                    l4050:
  2883                           
  2884                           ;src/pwm/pwm.c: 14:     config_tmr2();
  2885  0003' 120A' 118A' 2000' 120A' 118A' 	fcall	_config_tmr2
  2886  0008'                    l4052:
  2887                           
  2888                           ;src/pwm/pwm.c: 15:     config_CCP1();
  2889  0008' 120A' 118A' 2000' 120A' 118A' 	fcall	_config_CCP1
  2890  000D'                    l120:
  2891  000D' 0008               	return
  2892  000E'                    __end_of_config_pwm:
  2893                           
  2894                           	psect	text6
  2895  0000'                    __ptext6:	
  2896 ;; *************** function _config_tmr2 *****************
  2897 ;; Defined at:
  2898 ;;		line 3 in file "src/timers/tmr2.c"
  2899 ;; Parameters:    Size  Location     Type
  2900 ;;		None
  2901 ;; Auto vars:     Size  Location     Type
  2902 ;;		None
  2903 ;; Return value:  Size  Location     Type
  2904 ;;                  1    wreg      void 
  2905 ;; Registers used:
  2906 ;;		wreg, status,2, status,0
  2907 ;; Tracked objects:
  2908 ;;		On entry : 0/0
  2909 ;;		On exit  : 0/0
  2910 ;;		Unchanged: 0/0
  2911 ;; Data sizes:     COMMON   BANK0   BANK1   BANK3   BANK2
  2912 ;;      Params:         0       0       0       0       0
  2913 ;;      Locals:         0       0       0       0       0
  2914 ;;      Temps:          0       0       0       0       0
  2915 ;;      Totals:         0       0       0       0       0
  2916 ;;Total ram usage:        0 bytes
  2917 ;; Hardware stack levels used: 1
  2918 ;; Hardware stack levels required when called: 10
  2919 ;; This function calls:
  2920 ;;		Nothing
  2921 ;; This function is called by:
  2922 ;;		_config_pwm
  2923 ;; This function uses a non-reentrant model
  2924 ;;
  2925                           
  2926  0000'                    _config_tmr2:	
  2927                           ;psect for function _config_tmr2
  2928                           
  2929  0000'                    l3946:	
  2930                           ;incstack = 0
  2931 ;; hardware stack exceeded
  2932                           ; Regs used in _config_tmr2: [wreg+status,2+status,0]
  2933                           
  2934                           
  2935                           ;src/timers/tmr2.c: 5:     INTCONbits.GIE = 1;
  2936  0000' 178B               	bsf	11,7	;volatile
  2937                           
  2938                           ;src/timers/tmr2.c: 6:     INTCONbits.PEIE = 1;
  2939  0001' 170B               	bsf	11,6	;volatile
  2940                           
  2941                           ;src/timers/tmr2.c: 8:     T2CONbits.TMR2ON = 1;
  2942  0002' 1283               	bcf	3,5	;RP0=0, select bank0
  2943  0003' 1303               	bcf	3,6	;RP1=0, select bank0
  2944  0004' 1512               	bsf	18,2	;volatile
  2945  0005'                    l3948:
  2946                           
  2947                           ;src/timers/tmr2.c: 9:     T2CONbits.T2CKPS = 0b10;
  2948  0005' 0812               	movf	18,w	;volatile
  2949  0006' 39FC               	andlw	-4
  2950  0007' 3802               	iorlw	2
  2951  0008' 0092               	movwf	18	;volatile
  2952                           
  2953                           ;src/timers/tmr2.c: 10:     T2CONbits.TOUTPS = 0b0000;
  2954  0009' 3087               	movlw	-121
  2955  000A' 0592               	andwf	18,f	;volatile
  2956  000B'                    l3950:
  2957                           
  2958                           ;src/timers/tmr2.c: 12:     PIE1bits.TMR2IE= 1;
  2959  000B' 1683               	bsf	3,5	;RP0=1, select bank1
  2960  000C' 1303               	bcf	3,6	;RP1=0, select bank1
  2961  000D' 148C               	bsf	12,1	;volatile
  2962  000E'                    l3952:
  2963                           
  2964                           ;src/timers/tmr2.c: 13:     PIR1bits.TMR2IF = 0;
  2965  000E' 1283               	bcf	3,5	;RP0=0, select bank0
  2966  000F' 1303               	bcf	3,6	;RP1=0, select bank0
  2967  0010' 108C               	bcf	12,1	;volatile
  2968  0011'                    l3954:
  2969                           
  2970                           ;src/timers/tmr2.c: 15:     PR2 = 10;
  2971  0011' 300A               	movlw	10
  2972  0012' 1683               	bsf	3,5	;RP0=1, select bank1
  2973  0013' 1303               	bcf	3,6	;RP1=0, select bank1
  2974  0014' 0092               	movwf	18	;volatile
  2975  0015'                    l200:
  2976  0015' 0008               	return
  2977  0016'                    __end_of_config_tmr2:
  2978                           
  2979                           	psect	text7
  2980  0000'                    __ptext7:	
  2981 ;; *************** function _config_CCP1 *****************
  2982 ;; Defined at:
  2983 ;;		line 3 in file "src/pwm/pwm.c"
  2984 ;; Parameters:    Size  Location     Type
  2985 ;;		None
  2986 ;; Auto vars:     Size  Location     Type
  2987 ;;		None
  2988 ;; Return value:  Size  Location     Type
  2989 ;;                  1    wreg      void 
  2990 ;; Registers used:
  2991 ;;		wreg, status,2, status,0
  2992 ;; Tracked objects:
  2993 ;;		On entry : 0/0
  2994 ;;		On exit  : 0/0
  2995 ;;		Unchanged: 0/0
  2996 ;; Data sizes:     COMMON   BANK0   BANK1   BANK3   BANK2
  2997 ;;      Params:         0       0       0       0       0
  2998 ;;      Locals:         0       0       0       0       0
  2999 ;;      Temps:          0       0       0       0       0
  3000 ;;      Totals:         0       0       0       0       0
  3001 ;;Total ram usage:        0 bytes
  3002 ;; Hardware stack levels used: 1
  3003 ;; Hardware stack levels required when called: 10
  3004 ;; This function calls:
  3005 ;;		Nothing
  3006 ;; This function is called by:
  3007 ;;		_config_pwm
  3008 ;; This function uses a non-reentrant model
  3009 ;;
  3010                           
  3011  0000'                    _config_CCP1:	
  3012                           ;psect for function _config_CCP1
  3013                           
  3014  0000'                    l3942:	
  3015                           ;incstack = 0
  3016 ;; hardware stack exceeded
  3017                           ; Regs used in _config_CCP1: [wreg+status,2+status,0]
  3018                           
  3019                           
  3020                           ;src/pwm/pwm.c: 5:     CCP1CONbits.P1M = 0b00;
  3021  0000' 303F               	movlw	-193
  3022  0001' 1283               	bcf	3,5	;RP0=0, select bank0
  3023  0002' 1303               	bcf	3,6	;RP1=0, select bank0
  3024  0003' 0597               	andwf	23,f	;volatile
  3025                           
  3026                           ;src/pwm/pwm.c: 6:     CCP1CONbits.DC1B = 0b1;
  3027  0004' 0817               	movf	23,w	;volatile
  3028  0005' 39CF               	andlw	-49
  3029  0006' 3810               	iorlw	16
  3030  0007' 0097               	movwf	23	;volatile
  3031                           
  3032                           ;src/pwm/pwm.c: 7:     CCP1CONbits.CCP1M = 0b1100;
  3033  0008' 0817               	movf	23,w	;volatile
  3034  0009' 39F0               	andlw	-16
  3035  000A' 380C               	iorlw	12
  3036  000B' 0097               	movwf	23	;volatile
  3037  000C'                    l3944:
  3038                           
  3039                           ;src/pwm/pwm.c: 8:     CCPR1L = 10;
  3040  000C' 300A               	movlw	10
  3041  000D' 0095               	movwf	21	;volatile
  3042  000E'                    l117:
  3043  000E' 0008               	return
  3044  000F'                    __end_of_config_CCP1:
  3045                           
  3046                           	psect	text8
  3047  0000'                    __ptext8:	
  3048 ;; *************** function _config_luminosity *****************
  3049 ;; Defined at:
  3050 ;;		line 3 in file "src/sensors/luminosity.c"
  3051 ;; Parameters:    Size  Location     Type
  3052 ;;		None
  3053 ;; Auto vars:     Size  Location     Type
  3054 ;;		None
  3055 ;; Return value:  Size  Location     Type
  3056 ;;                  1    wreg      void 
  3057 ;; Registers used:
  3058 ;;		wreg, status,2, status,0, pclath, cstack
  3059 ;; Tracked objects:
  3060 ;;		On entry : 0/0
  3061 ;;		On exit  : 0/0
  3062 ;;		Unchanged: 0/0
  3063 ;; Data sizes:     COMMON   BANK0   BANK1   BANK3   BANK2
  3064 ;;      Params:         0       0       0       0       0
  3065 ;;      Locals:         0       0       0       0       0
  3066 ;;      Temps:          0       0       0       0       0
  3067 ;;      Totals:         0       0       0       0       0
  3068 ;;Total ram usage:        0 bytes
  3069 ;; Hardware stack levels used: 1
  3070 ;; Hardware stack levels required when called: 12
  3071 ;; This function calls:
  3072 ;;		_i2c_start
  3073 ;;		_i2c_stop
  3074 ;;		_i2c_write
  3075 ;; This function is called by:
  3076 ;;		_config_sma
  3077 ;; This function uses a non-reentrant model
  3078 ;;
  3079                           
  3080  0000'                    _config_luminosity:	
  3081                           ;psect for function _config_luminosity
  3082                           
  3083  0000'                    l4054:	
  3084                           ;incstack = 0
  3085 ;; hardware stack exceeded
  3086                           ; Regs used in _config_luminosity: [wreg+status,2+status,0+pclath+cstack]
  3087                           
  3088                           
  3089                           ;src/sensors/luminosity.c: 5:     i2c_start();
  3090  0000' 120A' 118A' 2000' 120A' 118A' 	fcall	_i2c_start
  3091  0005'                    l4056:
  3092                           
  3093                           ;src/sensors/luminosity.c: 6:     i2c_write(0x21);
  3094  0005' 3021               	movlw	33
  3095  0006' 120A' 118A' 2000' 120A' 118A' 	fcall	_i2c_write
  3096  000B'                    l4058:
  3097                           
  3098                           ;src/sensors/luminosity.c: 7:     i2c_write(0x00);
  3099  000B' 3000               	movlw	0
  3100  000C' 120A' 118A' 2000' 120A' 118A' 	fcall	_i2c_write
  3101  0011'                    l4060:
  3102                           
  3103                           ;src/sensors/luminosity.c: 8:     i2c_write(0x00);
  3104  0011' 3000               	movlw	0
  3105  0012' 120A' 118A' 2000' 120A' 118A' 	fcall	_i2c_write
  3106  0017'                    l4062:
  3107                           
  3108                           ;src/sensors/luminosity.c: 9:     i2c_write(0x03);
  3109  0017' 3003               	movlw	3
  3110  0018' 120A' 118A' 2000' 120A' 118A' 	fcall	_i2c_write
  3111                           
  3112                           ;src/sensors/luminosity.c: 10:     i2c_stop();
  3113  001D' 120A' 118A' 2000' 120A' 118A' 	fcall	_i2c_stop
  3114                           
  3115                           ;src/sensors/luminosity.c: 12:     i2c_start();
  3116  0022' 120A' 118A' 2000' 120A' 118A' 	fcall	_i2c_start
  3117  0027'                    l4064:
  3118                           
  3119                           ;src/sensors/luminosity.c: 13:     i2c_write(0x01);
  3120  0027' 3001               	movlw	1
  3121  0028' 120A' 118A' 2000' 120A' 118A' 	fcall	_i2c_write
  3122  002D'                    l4066:
  3123                           
  3124                           ;src/sensors/luminosity.c: 14:     i2c_write(0xFF);
  3125  002D' 30FF               	movlw	255
  3126  002E' 120A' 118A' 2000' 120A' 118A' 	fcall	_i2c_write
  3127  0033'                    l4068:
  3128                           
  3129                           ;src/sensors/luminosity.c: 15:     i2c_write(0xFF);
  3130  0033' 30FF               	movlw	255
  3131  0034' 120A' 118A' 2000' 120A' 118A' 	fcall	_i2c_write
  3132  0039'                    l4070:
  3133                           
  3134                           ;src/sensors/luminosity.c: 16:     i2c_stop();
  3135  0039' 120A' 118A' 2000' 120A' 118A' 	fcall	_i2c_stop
  3136  003E'                    l4072:
  3137                           
  3138                           ;src/sensors/luminosity.c: 18:     i2c_start();
  3139  003E' 120A' 118A' 2000' 120A' 118A' 	fcall	_i2c_start
  3140  0043'                    l4074:
  3141                           
  3142                           ;src/sensors/luminosity.c: 19:     i2c_write(0x02);
  3143  0043' 3002               	movlw	2
  3144  0044' 120A' 118A' 2000' 120A' 118A' 	fcall	_i2c_write
  3145  0049'                    l4076:
  3146                           
  3147                           ;src/sensors/luminosity.c: 20:     i2c_write(0x00);
  3148  0049' 3000               	movlw	0
  3149  004A' 120A' 118A' 2000' 120A' 118A' 	fcall	_i2c_write
  3150  004F'                    l4078:
  3151                           
  3152                           ;src/sensors/luminosity.c: 21:     i2c_write(0x00);
  3153  004F' 3000               	movlw	0
  3154  0050' 120A' 118A' 2000' 120A' 118A' 	fcall	_i2c_write
  3155                           
  3156                           ;src/sensors/luminosity.c: 22:     i2c_stop();
  3157  0055' 120A' 118A' 2000' 120A' 118A' 	fcall	_i2c_stop
  3158                           
  3159                           ;src/sensors/luminosity.c: 24:     i2c_start();
  3160  005A' 120A' 118A' 2000' 120A' 118A' 	fcall	_i2c_start
  3161  005F'                    l4080:
  3162                           
  3163                           ;src/sensors/luminosity.c: 25:     i2c_write(0x04);
  3164  005F' 3004               	movlw	4
  3165  0060' 120A' 118A' 2000' 120A' 118A' 	fcall	_i2c_write
  3166  0065'                    l4082:
  3167                           
  3168                           ;src/sensors/luminosity.c: 26:     i2c_stop();
  3169  0065' 120A' 118A' 2000' 120A' 118A' 	fcall	_i2c_stop
  3170  006A'                    l152:
  3171  006A' 0008               	return
  3172  006B'                    __end_of_config_luminosity:
  3173                           
  3174                           	psect	text9
  3175  0000'                    __ptext9:	
  3176 ;; *************** function _i2c_write *****************
  3177 ;; Defined at:
  3178 ;;		line 45 in file "src/protocols/I2C/i2c-v2.c"
  3179 ;; Parameters:    Size  Location     Type
  3180 ;;  I2C_data        1    wreg     unsigned char 
  3181 ;; Auto vars:     Size  Location     Type
  3182 ;;  I2C_data        1    0[BANK3 ] unsigned char 
  3183 ;; Return value:  Size  Location     Type
  3184 ;;                  1    wreg      unsigned char 
  3185 ;; Registers used:
  3186 ;;		wreg, status,2, status,0, pclath, cstack
  3187 ;; Tracked objects:
  3188 ;;		On entry : 0/0
  3189 ;;		On exit  : 0/0
  3190 ;;		Unchanged: 0/0
  3191 ;; Data sizes:     COMMON   BANK0   BANK1   BANK3   BANK2
  3192 ;;      Params:         0       0       0       0       0
  3193 ;;      Locals:         0       0       0       1       0
  3194 ;;      Temps:          0       0       0       0       0
  3195 ;;      Totals:         0       0       0       1       0
  3196 ;;Total ram usage:        1 bytes
  3197 ;; Hardware stack levels used: 1
  3198 ;; Hardware stack levels required when called: 11
  3199 ;; This function calls:
  3200 ;;		_wait_MSSP
  3201 ;; This function is called by:
  3202 ;;		_config_luminosity
  3203 ;; This function uses a non-reentrant model
  3204 ;;
  3205                           
  3206  0000'                    _i2c_write:	
  3207                           ;psect for function _i2c_write
  3208                           
  3209                           
  3210                           ;incstack = 0
  3211 ;; hardware stack exceeded
  3212                           ; Regs used in _i2c_write: [wreg+status,2+status,0+pclath+cstack]
  3213                           ;i2c_write@I2C_data stored from wreg
  3214  0000' 1683               	bsf	3,5	;RP0=1, select bank3
  3215  0001' 1703               	bsf	3,6	;RP1=1, select bank3
  3216  0002' 0080'              	movwf	i2c_write@I2C_data^(0+384)
  3217  0003'                    l3934:
  3218                           
  3219                           ;src/protocols/I2C/i2c-v2.c: 45: unsigned char i2c_write(unsigned char I2C_data);src/pro
      +                          tocols/I2C/i2c-v2.c: 46: {;src/protocols/I2C/i2c-v2.c: 47:     SSPBUF = I2C_data;
  3220  0003' 0800'              	movf	i2c_write@I2C_data^(0+384),w
  3221  0004' 1283               	bcf	3,5	;RP0=0, select bank0
  3222  0005' 1303               	bcf	3,6	;RP1=0, select bank0
  3223  0006' 0093               	movwf	19	;volatile
  3224  0007'                    l3936:
  3225                           
  3226                           ;src/protocols/I2C/i2c-v2.c: 48:     wait_MSSP();
  3227  0007' 120A' 118A' 2000' 120A' 118A' 	fcall	_wait_MSSP
  3228  000C'                    l3938:
  3229                           
  3230                           ;src/protocols/I2C/i2c-v2.c: 49:     return((unsigned char)!SSPCON2bits.ACKSTAT);;	Retur
      +                          n value of _i2c_write is never used
  3231  000C' 1683               	bsf	3,5	;RP0=1, select bank1
  3232  000D' 1303               	bcf	3,6	;RP1=0, select bank1
  3233  000E' 0811               	movf	17,w	;volatile
  3234  000F'                    l101:
  3235  000F' 0008               	return
  3236  0010'                    __end_of_i2c_write:
  3237                           
  3238                           	psect	text10
  3239  0000'                    __ptext10:	
  3240 ;; *************** function _i2c_stop *****************
  3241 ;; Defined at:
  3242 ;;		line 31 in file "src/protocols/I2C/i2c-v2.c"
  3243 ;; Parameters:    Size  Location     Type
  3244 ;;		None
  3245 ;; Auto vars:     Size  Location     Type
  3246 ;;		None
  3247 ;; Return value:  Size  Location     Type
  3248 ;;                  1    wreg      void 
  3249 ;; Registers used:
  3250 ;;		status,2, status,0, pclath, cstack
  3251 ;; Tracked objects:
  3252 ;;		On entry : 0/0
  3253 ;;		On exit  : 0/0
  3254 ;;		Unchanged: 0/0
  3255 ;; Data sizes:     COMMON   BANK0   BANK1   BANK3   BANK2
  3256 ;;      Params:         0       0       0       0       0
  3257 ;;      Locals:         0       0       0       0       0
  3258 ;;      Temps:          0       0       0       0       0
  3259 ;;      Totals:         0       0       0       0       0
  3260 ;;Total ram usage:        0 bytes
  3261 ;; Hardware stack levels used: 1
  3262 ;; Hardware stack levels required when called: 11
  3263 ;; This function calls:
  3264 ;;		_wait_MSSP
  3265 ;; This function is called by:
  3266 ;;		_config_luminosity
  3267 ;; This function uses a non-reentrant model
  3268 ;;
  3269                           
  3270  0000'                    _i2c_stop:	
  3271                           ;psect for function _i2c_stop
  3272                           
  3273  0000'                    l3928:	
  3274                           ;incstack = 0
  3275 ;; hardware stack exceeded
  3276                           ; Regs used in _i2c_stop: [status,2+status,0+pclath+cstack]
  3277                           
  3278                           
  3279                           ;src/protocols/I2C/i2c-v2.c: 33:     SSPCON2bits.PEN = 1;
  3280  0000' 1683               	bsf	3,5	;RP0=1, select bank1
  3281  0001' 1303               	bcf	3,6	;RP1=0, select bank1
  3282  0002' 1511               	bsf	17,2	;volatile
  3283  0003'                    l3930:
  3284                           
  3285                           ;src/protocols/I2C/i2c-v2.c: 34:     wait_MSSP();
  3286  0003' 120A' 118A' 2000' 120A' 118A' 	fcall	_wait_MSSP
  3287  0008'                    l95:
  3288  0008' 0008               	return
  3289  0009'                    __end_of_i2c_stop:
  3290                           
  3291                           	psect	text11
  3292  0000'                    __ptext11:	
  3293 ;; *************** function _i2c_start *****************
  3294 ;; Defined at:
  3295 ;;		line 24 in file "src/protocols/I2C/i2c-v2.c"
  3296 ;; Parameters:    Size  Location     Type
  3297 ;;		None
  3298 ;; Auto vars:     Size  Location     Type
  3299 ;;		None
  3300 ;; Return value:  Size  Location     Type
  3301 ;;                  1    wreg      void 
  3302 ;; Registers used:
  3303 ;;		status,2, status,0, pclath, cstack
  3304 ;; Tracked objects:
  3305 ;;		On entry : 0/0
  3306 ;;		On exit  : 0/0
  3307 ;;		Unchanged: 0/0
  3308 ;; Data sizes:     COMMON   BANK0   BANK1   BANK3   BANK2
  3309 ;;      Params:         0       0       0       0       0
  3310 ;;      Locals:         0       0       0       0       0
  3311 ;;      Temps:          0       0       0       0       0
  3312 ;;      Totals:         0       0       0       0       0
  3313 ;;Total ram usage:        0 bytes
  3314 ;; Hardware stack levels used: 1
  3315 ;; Hardware stack levels required when called: 11
  3316 ;; This function calls:
  3317 ;;		_wait_MSSP
  3318 ;; This function is called by:
  3319 ;;		_config_luminosity
  3320 ;; This function uses a non-reentrant model
  3321 ;;
  3322                           
  3323  0000'                    _i2c_start:	
  3324                           ;psect for function _i2c_start
  3325                           
  3326  0000'                    l3922:	
  3327                           ;incstack = 0
  3328 ;; hardware stack exceeded
  3329                           ; Regs used in _i2c_start: [status,2+status,0+pclath+cstack]
  3330                           
  3331                           
  3332                           ;src/protocols/I2C/i2c-v2.c: 26:     SSPCON2bits.SEN = 1;
  3333  0000' 1683               	bsf	3,5	;RP0=1, select bank1
  3334  0001' 1303               	bcf	3,6	;RP1=0, select bank1
  3335  0002' 1411               	bsf	17,0	;volatile
  3336  0003'                    l3924:
  3337                           
  3338                           ;src/protocols/I2C/i2c-v2.c: 27:     wait_MSSP();
  3339  0003' 120A' 118A' 2000' 120A' 118A' 	fcall	_wait_MSSP
  3340  0008'                    l92:
  3341  0008' 0008               	return
  3342  0009'                    __end_of_i2c_start:
  3343                           
  3344                           	psect	text12
  3345  0000'                    __ptext12:	
  3346 ;; *************** function _wait_MSSP *****************
  3347 ;; Defined at:
  3348 ;;		line 16 in file "src/protocols/I2C/i2c-v2.c"
  3349 ;; Parameters:    Size  Location     Type
  3350 ;;		None
  3351 ;; Auto vars:     Size  Location     Type
  3352 ;;		None
  3353 ;; Return value:  Size  Location     Type
  3354 ;;                  1    wreg      void 
  3355 ;; Registers used:
  3356 ;;		None
  3357 ;; Tracked objects:
  3358 ;;		On entry : 0/0
  3359 ;;		On exit  : 0/0
  3360 ;;		Unchanged: 0/0
  3361 ;; Data sizes:     COMMON   BANK0   BANK1   BANK3   BANK2
  3362 ;;      Params:         0       0       0       0       0
  3363 ;;      Locals:         0       0       0       0       0
  3364 ;;      Temps:          0       0       0       0       0
  3365 ;;      Totals:         0       0       0       0       0
  3366 ;;Total ram usage:        0 bytes
  3367 ;; Hardware stack levels used: 1
  3368 ;; Hardware stack levels required when called: 10
  3369 ;; This function calls:
  3370 ;;		Nothing
  3371 ;; This function is called by:
  3372 ;;		_i2c_start
  3373 ;;		_i2c_stop
  3374 ;;		_i2c_write
  3375 ;;		_i2c_rstart
  3376 ;; This function uses a non-reentrant model
  3377 ;;
  3378                           
  3379  0000'                    _wait_MSSP:	
  3380                           ;psect for function _wait_MSSP
  3381                           
  3382  0000'                    l3808:	
  3383                           ;incstack = 0
  3384 ;; hardware stack exceeded
  3385                           ; Regs used in _wait_MSSP: []
  3386                           
  3387  0000'                    l86:	
  3388                           ;src/protocols/I2C/i2c-v2.c: 18:     while(!PIR1bits.SSPIF);
  3389                           
  3390  0000' 1283               	bcf	3,5	;RP0=0, select bank0
  3391  0001' 1303               	bcf	3,6	;RP1=0, select bank0
  3392  0002' 1D8C               	btfss	12,3	;volatile
  3393  0003' 2800'              	goto	u5291
  3394  0004' 2800'              	goto	u5290
  3395  0005'                    u5291:
  3396  0005' 2800'              	goto	l86
  3397  0006'                    u5290:
  3398  0006'                    l88:
  3399                           
  3400                           ;src/protocols/I2C/i2c-v2.c: 20:     PIR1bits.SSPIF = 0;
  3401  0006' 118C               	bcf	12,3	;volatile
  3402  0007'                    l89:	
  3403                           ;src/protocols/I2C/i2c-v2.c: 21:     return;
  3404                           
  3405  0007' 0008               	return
  3406  0008'                    __end_of_wait_MSSP:
  3407                           
  3408                           	psect	text13
  3409  0000'                    __ptext13:	
  3410 ;; *************** function _config_adc_channel *****************
  3411 ;; Defined at:
  3412 ;;		line 3 in file "src/adc/adc.c"
  3413 ;; Parameters:    Size  Location     Type
  3414 ;;		None
  3415 ;; Auto vars:     Size  Location     Type
  3416 ;;		None
  3417 ;; Return value:  Size  Location     Type
  3418 ;;                  1    wreg      void 
  3419 ;; Registers used:
  3420 ;;		wreg, status,2, status,0
  3421 ;; Tracked objects:
  3422 ;;		On entry : 0/0
  3423 ;;		On exit  : 0/0
  3424 ;;		Unchanged: 0/0
  3425 ;; Data sizes:     COMMON   BANK0   BANK1   BANK3   BANK2
  3426 ;;      Params:         0       0       0       0       0
  3427 ;;      Locals:         0       0       0       0       0
  3428 ;;      Temps:          0       0       0       0       0
  3429 ;;      Totals:         0       0       0       0       0
  3430 ;;Total ram usage:        0 bytes
  3431 ;; Hardware stack levels used: 1
  3432 ;; Hardware stack levels required when called: 10
  3433 ;; This function calls:
  3434 ;;		Nothing
  3435 ;; This function is called by:
  3436 ;;		_config_sma
  3437 ;; This function uses a non-reentrant model
  3438 ;;
  3439                           
  3440  0000'                    _config_adc_channel:	
  3441                           ;psect for function _config_adc_channel
  3442                           
  3443  0000'                    l3986:	
  3444                           ;incstack = 0
  3445 ;; hardware stack exceeded
  3446                           ; Regs used in _config_adc_channel: [wreg+status,2+status,0]
  3447                           
  3448                           
  3449                           ;src/adc/adc.c: 5:     ADCON0bits.ADON = 1;
  3450  0000' 1283               	bcf	3,5	;RP0=0, select bank0
  3451  0001' 1303               	bcf	3,6	;RP1=0, select bank0
  3452  0002' 141F               	bsf	31,0	;volatile
  3453                           
  3454                           ;src/adc/adc.c: 6:     ADCON1bits.VCFG0 = 0;
  3455  0003' 1683               	bsf	3,5	;RP0=1, select bank1
  3456  0004' 1303               	bcf	3,6	;RP1=0, select bank1
  3457  0005' 121F               	bcf	31,4	;volatile
  3458                           
  3459                           ;src/adc/adc.c: 7:     ADCON1bits.VCFG1 = 0;
  3460  0006' 129F               	bcf	31,5	;volatile
  3461                           
  3462                           ;src/adc/adc.c: 8:     ADCON1bits.ADFM = 1;
  3463  0007' 179F               	bsf	31,7	;volatile
  3464  0008'                    l3988:
  3465                           
  3466                           ;src/adc/adc.c: 9:     ADCON0bits.ADCS = 0b10;
  3467  0008' 1283               	bcf	3,5	;RP0=0, select bank0
  3468  0009' 1303               	bcf	3,6	;RP1=0, select bank0
  3469  000A' 081F               	movf	31,w	;volatile
  3470  000B' 393F               	andlw	-193
  3471  000C' 3880               	iorlw	128
  3472  000D' 009F               	movwf	31	;volatile
  3473  000E'                    l19:
  3474  000E' 0008               	return
  3475  000F'                    __end_of_config_adc_channel:
  3476                           
  3477                           	psect	text14
  3478  0000'                    __ptext14:	
  3479 ;; *************** function _interrupt_rutine *****************
  3480 ;; Defined at:
  3481 ;;		line 60 in file "main.c"
  3482 ;; Parameters:    Size  Location     Type
  3483 ;;		None
  3484 ;; Auto vars:     Size  Location     Type
  3485 ;;		None
  3486 ;; Return value:  Size  Location     Type
  3487 ;;                  1    wreg      void 
  3488 ;; Registers used:
  3489 ;;		wreg, fsr0l, fsr0h, status,2, status,0, btemp+1, pclath, cstack
  3490 ;; Tracked objects:
  3491 ;;		On entry : 0/0
  3492 ;;		On exit  : 0/0
  3493 ;;		Unchanged: 0/0
  3494 ;; Data sizes:     COMMON   BANK0   BANK1   BANK3   BANK2
  3495 ;;      Params:         0       0       0       0       0
  3496 ;;      Locals:         0       0       0       0       0
  3497 ;;      Temps:          0       0       8       0       0
  3498 ;;      Totals:         0       0       8       0       0
  3499 ;;Total ram usage:        8 bytes
  3500 ;; Hardware stack levels used: 1
  3501 ;; Hardware stack levels required when called: 9
  3502 ;; This function calls:
  3503 ;;		___awdiv
  3504 ;;		___awmod
  3505 ;;		___fldiv
  3506 ;;		___xxtofl
  3507 ;;		_change_brightness_lamp
  3508 ;;		_change_color_lamp
  3509 ;;		_read_co2_environment
  3510 ;;		_read_humidity_channel
  3511 ;;		_read_luminosity
  3512 ;;		_read_noise_channel
  3513 ;;		_read_temperature
  3514 ;;		_receive_uart
  3515 ;;		_reset_best_noise
  3516 ;;		_send_PWM_sign
  3517 ;;		_send_float_to_uart
  3518 ;;		_send_uint16t_to_uart
  3519 ;;		_take_best_noise
  3520 ;; This function is called by:
  3521 ;;		Interrupt level 1
  3522 ;; This function uses a non-reentrant model
  3523 ;;
  3524                           
  3525  0000'                    _interrupt_rutine:	
  3526                           ;psect for function _interrupt_rutine
  3527                           
  3528  0000'                    i1l4242:
  3529                           
  3530                           ;main.c: 62:     if(PIR1bits.RCIF)
  3531  0000' 1283               	bcf	3,5	;RP0=0, select bank0
  3532  0001' 1303               	bcf	3,6	;RP1=0, select bank0
  3533  0002' 1E8C               	btfss	12,5	;volatile
  3534  0003' 2800'              	goto	u563_21
  3535  0004' 2800'              	goto	u563_20
  3536  0005'                    u563_21:
  3537  0005' 2800'              	goto	i1l4270
  3538  0006'                    u563_20:
  3539  0006'                    i1l4244:
  3540                           
  3541                           ;main.c: 63:     {;main.c: 64:         serial = receive_uart();
  3542  0006' 120A' 118A' 2000' 120A' 118A' 	fcall	_receive_uart
  3543  000B' 1683               	bsf	3,5	;RP0=1, select bank1
  3544  000C' 1303               	bcf	3,6	;RP1=0, select bank1
  3545  000D' 0080'              	movwf	_serial^(0+128)
  3546  000E'                    i1l4246:
  3547                           
  3548                           ;main.c: 65:         if(serial == 'S')
  3549  000E' 3053               	movlw	83
  3550  000F' 0600'              	xorwf	_serial^(0+128),w
  3551  0010' 1D03               	btfss	3,2
  3552  0011' 2800'              	goto	u564_21
  3553  0012' 2800'              	goto	u564_20
  3554  0013'                    u564_21:
  3555  0013' 2800'              	goto	i1l4250
  3556  0014'                    u564_20:
  3557  0014'                    i1l4248:
  3558                           
  3559                           ;main.c: 66:             send_PWM_sign((float)receive_uart()/100);
  3560  0014' 3042               	movlw	66
  3561  0015' 1283               	bcf	3,5	;RP0=0, select bank0
  3562  0016' 1303               	bcf	3,6	;RP1=0, select bank0
  3563  0017' 0097'              	movwf	___fldiv@a+3
  3564  0018' 30C8               	movlw	200
  3565  0019' 0096'              	movwf	___fldiv@a+2
  3566  001A' 3000               	movlw	0
  3567  001B' 0095'              	movwf	___fldiv@a+1
  3568  001C' 3000               	movlw	0
  3569  001D' 0094'              	movwf	___fldiv@a
  3570  001E' 120A' 118A' 2000' 120A' 118A' 	fcall	_receive_uart
  3571  0023' 1683               	bsf	3,5	;RP0=1, select bank1
  3572  0024' 1303               	bcf	3,6	;RP1=0, select bank1
  3573  0025' 0080'              	movwf	??_interrupt_rutine^(0+128)
  3574  0026' 0181'              	clrf	(??_interrupt_rutine^(0+128)+1)
  3575  0027' 0182'              	clrf	(??_interrupt_rutine^(0+128)+2)
  3576  0028' 0183'              	clrf	(??_interrupt_rutine^(0+128)+3)
  3577  0029' 0800'              	movf	(??_interrupt_rutine+3)^(0+128),w
  3578  002A' 0083'              	movwf	___xxtofl@val+3
  3579  002B' 0800'              	movf	(??_interrupt_rutine+2)^(0+128),w
  3580  002C' 0082'              	movwf	___xxtofl@val+2
  3581  002D' 0800'              	movf	(??_interrupt_rutine+1)^(0+128),w
  3582  002E' 0081'              	movwf	___xxtofl@val+1
  3583  002F' 0800'              	movf	??_interrupt_rutine^(0+128),w
  3584  0030' 0080'              	movwf	___xxtofl@val
  3585  0031' 3000               	movlw	0
  3586  0032' 120A' 118A' 2000' 120A' 118A' 	fcall	___xxtofl
  3587  0037' 0803'              	movf	?___xxtofl+3,w
  3588  0038' 1283               	bcf	3,5	;RP0=0, select bank0
  3589  0039' 1303               	bcf	3,6	;RP1=0, select bank0
  3590  003A' 009B'              	movwf	___fldiv@b+3
  3591  003B' 0802'              	movf	?___xxtofl+2,w
  3592  003C' 009A'              	movwf	___fldiv@b+2
  3593  003D' 0801'              	movf	?___xxtofl+1,w
  3594  003E' 0099'              	movwf	___fldiv@b+1
  3595  003F' 0800'              	movf	?___xxtofl,w
  3596  0040' 0098'              	movwf	___fldiv@b
  3597  0041' 120A' 118A' 2000' 120A' 118A' 	fcall	___fldiv
  3598  0046' 1283               	bcf	3,5	;RP0=0, select bank0
  3599  0047' 1303               	bcf	3,6	;RP1=0, select bank0
  3600  0048' 0817'              	movf	?___fldiv+3,w
  3601  0049' 00B1'              	movwf	send_PWM_sign@percent+3
  3602  004A' 0816'              	movf	?___fldiv+2,w
  3603  004B' 00B0'              	movwf	send_PWM_sign@percent+2
  3604  004C' 0815'              	movf	?___fldiv+1,w
  3605  004D' 00AF'              	movwf	send_PWM_sign@percent+1
  3606  004E' 0814'              	movf	?___fldiv,w
  3607  004F' 00AE'              	movwf	send_PWM_sign@percent
  3608  0050' 120A' 118A' 2000' 120A' 118A' 	fcall	_send_PWM_sign
  3609  0055' 2800'              	goto	i1l4268
  3610  0056'                    i1l4250:
  3611                           
  3612                           ;main.c: 68:         {;main.c: 69:             for(i = 1; i < 8; i++)
  3613  0056' 3001               	movlw	1
  3614  0057' 1683               	bsf	3,5	;RP0=1, select bank3
  3615  0058' 1703               	bsf	3,6	;RP1=1, select bank3
  3616  0059' 0080'              	movwf	_i^(0+384)
  3617  005A' 3000               	movlw	0
  3618  005B' 0081'              	movwf	(_i^(0+384)+1)
  3619  005C'                    i1l4252:
  3620  005C' 0800'              	movf	(_i+1)^(0+384),w
  3621  005D' 3A80               	xorlw	128
  3622  005E' 00FF               	movwf	btemp+1
  3623  005F' 3080               	movlw	128
  3624  0060' 027F               	subwf	btemp+1,w
  3625  0061' 1D03               	skipz
  3626  0062' 2800'              	goto	u565_25
  3627  0063' 3008               	movlw	8
  3628  0064' 0200'              	subwf	_i^(0+384),w
  3629  0065'                    u565_25:
  3630  0065' 1C03               	skipc
  3631  0066' 2800'              	goto	u565_21
  3632  0067' 2800'              	goto	u565_20
  3633  0068'                    u565_21:
  3634  0068' 2800'              	goto	i1l4256
  3635  0069'                    u565_20:
  3636  0069' 2800'              	goto	i1l4266
  3637  006A'                    i1l4256:
  3638                           
  3639                           ;main.c: 70:             {;main.c: 71:                 serial = receive_uart();
  3640  006A' 120A' 118A' 2000' 120A' 118A' 	fcall	_receive_uart
  3641  006F' 1683               	bsf	3,5	;RP0=1, select bank1
  3642  0070' 1303               	bcf	3,6	;RP1=0, select bank1
  3643  0071' 0080'              	movwf	_serial^(0+128)
  3644  0072'                    i1l4258:
  3645                           
  3646                           ;main.c: 72:                 if(i%2==1)
  3647  0072' 1683               	bsf	3,5	;RP0=1, select bank3
  3648  0073' 1703               	bsf	3,6	;RP1=1, select bank3
  3649  0074' 1C00'              	btfss	_i^(0+384),0
  3650  0075' 2800'              	goto	u566_21
  3651  0076' 2800'              	goto	u566_20
  3652  0077'                    u566_21:
  3653  0077' 2800'              	goto	i1l4262
  3654  0078'                    u566_20:
  3655  0078'                    i1l4260:
  3656                           
  3657                           ;main.c: 73:                     lamp[i/2]= serial;
  3658  0078' 3002               	movlw	2
  3659  0079' 0080'              	movwf	___awdiv@divisor
  3660  007A' 3000               	movlw	0
  3661  007B' 0081'              	movwf	___awdiv@divisor+1
  3662  007C' 0800'              	movf	(_i+1)^(0+384),w
  3663  007D' 0083'              	movwf	___awdiv@dividend+1
  3664  007E' 0800'              	movf	_i^(0+384),w
  3665  007F' 0082'              	movwf	___awdiv@dividend
  3666  0080' 120A' 118A' 2000' 120A' 118A' 	fcall	___awdiv
  3667  0085' 0800'              	movf	?___awdiv,w
  3668  0086' 3E00'              	addlw	(low (_lamp| (0+256)))& (0+255)
  3669  0087' 0084               	movwf	4
  3670  0088' 1683               	bsf	3,5	;RP0=1, select bank1
  3671  0089' 1303               	bcf	3,6	;RP1=0, select bank1
  3672  008A' 0800'              	movf	_serial^(0+128),w
  3673  008B' 1783               	bsf	3,7	;select IRP bank3
  3674  008C' 0080               	movwf	0
  3675  008D'                    i1l4262:
  3676                           
  3677                           ;main.c: 74:             }
  3678  008D' 3001               	movlw	1
  3679  008E' 1683               	bsf	3,5	;RP0=1, select bank3
  3680  008F' 1703               	bsf	3,6	;RP1=1, select bank3
  3681  0090' 0780'              	addwf	_i^(0+384),f
  3682  0091' 1803               	skipnc
  3683  0092' 0A80'              	incf	(_i+1)^(0+384),f
  3684  0093' 3000               	movlw	0
  3685  0094' 0780'              	addwf	(_i+1)^(0+384),f
  3686  0095' 2800'              	goto	i1l4252
  3687  0096'                    i1l4266:
  3688                           
  3689                           ;main.c: 75:             change_color_lamp (lamp[0],lamp[1],lamp[2]);
  3690  0096' 1683               	bsf	3,5	;RP0=1, select bank3
  3691  0097' 1703               	bsf	3,6	;RP1=1, select bank3
  3692  0098' 0801'              	movf	(_lamp^(0+384)+1),w
  3693  0099' 0085'              	movwf	change_color_lamp@G
  3694  009A' 0802'              	movf	(_lamp^(0+384)+2),w
  3695  009B' 0086'              	movwf	change_color_lamp@B
  3696  009C' 0800'              	movf	_lamp^(0+384),w
  3697  009D' 120A' 118A' 2000' 120A' 118A' 	fcall	_change_color_lamp
  3698                           
  3699                           ;main.c: 76:             change_brightness_lamp(lamp[3]);
  3700  00A2' 1683               	bsf	3,5	;RP0=1, select bank3
  3701  00A3' 1703               	bsf	3,6	;RP1=1, select bank3
  3702  00A4' 0803'              	movf	(_lamp^(0+384)+3),w
  3703  00A5' 120A' 118A' 2000' 120A' 118A' 	fcall	_change_brightness_lamp
  3704  00AA'                    i1l4268:
  3705                           
  3706                           ;main.c: 78:         PIR1bits.RCIF = 0;
  3707  00AA' 1283               	bcf	3,5	;RP0=0, select bank0
  3708  00AB' 1303               	bcf	3,6	;RP1=0, select bank0
  3709  00AC' 128C               	bcf	12,5	;volatile
  3710  00AD'                    i1l4270:
  3711                           
  3712                           ;main.c: 80:     if(INTCONbits.T0IF)
  3713  00AD' 1D0B               	btfss	11,2	;volatile
  3714  00AE' 2800'              	goto	u567_21
  3715  00AF' 2800'              	goto	u567_20
  3716  00B0'                    u567_21:
  3717  00B0' 2800'              	goto	i1l290
  3718  00B1'                    u567_20:
  3719  00B1'                    i1l4272:
  3720                           
  3721                           ;main.c: 81:     {;main.c: 82:         co2 = read_co2_environment();
  3722  00B1' 120A' 118A' 2000' 120A' 118A' 	fcall	_read_co2_environment
  3723  00B6' 0803'              	movf	?_read_co2_environment+1,w
  3724  00B7' 1683               	bsf	3,5	;RP0=1, select bank3
  3725  00B8' 1703               	bsf	3,6	;RP1=1, select bank3
  3726  00B9' 0080'              	movwf	(_co2+1)^(0+384)
  3727  00BA' 0802'              	movf	?_read_co2_environment,w
  3728  00BB' 0080'              	movwf	_co2^(0+384)
  3729  00BC'                    i1l4274:
  3730                           
  3731                           ;main.c: 83:         humidity = read_humidity_channel();
  3732  00BC' 120A' 118A' 2000' 120A' 118A' 	fcall	_read_humidity_channel
  3733  00C1' 1283               	bcf	3,5	;RP0=0, select bank0
  3734  00C2' 1303               	bcf	3,6	;RP1=0, select bank0
  3735  00C3' 0831'              	movf	?_read_humidity_channel+3,w
  3736  00C4' 1683               	bsf	3,5	;RP0=1, select bank3
  3737  00C5' 1703               	bsf	3,6	;RP1=1, select bank3
  3738  00C6' 0080'              	movwf	(_humidity+3)^(0+384)
  3739  00C7' 1283               	bcf	3,5	;RP0=0, select bank0
  3740  00C8' 1303               	bcf	3,6	;RP1=0, select bank0
  3741  00C9' 0830'              	movf	?_read_humidity_channel+2,w
  3742  00CA' 1683               	bsf	3,5	;RP0=1, select bank3
  3743  00CB' 1703               	bsf	3,6	;RP1=1, select bank3
  3744  00CC' 0080'              	movwf	(_humidity+2)^(0+384)
  3745  00CD' 1283               	bcf	3,5	;RP0=0, select bank0
  3746  00CE' 1303               	bcf	3,6	;RP1=0, select bank0
  3747  00CF' 082F'              	movf	?_read_humidity_channel+1,w
  3748  00D0' 1683               	bsf	3,5	;RP0=1, select bank3
  3749  00D1' 1703               	bsf	3,6	;RP1=1, select bank3
  3750  00D2' 0080'              	movwf	(_humidity+1)^(0+384)
  3751  00D3' 1283               	bcf	3,5	;RP0=0, select bank0
  3752  00D4' 1303               	bcf	3,6	;RP1=0, select bank0
  3753  00D5' 082E'              	movf	?_read_humidity_channel,w
  3754  00D6' 1683               	bsf	3,5	;RP0=1, select bank3
  3755  00D7' 1703               	bsf	3,6	;RP1=1, select bank3
  3756  00D8' 0080'              	movwf	_humidity^(0+384)
  3757  00D9'                    i1l4276:
  3758                           
  3759                           ;main.c: 84:         brightness = read_luminosity();
  3760  00D9' 120A' 118A' 2000' 120A' 118A' 	fcall	_read_luminosity
  3761  00DE' 1283               	bcf	3,5	;RP0=0, select bank0
  3762  00DF' 1303               	bcf	3,6	;RP1=0, select bank0
  3763  00E0' 081D'              	movf	?_read_luminosity+3,w
  3764  00E1' 1683               	bsf	3,5	;RP0=1, select bank3
  3765  00E2' 1703               	bsf	3,6	;RP1=1, select bank3
  3766  00E3' 0080'              	movwf	(_brightness+3)^(0+384)
  3767  00E4' 1283               	bcf	3,5	;RP0=0, select bank0
  3768  00E5' 1303               	bcf	3,6	;RP1=0, select bank0
  3769  00E6' 081C'              	movf	?_read_luminosity+2,w
  3770  00E7' 1683               	bsf	3,5	;RP0=1, select bank3
  3771  00E8' 1703               	bsf	3,6	;RP1=1, select bank3
  3772  00E9' 0080'              	movwf	(_brightness+2)^(0+384)
  3773  00EA' 1283               	bcf	3,5	;RP0=0, select bank0
  3774  00EB' 1303               	bcf	3,6	;RP1=0, select bank0
  3775  00EC' 081B'              	movf	?_read_luminosity+1,w
  3776  00ED' 1683               	bsf	3,5	;RP0=1, select bank3
  3777  00EE' 1703               	bsf	3,6	;RP1=1, select bank3
  3778  00EF' 0080'              	movwf	(_brightness+1)^(0+384)
  3779  00F0' 1283               	bcf	3,5	;RP0=0, select bank0
  3780  00F1' 1303               	bcf	3,6	;RP1=0, select bank0
  3781  00F2' 081A'              	movf	?_read_luminosity,w
  3782  00F3' 1683               	bsf	3,5	;RP0=1, select bank3
  3783  00F4' 1703               	bsf	3,6	;RP1=1, select bank3
  3784  00F5' 0080'              	movwf	_brightness^(0+384)
  3785  00F6'                    i1l4278:
  3786                           
  3787                           ;main.c: 85:         temperature = read_temperature();
  3788  00F6' 120A' 118A' 2000' 120A' 118A' 	fcall	_read_temperature
  3789  00FB' 1283               	bcf	3,5	;RP0=0, select bank0
  3790  00FC' 1303               	bcf	3,6	;RP1=0, select bank0
  3791  00FD' 0831'              	movf	?_read_temperature+3,w
  3792  00FE' 1683               	bsf	3,5	;RP0=1, select bank3
  3793  00FF' 1703               	bsf	3,6	;RP1=1, select bank3
  3794  0100' 0080'              	movwf	(_temperature+3)^(0+384)
  3795  0101' 1283               	bcf	3,5	;RP0=0, select bank0
  3796  0102' 1303               	bcf	3,6	;RP1=0, select bank0
  3797  0103' 0830'              	movf	?_read_temperature+2,w
  3798  0104' 1683               	bsf	3,5	;RP0=1, select bank3
  3799  0105' 1703               	bsf	3,6	;RP1=1, select bank3
  3800  0106' 0080'              	movwf	(_temperature+2)^(0+384)
  3801  0107' 1283               	bcf	3,5	;RP0=0, select bank0
  3802  0108' 1303               	bcf	3,6	;RP1=0, select bank0
  3803  0109' 082F'              	movf	?_read_temperature+1,w
  3804  010A' 1683               	bsf	3,5	;RP0=1, select bank3
  3805  010B' 1703               	bsf	3,6	;RP1=1, select bank3
  3806  010C' 0080'              	movwf	(_temperature+1)^(0+384)
  3807  010D' 1283               	bcf	3,5	;RP0=0, select bank0
  3808  010E' 1303               	bcf	3,6	;RP1=0, select bank0
  3809  010F' 082E'              	movf	?_read_temperature,w
  3810  0110' 1683               	bsf	3,5	;RP0=1, select bank3
  3811  0111' 1703               	bsf	3,6	;RP1=1, select bank3
  3812  0112' 0080'              	movwf	_temperature^(0+384)
  3813  0113'                    i1l4280:
  3814                           
  3815                           ;main.c: 87:         if(timer_counter % 2 == 1)
  3816  0113' 1C00'              	btfss	_timer_counter^(0+384),0
  3817  0114' 2800'              	goto	u568_21
  3818  0115' 2800'              	goto	u568_20
  3819  0116'                    u568_21:
  3820  0116' 2800'              	goto	i1l287
  3821  0117'                    u568_20:
  3822  0117'                    i1l4282:
  3823                           
  3824                           ;main.c: 88:         {;main.c: 89:             noise = read_noise_channel();
  3825  0117' 120A' 118A' 2000' 120A' 118A' 	fcall	_read_noise_channel
  3826  011C' 080B'              	movf	?_read_noise_channel+1,w
  3827  011D' 1683               	bsf	3,5	;RP0=1, select bank3
  3828  011E' 1703               	bsf	3,6	;RP1=1, select bank3
  3829  011F' 0080'              	movwf	(_noise+1)^(0+384)
  3830  0120' 080A'              	movf	?_read_noise_channel,w
  3831  0121' 0080'              	movwf	_noise^(0+384)
  3832                           
  3833                           ;main.c: 90:             take_best_noise(noise);
  3834  0122' 0800'              	movf	(_noise+1)^(0+384),w
  3835  0123' 0081'              	movwf	take_best_noise@noise+1
  3836  0124' 0800'              	movf	_noise^(0+384),w
  3837  0125' 0080'              	movwf	take_best_noise@noise
  3838  0126' 120A' 118A' 2000' 120A' 118A' 	fcall	_take_best_noise
  3839  012B'                    i1l287:	
  3840                           ;main.c: 91:         }
  3841                           
  3842                           
  3843                           ;main.c: 92:         if(timer_counter % 200 == 0)
  3844  012B' 30C8               	movlw	200
  3845  012C' 0080'              	movwf	___awmod@divisor
  3846  012D' 3000               	movlw	0
  3847  012E' 0081'              	movwf	___awmod@divisor+1
  3848  012F' 1683               	bsf	3,5	;RP0=1, select bank3
  3849  0130' 1703               	bsf	3,6	;RP1=1, select bank3
  3850  0131' 0800'              	movf	(_timer_counter+1)^(0+384),w
  3851  0132' 0083'              	movwf	___awmod@dividend+1
  3852  0133' 0800'              	movf	_timer_counter^(0+384),w
  3853  0134' 0082'              	movwf	___awmod@dividend
  3854  0135' 120A' 118A' 2000' 120A' 118A' 	fcall	___awmod
  3855  013A' 0800'              	movf	?___awmod,w
  3856  013B' 0401'              	iorwf	?___awmod+1,w
  3857  013C' 1D03               	btfss	3,2
  3858  013D' 2800'              	goto	u569_21
  3859  013E' 2800'              	goto	u569_20
  3860  013F'                    u569_21:
  3861  013F' 2800'              	goto	i1l4288
  3862  0140'                    u569_20:
  3863  0140'                    i1l4284:
  3864                           
  3865                           ;main.c: 93:         {;main.c: 94:             send_uint16t_to_uart ("noise\0",best_nois
      +                          e);
  3866  0140' 1683               	bsf	3,5	;RP0=1, select bank3
  3867  0141' 1703               	bsf	3,6	;RP1=1, select bank3
  3868  0142' 0800'              	movf	(_best_noise+1)^(0+384),w
  3869  0143' 1683               	bsf	3,5	;RP0=1, select bank1
  3870  0144' 1303               	bcf	3,6	;RP1=0, select bank1
  3871  0145' 0080'              	movwf	(send_uint16t_to_uart@value+1)^(0+128)
  3872  0146' 1683               	bsf	3,5	;RP0=1, select bank3
  3873  0147' 1703               	bsf	3,6	;RP1=1, select bank3
  3874  0148' 0800'              	movf	_best_noise^(0+384),w
  3875  0149' 1683               	bsf	3,5	;RP0=1, select bank1
  3876  014A' 1303               	bcf	3,6	;RP1=0, select bank1
  3877  014B' 0080'              	movwf	send_uint16t_to_uart@value^(0+128)
  3878  014C' 304E               	movlw	(low ((STR_3-__stringbase)| (0+32768)))& (0+255)
  3879  014D' 120A' 118A' 2000' 120A' 118A' 	fcall	_send_uint16t_to_uart
  3880  0152'                    i1l4286:
  3881                           
  3882                           ;main.c: 95:             reset_best_noise();
  3883  0152' 120A' 118A' 2000' 120A' 118A' 	fcall	_reset_best_noise
  3884  0157'                    i1l4288:
  3885                           
  3886                           ;main.c: 97:         if(timer_counter == 1000)
  3887  0157' 30E8               	movlw	232
  3888  0158' 1683               	bsf	3,5	;RP0=1, select bank3
  3889  0159' 1703               	bsf	3,6	;RP1=1, select bank3
  3890  015A' 0600'              	xorwf	_timer_counter^(0+384),w
  3891  015B' 3003               	movlw	3
  3892  015C' 1903               	skipnz
  3893  015D' 0600'              	xorwf	(_timer_counter+1)^(0+384),w
  3894  015E' 1D03               	btfss	3,2
  3895  015F' 2800'              	goto	u570_21
  3896  0160' 2800'              	goto	u570_20
  3897  0161'                    u570_21:
  3898  0161' 2800'              	goto	i1l4294
  3899  0162'                    u570_20:
  3900  0162'                    i1l4290:
  3901                           
  3902                           ;main.c: 98:         {;main.c: 99:             send_uint16t_to_uart ("co2",co2);
  3903  0162' 0800'              	movf	(_co2+1)^(0+384),w
  3904  0163' 1683               	bsf	3,5	;RP0=1, select bank1
  3905  0164' 1303               	bcf	3,6	;RP1=0, select bank1
  3906  0165' 0080'              	movwf	(send_uint16t_to_uart@value+1)^(0+128)
  3907  0166' 1683               	bsf	3,5	;RP0=1, select bank3
  3908  0167' 1703               	bsf	3,6	;RP1=1, select bank3
  3909  0168' 0800'              	movf	_co2^(0+384),w
  3910  0169' 1683               	bsf	3,5	;RP0=1, select bank1
  3911  016A' 1303               	bcf	3,6	;RP1=0, select bank1
  3912  016B' 0080'              	movwf	send_uint16t_to_uart@value^(0+128)
  3913  016C' 3063               	movlw	(low ((STR_4-__stringbase)| (0+32768)))& (0+255)
  3914  016D' 120A' 118A' 2000' 120A' 118A' 	fcall	_send_uint16t_to_uart
  3915                           
  3916                           ;main.c: 100:             send_uint16t_to_uart ("noise",noise);
  3917  0172' 1683               	bsf	3,5	;RP0=1, select bank3
  3918  0173' 1703               	bsf	3,6	;RP1=1, select bank3
  3919  0174' 0800'              	movf	(_noise+1)^(0+384),w
  3920  0175' 1683               	bsf	3,5	;RP0=1, select bank1
  3921  0176' 1303               	bcf	3,6	;RP1=0, select bank1
  3922  0177' 0080'              	movwf	(send_uint16t_to_uart@value+1)^(0+128)
  3923  0178' 1683               	bsf	3,5	;RP0=1, select bank3
  3924  0179' 1703               	bsf	3,6	;RP1=1, select bank3
  3925  017A' 0800'              	movf	_noise^(0+384),w
  3926  017B' 1683               	bsf	3,5	;RP0=1, select bank1
  3927  017C' 1303               	bcf	3,6	;RP1=0, select bank1
  3928  017D' 0080'              	movwf	send_uint16t_to_uart@value^(0+128)
  3929  017E' 3055               	movlw	(low ((STR_5-__stringbase)| (0+32768)))& (0+255)
  3930  017F' 120A' 118A' 2000' 120A' 118A' 	fcall	_send_uint16t_to_uart
  3931                           
  3932                           ;main.c: 101:             send_float_to_uart ("humidity",humidity);
  3933  0184' 1683               	bsf	3,5	;RP0=1, select bank3
  3934  0185' 1703               	bsf	3,6	;RP1=1, select bank3
  3935  0186' 0800'              	movf	(_humidity+3)^(0+384),w
  3936  0187' 1683               	bsf	3,5	;RP0=1, select bank1
  3937  0188' 1303               	bcf	3,6	;RP1=0, select bank1
  3938  0189' 0080'              	movwf	(send_float_to_uart@value+3)^(0+128)
  3939  018A' 1683               	bsf	3,5	;RP0=1, select bank3
  3940  018B' 1703               	bsf	3,6	;RP1=1, select bank3
  3941  018C' 0800'              	movf	(_humidity+2)^(0+384),w
  3942  018D' 1683               	bsf	3,5	;RP0=1, select bank1
  3943  018E' 1303               	bcf	3,6	;RP1=0, select bank1
  3944  018F' 0080'              	movwf	(send_float_to_uart@value+2)^(0+128)
  3945  0190' 1683               	bsf	3,5	;RP0=1, select bank3
  3946  0191' 1703               	bsf	3,6	;RP1=1, select bank3
  3947  0192' 0800'              	movf	(_humidity+1)^(0+384),w
  3948  0193' 1683               	bsf	3,5	;RP0=1, select bank1
  3949  0194' 1303               	bcf	3,6	;RP1=0, select bank1
  3950  0195' 0080'              	movwf	(send_float_to_uart@value+1)^(0+128)
  3951  0196' 1683               	bsf	3,5	;RP0=1, select bank3
  3952  0197' 1703               	bsf	3,6	;RP1=1, select bank3
  3953  0198' 0800'              	movf	_humidity^(0+384),w
  3954  0199' 1683               	bsf	3,5	;RP0=1, select bank1
  3955  019A' 1303               	bcf	3,6	;RP1=0, select bank1
  3956  019B' 0080'              	movwf	send_float_to_uart@value^(0+128)
  3957  019C' 303E               	movlw	(low ((STR_6-__stringbase)| (0+32768)))& (0+255)
  3958  019D' 120A' 118A' 2000' 120A' 118A' 	fcall	_send_float_to_uart
  3959                           
  3960                           ;main.c: 102:             send_float_to_uart ("luminosity",brightness);
  3961  01A2' 1683               	bsf	3,5	;RP0=1, select bank3
  3962  01A3' 1703               	bsf	3,6	;RP1=1, select bank3
  3963  01A4' 0800'              	movf	(_brightness+3)^(0+384),w
  3964  01A5' 1683               	bsf	3,5	;RP0=1, select bank1
  3965  01A6' 1303               	bcf	3,6	;RP1=0, select bank1
  3966  01A7' 0080'              	movwf	(send_float_to_uart@value+3)^(0+128)
  3967  01A8' 1683               	bsf	3,5	;RP0=1, select bank3
  3968  01A9' 1703               	bsf	3,6	;RP1=1, select bank3
  3969  01AA' 0800'              	movf	(_brightness+2)^(0+384),w
  3970  01AB' 1683               	bsf	3,5	;RP0=1, select bank1
  3971  01AC' 1303               	bcf	3,6	;RP1=0, select bank1
  3972  01AD' 0080'              	movwf	(send_float_to_uart@value+2)^(0+128)
  3973  01AE' 1683               	bsf	3,5	;RP0=1, select bank3
  3974  01AF' 1703               	bsf	3,6	;RP1=1, select bank3
  3975  01B0' 0800'              	movf	(_brightness+1)^(0+384),w
  3976  01B1' 1683               	bsf	3,5	;RP0=1, select bank1
  3977  01B2' 1303               	bcf	3,6	;RP1=0, select bank1
  3978  01B3' 0080'              	movwf	(send_float_to_uart@value+1)^(0+128)
  3979  01B4' 1683               	bsf	3,5	;RP0=1, select bank3
  3980  01B5' 1703               	bsf	3,6	;RP1=1, select bank3
  3981  01B6' 0800'              	movf	_brightness^(0+384),w
  3982  01B7' 1683               	bsf	3,5	;RP0=1, select bank1
  3983  01B8' 1303               	bcf	3,6	;RP1=0, select bank1
  3984  01B9' 0080'              	movwf	send_float_to_uart@value^(0+128)
  3985  01BA' 3033               	movlw	(low ((STR_7-__stringbase)| (0+32768)))& (0+255)
  3986  01BB' 120A' 118A' 2000' 120A' 118A' 	fcall	_send_float_to_uart
  3987                           
  3988                           ;main.c: 103:             send_float_to_uart ("temperature",temperature);
  3989  01C0' 1683               	bsf	3,5	;RP0=1, select bank3
  3990  01C1' 1703               	bsf	3,6	;RP1=1, select bank3
  3991  01C2' 0800'              	movf	(_temperature+3)^(0+384),w
  3992  01C3' 1683               	bsf	3,5	;RP0=1, select bank1
  3993  01C4' 1303               	bcf	3,6	;RP1=0, select bank1
  3994  01C5' 0080'              	movwf	(send_float_to_uart@value+3)^(0+128)
  3995  01C6' 1683               	bsf	3,5	;RP0=1, select bank3
  3996  01C7' 1703               	bsf	3,6	;RP1=1, select bank3
  3997  01C8' 0800'              	movf	(_temperature+2)^(0+384),w
  3998  01C9' 1683               	bsf	3,5	;RP0=1, select bank1
  3999  01CA' 1303               	bcf	3,6	;RP1=0, select bank1
  4000  01CB' 0080'              	movwf	(send_float_to_uart@value+2)^(0+128)
  4001  01CC' 1683               	bsf	3,5	;RP0=1, select bank3
  4002  01CD' 1703               	bsf	3,6	;RP1=1, select bank3
  4003  01CE' 0800'              	movf	(_temperature+1)^(0+384),w
  4004  01CF' 1683               	bsf	3,5	;RP0=1, select bank1
  4005  01D0' 1303               	bcf	3,6	;RP1=0, select bank1
  4006  01D1' 0080'              	movwf	(send_float_to_uart@value+1)^(0+128)
  4007  01D2' 1683               	bsf	3,5	;RP0=1, select bank3
  4008  01D3' 1703               	bsf	3,6	;RP1=1, select bank3
  4009  01D4' 0800'              	movf	_temperature^(0+384),w
  4010  01D5' 1683               	bsf	3,5	;RP0=1, select bank1
  4011  01D6' 1303               	bcf	3,6	;RP1=0, select bank1
  4012  01D7' 0080'              	movwf	send_float_to_uart@value^(0+128)
  4013  01D8' 3027               	movlw	(low ((STR_8-__stringbase)| (0+32768)))& (0+255)
  4014  01D9' 120A' 118A' 2000' 120A' 118A' 	fcall	_send_float_to_uart
  4015  01DE'                    i1l4292:
  4016                           
  4017                           ;main.c: 105:             timer_counter = -1;
  4018  01DE' 30FF               	movlw	255
  4019  01DF' 1683               	bsf	3,5	;RP0=1, select bank3
  4020  01E0' 1703               	bsf	3,6	;RP1=1, select bank3
  4021  01E1' 0080'              	movwf	_timer_counter^(0+384)
  4022  01E2' 30FF               	movlw	255
  4023  01E3' 0081'              	movwf	(_timer_counter^(0+384)+1)
  4024  01E4'                    i1l4294:
  4025                           
  4026                           ;main.c: 107:         timer_counter ++;
  4027  01E4' 3001               	movlw	1
  4028  01E5' 0780'              	addwf	_timer_counter^(0+384),f
  4029  01E6' 1803               	skipnc
  4030  01E7' 0A80'              	incf	(_timer_counter+1)^(0+384),f
  4031  01E8' 3000               	movlw	0
  4032  01E9' 0780'              	addwf	(_timer_counter+1)^(0+384),f
  4033  01EA'                    i1l4296:
  4034                           
  4035                           ;main.c: 108:         INTCONbits.T0IF = 0;
  4036  01EA' 110B               	bcf	11,2	;volatile
  4037  01EB'                    i1l290:
  4038  01EB' 1683               	bsf	3,5	;RP0=1, select bank1
  4039  01EC' 1303               	bcf	3,6	;RP1=0, select bank1
  4040  01ED' 0800'              	movf	(??_interrupt_rutine+7)^(0+128),w
  4041  01EE' 00FF               	movwf	btemp+1
  4042  01EF' 0800'              	movf	(??_interrupt_rutine+6)^(0+128),w
  4043  01F0' 008A               	movwf	10
  4044  01F1' 0800'              	movf	(??_interrupt_rutine+5)^(0+128),w
  4045  01F2' 0084               	movwf	4
  4046  01F3' 0E00'              	swapf	(??_interrupt_rutine+4)^(0+128),w
  4047  01F4' 0083               	movwf	3
  4048  01F5' 0EFE               	swapf	btemp,f
  4049  01F6' 0E7E               	swapf	btemp,w
  4050  01F7' 0009               	retfie
  4051  01F8'                    __end_of_interrupt_rutine:
  4052                           
  4053                           	psect	intentry
  4054  0000'                    __pintentry:	
  4055                           ;incstack = 0
  4056 ;; hardware stack exceeded
  4057                           ; Regs used in _interrupt_rutine: [wreg-fsr0h+status,2+status,0+btemp+1+pclath+cstack]
  4058                           
  4059  0000'                    interrupt_function:
  4060  007E                     saved_w	set	btemp
  4061  0000' 00FE               	movwf	btemp
  4062  0001' 0E03               	swapf	3,w
  4063  0002' 1683               	bsf	3,5	;RP0=1, select bank1
  4064  0003' 1303               	bcf	3,6	;RP1=0, select bank1
  4065  0004' 0080'              	movwf	(??_interrupt_rutine+4)^(0+128)
  4066  0005' 0804               	movf	4,w
  4067  0006' 0080'              	movwf	(??_interrupt_rutine+5)^(0+128)
  4068  0007' 080A               	movf	10,w
  4069  0008' 0080'              	movwf	(??_interrupt_rutine+6)^(0+128)
  4070  0009' 087F               	movf	btemp+1,w
  4071  000A' 0080'              	movwf	(??_interrupt_rutine+7)^(0+128)
  4072  000B' 120A' 118A' 2800'  	ljmp	_interrupt_rutine
  4073                           
  4074                           	psect	text15
  4075  0000'                    __ptext15:	
  4076 ;; *************** function _take_best_noise *****************
  4077 ;; Defined at:
  4078 ;;		line 9 in file "src/sensors/noise.c"
  4079 ;; Parameters:    Size  Location     Type
  4080 ;;  noise           2    0[COMMON] unsigned short 
  4081 ;; Auto vars:     Size  Location     Type
  4082 ;;		None
  4083 ;; Return value:  Size  Location     Type
  4084 ;;                  1    wreg      void 
  4085 ;; Registers used:
  4086 ;;		wreg
  4087 ;; Tracked objects:
  4088 ;;		On entry : 0/0
  4089 ;;		On exit  : 0/0
  4090 ;;		Unchanged: 0/0
  4091 ;; Data sizes:     COMMON   BANK0   BANK1   BANK3   BANK2
  4092 ;;      Params:         2       0       0       0       0
  4093 ;;      Locals:         0       0       0       0       0
  4094 ;;      Temps:          0       0       0       0       0
  4095 ;;      Totals:         2       0       0       0       0
  4096 ;;Total ram usage:        2 bytes
  4097 ;; Hardware stack levels used: 1
  4098 ;; This function calls:
  4099 ;;		Nothing
  4100 ;; This function is called by:
  4101 ;;		_interrupt_rutine
  4102 ;; This function uses a non-reentrant model
  4103 ;;
  4104                           
  4105  0000'                    _take_best_noise:	
  4106                           ;psect for function _take_best_noise
  4107                           
  4108  0000'                    i1l4218:	
  4109                           ;incstack = 0
  4110                           ; Regs used in _take_best_noise: [wreg]
  4111                           
  4112                           
  4113                           ;src/sensors/noise.c: 9: void take_best_noise(uint16_t noise);src/sensors/noise.c: 10: {
      +                          ;src/sensors/noise.c: 11:     if(best_noise < noise)
  4114  0000' 0801'              	movf	take_best_noise@noise+1,w
  4115  0001' 1683               	bsf	3,5	;RP0=1, select bank3
  4116  0002' 1703               	bsf	3,6	;RP1=1, select bank3
  4117  0003' 0200'              	subwf	(_best_noise+1)^(0+384),w
  4118  0004' 1D03               	skipz
  4119  0005' 2800'              	goto	u562_25
  4120  0006' 0800'              	movf	take_best_noise@noise,w
  4121  0007' 0200'              	subwf	_best_noise^(0+384),w
  4122  0008'                    u562_25:
  4123  0008' 1803               	skipnc
  4124  0009' 2800'              	goto	u562_21
  4125  000A' 2800'              	goto	u562_20
  4126  000B'                    u562_21:
  4127  000B' 2800'              	goto	i1l168
  4128  000C'                    u562_20:
  4129  000C'                    i1l4220:
  4130                           
  4131                           ;src/sensors/noise.c: 12:         best_noise = noise;
  4132  000C' 0801'              	movf	take_best_noise@noise+1,w
  4133  000D' 0080'              	movwf	(_best_noise+1)^(0+384)
  4134  000E' 0800'              	movf	take_best_noise@noise,w
  4135  000F' 0080'              	movwf	_best_noise^(0+384)
  4136  0010'                    i1l168:
  4137  0010' 0008               	return
  4138  0011'                    __end_of_take_best_noise:
  4139                           
  4140                           	psect	text16
  4141  0000'                    __ptext16:	
  4142 ;; *************** function _send_uint16t_to_uart *****************
  4143 ;; Defined at:
  4144 ;;		line 29 in file "src/protocols/UART/uart.c"
  4145 ;; Parameters:    Size  Location     Type
  4146 ;;  name            1    wreg     PTR unsigned char 
  4147 ;;		 -> STR_5(6), STR_4(4), STR_3(7), 
  4148 ;;  value           2   65[BANK1 ] unsigned short 
  4149 ;; Auto vars:     Size  Location     Type
  4150 ;;  name            1   79[BANK0 ] PTR unsigned char 
  4151 ;;		 -> STR_5(6), STR_4(4), STR_3(7), 
  4152 ;; Return value:  Size  Location     Type
  4153 ;;                  1    wreg      void 
  4154 ;; Registers used:
  4155 ;;		wreg, fsr0l, fsr0h, status,2, status,0, btemp+1, pclath, cstack
  4156 ;; Tracked objects:
  4157 ;;		On entry : 0/0
  4158 ;;		On exit  : 0/0
  4159 ;;		Unchanged: 0/0
  4160 ;; Data sizes:     COMMON   BANK0   BANK1   BANK3   BANK2
  4161 ;;      Params:         0       0       2       0       0
  4162 ;;      Locals:         0       1       0       0       0
  4163 ;;      Temps:          0       0       0       0       0
  4164 ;;      Totals:         0       1       2       0       0
  4165 ;;Total ram usage:        3 bytes
  4166 ;; Hardware stack levels used: 1
  4167 ;; Hardware stack levels required when called: 8
  4168 ;; This function calls:
  4169 ;;		_printf
  4170 ;; This function is called by:
  4171 ;;		_interrupt_rutine
  4172 ;; This function uses a non-reentrant model
  4173 ;;
  4174                           
  4175  0000'                    _send_uint16t_to_uart:	
  4176                           ;psect for function _send_uint16t_to_uart
  4177                           
  4178                           
  4179                           ;incstack = 0
  4180 ;; hardware stack exceeded
  4181                           ; Regs used in _send_uint16t_to_uart: [wreg-fsr0h+status,2+status,0+btemp+1+pclath+cstac
      +                          k]
  4182                           ;send_uint16t_to_uart@name stored from wreg
  4183  0000' 1283               	bcf	3,5	;RP0=0, select bank0
  4184  0001' 1303               	bcf	3,6	;RP1=0, select bank0
  4185  0002' 00CF'              	movwf	send_uint16t_to_uart@name
  4186  0003'                    i1l4160:
  4187                           
  4188                           ;src/protocols/UART/uart.c: 29: void send_uint16t_to_uart (char *name, uint16_t value);s
      +                          rc/protocols/UART/uart.c: 30: {;src/protocols/UART/uart.c: 31:     printf("%s value: [%i
      +                          ] \r\n",name,value);
  4189  0003' 084F'              	movf	send_uint16t_to_uart@name,w
  4190  0004' 1683               	bsf	3,5	;RP0=1, select bank1
  4191  0005' 1303               	bcf	3,6	;RP1=0, select bank1
  4192  0006' 0080'              	movwf	?_printf^(0+128)
  4193  0007' 3000               	movlw	0
  4194  0008' 1D03               	btfss	3,2
  4195  0009' 3080               	movlw	128
  4196  000A' 0080'              	movwf	(?_printf+1)^(0+128)
  4197  000B' 0800'              	movf	(send_uint16t_to_uart@value+1)^(0+128),w
  4198  000C' 0082'              	movwf	((?_printf+1)^(0+128)+2)
  4199  000D' 0800'              	movf	send_uint16t_to_uart@value^(0+128),w
  4200  000E' 0082'              	movwf	(?_printf^(0+128)+2)
  4201  000F' 3015               	movlw	(low ((STR_1-__stringbase)| (0+32768)))& (0+255)
  4202  0010' 120A' 118A' 2000' 120A' 118A' 	fcall	_printf
  4203  0015'                    i1l50:
  4204  0015' 0008               	return
  4205  0016'                    __end_of_send_uint16t_to_uart:
  4206                           
  4207                           	psect	text17
  4208  0000'                    __ptext17:	
  4209 ;; *************** function _send_float_to_uart *****************
  4210 ;; Defined at:
  4211 ;;		line 34 in file "src/protocols/UART/uart.c"
  4212 ;; Parameters:    Size  Location     Type
  4213 ;;  name            1    wreg     PTR unsigned char 
  4214 ;;		 -> STR_8(12), STR_7(11), STR_6(9), 
  4215 ;;  value           4   65[BANK1 ] float 
  4216 ;; Auto vars:     Size  Location     Type
  4217 ;;  name            1   79[BANK0 ] PTR unsigned char 
  4218 ;;		 -> STR_8(12), STR_7(11), STR_6(9), 
  4219 ;; Return value:  Size  Location     Type
  4220 ;;                  1    wreg      void 
  4221 ;; Registers used:
  4222 ;;		wreg, fsr0l, fsr0h, status,2, status,0, btemp+1, pclath, cstack
  4223 ;; Tracked objects:
  4224 ;;		On entry : 0/0
  4225 ;;		On exit  : 0/0
  4226 ;;		Unchanged: 0/0
  4227 ;; Data sizes:     COMMON   BANK0   BANK1   BANK3   BANK2
  4228 ;;      Params:         0       0       4       0       0
  4229 ;;      Locals:         0       1       0       0       0
  4230 ;;      Temps:          0       0       0       0       0
  4231 ;;      Totals:         0       1       4       0       0
  4232 ;;Total ram usage:        5 bytes
  4233 ;; Hardware stack levels used: 1
  4234 ;; Hardware stack levels required when called: 8
  4235 ;; This function calls:
  4236 ;;		_printf
  4237 ;; This function is called by:
  4238 ;;		_interrupt_rutine
  4239 ;; This function uses a non-reentrant model
  4240 ;;
  4241                           
  4242  0000'                    _send_float_to_uart:	
  4243                           ;psect for function _send_float_to_uart
  4244                           
  4245                           
  4246                           ;incstack = 0
  4247 ;; hardware stack exceeded
  4248                           ; Regs used in _send_float_to_uart: [wreg-fsr0h+status,2+status,0+btemp+1+pclath+cstack]
  4249                           ;send_float_to_uart@name stored from wreg
  4250  0000' 1283               	bcf	3,5	;RP0=0, select bank0
  4251  0001' 1303               	bcf	3,6	;RP1=0, select bank0
  4252  0002' 00CF'              	movwf	send_float_to_uart@name
  4253  0003'                    i1l4162:
  4254                           
  4255                           ;src/protocols/UART/uart.c: 34: void send_float_to_uart(char *name, float value);src/pro
      +                          tocols/UART/uart.c: 35: {;src/protocols/UART/uart.c: 36:     printf("%s value: [%.2f] \r
      +                          \n",name,value);
  4256  0003' 084F'              	movf	send_float_to_uart@name,w
  4257  0004' 1683               	bsf	3,5	;RP0=1, select bank1
  4258  0005' 1303               	bcf	3,6	;RP1=0, select bank1
  4259  0006' 0080'              	movwf	?_printf^(0+128)
  4260  0007' 3000               	movlw	0
  4261  0008' 1D03               	btfss	3,2
  4262  0009' 3080               	movlw	128
  4263  000A' 0080'              	movwf	(?_printf+1)^(0+128)
  4264  000B' 0800'              	movf	(send_float_to_uart@value+3)^(0+128),w
  4265  000C' 0082'              	movwf	((?_printf+3)^(0+128)+2)
  4266  000D' 0800'              	movf	(send_float_to_uart@value+2)^(0+128),w
  4267  000E' 0082'              	movwf	((?_printf+2)^(0+128)+2)
  4268  000F' 0800'              	movf	(send_float_to_uart@value+1)^(0+128),w
  4269  0010' 0082'              	movwf	((?_printf+1)^(0+128)+2)
  4270  0011' 0800'              	movf	send_float_to_uart@value^(0+128),w
  4271  0012' 0082'              	movwf	(?_printf^(0+128)+2)
  4272  0013' 3001               	movlw	(low ((STR_2-__stringbase)| (0+32768)))& (0+255)
  4273  0014' 120A' 118A' 2000' 120A' 118A' 	fcall	_printf
  4274  0019'                    i1l53:
  4275  0019' 0008               	return
  4276  001A'                    __end_of_send_float_to_uart:
  4277                           
  4278                           	psect	text18
  4279  0000'                    __ptext18:	
  4280 ;; *************** function _printf *****************
  4281 ;; Defined at:
  4282 ;;		line 5 in file "/opt/microchip/xc8/v2.45/pic/sources/c99/common/printf.c"
  4283 ;; Parameters:    Size  Location     Type
  4284 ;;  fmt             1    wreg     PTR const unsigned char 
  4285 ;;		 -> STR_2(20), STR_1(18), 
  4286 ;; Auto vars:     Size  Location     Type
  4287 ;;  fmt             1   63[BANK1 ] PTR const unsigned char 
  4288 ;;		 -> STR_2(20), STR_1(18), 
  4289 ;;  ret             2    0        int 
  4290 ;;  ap              1   64[BANK1 ] PTR void [1]
  4291 ;;		 -> ?_printf(2), 
  4292 ;; Return value:  Size  Location     Type
  4293 ;;                  2   57[BANK1 ] int 
  4294 ;; Registers used:
  4295 ;;		wreg, fsr0l, fsr0h, status,2, status,0, btemp+1, pclath, cstack
  4296 ;; Tracked objects:
  4297 ;;		On entry : 0/0
  4298 ;;		On exit  : 0/0
  4299 ;;		Unchanged: 0/0
  4300 ;; Data sizes:     COMMON   BANK0   BANK1   BANK3   BANK2
  4301 ;;      Params:         0       0       6       0       0
  4302 ;;      Locals:         0       0       2       0       0
  4303 ;;      Temps:          0       0       0       0       0
  4304 ;;      Totals:         0       0       8       0       0
  4305 ;;Total ram usage:        8 bytes
  4306 ;; Hardware stack levels used: 1
  4307 ;; Hardware stack levels required when called: 7
  4308 ;; This function calls:
  4309 ;;		_vfprintf
  4310 ;; This function is called by:
  4311 ;;		_send_uint16t_to_uart
  4312 ;;		_send_float_to_uart
  4313 ;; This function uses a non-reentrant model
  4314 ;;
  4315                           
  4316  0000'                    _printf:	
  4317                           ;psect for function _printf
  4318                           
  4319                           
  4320                           ;incstack = 0
  4321 ;; hardware stack exceeded
  4322                           ; Regs used in _printf: [wreg-fsr0h+status,2+status,0+btemp+1+pclath+cstack]
  4323                           ;printf@fmt stored from wreg
  4324  0000' 1683               	bsf	3,5	;RP0=1, select bank1
  4325  0001' 1303               	bcf	3,6	;RP1=0, select bank1
  4326  0002' 0080'              	movwf	printf@fmt^(0+128)
  4327  0003'                    i1l4022:
  4328  0003' 3000'              	movlw	(low (?_printf| 0))& (0+255)
  4329  0004' 0080'              	movwf	printf@ap^(0+128)
  4330  0005'                    i1l4024:
  4331  0005' 0800'              	movf	printf@fmt^(0+128),w
  4332  0006' 0080'              	movwf	vfprintf@fmt^(0+128)
  4333  0007' 3000'              	movlw	(low (printf@ap| 0))& (0+255)
  4334  0008' 0080'              	movwf	vfprintf@ap^(0+128)
  4335  0009' 3000               	movlw	0
  4336  000A' 120A' 118A' 2000' 120A' 118A' 	fcall	_vfprintf
  4337  000F'                    i1l839:
  4338  000F' 0008               	return
  4339  0010'                    __end_of_printf:
  4340                           
  4341                           	psect	text19
  4342  0000'                    __ptext19:	
  4343 ;; *************** function _vfprintf *****************
  4344 ;; Defined at:
  4345 ;;		line 1817 in file "/opt/microchip/xc8/v2.45/pic/sources/c99/common/doprnt.c"
  4346 ;; Parameters:    Size  Location     Type
  4347 ;;  fp              1    wreg     PTR struct _IO_FILE
  4348 ;;		 -> NULL(0), 
  4349 ;;  fmt             1   53[BANK1 ] PTR const unsigned char 
  4350 ;;		 -> STR_2(20), STR_1(18), 
  4351 ;;  ap              1   54[BANK1 ] PTR PTR void 
  4352 ;;		 -> printf@ap(1), 
  4353 ;; Auto vars:     Size  Location     Type
  4354 ;;  fp              1   55[BANK1 ] PTR struct _IO_FILE
  4355 ;;		 -> NULL(0), 
  4356 ;;  cfmt            1   56[BANK1 ] PTR unsigned char 
  4357 ;;		 -> STR_2(20), STR_1(18), 
  4358 ;; Return value:  Size  Location     Type
  4359 ;;                  2   53[BANK1 ] int 
  4360 ;; Registers used:
  4361 ;;		wreg, fsr0l, fsr0h, status,2, status,0, btemp+1, pclath, cstack
  4362 ;; Tracked objects:
  4363 ;;		On entry : 0/0
  4364 ;;		On exit  : 0/0
  4365 ;;		Unchanged: 0/0
  4366 ;; Data sizes:     COMMON   BANK0   BANK1   BANK3   BANK2
  4367 ;;      Params:         0       0       2       0       0
  4368 ;;      Locals:         0       0       2       0       0
  4369 ;;      Temps:          0       0       0       0       0
  4370 ;;      Totals:         0       0       4       0       0
  4371 ;;Total ram usage:        4 bytes
  4372 ;; Hardware stack levels used: 1
  4373 ;; Hardware stack levels required when called: 6
  4374 ;; This function calls:
  4375 ;;		_vfpfcnvrt
  4376 ;; This function is called by:
  4377 ;;		_printf
  4378 ;; This function uses a non-reentrant model
  4379 ;;
  4380                           
  4381  0000'                    _vfprintf:	
  4382                           ;psect for function _vfprintf
  4383                           
  4384                           
  4385                           ;incstack = 0
  4386 ;; hardware stack exceeded
  4387                           ; Regs used in _vfprintf: [wreg-fsr0h+status,2+status,0+btemp+1+pclath+cstack]
  4388                           ;vfprintf@fp stored from wreg
  4389  0000' 1683               	bsf	3,5	;RP0=1, select bank1
  4390  0001' 1303               	bcf	3,6	;RP1=0, select bank1
  4391  0002' 0080'              	movwf	vfprintf@fp^(0+128)
  4392  0003'                    i1l3956:
  4393                           
  4394                           ;/opt/microchip/xc8/v2.45/pic/sources/c99/common/doprnt.c: 1817: int vfprintf(FILE *fp, 
      +                          const char *fmt, va_list ap);/opt/microchip/xc8/v2.45/pic/sources/c99/common/doprnt.c: 1
      +                          818: {;/opt/microchip/xc8/v2.45/pic/sources/c99/common/doprnt.c: 1820:     char *cfmt;;/
      +                          opt/microchip/xc8/v2.45/pic/sources/c99/common/doprnt.c: 1822:     cfmt = (char *)fmt;
  4395  0003' 0800'              	movf	vfprintf@fmt^(0+128),w
  4396  0004' 0080'              	movwf	vfprintf@cfmt^(0+128)
  4397                           
  4398                           ;/opt/microchip/xc8/v2.45/pic/sources/c99/common/doprnt.c: 1826:     while (*cfmt) {
  4399  0005' 2800'              	goto	i1l3960
  4400  0006'                    i1l3958:
  4401                           
  4402                           ;/opt/microchip/xc8/v2.45/pic/sources/c99/common/doprnt.c: 1830:    vfpfcnvrt(fp, &cfmt,
      +                           ap);
  4403  0006' 3000'              	movlw	(low (vfprintf@cfmt| 0))& (0+255)
  4404  0007' 1283               	bcf	3,5	;RP0=0, select bank0
  4405  0008' 1303               	bcf	3,6	;RP1=0, select bank0
  4406  0009' 00CB'              	movwf	vfpfcnvrt@fmt
  4407  000A' 1683               	bsf	3,5	;RP0=1, select bank1
  4408  000B' 1303               	bcf	3,6	;RP1=0, select bank1
  4409  000C' 0800'              	movf	vfprintf@ap^(0+128),w
  4410  000D' 1283               	bcf	3,5	;RP0=0, select bank0
  4411  000E' 1303               	bcf	3,6	;RP1=0, select bank0
  4412  000F' 00CC'              	movwf	vfpfcnvrt@ap
  4413  0010' 1683               	bsf	3,5	;RP0=1, select bank1
  4414  0011' 1303               	bcf	3,6	;RP1=0, select bank1
  4415  0012' 0800'              	movf	vfprintf@fp^(0+128),w
  4416  0013' 120A' 118A' 2000' 120A' 118A' 	fcall	_vfpfcnvrt
  4417  0018'                    i1l3960:
  4418                           
  4419                           ;/opt/microchip/xc8/v2.45/pic/sources/c99/common/doprnt.c: 1826:     while (*cfmt) {
  4420  0018' 1683               	bsf	3,5	;RP0=1, select bank1
  4421  0019' 1303               	bcf	3,6	;RP1=0, select bank1
  4422  001A' 0800'              	movf	vfprintf@cfmt^(0+128),w
  4423  001B' 0084               	movwf	4
  4424  001C' 120A' 118A' 2000' 120A' 118A' 	fcall	stringdir
  4425  0021' 3A00               	xorlw	0
  4426  0022' 1D03               	skipz
  4427  0023' 2800'              	goto	u540_21
  4428  0024' 2800'              	goto	u540_20
  4429  0025'                    u540_21:
  4430  0025' 2800'              	goto	i1l3958
  4431  0026'                    u540_20:
  4432  0026'                    i1l3962:
  4433                           
  4434                           ;/opt/microchip/xc8/v2.45/pic/sources/c99/common/doprnt.c: 1835:  return 0;
  4435  0026' 0180'              	clrf	?_vfprintf^(0+128)
  4436  0027' 0180'              	clrf	(?_vfprintf+1)^(0+128)
  4437  0028'                    i1l996:
  4438  0028' 0008               	return
  4439  0029'                    __end_of_vfprintf:
  4440                           
  4441                           	psect	text20
  4442  0000'                    __ptext20:	
  4443 ;; *************** function _vfpfcnvrt *****************
  4444 ;; Defined at:
  4445 ;;		line 1177 in file "/opt/microchip/xc8/v2.45/pic/sources/c99/common/doprnt.c"
  4446 ;; Parameters:    Size  Location     Type
  4447 ;;  fp              1    wreg     PTR struct _IO_FILE
  4448 ;;		 -> NULL(0), 
  4449 ;;  fmt             1   75[BANK0 ] PTR PTR unsigned char 
  4450 ;;		 -> vfprintf@cfmt(1), 
  4451 ;;  ap              1   76[BANK0 ] PTR PTR void 
  4452 ;;		 -> printf@ap(1), 
  4453 ;; Auto vars:     Size  Location     Type
  4454 ;;  fp              1   51[BANK1 ] PTR struct _IO_FILE
  4455 ;;		 -> NULL(0), 
  4456 ;;  convarg         4   46[BANK1 ] struct .
  4457 ;;  cp              1   52[BANK1 ] PTR unsigned char 
  4458 ;;		 -> STR_2(20), STR_1(18), 
  4459 ;;  c               1   50[BANK1 ] unsigned char 
  4460 ;;  done            1   45[BANK1 ] _Bool 
  4461 ;; Return value:  Size  Location     Type
  4462 ;;                  1    wreg      void 
  4463 ;; Registers used:
  4464 ;;		wreg, fsr0l, fsr0h, status,2, status,0, btemp+1, pclath, cstack
  4465 ;; Tracked objects:
  4466 ;;		On entry : 0/0
  4467 ;;		On exit  : 0/0
  4468 ;;		Unchanged: 0/0
  4469 ;; Data sizes:     COMMON   BANK0   BANK1   BANK3   BANK2
  4470 ;;      Params:         0       2       0       0       0
  4471 ;;      Locals:         0       0       8       0       0
  4472 ;;      Temps:          0       2       0       0       0
  4473 ;;      Totals:         0       4       8       0       0
  4474 ;;Total ram usage:       12 bytes
  4475 ;; Hardware stack levels used: 1
  4476 ;; Hardware stack levels required when called: 5
  4477 ;; This function calls:
  4478 ;;		_dtoa
  4479 ;;		_efgtoa
  4480 ;;		_fputc
  4481 ;;		_read_prec_or_width
  4482 ;;		_stoa
  4483 ;; This function is called by:
  4484 ;;		_vfprintf
  4485 ;; This function uses a non-reentrant model
  4486 ;;
  4487                           
  4488  0000'                    _vfpfcnvrt:	
  4489                           ;psect for function _vfpfcnvrt
  4490                           
  4491                           
  4492                           ;incstack = 0
  4493 ;; hardware stack exceeded
  4494                           ; Regs used in _vfpfcnvrt: [wreg-fsr0h+status,2+status,0+btemp+1+pclath+cstack]
  4495                           ;vfpfcnvrt@fp stored from wreg
  4496  0000' 1683               	bsf	3,5	;RP0=1, select bank1
  4497  0001' 1303               	bcf	3,6	;RP1=0, select bank1
  4498  0002' 0080'              	movwf	vfpfcnvrt@fp^(0+128)
  4499  0003'                    i1l3810:
  4500                           
  4501                           ;/opt/microchip/xc8/v2.45/pic/sources/c99/common/doprnt.c: 1177: vfpfcnvrt(FILE *fp, cha
      +                          r *fmt[], va_list ap);/opt/microchip/xc8/v2.45/pic/sources/c99/common/doprnt.c: 1178: {;
      +                          /opt/microchip/xc8/v2.45/pic/sources/c99/common/doprnt.c: 1179:     char c, *cp;;/opt/mi
      +                          crochip/xc8/v2.45/pic/sources/c99/common/doprnt.c: 1180:     _Bool done;;/opt/microchip/
      +                          xc8/v2.45/pic/sources/c99/common/doprnt.c: 1188:  } convarg;;/opt/microchip/xc8/v2.45/pi
      +                          c/sources/c99/common/doprnt.c: 1201:     if ((*fmt)[0] == '%') {
  4502  0003' 1283               	bcf	3,5	;RP0=0, select bank0
  4503  0004' 1303               	bcf	3,6	;RP1=0, select bank0
  4504  0005' 084B'              	movf	vfpfcnvrt@fmt,w
  4505  0006' 0084               	movwf	4
  4506  0007' 1383               	bcf	3,7	;select IRP bank0
  4507  0008' 0800               	movf	0,w
  4508  0009' 0084               	movwf	4
  4509  000A' 120A' 118A' 2000' 120A' 118A' 	fcall	stringdir
  4510  000F' 3A25               	xorlw	37
  4511  0010' 1D03               	skipz
  4512  0011' 2800'              	goto	u530_21
  4513  0012' 2800'              	goto	u530_20
  4514  0013'                    u530_21:
  4515  0013' 2800'              	goto	i1l3898
  4516  0014'                    u530_20:
  4517  0014'                    i1l3812:
  4518                           
  4519                           ;/opt/microchip/xc8/v2.45/pic/sources/c99/common/doprnt.c: 1202:         ++*fmt;
  4520  0014' 3001               	movlw	1
  4521  0015' 00CD'              	movwf	??_vfpfcnvrt
  4522  0016' 084B'              	movf	vfpfcnvrt@fmt,w
  4523  0017' 0084               	movwf	4
  4524  0018' 084D'              	movf	??_vfpfcnvrt,w
  4525  0019' 0780               	addwf	0,f
  4526  001A'                    i1l3814:
  4527                           
  4528                           ;/opt/microchip/xc8/v2.45/pic/sources/c99/common/doprnt.c: 1204:         flags = width =
      +                           0;
  4529  001A' 1683               	bsf	3,5	;RP0=1, select bank3
  4530  001B' 1703               	bsf	3,6	;RP1=1, select bank3
  4531  001C' 0180'              	clrf	_width^(0+384)
  4532  001D' 0180'              	clrf	(_width+1)^(0+384)
  4533  001E' 1003               	clrc
  4534  001F' 3000               	movlw	0
  4535  0020' 1803               	btfsc	3,0
  4536  0021' 3001               	movlw	1
  4537  0022' 0080'              	movwf	_flags^(0+384)
  4538  0023'                    i1l3816:
  4539                           
  4540                           ;/opt/microchip/xc8/v2.45/pic/sources/c99/common/doprnt.c: 1205:         prec = -1;
  4541  0023' 30FF               	movlw	255
  4542  0024' 1683               	bsf	3,5	;RP0=1, select bank1
  4543  0025' 1303               	bcf	3,6	;RP1=0, select bank1
  4544  0026' 0080'              	movwf	_prec^(0+128)
  4545  0027' 30FF               	movlw	255
  4546  0028' 0081'              	movwf	(_prec^(0+128)+1)
  4547  0029'                    i1l3818:
  4548                           
  4549                           ;/opt/microchip/xc8/v2.45/pic/sources/c99/common/doprnt.c: 1265:         if ((*fmt)[0] =
      +                          = '.') {
  4550  0029' 1283               	bcf	3,5	;RP0=0, select bank0
  4551  002A' 1303               	bcf	3,6	;RP1=0, select bank0
  4552  002B' 084B'              	movf	vfpfcnvrt@fmt,w
  4553  002C' 0084               	movwf	4
  4554  002D' 0800               	movf	0,w
  4555  002E' 0084               	movwf	4
  4556  002F' 120A' 118A' 2000' 120A' 118A' 	fcall	stringdir
  4557  0034' 3A2E               	xorlw	46
  4558  0035' 1D03               	skipz
  4559  0036' 2800'              	goto	u531_21
  4560  0037' 2800'              	goto	u531_20
  4561  0038'                    u531_21:
  4562  0038' 2800'              	goto	i1l3824
  4563  0039'                    u531_20:
  4564  0039'                    i1l3820:
  4565                           
  4566                           ;/opt/microchip/xc8/v2.45/pic/sources/c99/common/doprnt.c: 1266:             ++*fmt;
  4567  0039' 3001               	movlw	1
  4568  003A' 00CD'              	movwf	??_vfpfcnvrt
  4569  003B' 084B'              	movf	vfpfcnvrt@fmt,w
  4570  003C' 0084               	movwf	4
  4571  003D' 084D'              	movf	??_vfpfcnvrt,w
  4572  003E' 0780               	addwf	0,f
  4573  003F'                    i1l3822:
  4574                           
  4575                           ;/opt/microchip/xc8/v2.45/pic/sources/c99/common/doprnt.c: 1267:    prec = read_prec_or_
      +                          width(fmt, ap);
  4576  003F' 084C'              	movf	vfpfcnvrt@ap,w
  4577  0040' 0086'              	movwf	read_prec_or_width@ap
  4578  0041' 084B'              	movf	vfpfcnvrt@fmt,w
  4579  0042' 120A' 118A' 2000' 120A' 118A' 	fcall	_read_prec_or_width
  4580  0047' 0807'              	movf	?_read_prec_or_width+1,w
  4581  0048' 1683               	bsf	3,5	;RP0=1, select bank1
  4582  0049' 1303               	bcf	3,6	;RP1=0, select bank1
  4583  004A' 0080'              	movwf	(_prec+1)^(0+128)
  4584  004B' 0806'              	movf	?_read_prec_or_width,w
  4585  004C' 0080'              	movwf	_prec^(0+128)
  4586  004D'                    i1l3824:
  4587                           
  4588                           ;/opt/microchip/xc8/v2.45/pic/sources/c99/common/doprnt.c: 1291:   cp = *fmt;
  4589  004D' 1283               	bcf	3,5	;RP0=0, select bank0
  4590  004E' 084B'              	movf	vfpfcnvrt@fmt,w
  4591  004F' 0084               	movwf	4
  4592  0050' 1383               	bcf	3,7	;select IRP bank0
  4593  0051' 0800               	movf	0,w
  4594  0052' 1683               	bsf	3,5	;RP0=1, select bank1
  4595  0053' 1303               	bcf	3,6	;RP1=0, select bank1
  4596  0054' 0080'              	movwf	vfpfcnvrt@cp^(0+128)
  4597  0055'                    i1l3826:
  4598                           
  4599                           ;/opt/microchip/xc8/v2.45/pic/sources/c99/common/doprnt.c: 1361:   if (*cp == 'd' || *cp
      +                           == 'i') {
  4600  0055' 0800'              	movf	vfpfcnvrt@cp^(0+128),w
  4601  0056' 0084               	movwf	4
  4602  0057' 120A' 118A' 2000' 120A' 118A' 	fcall	stringdir
  4603  005C' 3A64               	xorlw	100
  4604  005D' 1903               	skipnz
  4605  005E' 2800'              	goto	u532_21
  4606  005F' 2800'              	goto	u532_20
  4607  0060'                    u532_21:
  4608  0060' 2800'              	goto	i1l3830
  4609  0061'                    u532_20:
  4610  0061'                    i1l3828:
  4611  0061' 0800'              	movf	vfpfcnvrt@cp^(0+128),w
  4612  0062' 0084               	movwf	4
  4613  0063' 120A' 118A' 2000' 120A' 118A' 	fcall	stringdir
  4614  0068' 3A69               	xorlw	105
  4615  0069' 1D03               	skipz
  4616  006A' 2800'              	goto	u533_21
  4617  006B' 2800'              	goto	u533_20
  4618  006C'                    u533_21:
  4619  006C' 2800'              	goto	i1l3836
  4620  006D'                    u533_20:
  4621  006D'                    i1l3830:
  4622                           
  4623                           ;/opt/microchip/xc8/v2.45/pic/sources/c99/common/doprnt.c: 1404:    convarg.sint = (vfpf
      +                          _sint_t)(int)(*(int *)__va_arg(*(int **)ap, (int)0));
  4624  006D' 1283               	bcf	3,5	;RP0=0, select bank0
  4625  006E' 1303               	bcf	3,6	;RP1=0, select bank0
  4626  006F' 084C'              	movf	vfpfcnvrt@ap,w
  4627  0070' 0084               	movwf	4
  4628  0071' 0800               	movf	0,w
  4629  0072' 00CD'              	movwf	??_vfpfcnvrt
  4630  0073' 3002               	movlw	2
  4631  0074' 0780               	addwf	0,f
  4632  0075' 084D'              	movf	??_vfpfcnvrt,w
  4633  0076' 0084               	movwf	4
  4634  0077' 0800               	movf	0,w
  4635  0078' 1683               	bsf	3,5	;RP0=1, select bank1
  4636  0079' 1303               	bcf	3,6	;RP1=0, select bank1
  4637  007A' 0080'              	movwf	vfpfcnvrt@convarg^(0+128)
  4638  007B' 0A84               	incf	4,f
  4639  007C' 0800               	movf	0,w
  4640  007D' 0080'              	movwf	(vfpfcnvrt@convarg+1)^(0+128)
  4641                           
  4642                           ;/opt/microchip/xc8/v2.45/pic/sources/c99/common/doprnt.c: 1406:    *fmt = cp+1;
  4643  007E' 1283               	bcf	3,5	;RP0=0, select bank0
  4644  007F' 1303               	bcf	3,6	;RP1=0, select bank0
  4645  0080' 084B'              	movf	vfpfcnvrt@fmt,w
  4646  0081' 0084               	movwf	4
  4647  0082' 1683               	bsf	3,5	;RP0=1, select bank1
  4648  0083' 1303               	bcf	3,6	;RP1=0, select bank1
  4649  0084' 0800'              	movf	vfpfcnvrt@cp^(0+128),w
  4650  0085' 3E01               	addlw	1
  4651  0086' 0080               	movwf	0
  4652  0087'                    i1l3832:
  4653                           
  4654                           ;/opt/microchip/xc8/v2.45/pic/sources/c99/common/doprnt.c: 1432:    return (void) dtoa(f
      +                          p, convarg.sint);;	Return value of _vfpfcnvrt is never used
  4655  0087' 0800'              	movf	(vfpfcnvrt@convarg+1)^(0+128),w
  4656  0088' 1283               	bcf	3,5	;RP0=0, select bank0
  4657  0089' 1303               	bcf	3,6	;RP1=0, select bank0
  4658  008A' 008B'              	movwf	dtoa@d+1
  4659  008B' 1683               	bsf	3,5	;RP0=1, select bank1
  4660  008C' 1303               	bcf	3,6	;RP1=0, select bank1
  4661  008D' 0800'              	movf	vfpfcnvrt@convarg^(0+128),w
  4662  008E' 1283               	bcf	3,5	;RP0=0, select bank0
  4663  008F' 1303               	bcf	3,6	;RP1=0, select bank0
  4664  0090' 008A'              	movwf	dtoa@d
  4665  0091' 1683               	bsf	3,5	;RP0=1, select bank1
  4666  0092' 1303               	bcf	3,6	;RP1=0, select bank1
  4667  0093' 0800'              	movf	vfpfcnvrt@fp^(0+128),w
  4668  0094' 120A' 118A' 2000' 120A' 118A' 	fcall	_dtoa
  4669  0099' 2800'              	goto	i1l970
  4670  009A'                    i1l3836:
  4671                           
  4672                           ;/opt/microchip/xc8/v2.45/pic/sources/c99/common/doprnt.c: 1656:   done = 0;
  4673  009A' 0180'              	clrf	vfpfcnvrt@done^(0+128)
  4674  009B'                    i1l3838:
  4675                           
  4676                           ;/opt/microchip/xc8/v2.45/pic/sources/c99/common/doprnt.c: 1657:   if ((*fmt)[0] == 's')
      +                           {
  4677  009B' 1283               	bcf	3,5	;RP0=0, select bank0
  4678  009C' 1303               	bcf	3,6	;RP1=0, select bank0
  4679  009D' 084B'              	movf	vfpfcnvrt@fmt,w
  4680  009E' 0084               	movwf	4
  4681  009F' 0800               	movf	0,w
  4682  00A0' 0084               	movwf	4
  4683  00A1' 120A' 118A' 2000' 120A' 118A' 	fcall	stringdir
  4684  00A6' 3A73               	xorlw	115
  4685  00A7' 1D03               	skipz
  4686  00A8' 2800'              	goto	u534_21
  4687  00A9' 2800'              	goto	u534_20
  4688  00AA'                    u534_21:
  4689  00AA' 2800'              	goto	i1l3844
  4690  00AB'                    u534_20:
  4691  00AB'                    i1l3840:
  4692                           
  4693                           ;/opt/microchip/xc8/v2.45/pic/sources/c99/common/doprnt.c: 1658:    ++*fmt;
  4694  00AB' 3001               	movlw	1
  4695  00AC' 00CD'              	movwf	??_vfpfcnvrt
  4696  00AD' 084B'              	movf	vfpfcnvrt@fmt,w
  4697  00AE' 0084               	movwf	4
  4698  00AF' 084D'              	movf	??_vfpfcnvrt,w
  4699  00B0' 0780               	addwf	0,f
  4700  00B1'                    i1l3842:
  4701                           
  4702                           ;/opt/microchip/xc8/v2.45/pic/sources/c99/common/doprnt.c: 1659:    done = 1;
  4703  00B1' 1683               	bsf	3,5	;RP0=1, select bank1
  4704  00B2' 1303               	bcf	3,6	;RP1=0, select bank1
  4705  00B3' 0180'              	clrf	vfpfcnvrt@done^(0+128)
  4706  00B4' 0A80'              	incf	vfpfcnvrt@done^(0+128),f
  4707                           
  4708                           ;/opt/microchip/xc8/v2.45/pic/sources/c99/common/doprnt.c: 1660:   }
  4709  00B5' 2800'              	goto	i1l3854
  4710  00B6'                    i1l3844:
  4711  00B6' 084B'              	movf	vfpfcnvrt@fmt,w
  4712  00B7' 0084               	movwf	4
  4713  00B8' 0800               	movf	0,w
  4714  00B9' 0084               	movwf	4
  4715  00BA' 120A' 118A' 2000' 120A' 118A' 	fcall	stringdir
  4716  00BF' 3A6C               	xorlw	108
  4717  00C0' 1D03               	skipz
  4718  00C1' 2800'              	goto	u535_21
  4719  00C2' 2800'              	goto	u535_20
  4720  00C3'                    u535_21:
  4721  00C3' 2800'              	goto	i1l3854
  4722  00C4'                    u535_20:
  4723  00C4'                    i1l3846:
  4724  00C4' 084B'              	movf	vfpfcnvrt@fmt,w
  4725  00C5' 0084               	movwf	4
  4726  00C6' 0800               	movf	0,w
  4727  00C7' 3E01               	addlw	1
  4728  00C8' 0084               	movwf	4
  4729  00C9' 120A' 118A' 2000' 120A' 118A' 	fcall	stringdir
  4730  00CE' 3A6C               	xorlw	108
  4731  00CF' 1D03               	skipz
  4732  00D0' 2800'              	goto	u536_21
  4733  00D1' 2800'              	goto	u536_20
  4734  00D2'                    u536_21:
  4735  00D2' 2800'              	goto	i1l3854
  4736  00D3'                    u536_20:
  4737  00D3'                    i1l3848:
  4738  00D3' 084B'              	movf	vfpfcnvrt@fmt,w
  4739  00D4' 0084               	movwf	4
  4740  00D5' 0800               	movf	0,w
  4741  00D6' 3E02               	addlw	2
  4742  00D7' 0084               	movwf	4
  4743  00D8' 120A' 118A' 2000' 120A' 118A' 	fcall	stringdir
  4744  00DD' 3A73               	xorlw	115
  4745  00DE' 1D03               	skipz
  4746  00DF' 2800'              	goto	u537_21
  4747  00E0' 2800'              	goto	u537_20
  4748  00E1'                    u537_21:
  4749  00E1' 2800'              	goto	i1l3854
  4750  00E2'                    u537_20:
  4751  00E2'                    i1l3850:
  4752                           
  4753                           ;/opt/microchip/xc8/v2.45/pic/sources/c99/common/doprnt.c: 1662:    *fmt += 3;
  4754  00E2' 3003               	movlw	3
  4755  00E3' 00CD'              	movwf	??_vfpfcnvrt
  4756  00E4' 084B'              	movf	vfpfcnvrt@fmt,w
  4757  00E5' 0084               	movwf	4
  4758  00E6' 084D'              	movf	??_vfpfcnvrt,w
  4759  00E7' 0780               	addwf	0,f
  4760  00E8' 2800'              	goto	i1l3842
  4761  00E9'                    i1l3854:
  4762                           
  4763                           ;/opt/microchip/xc8/v2.45/pic/sources/c99/common/doprnt.c: 1665:   if (done) {
  4764  00E9' 1683               	bsf	3,5	;RP0=1, select bank1
  4765  00EA' 1303               	bcf	3,6	;RP1=0, select bank1
  4766  00EB' 0800'              	movf	vfpfcnvrt@done^(0+128),w
  4767  00EC' 1903               	btfsc	3,2
  4768  00ED' 2800'              	goto	u538_21
  4769  00EE' 2800'              	goto	u538_20
  4770  00EF'                    u538_21:
  4771  00EF' 2800'              	goto	i1l3860
  4772  00F0'                    u538_20:
  4773  00F0'                    i1l3856:
  4774                           
  4775                           ;/opt/microchip/xc8/v2.45/pic/sources/c99/common/doprnt.c: 1682:    return (void) stoa(f
      +                          p, (*(char * *)__va_arg(*(char * **)ap, (char *)0)));;	Return value of _vfpfcnvrt is nev
      +                          er used
  4776  00F0' 1283               	bcf	3,5	;RP0=0, select bank0
  4777  00F1' 1303               	bcf	3,6	;RP1=0, select bank0
  4778  00F2' 084C'              	movf	vfpfcnvrt@ap,w
  4779  00F3' 0084               	movwf	4
  4780  00F4' 0800               	movf	0,w
  4781  00F5' 00CD'              	movwf	??_vfpfcnvrt
  4782  00F6' 3002               	movlw	2
  4783  00F7' 0780               	addwf	0,f
  4784  00F8' 084D'              	movf	??_vfpfcnvrt,w
  4785  00F9' 0084               	movwf	4
  4786  00FA' 0800               	movf	0,w
  4787  00FB' 0089'              	movwf	stoa@s
  4788  00FC' 0A84               	incf	4,f
  4789  00FD' 0800               	movf	0,w
  4790  00FE' 0384               	decf	4,f
  4791  00FF' 008A'              	movwf	stoa@s+1
  4792  0100' 1683               	bsf	3,5	;RP0=1, select bank1
  4793  0101' 1303               	bcf	3,6	;RP1=0, select bank1
  4794  0102' 0800'              	movf	vfpfcnvrt@fp^(0+128),w
  4795  0103' 120A' 118A' 2000' 120A' 118A' 	fcall	_stoa
  4796  0108' 2800'              	goto	i1l970
  4797  0109'                    i1l3860:
  4798                           
  4799                           ;/opt/microchip/xc8/v2.45/pic/sources/c99/common/doprnt.c: 1689:   cp = *fmt;
  4800  0109' 1283               	bcf	3,5	;RP0=0, select bank0
  4801  010A' 1303               	bcf	3,6	;RP1=0, select bank0
  4802  010B' 084B'              	movf	vfpfcnvrt@fmt,w
  4803  010C' 0084               	movwf	4
  4804  010D' 0800               	movf	0,w
  4805  010E' 1683               	bsf	3,5	;RP0=1, select bank1
  4806  010F' 1303               	bcf	3,6	;RP1=0, select bank1
  4807  0110' 0080'              	movwf	vfpfcnvrt@cp^(0+128)
  4808  0111'                    i1l3862:
  4809                           
  4810                           ;/opt/microchip/xc8/v2.45/pic/sources/c99/common/doprnt.c: 1690:   c = *cp;
  4811  0111' 0800'              	movf	vfpfcnvrt@cp^(0+128),w
  4812  0112' 0084               	movwf	4
  4813  0113' 120A' 118A' 2000' 120A' 118A' 	fcall	stringdir
  4814  0118' 0080'              	movwf	vfpfcnvrt@c^(0+128)
  4815                           
  4816                           ;/opt/microchip/xc8/v2.45/pic/sources/c99/common/doprnt.c: 1691:   switch(c) {
  4817  0119' 2800'              	goto	i1l3872
  4818  011A'                    i1l3864:
  4819                           
  4820                           ;/opt/microchip/xc8/v2.45/pic/sources/c99/common/doprnt.c: 1695:     cp++;
  4821  011A' 3001               	movlw	1
  4822  011B' 00CD'              	movwf	??_vfpfcnvrt
  4823  011C' 084D'              	movf	??_vfpfcnvrt,w
  4824  011D' 1683               	bsf	3,5	;RP0=1, select bank1
  4825  011E' 1303               	bcf	3,6	;RP1=0, select bank1
  4826  011F' 0780'              	addwf	vfpfcnvrt@cp^(0+128),f
  4827                           
  4828                           ;/opt/microchip/xc8/v2.45/pic/sources/c99/common/doprnt.c: 1696:     break;
  4829  0120' 2800'              	goto	i1l3874
  4830  0121'                    i1l3866:
  4831                           
  4832                           ;/opt/microchip/xc8/v2.45/pic/sources/c99/common/doprnt.c: 1721:     c = 'l';
  4833  0121' 306C               	movlw	108
  4834  0122' 1683               	bsf	3,5	;RP0=1, select bank1
  4835  0123' 1303               	bcf	3,6	;RP1=0, select bank1
  4836  0124' 0080'              	movwf	vfpfcnvrt@c^(0+128)
  4837                           
  4838                           ;/opt/microchip/xc8/v2.45/pic/sources/c99/common/doprnt.c: 1722:     break;
  4839  0125' 2800'              	goto	i1l3874
  4840  0126'                    i1l3868:
  4841                           
  4842                           ;/opt/microchip/xc8/v2.45/pic/sources/c99/common/doprnt.c: 1724:     c = 0;
  4843  0126' 1683               	bsf	3,5	;RP0=1, select bank1
  4844  0127' 1303               	bcf	3,6	;RP1=0, select bank1
  4845  0128' 0180'              	clrf	vfpfcnvrt@c^(0+128)
  4846                           
  4847                           ;/opt/microchip/xc8/v2.45/pic/sources/c99/common/doprnt.c: 1725:     break;
  4848  0129' 2800'              	goto	i1l3874
  4849  012A'                    i1l3872:
  4850  012A' 0800'              	movf	vfpfcnvrt@c^(0+128),w
  4851  012B' 1283               	bcf	3,5	;RP0=0, select bank0
  4852  012C' 1303               	bcf	3,6	;RP1=0, select bank0
  4853  012D' 00CD'              	movwf	??_vfpfcnvrt
  4854  012E' 01CE'              	clrf	??_vfpfcnvrt+1
  4855                           
  4856                           ; Switch on 2 bytes has been partitioned into a top level switch of size 1, and 1 sub-sw
      +                          itches
  4857                           ; Switch size 1, requested type "simple"
  4858                           ; Number of cases is 1, Range of values is 0 to 0
  4859                           ; switch strategies available:
  4860                           ; Name         Instructions Cycles
  4861                           ; simple_byte            4     3 (average)
  4862                           ; direct_byte           11     8 (fixed)
  4863                           ; jumptable            260     6 (fixed)
  4864                           ;	Chosen strategy is simple_byte
  4865  012F' 084E'              	movf	??_vfpfcnvrt+1,w
  4866  0130' 3A00               	xorlw	0	; case 0
  4867  0131' 1903               	skipnz
  4868  0132' 2800'              	goto	i1l4388
  4869  0133' 2800'              	goto	i1l3868
  4870  0134'                    i1l4388:
  4871                           
  4872                           ; Switch size 1, requested type "simple"
  4873                           ; Number of cases is 3, Range of values is 76 to 108
  4874                           ; switch strategies available:
  4875                           ; Name         Instructions Cycles
  4876                           ; simple_byte           10     6 (average)
  4877                           ; direct_byte          110    11 (fixed)
  4878                           ; jumptable            263     9 (fixed)
  4879                           ;	Chosen strategy is simple_byte
  4880  0134' 084D'              	movf	??_vfpfcnvrt,w
  4881  0135' 3A4C               	xorlw	76	; case 76
  4882  0136' 1903               	skipnz
  4883  0137' 2800'              	goto	i1l3864
  4884  0138' 3A2A               	xorlw	42	; case 102
  4885  0139' 1903               	skipnz
  4886  013A' 2800'              	goto	i1l3866
  4887  013B' 3A0A               	xorlw	10	; case 108
  4888  013C' 1903               	skipnz
  4889  013D' 2800'              	goto	i1l3864
  4890  013E' 2800'              	goto	i1l3868
  4891  013F'                    i1l3874:
  4892  013F' 0800'              	movf	vfpfcnvrt@cp^(0+128),w
  4893  0140' 0084               	movwf	4
  4894  0141' 120A' 118A' 2000' 120A' 118A' 	fcall	stringdir
  4895  0146' 3A66               	xorlw	102
  4896  0147' 1D03               	skipz
  4897  0148' 2800'              	goto	u539_21
  4898  0149' 2800'              	goto	u539_20
  4899  014A'                    u539_21:
  4900  014A' 2800'              	goto	i1l3894
  4901  014B'                    u539_20:
  4902  014B' 2800'              	goto	i1l3882
  4903  014C'                    i1l3876:
  4904                           
  4905                           ;/opt/microchip/xc8/v2.45/pic/sources/c99/common/doprnt.c: 1756:      convarg.f = (long 
      +                          double)(*(double *)__va_arg(*(double **)ap, (double)0));
  4906  014C' 084C'              	movf	vfpfcnvrt@ap,w
  4907  014D' 0084               	movwf	4
  4908  014E' 0800               	movf	0,w
  4909  014F' 00CD'              	movwf	??_vfpfcnvrt
  4910  0150' 3004               	movlw	4
  4911  0151' 0780               	addwf	0,f
  4912  0152' 084D'              	movf	??_vfpfcnvrt,w
  4913  0153' 0084               	movwf	4
  4914  0154' 0800               	movf	0,w
  4915  0155' 1683               	bsf	3,5	;RP0=1, select bank1
  4916  0156' 1303               	bcf	3,6	;RP1=0, select bank1
  4917  0157' 0080'              	movwf	vfpfcnvrt@convarg^(0+128)
  4918  0158' 0A84               	incf	4,f
  4919  0159' 0800               	movf	0,w
  4920  015A' 0080'              	movwf	(vfpfcnvrt@convarg+1)^(0+128)
  4921  015B' 0A84               	incf	4,f
  4922  015C' 0800               	movf	0,w
  4923  015D' 0080'              	movwf	(vfpfcnvrt@convarg+2)^(0+128)
  4924  015E' 0A84               	incf	4,f
  4925  015F' 0800               	movf	0,w
  4926  0160' 0080'              	movwf	(vfpfcnvrt@convarg+3)^(0+128)
  4927                           
  4928                           ;/opt/microchip/xc8/v2.45/pic/sources/c99/common/doprnt.c: 1757:      break;
  4929  0161' 2800'              	goto	i1l3884
  4930  0162'                    i1l3878:
  4931                           
  4932                           ;/opt/microchip/xc8/v2.45/pic/sources/c99/common/doprnt.c: 1759:      convarg.f = (long 
      +                          double)(*(long double *)__va_arg(*(long double **)ap, (long double)0));
  4933  0162' 084C'              	movf	vfpfcnvrt@ap,w
  4934  0163' 0084               	movwf	4
  4935  0164' 0800               	movf	0,w
  4936  0165' 00CD'              	movwf	??_vfpfcnvrt
  4937  0166' 3004               	movlw	4
  4938  0167' 0780               	addwf	0,f
  4939  0168' 084D'              	movf	??_vfpfcnvrt,w
  4940  0169' 0084               	movwf	4
  4941  016A' 0800               	movf	0,w
  4942  016B' 1683               	bsf	3,5	;RP0=1, select bank1
  4943  016C' 1303               	bcf	3,6	;RP1=0, select bank1
  4944  016D' 0080'              	movwf	vfpfcnvrt@convarg^(0+128)
  4945  016E' 0A84               	incf	4,f
  4946  016F' 0800               	movf	0,w
  4947  0170' 0080'              	movwf	(vfpfcnvrt@convarg+1)^(0+128)
  4948  0171' 0A84               	incf	4,f
  4949  0172' 0800               	movf	0,w
  4950  0173' 0080'              	movwf	(vfpfcnvrt@convarg+2)^(0+128)
  4951  0174' 0A84               	incf	4,f
  4952  0175' 0800               	movf	0,w
  4953  0176' 0080'              	movwf	(vfpfcnvrt@convarg+3)^(0+128)
  4954                           
  4955                           ;/opt/microchip/xc8/v2.45/pic/sources/c99/common/doprnt.c: 1760:      break;
  4956  0177' 2800'              	goto	i1l3884
  4957  0178'                    i1l3882:
  4958  0178' 0800'              	movf	vfpfcnvrt@c^(0+128),w
  4959  0179' 1283               	bcf	3,5	;RP0=0, select bank0
  4960  017A' 1303               	bcf	3,6	;RP1=0, select bank0
  4961  017B' 00CD'              	movwf	??_vfpfcnvrt
  4962  017C' 01CE'              	clrf	??_vfpfcnvrt+1
  4963                           
  4964                           ; Switch on 2 bytes has been partitioned into a top level switch of size 1, and 1 sub-sw
      +                          itches
  4965                           ; Switch size 1, requested type "simple"
  4966                           ; Number of cases is 1, Range of values is 0 to 0
  4967                           ; switch strategies available:
  4968                           ; Name         Instructions Cycles
  4969                           ; simple_byte            4     3 (average)
  4970                           ; direct_byte           11     8 (fixed)
  4971                           ; jumptable            260     6 (fixed)
  4972                           ;	Chosen strategy is simple_byte
  4973  017D' 084E'              	movf	??_vfpfcnvrt+1,w
  4974  017E' 3A00               	xorlw	0	; case 0
  4975  017F' 1903               	skipnz
  4976  0180' 2800'              	goto	i1l4390
  4977  0181' 2800'              	goto	i1l3884
  4978  0182'                    i1l4390:
  4979                           
  4980                           ; Switch size 1, requested type "simple"
  4981                           ; Number of cases is 2, Range of values is 76 to 108
  4982                           ; switch strategies available:
  4983                           ; Name         Instructions Cycles
  4984                           ; simple_byte            7     4 (average)
  4985                           ; direct_byte          110    11 (fixed)
  4986                           ; jumptable            263     9 (fixed)
  4987                           ;	Chosen strategy is simple_byte
  4988  0182' 084D'              	movf	??_vfpfcnvrt,w
  4989  0183' 3A4C               	xorlw	76	; case 76
  4990  0184' 1903               	skipnz
  4991  0185' 2800'              	goto	i1l3878
  4992  0186' 3A20               	xorlw	32	; case 108
  4993  0187' 1903               	skipnz
  4994  0188' 2800'              	goto	i1l3876
  4995  0189' 2800'              	goto	i1l3884
  4996  018A'                    i1l3884:
  4997                           
  4998                           ;/opt/microchip/xc8/v2.45/pic/sources/c99/common/doprnt.c: 1762:    *fmt = cp+1;
  4999  018A' 1283               	bcf	3,5	;RP0=0, select bank0
  5000  018B' 084B'              	movf	vfpfcnvrt@fmt,w
  5001  018C' 0084               	movwf	4
  5002  018D' 1683               	bsf	3,5	;RP0=1, select bank1
  5003  018E' 1303               	bcf	3,6	;RP1=0, select bank1
  5004  018F' 0800'              	movf	vfpfcnvrt@cp^(0+128),w
  5005  0190' 3E01               	addlw	1
  5006  0191' 0080               	movwf	0
  5007                           
  5008                           ;/opt/microchip/xc8/v2.45/pic/sources/c99/common/doprnt.c: 1763:    switch (*cp) {
  5009  0192' 2800'              	goto	i1l3892
  5010  0193'                    i1l3886:
  5011                           
  5012                           ;/opt/microchip/xc8/v2.45/pic/sources/c99/common/doprnt.c: 1790:      return (void) efgt
      +                          oa(fp, convarg.f, *cp);;	Return value of _vfpfcnvrt is never used
  5013  0193' 1683               	bsf	3,5	;RP0=1, select bank1
  5014  0194' 1303               	bcf	3,6	;RP1=0, select bank1
  5015  0195' 0800'              	movf	(vfpfcnvrt@convarg+3)^(0+128),w
  5016  0196' 1283               	bcf	3,5	;RP0=0, select bank0
  5017  0197' 1303               	bcf	3,6	;RP1=0, select bank0
  5018  0198' 00C5'              	movwf	efgtoa@f+3
  5019  0199' 1683               	bsf	3,5	;RP0=1, select bank1
  5020  019A' 1303               	bcf	3,6	;RP1=0, select bank1
  5021  019B' 0800'              	movf	(vfpfcnvrt@convarg+2)^(0+128),w
  5022  019C' 1283               	bcf	3,5	;RP0=0, select bank0
  5023  019D' 1303               	bcf	3,6	;RP1=0, select bank0
  5024  019E' 00C4'              	movwf	efgtoa@f+2
  5025  019F' 1683               	bsf	3,5	;RP0=1, select bank1
  5026  01A0' 1303               	bcf	3,6	;RP1=0, select bank1
  5027  01A1' 0800'              	movf	(vfpfcnvrt@convarg+1)^(0+128),w
  5028  01A2' 1283               	bcf	3,5	;RP0=0, select bank0
  5029  01A3' 1303               	bcf	3,6	;RP1=0, select bank0
  5030  01A4' 00C3'              	movwf	efgtoa@f+1
  5031  01A5' 1683               	bsf	3,5	;RP0=1, select bank1
  5032  01A6' 1303               	bcf	3,6	;RP1=0, select bank1
  5033  01A7' 0800'              	movf	vfpfcnvrt@convarg^(0+128),w
  5034  01A8' 1283               	bcf	3,5	;RP0=0, select bank0
  5035  01A9' 1303               	bcf	3,6	;RP1=0, select bank0
  5036  01AA' 00C2'              	movwf	efgtoa@f
  5037  01AB' 1683               	bsf	3,5	;RP0=1, select bank1
  5038  01AC' 1303               	bcf	3,6	;RP1=0, select bank1
  5039  01AD' 0800'              	movf	vfpfcnvrt@cp^(0+128),w
  5040  01AE' 0084               	movwf	4
  5041  01AF' 120A' 118A' 2000' 120A' 118A' 	fcall	stringdir
  5042  01B4' 1283               	bcf	3,5	;RP0=0, select bank0
  5043  01B5' 1303               	bcf	3,6	;RP1=0, select bank0
  5044  01B6' 00C6'              	movwf	efgtoa@c
  5045  01B7' 1683               	bsf	3,5	;RP0=1, select bank1
  5046  01B8' 1303               	bcf	3,6	;RP1=0, select bank1
  5047  01B9' 0800'              	movf	vfpfcnvrt@fp^(0+128),w
  5048  01BA' 120A' 118A' 2000' 120A' 118A' 	fcall	_efgtoa
  5049  01BF' 2800'              	goto	i1l970
  5050  01C0'                    i1l3892:
  5051  01C0' 0800'              	movf	vfpfcnvrt@cp^(0+128),w
  5052  01C1' 0084               	movwf	4
  5053  01C2' 120A' 118A' 2000' 120A' 118A' 	fcall	stringdir
  5054  01C7' 1283               	bcf	3,5	;RP0=0, select bank0
  5055  01C8' 1303               	bcf	3,6	;RP1=0, select bank0
  5056  01C9' 00CD'              	movwf	??_vfpfcnvrt
  5057  01CA' 01CE'              	clrf	??_vfpfcnvrt+1
  5058                           
  5059                           ; Switch on 2 bytes has been partitioned into a top level switch of size 1, and 1 sub-sw
      +                          itches
  5060                           ; Switch size 1, requested type "simple"
  5061                           ; Number of cases is 1, Range of values is 0 to 0
  5062                           ; switch strategies available:
  5063                           ; Name         Instructions Cycles
  5064                           ; simple_byte            4     3 (average)
  5065                           ; direct_byte           11     8 (fixed)
  5066                           ; jumptable            260     6 (fixed)
  5067                           ;	Chosen strategy is simple_byte
  5068  01CB' 084E'              	movf	??_vfpfcnvrt+1,w
  5069  01CC' 3A00               	xorlw	0	; case 0
  5070  01CD' 1903               	skipnz
  5071  01CE' 2800'              	goto	i1l4392
  5072  01CF' 2800'              	goto	i1l3894
  5073  01D0'                    i1l4392:
  5074                           
  5075                           ; Switch size 1, requested type "simple"
  5076                           ; Number of cases is 1, Range of values is 102 to 102
  5077                           ; switch strategies available:
  5078                           ; Name         Instructions Cycles
  5079                           ; simple_byte            4     3 (average)
  5080                           ; direct_byte           14    11 (fixed)
  5081                           ; jumptable            263     9 (fixed)
  5082                           ;	Chosen strategy is simple_byte
  5083  01D0' 084D'              	movf	??_vfpfcnvrt,w
  5084  01D1' 3A66               	xorlw	102	; case 102
  5085  01D2' 1903               	skipnz
  5086  01D3' 2800'              	goto	i1l3886
  5087  01D4' 2800'              	goto	i1l3894
  5088  01D5'                    i1l3894:
  5089                           
  5090                           ;/opt/microchip/xc8/v2.45/pic/sources/c99/common/doprnt.c: 1806:         ++*fmt;
  5091  01D5' 3001               	movlw	1
  5092  01D6' 1283               	bcf	3,5	;RP0=0, select bank0
  5093  01D7' 1303               	bcf	3,6	;RP1=0, select bank0
  5094  01D8' 00CD'              	movwf	??_vfpfcnvrt
  5095  01D9' 084B'              	movf	vfpfcnvrt@fmt,w
  5096  01DA' 0084               	movwf	4
  5097  01DB' 084D'              	movf	??_vfpfcnvrt,w
  5098  01DC' 1383               	bcf	3,7	;select IRP bank0
  5099  01DD' 0780               	addwf	0,f
  5100  01DE' 2800'              	goto	i1l970
  5101  01DF'                    i1l3898:
  5102                           
  5103                           ;/opt/microchip/xc8/v2.45/pic/sources/c99/common/doprnt.c: 1811:     fputc((int)(*fmt)[0
      +                          ], fp);
  5104  01DF' 084B'              	movf	vfpfcnvrt@fmt,w
  5105  01E0' 0084               	movwf	4
  5106  01E1' 0800               	movf	0,w
  5107  01E2' 0084               	movwf	4
  5108  01E3' 120A' 118A' 2000' 120A' 118A' 	fcall	stringdir
  5109  01E8' 00CD'              	movwf	??_vfpfcnvrt
  5110  01E9' 01CE'              	clrf	??_vfpfcnvrt+1
  5111  01EA' 084D'              	movf	??_vfpfcnvrt,w
  5112  01EB' 0081'              	movwf	fputc@c
  5113  01EC' 084E'              	movf	??_vfpfcnvrt+1,w
  5114  01ED' 0082'              	movwf	fputc@c+1
  5115  01EE' 1683               	bsf	3,5	;RP0=1, select bank1
  5116  01EF' 1303               	bcf	3,6	;RP1=0, select bank1
  5117  01F0' 0800'              	movf	vfpfcnvrt@fp^(0+128),w
  5118  01F1' 0083'              	movwf	fputc@fp
  5119  01F2' 120A' 118A' 2000' 120A' 118A' 	fcall	_fputc
  5120  01F7' 2800'              	goto	i1l3894
  5121  01F8'                    i1l970:
  5122  01F8' 0008               	return
  5123  01F9'                    __end_of_vfpfcnvrt:
  5124                           
  5125                           	psect	text21
  5126  0000'                    __ptext21:	
  5127 ;; *************** function _stoa *****************
  5128 ;; Defined at:
  5129 ;;		line 942 in file "/opt/microchip/xc8/v2.45/pic/sources/c99/common/doprnt.c"
  5130 ;; Parameters:    Size  Location     Type
  5131 ;;  fp              1    wreg     PTR struct _IO_FILE
  5132 ;;		 -> NULL(0), 
  5133 ;;  s               2    9[COMMON] PTR unsigned char 
  5134 ;;		 -> ?_printf(2), STR_8(12), STR_7(11), STR_6(9), 
  5135 ;;		 -> STR_5(6), STR_4(4), STR_3(7), 
  5136 ;; Auto vars:     Size  Location     Type
  5137 ;;  fp              1    2[BANK0 ] PTR struct _IO_FILE
  5138 ;;		 -> NULL(0), 
  5139 ;;  l               2    5[BANK0 ] int 
  5140 ;;  cp              2    3[BANK0 ] PTR unsigned char 
  5141 ;;		 -> STR_15(7), ?_printf(2), STR_8(12), STR_7(11), 
  5142 ;;		 -> STR_6(9), STR_5(6), STR_4(4), STR_3(7), 
  5143 ;;  p               2    0[BANK0 ] int 
  5144 ;; Return value:  Size  Location     Type
  5145 ;;                  1    wreg      void 
  5146 ;; Registers used:
  5147 ;;		wreg, fsr0l, fsr0h, status,2, status,0, btemp+1, pclath, cstack
  5148 ;; Tracked objects:
  5149 ;;		On entry : 0/0
  5150 ;;		On exit  : 0/0
  5151 ;;		Unchanged: 0/0
  5152 ;; Data sizes:     COMMON   BANK0   BANK1   BANK3   BANK2
  5153 ;;      Params:         2       0       0       0       0
  5154 ;;      Locals:         0       7       0       0       0
  5155 ;;      Temps:          3       0       0       0       0
  5156 ;;      Totals:         5       7       0       0       0
  5157 ;;Total ram usage:       12 bytes
  5158 ;; Hardware stack levels used: 1
  5159 ;; Hardware stack levels required when called: 2
  5160 ;; This function calls:
  5161 ;;		_fputc
  5162 ;; This function is called by:
  5163 ;;		_vfpfcnvrt
  5164 ;; This function uses a non-reentrant model
  5165 ;;
  5166                           
  5167  0000'                    _stoa:	
  5168                           ;psect for function _stoa
  5169                           
  5170                           
  5171                           ;incstack = 0
  5172 ;; hardware stack exceeded
  5173                           ; Regs used in _stoa: [wreg-fsr0h+status,2+status,0+btemp+1+pclath+cstack]
  5174                           ;stoa@fp stored from wreg
  5175  0000' 1283               	bcf	3,5	;RP0=0, select bank0
  5176  0001' 1303               	bcf	3,6	;RP1=0, select bank0
  5177  0002' 0082'              	movwf	stoa@fp
  5178  0003'                    i1l3772:
  5179                           
  5180                           ;/opt/microchip/xc8/v2.45/pic/sources/c99/common/doprnt.c: 942: static void stoa(FILE *f
      +                          p, char *s);/opt/microchip/xc8/v2.45/pic/sources/c99/common/doprnt.c: 943: {;/opt/microc
      +                          hip/xc8/v2.45/pic/sources/c99/common/doprnt.c: 944:     char *cp;;/opt/microchip/xc8/v2.
      +                          45/pic/sources/c99/common/doprnt.c: 945:     int l, p;;/opt/microchip/xc8/v2.45/pic/sour
      +                          ces/c99/common/doprnt.c: 951:     cp = s;
  5181  0003' 0809'              	movf	stoa@s,w
  5182  0004' 0083'              	movwf	stoa@cp
  5183  0005' 080A'              	movf	stoa@s+1,w
  5184  0006' 0084'              	movwf	stoa@cp+1
  5185                           
  5186                           ;/opt/microchip/xc8/v2.45/pic/sources/c99/common/doprnt.c: 952:     if (!cp) {
  5187  0007' 0803'              	movf	stoa@cp,w
  5188  0008' 0404'              	iorwf	stoa@cp+1,w
  5189  0009' 1D03               	btfss	3,2
  5190  000A' 2800'              	goto	u521_21
  5191  000B' 2800'              	goto	u521_20
  5192  000C'                    u521_21:
  5193  000C' 2800'              	goto	i1l3776
  5194  000D'                    u521_20:
  5195  000D'                    i1l3774:
  5196                           
  5197                           ;/opt/microchip/xc8/v2.45/pic/sources/c99/common/doprnt.c: 953:         cp = "(null)";
  5198  000D' 3047               	movlw	(low ((STR_15-__stringbase)| (0+32768)))& (0+255)
  5199  000E' 0083'              	movwf	stoa@cp
  5200  000F' 3080               	movlw	128
  5201  0010' 0084'              	movwf	stoa@cp+1
  5202  0011'                    i1l3776:
  5203                           
  5204                           ;/opt/microchip/xc8/v2.45/pic/sources/c99/common/doprnt.c: 957:  for (l = 0; cp[l] != '\
      +                          0'; l++) {
  5205  0011' 0185'              	clrf	stoa@l
  5206  0012' 0186'              	clrf	stoa@l+1
  5207  0013' 2800'              	goto	i1l3780
  5208  0014'                    i1l3778:
  5209  0014' 3001               	movlw	1
  5210  0015' 0785'              	addwf	stoa@l,f
  5211  0016' 1803               	skipnc
  5212  0017' 0A86'              	incf	stoa@l+1,f
  5213  0018' 3000               	movlw	0
  5214  0019' 0786'              	addwf	stoa@l+1,f
  5215  001A'                    i1l3780:
  5216  001A' 0805'              	movf	stoa@l,w
  5217  001B' 0703'              	addwf	stoa@cp,w
  5218  001C' 008C'              	movwf	??_stoa+1
  5219  001D' 0804'              	movf	stoa@cp+1,w
  5220  001E' 008B'              	movwf	??_stoa
  5221  001F' 1803               	skipnc
  5222  0020' 0A8B'              	incf	??_stoa,f
  5223  0021' 1F85'              	btfss	stoa@l,7
  5224  0022' 2800'              	goto	u522_20
  5225  0023' 038B'              	decf	??_stoa,f
  5226  0024'                    u522_20:
  5227  0024' 080B'              	movf	??_stoa,w
  5228  0025' 008D'              	movwf	??_stoa+2
  5229  0026' 080D'              	movf	??_stoa+2,w
  5230  0027' 1283               	bcf	3,5	;RP0=0, select bank0
  5231  0028' 1303               	bcf	3,6	;RP1=0, select bank0
  5232  0029' 00FF               	movwf	btemp+1
  5233  002A' 080C'              	movf	??_stoa+1,w
  5234  002B' 0084               	movwf	4
  5235  002C' 120A' 118A' 2000' 120A' 118A' 	fcall	stringtab
  5236  0031' 3A00               	xorlw	0
  5237  0032' 1D03               	skipz
  5238  0033' 2800'              	goto	u523_21
  5239  0034' 2800'              	goto	u523_20
  5240  0035'                    u523_21:
  5241  0035' 2800'              	goto	i1l3778
  5242  0036'                    u523_20:
  5243  0036'                    i1l949:
  5244                           
  5245                           ;/opt/microchip/xc8/v2.45/pic/sources/c99/common/doprnt.c: 961:  if (!(prec < 0) && (pre
      +                          c < l)) {
  5246  0036' 1683               	bsf	3,5	;RP0=1, select bank1
  5247  0037' 1303               	bcf	3,6	;RP1=0, select bank1
  5248  0038' 1B80'              	btfsc	(_prec+1)^(0+128),7
  5249  0039' 2800'              	goto	u524_21
  5250  003A' 2800'              	goto	u524_20
  5251  003B'                    u524_21:
  5252  003B' 2800'              	goto	i1l950
  5253  003C'                    u524_20:
  5254  003C'                    i1l3782:
  5255  003C' 0800'              	movf	(_prec+1)^(0+128),w
  5256  003D' 3A80               	xorlw	128
  5257  003E' 008B'              	movwf	??_stoa
  5258  003F' 1283               	bcf	3,5	;RP0=0, select bank0
  5259  0040' 1303               	bcf	3,6	;RP1=0, select bank0
  5260  0041' 0806'              	movf	stoa@l+1,w
  5261  0042' 3A80               	xorlw	128
  5262  0043' 020B'              	subwf	??_stoa,w
  5263  0044' 1D03               	skipz
  5264  0045' 2800'              	goto	u525_25
  5265  0046' 0805'              	movf	stoa@l,w
  5266  0047' 1683               	bsf	3,5	;RP0=1, select bank1
  5267  0048' 1303               	bcf	3,6	;RP1=0, select bank1
  5268  0049' 0200'              	subwf	_prec^(0+128),w
  5269  004A'                    u525_25:
  5270  004A' 1803               	skipnc
  5271  004B' 2800'              	goto	u525_21
  5272  004C' 2800'              	goto	u525_20
  5273  004D'                    u525_21:
  5274  004D' 2800'              	goto	i1l950
  5275  004E'                    u525_20:
  5276  004E'                    i1l3784:
  5277                           
  5278                           ;/opt/microchip/xc8/v2.45/pic/sources/c99/common/doprnt.c: 962:   l = prec;
  5279  004E' 1683               	bsf	3,5	;RP0=1, select bank1
  5280  004F' 1303               	bcf	3,6	;RP1=0, select bank1
  5281  0050' 0800'              	movf	(_prec+1)^(0+128),w
  5282  0051' 1283               	bcf	3,5	;RP0=0, select bank0
  5283  0052' 1303               	bcf	3,6	;RP1=0, select bank0
  5284  0053' 0086'              	movwf	stoa@l+1
  5285  0054' 1683               	bsf	3,5	;RP0=1, select bank1
  5286  0055' 1303               	bcf	3,6	;RP1=0, select bank1
  5287  0056' 0800'              	movf	_prec^(0+128),w
  5288  0057' 1283               	bcf	3,5	;RP0=0, select bank0
  5289  0058' 1303               	bcf	3,6	;RP1=0, select bank0
  5290  0059' 0085'              	movwf	stoa@l
  5291  005A'                    i1l950:	
  5292                           ;/opt/microchip/xc8/v2.45/pic/sources/c99/common/doprnt.c: 963:  }
  5293                           
  5294                           
  5295                           ;/opt/microchip/xc8/v2.45/pic/sources/c99/common/doprnt.c: 965:     p = l;
  5296  005A' 1283               	bcf	3,5	;RP0=0, select bank0
  5297  005B' 1303               	bcf	3,6	;RP1=0, select bank0
  5298  005C' 0806'              	movf	stoa@l+1,w
  5299  005D' 0081'              	movwf	stoa@p+1
  5300  005E' 0805'              	movf	stoa@l,w
  5301  005F' 0080'              	movwf	stoa@p
  5302                           
  5303                           ;/opt/microchip/xc8/v2.45/pic/sources/c99/common/doprnt.c: 979:     while (p--) {
  5304  0060' 2800'              	goto	i1l3790
  5305  0061'                    i1l3786:
  5306                           
  5307                           ;/opt/microchip/xc8/v2.45/pic/sources/c99/common/doprnt.c: 980:         fputc(*cp, fp);
  5308  0061' 0804'              	movf	stoa@cp+1,w
  5309  0062' 00FF               	movwf	btemp+1
  5310  0063' 0803'              	movf	stoa@cp,w
  5311  0064' 0084               	movwf	4
  5312  0065' 120A' 118A' 2000' 120A' 118A' 	fcall	stringtab
  5313  006A' 008B'              	movwf	??_stoa
  5314  006B' 018C'              	clrf	??_stoa+1
  5315  006C' 080B'              	movf	??_stoa,w
  5316  006D' 0081'              	movwf	fputc@c
  5317  006E' 080C'              	movf	??_stoa+1,w
  5318  006F' 0082'              	movwf	fputc@c+1
  5319  0070' 0802'              	movf	stoa@fp,w
  5320  0071' 0083'              	movwf	fputc@fp
  5321  0072' 120A' 118A' 2000' 120A' 118A' 	fcall	_fputc
  5322  0077'                    i1l3788:
  5323                           
  5324                           ;/opt/microchip/xc8/v2.45/pic/sources/c99/common/doprnt.c: 981:         ++cp;
  5325  0077' 3001               	movlw	1
  5326  0078' 1283               	bcf	3,5	;RP0=0, select bank0
  5327  0079' 1303               	bcf	3,6	;RP1=0, select bank0
  5328  007A' 0783'              	addwf	stoa@cp,f
  5329  007B' 1803               	skipnc
  5330  007C' 0A84'              	incf	stoa@cp+1,f
  5331  007D' 3000               	movlw	0
  5332  007E' 0784'              	addwf	stoa@cp+1,f
  5333  007F'                    i1l3790:
  5334                           
  5335                           ;/opt/microchip/xc8/v2.45/pic/sources/c99/common/doprnt.c: 979:     while (p--) {
  5336  007F' 30FF               	movlw	255
  5337  0080' 0780'              	addwf	stoa@p,f
  5338  0081' 1803               	skipnc
  5339  0082' 0A81'              	incf	stoa@p+1,f
  5340  0083' 30FF               	movlw	255
  5341  0084' 0781'              	addwf	stoa@p+1,f
  5342  0085' 0A00'              	incf	stoa@p,w
  5343  0086' 1D03               	skipz
  5344  0087' 2800'              	goto	u526_21
  5345  0088' 0A01'              	incf	stoa@p+1,w
  5346  0089' 1D03               	btfss	3,2
  5347  008A' 2800'              	goto	u526_21
  5348  008B' 2800'              	goto	u526_20
  5349  008C'                    u526_21:
  5350  008C' 2800'              	goto	i1l3786
  5351  008D'                    u526_20:
  5352  008D'                    i1l954:
  5353  008D' 0008               	return
  5354  008E'                    __end_of_stoa:
  5355                           
  5356                           	psect	text22
  5357  0000'                    __ptext22:	
  5358 ;; *************** function _read_prec_or_width *****************
  5359 ;; Defined at:
  5360 ;;		line 1158 in file "/opt/microchip/xc8/v2.45/pic/sources/c99/common/doprnt.c"
  5361 ;; Parameters:    Size  Location     Type
  5362 ;;  fmt             1    wreg     PTR PTR const unsigned c
  5363 ;;		 -> vfprintf@cfmt(1), 
  5364 ;;  ap              1    6[COMMON] PTR PTR void [1]
  5365 ;;		 -> printf@ap(1), 
  5366 ;; Auto vars:     Size  Location     Type
  5367 ;;  fmt             1   12[COMMON] PTR PTR const unsigned c
  5368 ;;		 -> vfprintf@cfmt(1), 
  5369 ;;  c               1    9[COMMON] unsigned char 
  5370 ;;  n               2   10[COMMON] int 
  5371 ;; Return value:  Size  Location     Type
  5372 ;;                  2    6[COMMON] int 
  5373 ;; Registers used:
  5374 ;;		wreg, fsr0l, fsr0h, status,2, status,0, pclath, cstack
  5375 ;; Tracked objects:
  5376 ;;		On entry : 0/0
  5377 ;;		On exit  : 0/0
  5378 ;;		Unchanged: 0/0
  5379 ;; Data sizes:     COMMON   BANK0   BANK1   BANK3   BANK2
  5380 ;;      Params:         2       0       0       0       0
  5381 ;;      Locals:         4       0       0       0       0
  5382 ;;      Temps:          1       0       0       0       0
  5383 ;;      Totals:         7       0       0       0       0
  5384 ;;Total ram usage:        7 bytes
  5385 ;; Hardware stack levels used: 1
  5386 ;; Hardware stack levels required when called: 1
  5387 ;; This function calls:
  5388 ;;		___wmul
  5389 ;; This function is called by:
  5390 ;;		_vfpfcnvrt
  5391 ;; This function uses a non-reentrant model
  5392 ;;
  5393                           
  5394  0000'                    _read_prec_or_width:	
  5395                           ;psect for function _read_prec_or_width
  5396                           
  5397                           
  5398                           ;incstack = 0
  5399 ;; hardware stack exceeded
  5400                           ; Regs used in _read_prec_or_width: [wreg-fsr0h+status,2+status,0+pclath+cstack]
  5401                           ;read_prec_or_width@fmt stored from wreg
  5402  0000' 008C'              	movwf	read_prec_or_width@fmt
  5403  0001'                    i1l3792:
  5404                           
  5405                           ;/opt/microchip/xc8/v2.45/pic/sources/c99/common/doprnt.c: 1159:     int n = 0;
  5406  0001' 018A'              	clrf	read_prec_or_width@n
  5407  0002' 018B'              	clrf	read_prec_or_width@n+1
  5408  0003'                    i1l3794:
  5409                           
  5410                           ;/opt/microchip/xc8/v2.45/pic/sources/c99/common/doprnt.c: 1160:     if ((*fmt)[0] == '*
      +                          ') {
  5411  0003' 080C'              	movf	read_prec_or_width@fmt,w
  5412  0004' 0084               	movwf	4
  5413  0005' 1383               	bcf	3,7	;select IRP bank0
  5414  0006' 0800               	movf	0,w
  5415  0007' 0084               	movwf	4
  5416  0008' 120A' 118A' 2000' 120A' 118A' 	fcall	stringdir
  5417  000D' 3A2A               	xorlw	42
  5418  000E' 1D03               	skipz
  5419  000F' 2800'              	goto	u527_21
  5420  0010' 2800'              	goto	u527_20
  5421  0011'                    u527_21:
  5422  0011' 2800'              	goto	i1l3802
  5423  0012'                    u527_20:
  5424  0012'                    i1l3796:
  5425                           
  5426                           ;/opt/microchip/xc8/v2.45/pic/sources/c99/common/doprnt.c: 1161:         ++*fmt;
  5427  0012' 3001               	movlw	1
  5428  0013' 0088'              	movwf	??_read_prec_or_width
  5429  0014' 080C'              	movf	read_prec_or_width@fmt,w
  5430  0015' 0084               	movwf	4
  5431  0016' 0808'              	movf	??_read_prec_or_width,w
  5432  0017' 0780               	addwf	0,f
  5433                           
  5434                           ;/opt/microchip/xc8/v2.45/pic/sources/c99/common/doprnt.c: 1162:         n = (*(int *)__
      +                          va_arg(*(int **)*ap, (int)0));
  5435  0018' 0806'              	movf	read_prec_or_width@ap,w
  5436  0019' 0084               	movwf	4
  5437  001A' 0800               	movf	0,w
  5438  001B' 0088'              	movwf	??_read_prec_or_width
  5439  001C' 3002               	movlw	2
  5440  001D' 0780               	addwf	0,f
  5441  001E' 0808'              	movf	??_read_prec_or_width,w
  5442  001F' 0084               	movwf	4
  5443  0020' 0800               	movf	0,w
  5444  0021' 008A'              	movwf	read_prec_or_width@n
  5445  0022' 0A84               	incf	4,f
  5446  0023' 0800               	movf	0,w
  5447  0024' 008B'              	movwf	read_prec_or_width@n+1
  5448                           
  5449                           ;/opt/microchip/xc8/v2.45/pic/sources/c99/common/doprnt.c: 1163:     } else {
  5450  0025' 2800'              	goto	i1l3804
  5451  0026'                    i1l3798:
  5452                           
  5453                           ;/opt/microchip/xc8/v2.45/pic/sources/c99/common/doprnt.c: 1166:             n = n * 10 
      +                          + c;
  5454  0026' 080B'              	movf	read_prec_or_width@n+1,w
  5455  0027' 0081'              	movwf	___wmul@multiplier+1
  5456  0028' 080A'              	movf	read_prec_or_width@n,w
  5457  0029' 0080'              	movwf	___wmul@multiplier
  5458  002A' 300A               	movlw	10
  5459  002B' 0082'              	movwf	___wmul@multiplicand
  5460  002C' 3000               	movlw	0
  5461  002D' 0083'              	movwf	___wmul@multiplicand+1
  5462  002E' 120A' 118A' 2000' 120A' 118A' 	fcall	___wmul
  5463  0033' 0809'              	movf	read_prec_or_width@c,w
  5464  0034' 0700'              	addwf	?___wmul,w
  5465  0035' 008A'              	movwf	read_prec_or_width@n
  5466  0036' 3000               	movlw	0
  5467  0037' 1803               	skipnc
  5468  0038' 3001               	movlw	1
  5469  0039' 0701'              	addwf	?___wmul+1,w
  5470  003A' 008B'              	movwf	read_prec_or_width@n+1
  5471  003B'                    i1l3800:
  5472                           
  5473                           ;/opt/microchip/xc8/v2.45/pic/sources/c99/common/doprnt.c: 1167:             ++*fmt;
  5474  003B' 3001               	movlw	1
  5475  003C' 0088'              	movwf	??_read_prec_or_width
  5476  003D' 080C'              	movf	read_prec_or_width@fmt,w
  5477  003E' 0084               	movwf	4
  5478  003F' 0808'              	movf	??_read_prec_or_width,w
  5479  0040' 1383               	bcf	3,7	;select IRP bank0
  5480  0041' 0780               	addwf	0,f
  5481  0042'                    i1l3802:
  5482                           
  5483                           ;/opt/microchip/xc8/v2.45/pic/sources/c99/common/doprnt.c: 1165:         while ((c = ((u
      +                          nsigned)(*fmt)[0]) - '0') < 10) {
  5484  0042' 080C'              	movf	read_prec_or_width@fmt,w
  5485  0043' 0084               	movwf	4
  5486  0044' 0800               	movf	0,w
  5487  0045' 0084               	movwf	4
  5488  0046' 120A' 118A' 2000' 120A' 118A' 	fcall	stringdir
  5489  004B' 3ED0               	addlw	208
  5490  004C' 0089'              	movwf	read_prec_or_width@c
  5491  004D' 300A               	movlw	10
  5492  004E' 0209'              	subwf	read_prec_or_width@c,w
  5493  004F' 1C03               	skipc
  5494  0050' 2800'              	goto	u528_21
  5495  0051' 2800'              	goto	u528_20
  5496  0052'                    u528_21:
  5497  0052' 2800'              	goto	i1l3798
  5498  0053'                    u528_20:
  5499  0053'                    i1l3804:
  5500                           
  5501                           ;/opt/microchip/xc8/v2.45/pic/sources/c99/common/doprnt.c: 1170:     return n;
  5502  0053' 080B'              	movf	read_prec_or_width@n+1,w
  5503  0054' 0087'              	movwf	?_read_prec_or_width+1
  5504  0055' 080A'              	movf	read_prec_or_width@n,w
  5505  0056' 0086'              	movwf	?_read_prec_or_width
  5506  0057'                    i1l962:
  5507  0057' 0008               	return
  5508  0058'                    __end_of_read_prec_or_width:
  5509                           
  5510                           	psect	text23
  5511  0000'                    __ptext23:	
  5512 ;; *************** function ___wmul *****************
  5513 ;; Defined at:
  5514 ;;		line 15 in file "/opt/microchip/xc8/v2.45/pic/sources/c99/common/Umul16.c"
  5515 ;; Parameters:    Size  Location     Type
  5516 ;;  multiplier      2    0[COMMON] unsigned int 
  5517 ;;  multiplicand    2    2[COMMON] unsigned int 
  5518 ;; Auto vars:     Size  Location     Type
  5519 ;;  product         2    4[COMMON] unsigned int 
  5520 ;; Return value:  Size  Location     Type
  5521 ;;                  2    0[COMMON] unsigned int 
  5522 ;; Registers used:
  5523 ;;		wreg, status,2, status,0
  5524 ;; Tracked objects:
  5525 ;;		On entry : 0/0
  5526 ;;		On exit  : 0/0
  5527 ;;		Unchanged: 0/0
  5528 ;; Data sizes:     COMMON   BANK0   BANK1   BANK3   BANK2
  5529 ;;      Params:         4       0       0       0       0
  5530 ;;      Locals:         2       0       0       0       0
  5531 ;;      Temps:          0       0       0       0       0
  5532 ;;      Totals:         6       0       0       0       0
  5533 ;;Total ram usage:        6 bytes
  5534 ;; Hardware stack levels used: 1
  5535 ;; This function calls:
  5536 ;;		Nothing
  5537 ;; This function is called by:
  5538 ;;		_read_prec_or_width
  5539 ;; This function uses a non-reentrant model
  5540 ;;
  5541                           
  5542  0000'                    ___wmul:	
  5543                           ;psect for function ___wmul
  5544                           
  5545  0000'                    i1l2962:	
  5546                           ;incstack = 0
  5547 ;; hardware stack exceeded
  5548                           ; Regs used in ___wmul: [wreg+status,2+status,0]
  5549                           
  5550  0000' 0184'              	clrf	___wmul@product
  5551  0001' 0185'              	clrf	___wmul@product+1
  5552  0002'                    i1l2964:
  5553  0002' 1C00'              	btfss	___wmul@multiplier,0
  5554  0003' 2800'              	goto	u341_21
  5555  0004' 2800'              	goto	u341_20
  5556  0005'                    u341_21:
  5557  0005' 2800'              	goto	i1l376
  5558  0006'                    u341_20:
  5559  0006'                    i1l2966:
  5560  0006' 0802'              	movf	___wmul@multiplicand,w
  5561  0007' 0784'              	addwf	___wmul@product,f
  5562  0008' 1803               	skipnc
  5563  0009' 0A85'              	incf	___wmul@product+1,f
  5564  000A' 0803'              	movf	___wmul@multiplicand+1,w
  5565  000B' 0785'              	addwf	___wmul@product+1,f
  5566  000C'                    i1l376:
  5567  000C' 3001               	movlw	1
  5568  000D'                    u342_25:
  5569  000D' 1003               	clrc
  5570  000E' 0D82'              	rlf	___wmul@multiplicand,f
  5571  000F' 0D83'              	rlf	___wmul@multiplicand+1,f
  5572  0010' 3EFF               	addlw	-1
  5573  0011' 1D03               	skipz
  5574  0012' 2800'              	goto	u342_25
  5575  0013'                    i1l2968:
  5576  0013' 3001               	movlw	1
  5577  0014'                    u343_25:
  5578  0014' 1003               	clrc
  5579  0015' 0C81'              	rrf	___wmul@multiplier+1,f
  5580  0016' 0C80'              	rrf	___wmul@multiplier,f
  5581  0017' 3EFF               	addlw	-1
  5582  0018' 1D03               	skipz
  5583  0019' 2800'              	goto	u343_25
  5584  001A'                    i1l2970:
  5585  001A' 0800'              	movf	___wmul@multiplier,w
  5586  001B' 0401'              	iorwf	___wmul@multiplier+1,w
  5587  001C' 1D03               	btfss	3,2
  5588  001D' 2800'              	goto	u344_21
  5589  001E' 2800'              	goto	u344_20
  5590  001F'                    u344_21:
  5591  001F' 2800'              	goto	i1l2964
  5592  0020'                    u344_20:
  5593  0020'                    i1l2972:
  5594  0020' 0805'              	movf	___wmul@product+1,w
  5595  0021' 0081'              	movwf	?___wmul+1
  5596  0022' 0804'              	movf	___wmul@product,w
  5597  0023' 0080'              	movwf	?___wmul
  5598  0024'                    i1l378:
  5599  0024' 0008               	return
  5600  0025'                    __end_of___wmul:
  5601                           
  5602                           	psect	text24
  5603  0000'                    __ptext24:	
  5604 ;; *************** function _efgtoa *****************
  5605 ;; Defined at:
  5606 ;;		line 587 in file "/opt/microchip/xc8/v2.45/pic/sources/c99/common/doprnt.c"
  5607 ;; Parameters:    Size  Location     Type
  5608 ;;  fp              1    wreg     PTR struct _IO_FILE
  5609 ;;		 -> NULL(0), 
  5610 ;;  f               4   66[BANK0 ] PTR struct _IO_FILE
  5611 ;;  c               1   70[BANK0 ] unsigned char 
  5612 ;; Auto vars:     Size  Location     Type
  5613 ;;  fp              1   15[BANK1 ] PTR struct _IO_FILE
  5614 ;;		 -> NULL(0), 
  5615 ;;  u               4   41[BANK1 ] struct flui
  5616 ;;  g               4   37[BANK1 ] struct flui
  5617 ;;  l               4   30[BANK1 ] struct flui
  5618 ;;  h               4   26[BANK1 ] struct flui
  5619 ;;  ou              4   20[BANK1 ] struct flui
  5620 ;;  n               2   35[BANK1 ] int 
  5621 ;;  i               2   24[BANK1 ] int 
  5622 ;;  w               2   18[BANK1 ] int 
  5623 ;;  e               2   16[BANK1 ] int 
  5624 ;;  m               2   13[BANK1 ] int 
  5625 ;;  d               2   11[BANK1 ] int 
  5626 ;;  t               2    4[BANK1 ] int 
  5627 ;;  p               2    2[BANK1 ] int 
  5628 ;;  ne              2    0[BANK1 ] int 
  5629 ;;  sign            1   34[BANK1 ] unsigned char 
  5630 ;;  nmode           1   10[BANK1 ] unsigned char 
  5631 ;;  mode            1    9[BANK1 ] unsigned char 
  5632 ;;  pp              1    8[BANK1 ] unsigned char 
  5633 ;;  esign           1    0        unsigned char 
  5634 ;; Return value:  Size  Location     Type
  5635 ;;                  1    wreg      void 
  5636 ;; Registers used:
  5637 ;;		wreg, fsr0l, fsr0h, status,2, status,0, btemp+1, pclath, cstack
  5638 ;; Tracked objects:
  5639 ;;		On entry : 0/0
  5640 ;;		On exit  : 0/0
  5641 ;;		Unchanged: 0/0
  5642 ;; Data sizes:     COMMON   BANK0   BANK1   BANK3   BANK2
  5643 ;;      Params:         0       5       0       0       0
  5644 ;;      Locals:         0       0      45       0       0
  5645 ;;      Temps:          0       4       0       0       0
  5646 ;;      Totals:         0       9      45       0       0
  5647 ;;Total ram usage:       54 bytes
  5648 ;; Hardware stack levels used: 1
  5649 ;; Hardware stack levels required when called: 4
  5650 ;; This function calls:
  5651 ;;		___fladd
  5652 ;;		___fldiv
  5653 ;;		___fleq
  5654 ;;		___flge
  5655 ;;		___flmul
  5656 ;;		___flneg
  5657 ;;		___flsub
  5658 ;;		___fltol
  5659 ;;		___fpclassifyf
  5660 ;;		_floorf
  5661 ;;		_labs
  5662 ;;		_memcpy
  5663 ;;		_pad
  5664 ;;		_strcpy
  5665 ;; This function is called by:
  5666 ;;		_vfpfcnvrt
  5667 ;; This function uses a non-reentrant model
  5668 ;;
  5669                           
  5670  0000'                    _efgtoa:	
  5671                           ;psect for function _efgtoa
  5672                           
  5673                           
  5674                           ;incstack = 0
  5675 ;; hardware stack exceeded
  5676                           ; Regs used in _efgtoa: [wreg-fsr0h+status,2+status,0+btemp+1+pclath+cstack]
  5677                           ;efgtoa@fp stored from wreg
  5678  0000' 1683               	bsf	3,5	;RP0=1, select bank1
  5679  0001' 1303               	bcf	3,6	;RP1=0, select bank1
  5680  0002' 0080'              	movwf	efgtoa@fp^(0+128)
  5681  0003'                    i1l3562:
  5682                           
  5683                           ;/opt/microchip/xc8/v2.45/pic/sources/c99/common/doprnt.c: 587: static void efgtoa(FILE 
      +                          *fp, long double f, char c);/opt/microchip/xc8/v2.45/pic/sources/c99/common/doprnt.c: 58
      +                          8: {;/opt/microchip/xc8/v2.45/pic/sources/c99/common/doprnt.c: 589:     char mode, nmode
      +                          , pp, sign, esign;;/opt/microchip/xc8/v2.45/pic/sources/c99/common/doprnt.c: 590:     in
      +                          t d, e, i, m, n, ne, p, t, w;;/opt/microchip/xc8/v2.45/pic/sources/c99/common/doprnt.c: 
      +                          591:     long double h, l;;/opt/microchip/xc8/v2.45/pic/sources/c99/common/doprnt.c: 592
      +                          :  union flui g, u, ou;
  5684  0003' 0180'              	clrf	efgtoa@sign^(0+128)
  5685  0004'                    i1l3564:
  5686                           
  5687                           ;/opt/microchip/xc8/v2.45/pic/sources/c99/common/doprnt.c: 596:     g.f = f;
  5688  0004' 1283               	bcf	3,5	;RP0=0, select bank0
  5689  0005' 1303               	bcf	3,6	;RP1=0, select bank0
  5690  0006' 0845'              	movf	efgtoa@f+3,w
  5691  0007' 1683               	bsf	3,5	;RP0=1, select bank1
  5692  0008' 1303               	bcf	3,6	;RP1=0, select bank1
  5693  0009' 0080'              	movwf	(efgtoa@g+3)^(0+128)
  5694  000A' 1283               	bcf	3,5	;RP0=0, select bank0
  5695  000B' 1303               	bcf	3,6	;RP1=0, select bank0
  5696  000C' 0844'              	movf	efgtoa@f+2,w
  5697  000D' 1683               	bsf	3,5	;RP0=1, select bank1
  5698  000E' 1303               	bcf	3,6	;RP1=0, select bank1
  5699  000F' 0080'              	movwf	(efgtoa@g+2)^(0+128)
  5700  0010' 1283               	bcf	3,5	;RP0=0, select bank0
  5701  0011' 1303               	bcf	3,6	;RP1=0, select bank0
  5702  0012' 0843'              	movf	efgtoa@f+1,w
  5703  0013' 1683               	bsf	3,5	;RP0=1, select bank1
  5704  0014' 1303               	bcf	3,6	;RP1=0, select bank1
  5705  0015' 0080'              	movwf	(efgtoa@g+1)^(0+128)
  5706  0016' 1283               	bcf	3,5	;RP0=0, select bank0
  5707  0017' 1303               	bcf	3,6	;RP1=0, select bank0
  5708  0018' 0842'              	movf	efgtoa@f,w
  5709  0019' 1683               	bsf	3,5	;RP0=1, select bank1
  5710  001A' 1303               	bcf	3,6	;RP1=0, select bank1
  5711  001B' 0080'              	movwf	efgtoa@g^(0+128)
  5712  001C'                    i1l3566:
  5713                           
  5714                           ;/opt/microchip/xc8/v2.45/pic/sources/c99/common/doprnt.c: 597:     if (g.f < 0.0) {
  5715  001C' 0800'              	movf	(efgtoa@g+3)^(0+128),w
  5716  001D' 1283               	bcf	3,5	;RP0=0, select bank0
  5717  001E' 1303               	bcf	3,6	;RP1=0, select bank0
  5718  001F' 009D'              	movwf	___flge@ff1+3
  5719  0020' 1683               	bsf	3,5	;RP0=1, select bank1
  5720  0021' 1303               	bcf	3,6	;RP1=0, select bank1
  5721  0022' 0800'              	movf	(efgtoa@g+2)^(0+128),w
  5722  0023' 1283               	bcf	3,5	;RP0=0, select bank0
  5723  0024' 1303               	bcf	3,6	;RP1=0, select bank0
  5724  0025' 009C'              	movwf	___flge@ff1+2
  5725  0026' 1683               	bsf	3,5	;RP0=1, select bank1
  5726  0027' 1303               	bcf	3,6	;RP1=0, select bank1
  5727  0028' 0800'              	movf	(efgtoa@g+1)^(0+128),w
  5728  0029' 1283               	bcf	3,5	;RP0=0, select bank0
  5729  002A' 1303               	bcf	3,6	;RP1=0, select bank0
  5730  002B' 009B'              	movwf	___flge@ff1+1
  5731  002C' 1683               	bsf	3,5	;RP0=1, select bank1
  5732  002D' 1303               	bcf	3,6	;RP1=0, select bank1
  5733  002E' 0800'              	movf	efgtoa@g^(0+128),w
  5734  002F' 1283               	bcf	3,5	;RP0=0, select bank0
  5735  0030' 1303               	bcf	3,6	;RP1=0, select bank0
  5736  0031' 009A'              	movwf	___flge@ff1
  5737  0032' 3000               	movlw	0
  5738  0033' 00A1'              	movwf	___flge@ff2+3
  5739  0034' 3000               	movlw	0
  5740  0035' 00A0'              	movwf	___flge@ff2+2
  5741  0036' 3000               	movlw	0
  5742  0037' 009F'              	movwf	___flge@ff2+1
  5743  0038' 3000               	movlw	0
  5744  0039' 009E'              	movwf	___flge@ff2
  5745  003A' 120A' 118A' 2000' 120A' 118A' 	fcall	___flge
  5746  003F' 1803               	btfsc	3,0
  5747  0040' 2800'              	goto	u486_21
  5748  0041' 2800'              	goto	u486_20
  5749  0042'                    u486_21:
  5750  0042' 2800'              	goto	i1l3572
  5751  0043'                    u486_20:
  5752  0043'                    i1l3568:
  5753                           
  5754                           ;/opt/microchip/xc8/v2.45/pic/sources/c99/common/doprnt.c: 598:         sign = 1;
  5755  0043' 1683               	bsf	3,5	;RP0=1, select bank1
  5756  0044' 1303               	bcf	3,6	;RP1=0, select bank1
  5757  0045' 0180'              	clrf	efgtoa@sign^(0+128)
  5758  0046' 0A80'              	incf	efgtoa@sign^(0+128),f
  5759  0047'                    i1l3570:
  5760                           
  5761                           ;/opt/microchip/xc8/v2.45/pic/sources/c99/common/doprnt.c: 599:         g.f = -g.f;
  5762  0047' 0800'              	movf	(efgtoa@g+3)^(0+128),w
  5763  0048' 0083'              	movwf	___flneg@f1+3
  5764  0049' 0800'              	movf	(efgtoa@g+2)^(0+128),w
  5765  004A' 0082'              	movwf	___flneg@f1+2
  5766  004B' 0800'              	movf	(efgtoa@g+1)^(0+128),w
  5767  004C' 0081'              	movwf	___flneg@f1+1
  5768  004D' 0800'              	movf	efgtoa@g^(0+128),w
  5769  004E' 0080'              	movwf	___flneg@f1
  5770  004F' 120A' 118A' 2000' 120A' 118A' 	fcall	___flneg
  5771  0054' 0803'              	movf	?___flneg+3,w
  5772  0055' 1683               	bsf	3,5	;RP0=1, select bank1
  5773  0056' 1303               	bcf	3,6	;RP1=0, select bank1
  5774  0057' 0080'              	movwf	(efgtoa@g+3)^(0+128)
  5775  0058' 0802'              	movf	?___flneg+2,w
  5776  0059' 0080'              	movwf	(efgtoa@g+2)^(0+128)
  5777  005A' 0801'              	movf	?___flneg+1,w
  5778  005B' 0080'              	movwf	(efgtoa@g+1)^(0+128)
  5779  005C' 0800'              	movf	?___flneg,w
  5780  005D' 0080'              	movwf	efgtoa@g^(0+128)
  5781  005E'                    i1l3572:
  5782                           
  5783                           ;/opt/microchip/xc8/v2.45/pic/sources/c99/common/doprnt.c: 603:     n = 0;
  5784  005E' 1683               	bsf	3,5	;RP0=1, select bank1
  5785  005F' 1303               	bcf	3,6	;RP1=0, select bank1
  5786  0060' 0180'              	clrf	efgtoa@n^(0+128)
  5787  0061' 0180'              	clrf	(efgtoa@n+1)^(0+128)
  5788  0062'                    i1l3574:
  5789                           
  5790                           ;/opt/microchip/xc8/v2.45/pic/sources/c99/common/doprnt.c: 604:     w = width;
  5791  0062' 1683               	bsf	3,5	;RP0=1, select bank3
  5792  0063' 1703               	bsf	3,6	;RP1=1, select bank3
  5793  0064' 0800'              	movf	(_width+1)^(0+384),w
  5794  0065' 1683               	bsf	3,5	;RP0=1, select bank1
  5795  0066' 1303               	bcf	3,6	;RP1=0, select bank1
  5796  0067' 0080'              	movwf	(efgtoa@w+1)^(0+128)
  5797  0068' 1683               	bsf	3,5	;RP0=1, select bank3
  5798  0069' 1703               	bsf	3,6	;RP1=1, select bank3
  5799  006A' 0800'              	movf	_width^(0+384),w
  5800  006B' 1683               	bsf	3,5	;RP0=1, select bank1
  5801  006C' 1303               	bcf	3,6	;RP1=0, select bank1
  5802  006D' 0080'              	movwf	efgtoa@w^(0+128)
  5803  006E'                    i1l3576:
  5804                           
  5805                           ;/opt/microchip/xc8/v2.45/pic/sources/c99/common/doprnt.c: 605:     if (sign
  5806  006E' 0800'              	movf	efgtoa@sign^(0+128),w
  5807  006F' 1903               	btfsc	3,2
  5808  0070' 2800'              	goto	u487_21
  5809  0071' 2800'              	goto	u487_20
  5810  0072'                    u487_21:
  5811  0072' 2800'              	goto	i1l3584
  5812  0073'                    u487_20:
  5813  0073'                    i1l3578:
  5814                           
  5815                           ;/opt/microchip/xc8/v2.45/pic/sources/c99/common/doprnt.c: 609:    ) {;/opt/microchip/xc
      +                          8/v2.45/pic/sources/c99/common/doprnt.c: 610:   sign = sign ? '-' : '+';
  5816  0073' 0800'              	movf	efgtoa@sign^(0+128),w
  5817  0074' 1D03               	btfss	3,2
  5818  0075' 2800'              	goto	u488_21
  5819  0076' 2800'              	goto	u488_20
  5820  0077'                    u488_21:
  5821  0077' 2800'              	goto	i1l3582
  5822  0078'                    u488_20:
  5823  0078'                    i1l3580:
  5824  0078' 302B               	movlw	43
  5825  0079' 0080'              	movwf	_efgtoa$1420^(0+128)
  5826  007A' 3000               	movlw	0
  5827  007B' 0081'              	movwf	(_efgtoa$1420^(0+128)+1)
  5828  007C' 2800'              	goto	i1l898
  5829  007D'                    i1l3582:
  5830  007D' 302D               	movlw	45
  5831  007E' 0080'              	movwf	_efgtoa$1420^(0+128)
  5832  007F' 3000               	movlw	0
  5833  0080' 0081'              	movwf	(_efgtoa$1420^(0+128)+1)
  5834  0081'                    i1l898:
  5835  0081' 0800'              	movf	_efgtoa$1420^(0+128),w
  5836  0082' 0080'              	movwf	efgtoa@sign^(0+128)
  5837  0083'                    i1l3584:
  5838                           
  5839                           ;/opt/microchip/xc8/v2.45/pic/sources/c99/common/doprnt.c: 619:     if (( __fpclassifyf(
      +                          g.f) == 1 )) {
  5840  0083' 0800'              	movf	(efgtoa@g+3)^(0+128),w
  5841  0084' 0083'              	movwf	___fpclassifyf@x+3
  5842  0085' 0800'              	movf	(efgtoa@g+2)^(0+128),w
  5843  0086' 0082'              	movwf	___fpclassifyf@x+2
  5844  0087' 0800'              	movf	(efgtoa@g+1)^(0+128),w
  5845  0088' 0081'              	movwf	___fpclassifyf@x+1
  5846  0089' 0800'              	movf	efgtoa@g^(0+128),w
  5847  008A' 0080'              	movwf	___fpclassifyf@x
  5848  008B' 120A' 118A' 2000' 120A' 118A' 	fcall	___fpclassifyf
  5849  0090' 0300'              	decf	?___fpclassifyf,w
  5850  0091' 0401'              	iorwf	?___fpclassifyf+1,w
  5851  0092' 1D03               	btfss	3,2
  5852  0093' 2800'              	goto	u489_21
  5853  0094' 2800'              	goto	u489_20
  5854  0095'                    u489_21:
  5855  0095' 2800'              	goto	i1l3596
  5856  0096'                    u489_20:
  5857  0096'                    i1l3586:
  5858                           
  5859                           ;/opt/microchip/xc8/v2.45/pic/sources/c99/common/doprnt.c: 620:   if (sign) {
  5860  0096' 1683               	bsf	3,5	;RP0=1, select bank1
  5861  0097' 1303               	bcf	3,6	;RP1=0, select bank1
  5862  0098' 0800'              	movf	efgtoa@sign^(0+128),w
  5863  0099' 1903               	btfsc	3,2
  5864  009A' 2800'              	goto	u490_21
  5865  009B' 2800'              	goto	u490_20
  5866  009C'                    u490_21:
  5867  009C' 2800'              	goto	i1l3590
  5868  009D'                    u490_20:
  5869  009D'                    i1l3588:
  5870                           
  5871                           ;/opt/microchip/xc8/v2.45/pic/sources/c99/common/doprnt.c: 621:    dbuf[0] = sign;
  5872  009D' 0800'              	movf	efgtoa@sign^(0+128),w
  5873  009E' 1283               	bcf	3,5	;RP0=0, select bank2
  5874  009F' 1703               	bsf	3,6	;RP1=1, select bank2
  5875  00A0' 0080'              	movwf	_dbuf^(0+256)
  5876                           
  5877                           ;/opt/microchip/xc8/v2.45/pic/sources/c99/common/doprnt.c: 622:    w--;
  5878  00A1' 30FF               	movlw	255
  5879  00A2' 1683               	bsf	3,5	;RP0=1, select bank1
  5880  00A3' 1303               	bcf	3,6	;RP1=0, select bank1
  5881  00A4' 0780'              	addwf	efgtoa@w^(0+128),f
  5882  00A5' 1803               	skipnc
  5883  00A6' 0A80'              	incf	(efgtoa@w+1)^(0+128),f
  5884  00A7' 30FF               	movlw	255
  5885  00A8' 0780'              	addwf	(efgtoa@w+1)^(0+128),f
  5886                           
  5887                           ;/opt/microchip/xc8/v2.45/pic/sources/c99/common/doprnt.c: 623:    n = 1;
  5888  00A9' 3001               	movlw	1
  5889  00AA' 0080'              	movwf	efgtoa@n^(0+128)
  5890  00AB' 3000               	movlw	0
  5891  00AC' 0081'              	movwf	(efgtoa@n^(0+128)+1)
  5892  00AD'                    i1l3590:
  5893                           
  5894                           ;/opt/microchip/xc8/v2.45/pic/sources/c99/common/doprnt.c: 631:   {;/opt/microchip/xc8/v
      +                          2.45/pic/sources/c99/common/doprnt.c: 632:             strcpy(&dbuf[n], "inf");
  5895  00AD' 305B               	movlw	(low ((STR_9-__stringbase)| (0+32768)))& (0+255)
  5896  00AE' 0080'              	movwf	strcpy@src
  5897  00AF' 0800'              	movf	efgtoa@n^(0+128),w
  5898  00B0' 3E00'              	addlw	(low (_dbuf| (0+256)))& (0+255)
  5899  00B1' 120A' 118A' 2000' 120A' 118A' 	fcall	_strcpy
  5900  00B6'                    i1l3592:
  5901                           
  5902                           ;/opt/microchip/xc8/v2.45/pic/sources/c99/common/doprnt.c: 633:         };/opt/microchip
      +                          /xc8/v2.45/pic/sources/c99/common/doprnt.c: 634:         w -= ((sizeof("inf")/sizeof("in
      +                          f"[0]))-1);
  5903  00B6' 30FD               	movlw	253
  5904  00B7' 1683               	bsf	3,5	;RP0=1, select bank1
  5905  00B8' 1303               	bcf	3,6	;RP1=0, select bank1
  5906  00B9' 0780'              	addwf	efgtoa@w^(0+128),f
  5907  00BA' 1803               	skipnc
  5908  00BB' 0A80'              	incf	(efgtoa@w+1)^(0+128),f
  5909  00BC' 30FF               	movlw	255
  5910  00BD' 0780'              	addwf	(efgtoa@w+1)^(0+128),f
  5911                           
  5912                           ;/opt/microchip/xc8/v2.45/pic/sources/c99/common/doprnt.c: 635:         return (void) pa
      +                          d(fp, &dbuf[0], w);
  5913  00BE' 3000'              	movlw	(low (_dbuf| (0+256)))& (0+255)
  5914  00BF' 1283               	bcf	3,5	;RP0=0, select bank0
  5915  00C0' 1303               	bcf	3,6	;RP1=0, select bank0
  5916  00C1' 0084'              	movwf	pad@buf
  5917  00C2' 1683               	bsf	3,5	;RP0=1, select bank1
  5918  00C3' 1303               	bcf	3,6	;RP1=0, select bank1
  5919  00C4' 0800'              	movf	(efgtoa@w+1)^(0+128),w
  5920  00C5' 1283               	bcf	3,5	;RP0=0, select bank0
  5921  00C6' 1303               	bcf	3,6	;RP1=0, select bank0
  5922  00C7' 0086'              	movwf	pad@p+1
  5923  00C8' 1683               	bsf	3,5	;RP0=1, select bank1
  5924  00C9' 1303               	bcf	3,6	;RP1=0, select bank1
  5925  00CA' 0800'              	movf	efgtoa@w^(0+128),w
  5926  00CB' 1283               	bcf	3,5	;RP0=0, select bank0
  5927  00CC' 1303               	bcf	3,6	;RP1=0, select bank0
  5928  00CD' 0085'              	movwf	pad@p
  5929  00CE' 1683               	bsf	3,5	;RP0=1, select bank1
  5930  00CF' 1303               	bcf	3,6	;RP1=0, select bank1
  5931  00D0' 0800'              	movf	efgtoa@fp^(0+128),w
  5932  00D1' 120A' 118A' 2000' 120A' 118A' 	fcall	_pad
  5933  00D6'                    L1:
  5934  00D6' 120A' 118A' 2800'  	goto	i1l901
  5935  00D9'                    i1l3596:
  5936                           
  5937                           ;/opt/microchip/xc8/v2.45/pic/sources/c99/common/doprnt.c: 637:     if (( __fpclassifyf(
      +                          g.f) == 0 )) {
  5938  00D9' 1683               	bsf	3,5	;RP0=1, select bank1
  5939  00DA' 1303               	bcf	3,6	;RP1=0, select bank1
  5940  00DB' 0800'              	movf	(efgtoa@g+3)^(0+128),w
  5941  00DC' 0083'              	movwf	___fpclassifyf@x+3
  5942  00DD' 0800'              	movf	(efgtoa@g+2)^(0+128),w
  5943  00DE' 0082'              	movwf	___fpclassifyf@x+2
  5944  00DF' 0800'              	movf	(efgtoa@g+1)^(0+128),w
  5945  00E0' 0081'              	movwf	___fpclassifyf@x+1
  5946  00E1' 0800'              	movf	efgtoa@g^(0+128),w
  5947  00E2' 0080'              	movwf	___fpclassifyf@x
  5948  00E3' 120A' 118A' 2000' 120A' 118A' 	fcall	___fpclassifyf
  5949  00E8' 0800'              	movf	?___fpclassifyf,w
  5950  00E9' 0401'              	iorwf	?___fpclassifyf+1,w
  5951  00EA' 1D03               	btfss	3,2
  5952  00EB' 2800'              	goto	u491_21
  5953  00EC' 2800'              	goto	u491_20
  5954  00ED'                    u491_21:
  5955  00ED' 120A' 118A' 2800'  	goto	i1l3608
  5956  00F0'                    u491_20:
  5957  00F0'                    i1l3598:
  5958                           
  5959                           ;/opt/microchip/xc8/v2.45/pic/sources/c99/common/doprnt.c: 638:   if (sign) {
  5960  00F0' 1683               	bsf	3,5	;RP0=1, select bank1
  5961  00F1' 1303               	bcf	3,6	;RP1=0, select bank1
  5962  00F2' 0800'              	movf	efgtoa@sign^(0+128),w
  5963  00F3' 1903               	btfsc	3,2
  5964  00F4' 2800'              	goto	u492_21
  5965  00F5' 2800'              	goto	u492_20
  5966  00F6'                    u492_21:
  5967  00F6' 2800'              	goto	i1l3602
  5968  00F7'                    u492_20:
  5969  00F7'                    i1l3600:
  5970                           
  5971                           ;/opt/microchip/xc8/v2.45/pic/sources/c99/common/doprnt.c: 639:    dbuf[0] = sign;
  5972  00F7' 0800'              	movf	efgtoa@sign^(0+128),w
  5973  00F8' 1283               	bcf	3,5	;RP0=0, select bank2
  5974  00F9' 1703               	bsf	3,6	;RP1=1, select bank2
  5975  00FA' 0080'              	movwf	_dbuf^(0+256)
  5976                           
  5977                           ;/opt/microchip/xc8/v2.45/pic/sources/c99/common/doprnt.c: 640:    w--;
  5978  00FB' 30FF               	movlw	255
  5979  00FC' 1683               	bsf	3,5	;RP0=1, select bank1
  5980  00FD' 1303               	bcf	3,6	;RP1=0, select bank1
  5981  00FE' 0780'              	addwf	efgtoa@w^(0+128),f
  5982  00FF' 1803               	skipnc
  5983  0100' 0A80'              	incf	(efgtoa@w+1)^(0+128),f
  5984  0101' 30FF               	movlw	255
  5985  0102' 0780'              	addwf	(efgtoa@w+1)^(0+128),f
  5986                           
  5987                           ;/opt/microchip/xc8/v2.45/pic/sources/c99/common/doprnt.c: 641:    n = 1;
  5988  0103' 3001               	movlw	1
  5989  0104' 0080'              	movwf	efgtoa@n^(0+128)
  5990  0105' 3000               	movlw	0
  5991  0106' 0081'              	movwf	(efgtoa@n^(0+128)+1)
  5992  0107'                    i1l3602:
  5993                           
  5994                           ;/opt/microchip/xc8/v2.45/pic/sources/c99/common/doprnt.c: 649:   {;/opt/microchip/xc8/v
      +                          2.45/pic/sources/c99/common/doprnt.c: 650:             strcpy(&dbuf[n], "nan");
  5995  0107' 305F               	movlw	(low ((STR_12-__stringbase)| (0+32768)))& (0+255)
  5996  0108' 0080'              	movwf	strcpy@src
  5997  0109' 0800'              	movf	efgtoa@n^(0+128),w
  5998  010A' 3E00'              	addlw	(low (_dbuf| (0+256)))& (0+255)
  5999  010B' 120A' 118A' 2000' 120A' 118A' 	fcall	_strcpy
  6000  0110'                    i1l3604:
  6001                           
  6002                           ;/opt/microchip/xc8/v2.45/pic/sources/c99/common/doprnt.c: 651:         };/opt/microchip
      +                          /xc8/v2.45/pic/sources/c99/common/doprnt.c: 652:         w -= ((sizeof("nan")/sizeof("na
      +                          n"[0]))-1);
  6003  0110' 30FD               	movlw	253
  6004  0111' 1683               	bsf	3,5	;RP0=1, select bank1
  6005  0112' 1303               	bcf	3,6	;RP1=0, select bank1
  6006  0113' 0780'              	addwf	efgtoa@w^(0+128),f
  6007  0114' 1803               	skipnc
  6008  0115' 0A80'              	incf	(efgtoa@w+1)^(0+128),f
  6009  0116' 30FF               	movlw	255
  6010  0117' 0780'              	addwf	(efgtoa@w+1)^(0+128),f
  6011                           
  6012                           ;/opt/microchip/xc8/v2.45/pic/sources/c99/common/doprnt.c: 653:         return (void) pa
      +                          d(fp, &dbuf[0], w);
  6013  0118' 3000'              	movlw	(low (_dbuf| (0+256)))& (0+255)
  6014  0119' 1283               	bcf	3,5	;RP0=0, select bank0
  6015  011A' 1303               	bcf	3,6	;RP1=0, select bank0
  6016  011B' 0084'              	movwf	pad@buf
  6017  011C' 1683               	bsf	3,5	;RP0=1, select bank1
  6018  011D' 1303               	bcf	3,6	;RP1=0, select bank1
  6019  011E' 0800'              	movf	(efgtoa@w+1)^(0+128),w
  6020  011F' 1283               	bcf	3,5	;RP0=0, select bank0
  6021  0120' 1303               	bcf	3,6	;RP1=0, select bank0
  6022  0121' 0086'              	movwf	pad@p+1
  6023  0122' 1683               	bsf	3,5	;RP0=1, select bank1
  6024  0123' 1303               	bcf	3,6	;RP1=0, select bank1
  6025  0124' 0800'              	movf	efgtoa@w^(0+128),w
  6026  0125' 1283               	bcf	3,5	;RP0=0, select bank0
  6027  0126' 1303               	bcf	3,6	;RP1=0, select bank0
  6028  0127' 0085'              	movwf	pad@p
  6029  0128' 1683               	bsf	3,5	;RP0=1, select bank1
  6030  0129' 1303               	bcf	3,6	;RP1=0, select bank1
  6031  012A' 0800'              	movf	efgtoa@fp^(0+128),w
  6032  012B' 120A' 118A' 2000' 120A' 118A' 	fcall	_pad
  6033  0130' 2800'              	goto	L1
  6034                           
  6035                           	psect	text25
  6036  0000'                    __ptext25:	
  6037 ;; *************** function _strcpy *****************
  6038 ;; Defined at:
  6039 ;;		line 3 in file "/opt/microchip/xc8/v2.45/pic/sources/c99/common/strcpy.c"
  6040 ;; Parameters:    Size  Location     Type
  6041 ;;  dest            1    wreg     PTR unsigned char 
  6042 ;;		 -> dbuf(80), 
  6043 ;;  src             1    0[COMMON] PTR const unsigned char 
  6044 ;;		 -> STR_12(4), STR_9(4), 
  6045 ;; Auto vars:     Size  Location     Type
  6046 ;;  dest            1    3[COMMON] PTR unsigned char 
  6047 ;;		 -> dbuf(80), 
  6048 ;;  d               1    2[COMMON] PTR unsigned char 
  6049 ;;		 -> dbuf(80), 
  6050 ;; Return value:  Size  Location     Type
  6051 ;;                  1    wreg      PTR unsigned char 
  6052 ;; Registers used:
  6053 ;;		wreg, fsr0l, fsr0h, status,2, status,0, pclath
  6054 ;; Tracked objects:
  6055 ;;		On entry : 0/0
  6056 ;;		On exit  : 0/0
  6057 ;;		Unchanged: 0/0
  6058 ;; Data sizes:     COMMON   BANK0   BANK1   BANK3   BANK2
  6059 ;;      Params:         1       0       0       0       0
  6060 ;;      Locals:         2       0       0       0       0
  6061 ;;      Temps:          1       0       0       0       0
  6062 ;;      Totals:         4       0       0       0       0
  6063 ;;Total ram usage:        4 bytes
  6064 ;; Hardware stack levels used: 2
  6065 ;; This function calls:
  6066 ;;		Nothing
  6067 ;; This function is called by:
  6068 ;;		_efgtoa
  6069 ;; This function uses a non-reentrant model
  6070 ;;
  6071                           
  6072  0000'                    _strcpy:	
  6073                           ;psect for function _strcpy
  6074                           
  6075                           
  6076                           ;incstack = 0
  6077 ;; hardware stack exceeded
  6078                           ; Regs used in _strcpy: [wreg-fsr0h+status,2+status,0+pclath]
  6079                           ;strcpy@dest stored from wreg
  6080  0000' 0083'              	movwf	strcpy@dest
  6081  0001'                    i1l3466:
  6082  0001' 0803'              	movf	strcpy@dest,w
  6083  0002' 0082'              	movwf	strcpy@d
  6084  0003'                    i1l3468:
  6085  0003' 3001               	movlw	1
  6086  0004' 0780'              	addwf	strcpy@src,f
  6087  0005' 30FF               	movlw	-1
  6088  0006' 0700'              	addwf	strcpy@src,w
  6089  0007' 0084               	movwf	4
  6090  0008' 120A' 118A' 2000' 120A' 118A' 	fcall	stringdir
  6091  000D' 0081'              	movwf	??_strcpy
  6092  000E' 0802'              	movf	strcpy@d,w
  6093  000F' 0084               	movwf	4
  6094  0010' 3001               	movlw	1
  6095  0011' 0782'              	addwf	strcpy@d,f
  6096  0012' 0801'              	movf	??_strcpy,w
  6097  0013' 1783               	bsf	3,7	;select IRP bank2
  6098  0014' 0080               	movwf	0
  6099  0015' 0800               	movf	0,w
  6100  0016' 1D03               	btfss	3,2
  6101  0017' 2800'              	goto	u462_21
  6102  0018' 2800'              	goto	u462_20
  6103  0019'                    u462_21:
  6104  0019' 2800'              	goto	i1l3468
  6105  001A'                    u462_20:
  6106  001A'                    i1l1066:
  6107  001A' 0008               	return
  6108  001B'                    __end_of_strcpy:
  6109                           
  6110                           	psect	text26
  6111  0000'                    __ptext26:	
  6112 ;; *************** function _memcpy *****************
  6113 ;; Defined at:
  6114 ;;		line 4 in file "/opt/microchip/xc8/v2.45/pic/sources/c99/common/memcpy.c"
  6115 ;; Parameters:    Size  Location     Type
  6116 ;;  d1              1    wreg     PTR void 
  6117 ;;		 -> dbuf(80), 
  6118 ;;  s1              1    0[COMMON] PTR const void 
  6119 ;;		 -> dbuf(80), 
  6120 ;;  n               2    1[COMMON] unsigned int 
  6121 ;; Auto vars:     Size  Location     Type
  6122 ;;  d1              1    5[COMMON] PTR void 
  6123 ;;		 -> dbuf(80), 
  6124 ;;  s               1    7[COMMON] PTR const unsigned char 
  6125 ;;		 -> dbuf(80), 
  6126 ;;  d               1    6[COMMON] PTR unsigned char 
  6127 ;;		 -> dbuf(80), 
  6128 ;;  tmp             1    4[COMMON] unsigned char 
  6129 ;; Return value:  Size  Location     Type
  6130 ;;                  1    wreg      PTR void 
  6131 ;; Registers used:
  6132 ;;		wreg, fsr0l, fsr0h, status,2, status,0
  6133 ;; Tracked objects:
  6134 ;;		On entry : 0/0
  6135 ;;		On exit  : 0/0
  6136 ;;		Unchanged: 0/0
  6137 ;; Data sizes:     COMMON   BANK0   BANK1   BANK3   BANK2
  6138 ;;      Params:         3       0       0       0       0
  6139 ;;      Locals:         4       0       0       0       0
  6140 ;;      Temps:          1       0       0       0       0
  6141 ;;      Totals:         8       0       0       0       0
  6142 ;;Total ram usage:        8 bytes
  6143 ;; Hardware stack levels used: 1
  6144 ;; This function calls:
  6145 ;;		Nothing
  6146 ;; This function is called by:
  6147 ;;		_efgtoa
  6148 ;; This function uses a non-reentrant model
  6149 ;;
  6150                           
  6151  0000'                    _memcpy:	
  6152                           ;psect for function _memcpy
  6153                           
  6154                           
  6155                           ;incstack = 0
  6156 ;; hardware stack exceeded
  6157                           ; Regs used in _memcpy: [wreg-fsr0h+status,2+status,0]
  6158                           ;memcpy@d1 stored from wreg
  6159  0000' 0085'              	movwf	memcpy@d1
  6160  0001'                    i1l3508:
  6161  0001' 0800'              	movf	memcpy@s1,w
  6162  0002' 0087'              	movwf	memcpy@s
  6163  0003' 0805'              	movf	memcpy@d1,w
  6164  0004' 0086'              	movwf	memcpy@d
  6165  0005' 2800'              	goto	i1l1037
  6166  0006'                    i1l3510:
  6167  0006' 0807'              	movf	memcpy@s,w
  6168  0007' 0084               	movwf	4
  6169  0008' 1783               	bsf	3,7	;select IRP bank2
  6170  0009' 0800               	movf	0,w
  6171  000A' 0084'              	movwf	memcpy@tmp
  6172  000B'                    i1l3512:
  6173  000B' 3001               	movlw	1
  6174  000C' 0083'              	movwf	??_memcpy
  6175  000D' 0803'              	movf	??_memcpy,w
  6176  000E' 0787'              	addwf	memcpy@s,f
  6177  000F'                    i1l3514:
  6178  000F' 0806'              	movf	memcpy@d,w
  6179  0010' 0084               	movwf	4
  6180  0011' 0804'              	movf	memcpy@tmp,w
  6181  0012' 0080               	movwf	0
  6182  0013' 3001               	movlw	1
  6183  0014' 0083'              	movwf	??_memcpy
  6184  0015' 0803'              	movf	??_memcpy,w
  6185  0016' 0786'              	addwf	memcpy@d,f
  6186  0017'                    i1l1037:
  6187  0017' 3001               	movlw	1
  6188  0018' 0281'              	subwf	memcpy@n,f
  6189  0019' 3000               	movlw	0
  6190  001A' 1C03               	skipc
  6191  001B' 0382'              	decf	memcpy@n+1,f
  6192  001C' 0282'              	subwf	memcpy@n+1,f
  6193  001D' 0A01'              	incf	memcpy@n,w
  6194  001E' 1D03               	skipz
  6195  001F' 2800'              	goto	u476_21
  6196  0020' 0A02'              	incf	memcpy@n+1,w
  6197  0021' 1D03               	btfss	3,2
  6198  0022' 2800'              	goto	u476_21
  6199  0023' 2800'              	goto	u476_20
  6200  0024'                    u476_21:
  6201  0024' 2800'              	goto	i1l3510
  6202  0025'                    u476_20:
  6203  0025'                    i1l1040:
  6204  0025' 0008               	return
  6205  0026'                    __end_of_memcpy:
  6206                           
  6207                           	psect	text27
  6208  0000'                    __ptext27:	
  6209 ;; *************** function _labs *****************
  6210 ;; Defined at:
  6211 ;;		line 1 in file "/opt/microchip/xc8/v2.45/pic/sources/c99/common/labs.c"
  6212 ;; Parameters:    Size  Location     Type
  6213 ;;  a               4    0[COMMON] long 
  6214 ;; Auto vars:     Size  Location     Type
  6215 ;;		None
  6216 ;; Return value:  Size  Location     Type
  6217 ;;                  4    0[COMMON] long 
  6218 ;; Registers used:
  6219 ;;		wreg, status,2, status,0
  6220 ;; Tracked objects:
  6221 ;;		On entry : 0/0
  6222 ;;		On exit  : 0/0
  6223 ;;		Unchanged: 0/0
  6224 ;; Data sizes:     COMMON   BANK0   BANK1   BANK3   BANK2
  6225 ;;      Params:         4       0       0       0       0
  6226 ;;      Locals:         0       0       0       0       0
  6227 ;;      Temps:          0       0       0       0       0
  6228 ;;      Totals:         4       0       0       0       0
  6229 ;;Total ram usage:        4 bytes
  6230 ;; Hardware stack levels used: 1
  6231 ;; This function calls:
  6232 ;;		Nothing
  6233 ;; This function is called by:
  6234 ;;		_efgtoa
  6235 ;; This function uses a non-reentrant model
  6236 ;;
  6237                           
  6238  0000'                    _labs:	
  6239                           ;psect for function _labs
  6240                           
  6241  0000'                    i1l3470:	
  6242                           ;incstack = 0
  6243 ;; hardware stack exceeded
  6244                           ; Regs used in _labs: [wreg+status,2+status,0]
  6245                           
  6246  0000' 1B83'              	btfsc	labs@a+3,7
  6247  0001' 2800'              	goto	u463_21
  6248  0002' 2800'              	goto	u463_20
  6249  0003'                    u463_21:
  6250  0003' 2800'              	goto	i1l3474
  6251  0004'                    u463_20:
  6252  0004'                    i1l3472:
  6253  0004' 2800'              	goto	i1l1034
  6254  0005'                    i1l3474:
  6255  0005' 0900'              	comf	labs@a,w
  6256  0006' 0080'              	movwf	?_labs
  6257  0007' 0901'              	comf	labs@a+1,w
  6258  0008' 0081'              	movwf	?_labs+1
  6259  0009' 0902'              	comf	labs@a+2,w
  6260  000A' 0082'              	movwf	?_labs+2
  6261  000B' 0903'              	comf	labs@a+3,w
  6262  000C' 0083'              	movwf	?_labs+3
  6263  000D' 0A80'              	incf	?_labs,f
  6264  000E' 1903               	skipnz
  6265  000F' 0A81'              	incf	?_labs+1,f
  6266  0010' 1903               	skipnz
  6267  0011' 0A82'              	incf	?_labs+2,f
  6268  0012' 1903               	skipnz
  6269  0013' 0A83'              	incf	?_labs+3,f
  6270  0014'                    i1l1034:
  6271  0014' 0008               	return
  6272  0015'                    __end_of_labs:
  6273                           
  6274                           	psect	text28
  6275  0000'                    __ptext28:	
  6276 ;; *************** function _floorf *****************
  6277 ;; Defined at:
  6278 ;;		line 3 in file "/opt/microchip/xc8/v2.45/pic/sources/c99/common/floorf.c"
  6279 ;; Parameters:    Size  Location     Type
  6280 ;;  x               4   46[BANK0 ] float 
  6281 ;; Auto vars:     Size  Location     Type
  6282 ;;  u               4   62[BANK0 ] struct .
  6283 ;;  m               4   56[BANK0 ] unsigned long 
  6284 ;;  e               2   60[BANK0 ] int 
  6285 ;; Return value:  Size  Location     Type
  6286 ;;                  4   46[BANK0 ] float 
  6287 ;; Registers used:
  6288 ;;		wreg, status,2, status,0, btemp+1
  6289 ;; Tracked objects:
  6290 ;;		On entry : 0/0
  6291 ;;		On exit  : 0/0
  6292 ;;		Unchanged: 0/0
  6293 ;; Data sizes:     COMMON   BANK0   BANK1   BANK3   BANK2
  6294 ;;      Params:         0       4       0       0       0
  6295 ;;      Locals:         0      10       0       0       0
  6296 ;;      Temps:          0       6       0       0       0
  6297 ;;      Totals:         0      20       0       0       0
  6298 ;;Total ram usage:       20 bytes
  6299 ;; Hardware stack levels used: 1
  6300 ;; This function calls:
  6301 ;;		Nothing
  6302 ;; This function is called by:
  6303 ;;		_efgtoa
  6304 ;; This function uses a non-reentrant model
  6305 ;;
  6306                           
  6307  0000'                    _floorf:	
  6308                           ;psect for function _floorf
  6309                           
  6310  0000'                    i1l3478:	
  6311                           ;incstack = 0
  6312 ;; hardware stack exceeded
  6313                           ; Regs used in _floorf: [wreg+status,2+status,0+btemp+1]
  6314                           
  6315  0000' 1683               	bsf	3,5	;RP0=1, select bank3
  6316  0001' 1703               	bsf	3,6	;RP1=1, select bank3
  6317  0002' 0800'              	movf	(floorf@F521+3)^(0+384),w
  6318  0003' 1283               	bcf	3,5	;RP0=0, select bank0
  6319  0004' 1303               	bcf	3,6	;RP1=0, select bank0
  6320  0005' 00C1'              	movwf	floorf@u+3
  6321  0006' 1683               	bsf	3,5	;RP0=1, select bank3
  6322  0007' 1703               	bsf	3,6	;RP1=1, select bank3
  6323  0008' 0800'              	movf	(floorf@F521+2)^(0+384),w
  6324  0009' 1283               	bcf	3,5	;RP0=0, select bank0
  6325  000A' 1303               	bcf	3,6	;RP1=0, select bank0
  6326  000B' 00C0'              	movwf	floorf@u+2
  6327  000C' 1683               	bsf	3,5	;RP0=1, select bank3
  6328  000D' 1703               	bsf	3,6	;RP1=1, select bank3
  6329  000E' 0800'              	movf	(floorf@F521+1)^(0+384),w
  6330  000F' 1283               	bcf	3,5	;RP0=0, select bank0
  6331  0010' 1303               	bcf	3,6	;RP1=0, select bank0
  6332  0011' 00BF'              	movwf	floorf@u+1
  6333  0012' 1683               	bsf	3,5	;RP0=1, select bank3
  6334  0013' 1703               	bsf	3,6	;RP1=1, select bank3
  6335  0014' 0800'              	movf	floorf@F521^(0+384),w
  6336  0015' 1283               	bcf	3,5	;RP0=0, select bank0
  6337  0016' 1303               	bcf	3,6	;RP1=0, select bank0
  6338  0017' 00BE'              	movwf	floorf@u
  6339  0018' 0831'              	movf	floorf@x+3,w
  6340  0019' 00C1'              	movwf	floorf@u+3
  6341  001A' 0830'              	movf	floorf@x+2,w
  6342  001B' 00C0'              	movwf	floorf@u+2
  6343  001C' 082F'              	movf	floorf@x+1,w
  6344  001D' 00BF'              	movwf	floorf@u+1
  6345  001E' 082E'              	movf	floorf@x,w
  6346  001F' 00BE'              	movwf	floorf@u
  6347  0020'                    i1l3480:
  6348  0020' 083E'              	movf	floorf@u,w
  6349  0021' 00B2'              	movwf	??_floorf
  6350  0022' 083F'              	movf	floorf@u+1,w
  6351  0023' 00B3'              	movwf	??_floorf+1
  6352  0024' 0840'              	movf	floorf@u+2,w
  6353  0025' 00B4'              	movwf	??_floorf+2
  6354  0026' 0841'              	movf	floorf@u+3,w
  6355  0027' 00B5'              	movwf	??_floorf+3
  6356  0028' 3017               	movlw	23
  6357  0029'                    u464_25:
  6358  0029' 1003               	clrc
  6359  002A' 0CB5'              	rrf	??_floorf+3,f
  6360  002B' 0CB4'              	rrf	??_floorf+2,f
  6361  002C' 0CB3'              	rrf	??_floorf+1,f
  6362  002D' 0CB2'              	rrf	??_floorf,f
  6363  002E'                    u464_20:
  6364  002E' 3EFF               	addlw	-1
  6365  002F' 1D03               	skipz
  6366  0030' 2800'              	goto	u464_25
  6367  0031' 30FF               	movlw	255
  6368  0032' 0532'              	andwf	??_floorf,w
  6369  0033' 00B6'              	movwf	??_floorf+4
  6370  0034' 3000               	movlw	0
  6371  0035' 0533'              	andwf	??_floorf+1,w
  6372  0036' 00B7'              	movwf	??_floorf+5
  6373  0037' 0836'              	movf	??_floorf+4,w
  6374  0038' 3E81               	addlw	129
  6375  0039' 00BC'              	movwf	floorf@e
  6376  003A' 0837'              	movf	??_floorf+5,w
  6377  003B' 1803               	skipnc
  6378  003C' 3E01               	addlw	1
  6379  003D' 3EFF               	addlw	255
  6380  003E' 00BD'              	movwf	floorf@e+1
  6381  003F'                    i1l3482:
  6382  003F' 083D'              	movf	floorf@e+1,w
  6383  0040' 3A80               	xorlw	128
  6384  0041' 00FF               	movwf	btemp+1
  6385  0042' 3080               	movlw	128
  6386  0043' 027F               	subwf	btemp+1,w
  6387  0044' 1D03               	skipz
  6388  0045' 2800'              	goto	u465_25
  6389  0046' 3017               	movlw	23
  6390  0047' 023C'              	subwf	floorf@e,w
  6391  0048'                    u465_25:
  6392  0048' 1C03               	skipc
  6393  0049' 2800'              	goto	u465_21
  6394  004A' 2800'              	goto	u465_20
  6395  004B'                    u465_21:
  6396  004B' 2800'              	goto	i1l1019
  6397  004C'                    u465_20:
  6398  004C'                    i1l3484:
  6399  004C' 2800'              	goto	i1l1020
  6400  004D'                    i1l1019:
  6401  004D' 1283               	bcf	3,5	;RP0=0, select bank0
  6402  004E' 1303               	bcf	3,6	;RP1=0, select bank0
  6403  004F' 1BBD'              	btfsc	floorf@e+1,7
  6404  0050' 2800'              	goto	u466_21
  6405  0051' 2800'              	goto	u466_20
  6406  0052'                    u466_21:
  6407  0052' 2800'              	goto	i1l3498
  6408  0053'                    u466_20:
  6409  0053'                    i1l3486:
  6410  0053' 0A3C'              	incf	floorf@e,w
  6411  0054' 00B2'              	movwf	??_floorf
  6412  0055' 30FF               	movlw	255
  6413  0056' 00B3'              	movwf	??_floorf+1
  6414  0057' 30FF               	movlw	255
  6415  0058' 00B4'              	movwf	??_floorf+2
  6416  0059' 307F               	movlw	127
  6417  005A' 00B5'              	movwf	??_floorf+3
  6418  005B' 3000               	movlw	0
  6419  005C' 00B6'              	movwf	??_floorf+4
  6420  005D' 2800'              	goto	u467_20
  6421  005E'                    u467_25:
  6422  005E' 0D36'              	rlf	??_floorf+4,w
  6423  005F' 0CB6'              	rrf	??_floorf+4,f
  6424  0060' 0CB5'              	rrf	??_floorf+3,f
  6425  0061' 0CB4'              	rrf	??_floorf+2,f
  6426  0062' 0CB3'              	rrf	??_floorf+1,f
  6427  0063'                    u467_20:
  6428  0063' 0BB2'              	decfsz	??_floorf,f
  6429  0064' 2800'              	goto	u467_25
  6430  0065' 0836'              	movf	??_floorf+4,w
  6431  0066' 00BB'              	movwf	floorf@m+3
  6432  0067' 0835'              	movf	??_floorf+3,w
  6433  0068' 00BA'              	movwf	floorf@m+2
  6434  0069' 0834'              	movf	??_floorf+2,w
  6435  006A' 00B9'              	movwf	floorf@m+1
  6436  006B' 0833'              	movf	??_floorf+1,w
  6437  006C' 00B8'              	movwf	floorf@m
  6438  006D'                    i1l3488:
  6439  006D' 0838'              	movf	floorf@m,w
  6440  006E' 053E'              	andwf	floorf@u,w
  6441  006F' 00B2'              	movwf	??_floorf
  6442  0070' 0839'              	movf	floorf@m+1,w
  6443  0071' 053F'              	andwf	floorf@u+1,w
  6444  0072' 00B3'              	movwf	??_floorf+1
  6445  0073' 083A'              	movf	floorf@m+2,w
  6446  0074' 0540'              	andwf	floorf@u+2,w
  6447  0075' 00B4'              	movwf	??_floorf+2
  6448  0076' 083B'              	movf	floorf@m+3,w
  6449  0077' 0541'              	andwf	floorf@u+3,w
  6450  0078' 00B5'              	movwf	??_floorf+3
  6451  0079' 0835'              	movf	??_floorf+3,w
  6452  007A' 0434'              	iorwf	??_floorf+2,w
  6453  007B' 0433'              	iorwf	??_floorf+1,w
  6454  007C' 0432'              	iorwf	??_floorf,w
  6455  007D' 1D03               	skipz
  6456  007E' 2800'              	goto	u468_21
  6457  007F' 2800'              	goto	u468_20
  6458  0080'                    u468_21:
  6459  0080' 2800'              	goto	i1l3492
  6460  0081'                    u468_20:
  6461  0081' 2800'              	goto	i1l3484
  6462  0082'                    i1l3492:
  6463  0082' 083E'              	movf	floorf@u,w
  6464  0083' 00B2'              	movwf	??_floorf
  6465  0084' 083F'              	movf	floorf@u+1,w
  6466  0085' 00B3'              	movwf	??_floorf+1
  6467  0086' 0840'              	movf	floorf@u+2,w
  6468  0087' 00B4'              	movwf	??_floorf+2
  6469  0088' 0841'              	movf	floorf@u+3,w
  6470  0089' 00B5'              	movwf	??_floorf+3
  6471  008A' 301F               	movlw	31
  6472  008B'                    u469_25:
  6473  008B' 1003               	clrc
  6474  008C' 0CB5'              	rrf	??_floorf+3,f
  6475  008D' 0CB4'              	rrf	??_floorf+2,f
  6476  008E' 0CB3'              	rrf	??_floorf+1,f
  6477  008F' 0CB2'              	rrf	??_floorf,f
  6478  0090'                    u469_20:
  6479  0090' 3EFF               	addlw	-1
  6480  0091' 1D03               	skipz
  6481  0092' 2800'              	goto	u469_25
  6482  0093' 0835'              	movf	??_floorf+3,w
  6483  0094' 0434'              	iorwf	??_floorf+2,w
  6484  0095' 0433'              	iorwf	??_floorf+1,w
  6485  0096' 0432'              	iorwf	??_floorf,w
  6486  0097' 1903               	skipnz
  6487  0098' 2800'              	goto	u470_21
  6488  0099' 2800'              	goto	u470_20
  6489  009A'                    u470_21:
  6490  009A' 2800'              	goto	i1l3496
  6491  009B'                    u470_20:
  6492  009B'                    i1l3494:
  6493  009B' 0838'              	movf	floorf@m,w
  6494  009C' 07BE'              	addwf	floorf@u,f
  6495  009D' 0839'              	movf	floorf@m+1,w
  6496  009E' 1103               	clrz
  6497  009F' 1803               	skipnc
  6498  00A0' 3E01               	addlw	1
  6499  00A1' 1903               	skipnz
  6500  00A2' 2800'              	goto	u471_21
  6501  00A3' 07BF'              	addwf	floorf@u+1,f
  6502  00A4'                    u471_21:
  6503  00A4' 083A'              	movf	floorf@m+2,w
  6504  00A5' 1103               	clrz
  6505  00A6' 1803               	skipnc
  6506  00A7' 3E01               	addlw	1
  6507  00A8' 1903               	skipnz
  6508  00A9' 2800'              	goto	u471_22
  6509  00AA' 07C0'              	addwf	floorf@u+2,f
  6510  00AB'                    u471_22:
  6511  00AB' 083B'              	movf	floorf@m+3,w
  6512  00AC' 1103               	clrz
  6513  00AD' 1803               	skipnc
  6514  00AE' 3E01               	addlw	1
  6515  00AF' 1903               	skipnz
  6516  00B0' 2800'              	goto	u471_23
  6517  00B1' 07C1'              	addwf	floorf@u+3,f
  6518  00B2'                    u471_23:
  6519  00B2'                    i1l3496:
  6520  00B2' 0938'              	comf	floorf@m,w
  6521  00B3' 00B2'              	movwf	??_floorf
  6522  00B4' 0939'              	comf	floorf@m+1,w
  6523  00B5' 00B3'              	movwf	??_floorf+1
  6524  00B6' 093A'              	comf	floorf@m+2,w
  6525  00B7' 00B4'              	movwf	??_floorf+2
  6526  00B8' 093B'              	comf	floorf@m+3,w
  6527  00B9' 00B5'              	movwf	??_floorf+3
  6528  00BA' 0832'              	movf	??_floorf,w
  6529  00BB' 05BE'              	andwf	floorf@u,f
  6530  00BC' 0833'              	movf	??_floorf+1,w
  6531  00BD' 05BF'              	andwf	floorf@u+1,f
  6532  00BE' 0834'              	movf	??_floorf+2,w
  6533  00BF' 05C0'              	andwf	floorf@u+2,f
  6534  00C0' 0835'              	movf	??_floorf+3,w
  6535  00C1' 05C1'              	andwf	floorf@u+3,f
  6536  00C2' 2800'              	goto	i1l1024
  6537  00C3'                    i1l3498:
  6538  00C3' 083E'              	movf	floorf@u,w
  6539  00C4' 00B2'              	movwf	??_floorf
  6540  00C5' 083F'              	movf	floorf@u+1,w
  6541  00C6' 00B3'              	movwf	??_floorf+1
  6542  00C7' 0840'              	movf	floorf@u+2,w
  6543  00C8' 00B4'              	movwf	??_floorf+2
  6544  00C9' 0841'              	movf	floorf@u+3,w
  6545  00CA' 00B5'              	movwf	??_floorf+3
  6546  00CB' 301F               	movlw	31
  6547  00CC'                    u472_25:
  6548  00CC' 1003               	clrc
  6549  00CD' 0CB5'              	rrf	??_floorf+3,f
  6550  00CE' 0CB4'              	rrf	??_floorf+2,f
  6551  00CF' 0CB3'              	rrf	??_floorf+1,f
  6552  00D0' 0CB2'              	rrf	??_floorf,f
  6553  00D1'                    u472_20:
  6554  00D1' 3EFF               	addlw	-1
  6555  00D2' 1D03               	skipz
  6556  00D3' 2800'              	goto	u472_25
  6557  00D4' 0835'              	movf	??_floorf+3,w
  6558  00D5' 0434'              	iorwf	??_floorf+2,w
  6559  00D6' 0433'              	iorwf	??_floorf+1,w
  6560  00D7' 0432'              	iorwf	??_floorf,w
  6561  00D8' 1D03               	skipz
  6562  00D9' 2800'              	goto	u473_21
  6563  00DA' 2800'              	goto	u473_20
  6564  00DB'                    u473_21:
  6565  00DB' 2800'              	goto	i1l3502
  6566  00DC'                    u473_20:
  6567  00DC'                    i1l3500:
  6568  00DC' 3000               	movlw	0
  6569  00DD' 00C1'              	movwf	floorf@u+3
  6570  00DE' 3000               	movlw	0
  6571  00DF' 00C0'              	movwf	floorf@u+2
  6572  00E0' 3000               	movlw	0
  6573  00E1' 00BF'              	movwf	floorf@u+1
  6574  00E2' 3000               	movlw	0
  6575  00E3' 00BE'              	movwf	floorf@u
  6576  00E4' 2800'              	goto	i1l1024
  6577  00E5'                    i1l3502:
  6578  00E5' 083E'              	movf	floorf@u,w
  6579  00E6' 00B2'              	movwf	??_floorf
  6580  00E7' 083F'              	movf	floorf@u+1,w
  6581  00E8' 00B3'              	movwf	??_floorf+1
  6582  00E9' 0840'              	movf	floorf@u+2,w
  6583  00EA' 00B4'              	movwf	??_floorf+2
  6584  00EB' 0841'              	movf	floorf@u+3,w
  6585  00EC' 00B5'              	movwf	??_floorf+3
  6586  00ED' 3001               	movlw	1
  6587  00EE'                    u474_25:
  6588  00EE' 1003               	clrc
  6589  00EF' 0DB2'              	rlf	??_floorf,f
  6590  00F0' 0DB3'              	rlf	??_floorf+1,f
  6591  00F1' 0DB4'              	rlf	??_floorf+2,f
  6592  00F2' 0DB5'              	rlf	??_floorf+3,f
  6593  00F3'                    u474_20:
  6594  00F3' 3EFF               	addlw	-1
  6595  00F4' 1D03               	skipz
  6596  00F5' 2800'              	goto	u474_25
  6597  00F6' 0835'              	movf	??_floorf+3,w
  6598  00F7' 0434'              	iorwf	??_floorf+2,w
  6599  00F8' 0433'              	iorwf	??_floorf+1,w
  6600  00F9' 0432'              	iorwf	??_floorf,w
  6601  00FA' 1903               	skipnz
  6602  00FB' 2800'              	goto	u475_21
  6603  00FC' 2800'              	goto	u475_20
  6604  00FD'                    u475_21:
  6605  00FD' 2800'              	goto	i1l1024
  6606  00FE'                    u475_20:
  6607  00FE'                    i1l3504:
  6608  00FE' 30BF               	movlw	191
  6609  00FF' 00C1'              	movwf	floorf@u+3
  6610  0100' 3080               	movlw	128
  6611  0101' 00C0'              	movwf	floorf@u+2
  6612  0102' 3000               	movlw	0
  6613  0103' 00BF'              	movwf	floorf@u+1
  6614  0104' 3000               	movlw	0
  6615  0105' 00BE'              	movwf	floorf@u
  6616  0106'                    i1l1024:
  6617  0106' 0841'              	movf	floorf@u+3,w
  6618  0107' 00B1'              	movwf	?_floorf+3
  6619  0108' 0840'              	movf	floorf@u+2,w
  6620  0109' 00B0'              	movwf	?_floorf+2
  6621  010A' 083F'              	movf	floorf@u+1,w
  6622  010B' 00AF'              	movwf	?_floorf+1
  6623  010C' 083E'              	movf	floorf@u,w
  6624  010D' 00AE'              	movwf	?_floorf
  6625  010E'                    i1l1020:
  6626  010E' 0008               	return
  6627  010F'                    __end_of_floorf:
  6628                           
  6629                           	psect	text29
  6630  0000'                    __ptext29:	
  6631 ;; *************** function ___fpclassifyf *****************
  6632 ;; Defined at:
  6633 ;;		line 4 in file "/opt/microchip/xc8/v2.45/pic/sources/c99/common/__fpclassifyf.c"
  6634 ;; Parameters:    Size  Location     Type
  6635 ;;  x               4    0[COMMON] float 
  6636 ;; Auto vars:     Size  Location     Type
  6637 ;;  u               4    2[BANK0 ] struct .
  6638 ;;  e               2    0[BANK0 ] int 
  6639 ;; Return value:  Size  Location     Type
  6640 ;;                  2    0[COMMON] int 
  6641 ;; Registers used:
  6642 ;;		wreg, status,2, status,0
  6643 ;; Tracked objects:
  6644 ;;		On entry : 0/0
  6645 ;;		On exit  : 0/0
  6646 ;;		Unchanged: 0/0
  6647 ;; Data sizes:     COMMON   BANK0   BANK1   BANK3   BANK2
  6648 ;;      Params:         4       0       0       0       0
  6649 ;;      Locals:         0       6       0       0       0
  6650 ;;      Temps:          6       0       0       0       0
  6651 ;;      Totals:        10       6       0       0       0
  6652 ;;Total ram usage:       16 bytes
  6653 ;; Hardware stack levels used: 1
  6654 ;; This function calls:
  6655 ;;		Nothing
  6656 ;; This function is called by:
  6657 ;;		_efgtoa
  6658 ;; This function uses a non-reentrant model
  6659 ;;
  6660                           
  6661  0000'                    ___fpclassifyf:	
  6662                           ;psect for function ___fpclassifyf
  6663                           
  6664  0000'                    i1l3442:	
  6665                           ;incstack = 0
  6666 ;; hardware stack exceeded
  6667                           ; Regs used in ___fpclassifyf: [wreg+status,2+status,0]
  6668                           
  6669  0000' 1683               	bsf	3,5	;RP0=1, select bank3
  6670  0001' 1703               	bsf	3,6	;RP1=1, select bank3
  6671  0002' 0800'              	movf	(___fpclassifyf@F465+3)^(0+384),w
  6672  0003' 1283               	bcf	3,5	;RP0=0, select bank0
  6673  0004' 1303               	bcf	3,6	;RP1=0, select bank0
  6674  0005' 0085'              	movwf	___fpclassifyf@u+3
  6675  0006' 1683               	bsf	3,5	;RP0=1, select bank3
  6676  0007' 1703               	bsf	3,6	;RP1=1, select bank3
  6677  0008' 0800'              	movf	(___fpclassifyf@F465+2)^(0+384),w
  6678  0009' 1283               	bcf	3,5	;RP0=0, select bank0
  6679  000A' 1303               	bcf	3,6	;RP1=0, select bank0
  6680  000B' 0084'              	movwf	___fpclassifyf@u+2
  6681  000C' 1683               	bsf	3,5	;RP0=1, select bank3
  6682  000D' 1703               	bsf	3,6	;RP1=1, select bank3
  6683  000E' 0800'              	movf	(___fpclassifyf@F465+1)^(0+384),w
  6684  000F' 1283               	bcf	3,5	;RP0=0, select bank0
  6685  0010' 1303               	bcf	3,6	;RP1=0, select bank0
  6686  0011' 0083'              	movwf	___fpclassifyf@u+1
  6687  0012' 1683               	bsf	3,5	;RP0=1, select bank3
  6688  0013' 1703               	bsf	3,6	;RP1=1, select bank3
  6689  0014' 0800'              	movf	___fpclassifyf@F465^(0+384),w
  6690  0015' 1283               	bcf	3,5	;RP0=0, select bank0
  6691  0016' 1303               	bcf	3,6	;RP1=0, select bank0
  6692  0017' 0082'              	movwf	___fpclassifyf@u
  6693  0018' 0803'              	movf	___fpclassifyf@x+3,w
  6694  0019' 0085'              	movwf	___fpclassifyf@u+3
  6695  001A' 0802'              	movf	___fpclassifyf@x+2,w
  6696  001B' 0084'              	movwf	___fpclassifyf@u+2
  6697  001C' 0801'              	movf	___fpclassifyf@x+1,w
  6698  001D' 0083'              	movwf	___fpclassifyf@u+1
  6699  001E' 0800'              	movf	___fpclassifyf@x,w
  6700  001F' 0082'              	movwf	___fpclassifyf@u
  6701  0020'                    i1l3444:
  6702  0020' 0802'              	movf	___fpclassifyf@u,w
  6703  0021' 0084'              	movwf	??___fpclassifyf
  6704  0022' 0803'              	movf	___fpclassifyf@u+1,w
  6705  0023' 0085'              	movwf	??___fpclassifyf+1
  6706  0024' 0804'              	movf	___fpclassifyf@u+2,w
  6707  0025' 0086'              	movwf	??___fpclassifyf+2
  6708  0026' 0805'              	movf	___fpclassifyf@u+3,w
  6709  0027' 0087'              	movwf	??___fpclassifyf+3
  6710  0028' 3017               	movlw	23
  6711  0029'                    u454_25:
  6712  0029' 1003               	clrc
  6713  002A' 0C87'              	rrf	??___fpclassifyf+3,f
  6714  002B' 0C86'              	rrf	??___fpclassifyf+2,f
  6715  002C' 0C85'              	rrf	??___fpclassifyf+1,f
  6716  002D' 0C84'              	rrf	??___fpclassifyf,f
  6717  002E'                    u454_20:
  6718  002E' 3EFF               	addlw	-1
  6719  002F' 1D03               	skipz
  6720  0030' 2800'              	goto	u454_25
  6721  0031' 30FF               	movlw	255
  6722  0032' 0504'              	andwf	??___fpclassifyf,w
  6723  0033' 0080'              	movwf	___fpclassifyf@e
  6724  0034' 3000               	movlw	0
  6725  0035' 0505'              	andwf	??___fpclassifyf+1,w
  6726  0036' 0081'              	movwf	___fpclassifyf@e+1
  6727  0037'                    i1l3446:
  6728  0037' 0800'              	movf	___fpclassifyf@e,w
  6729  0038' 0401'              	iorwf	___fpclassifyf@e+1,w
  6730  0039' 1D03               	btfss	3,2
  6731  003A' 2800'              	goto	u455_21
  6732  003B' 2800'              	goto	u455_20
  6733  003C'                    u455_21:
  6734  003C' 2800'              	goto	i1l3456
  6735  003D'                    u455_20:
  6736  003D'                    i1l3448:
  6737  003D' 0802'              	movf	___fpclassifyf@u,w
  6738  003E' 0084'              	movwf	??___fpclassifyf
  6739  003F' 0803'              	movf	___fpclassifyf@u+1,w
  6740  0040' 0085'              	movwf	??___fpclassifyf+1
  6741  0041' 0804'              	movf	___fpclassifyf@u+2,w
  6742  0042' 0086'              	movwf	??___fpclassifyf+2
  6743  0043' 0805'              	movf	___fpclassifyf@u+3,w
  6744  0044' 0087'              	movwf	??___fpclassifyf+3
  6745  0045' 3001               	movlw	1
  6746  0046'                    u456_25:
  6747  0046' 1003               	clrc
  6748  0047' 0D84'              	rlf	??___fpclassifyf,f
  6749  0048' 0D85'              	rlf	??___fpclassifyf+1,f
  6750  0049' 0D86'              	rlf	??___fpclassifyf+2,f
  6751  004A' 0D87'              	rlf	??___fpclassifyf+3,f
  6752  004B'                    u456_20:
  6753  004B' 3EFF               	addlw	-1
  6754  004C' 1D03               	skipz
  6755  004D' 2800'              	goto	u456_25
  6756  004E' 0807'              	movf	??___fpclassifyf+3,w
  6757  004F' 0406'              	iorwf	??___fpclassifyf+2,w
  6758  0050' 0405'              	iorwf	??___fpclassifyf+1,w
  6759  0051' 0404'              	iorwf	??___fpclassifyf,w
  6760  0052' 1D03               	skipz
  6761  0053' 2800'              	goto	u457_21
  6762  0054' 2800'              	goto	u457_20
  6763  0055'                    u457_21:
  6764  0055' 2800'              	goto	i1l3452
  6765  0056'                    u457_20:
  6766  0056'                    i1l3450:
  6767  0056' 3002               	movlw	2
  6768  0057' 0080'              	movwf	?___fpclassifyf
  6769  0058' 3000               	movlw	0
  6770  0059' 0081'              	movwf	?___fpclassifyf+1
  6771  005A' 2800'              	goto	i1l1006
  6772  005B'                    i1l3452:
  6773  005B' 3003               	movlw	3
  6774  005C' 0080'              	movwf	?___fpclassifyf
  6775  005D' 3000               	movlw	0
  6776  005E' 0081'              	movwf	?___fpclassifyf+1
  6777  005F' 2800'              	goto	i1l1006
  6778  0060'                    i1l3456:
  6779  0060' 0A00'              	incf	___fpclassifyf@e,w
  6780  0061' 0401'              	iorwf	___fpclassifyf@e+1,w
  6781  0062' 1D03               	btfss	3,2
  6782  0063' 2800'              	goto	u458_21
  6783  0064' 2800'              	goto	u458_20
  6784  0065'                    u458_21:
  6785  0065' 2800'              	goto	i1l3462
  6786  0066'                    u458_20:
  6787  0066'                    i1l3458:
  6788  0066' 0802'              	movf	___fpclassifyf@u,w
  6789  0067' 0084'              	movwf	??___fpclassifyf
  6790  0068' 0803'              	movf	___fpclassifyf@u+1,w
  6791  0069' 0085'              	movwf	??___fpclassifyf+1
  6792  006A' 0804'              	movf	___fpclassifyf@u+2,w
  6793  006B' 0086'              	movwf	??___fpclassifyf+2
  6794  006C' 0805'              	movf	___fpclassifyf@u+3,w
  6795  006D' 0087'              	movwf	??___fpclassifyf+3
  6796  006E' 3009               	movlw	9
  6797  006F'                    u459_25:
  6798  006F' 1003               	clrc
  6799  0070' 0D84'              	rlf	??___fpclassifyf,f
  6800  0071' 0D85'              	rlf	??___fpclassifyf+1,f
  6801  0072' 0D86'              	rlf	??___fpclassifyf+2,f
  6802  0073' 0D87'              	rlf	??___fpclassifyf+3,f
  6803  0074'                    u459_20:
  6804  0074' 3EFF               	addlw	-1
  6805  0075' 1D03               	skipz
  6806  0076' 2800'              	goto	u459_25
  6807  0077' 0807'              	movf	??___fpclassifyf+3,w
  6808  0078' 0406'              	iorwf	??___fpclassifyf+2,w
  6809  0079' 0405'              	iorwf	??___fpclassifyf+1,w
  6810  007A' 0404'              	iorwf	??___fpclassifyf,w
  6811  007B' 1903               	skipnz
  6812  007C' 2800'              	goto	u460_21
  6813  007D' 2800'              	goto	u460_20
  6814  007E'                    u460_21:
  6815  007E' 3001               	movlw	1
  6816  007F' 2800'              	goto	u461_20
  6817  0080'                    u460_20:
  6818  0080' 3000               	movlw	0
  6819  0081'                    u461_20:
  6820  0081' 0088'              	movwf	??___fpclassifyf+4
  6821  0082' 0189'              	clrf	??___fpclassifyf+5
  6822  0083' 0808'              	movf	??___fpclassifyf+4,w
  6823  0084' 0080'              	movwf	?___fpclassifyf
  6824  0085' 0809'              	movf	??___fpclassifyf+5,w
  6825  0086' 0081'              	movwf	?___fpclassifyf+1
  6826  0087' 2800'              	goto	i1l1006
  6827  0088'                    i1l3462:
  6828  0088' 3004               	movlw	4
  6829  0089' 0080'              	movwf	?___fpclassifyf
  6830  008A' 3000               	movlw	0
  6831  008B' 0081'              	movwf	?___fpclassifyf+1
  6832  008C'                    i1l1006:
  6833  008C' 0008               	return
  6834  008D'                    __end_of___fpclassifyf:
  6835                           
  6836                           	psect	text30
  6837  0000'                    __ptext30:	
  6838 ;; *************** function ___flsub *****************
  6839 ;; Defined at:
  6840 ;;		line 242 in file "/opt/microchip/xc8/v2.45/pic/sources/c99/common/sprcadd.c"
  6841 ;; Parameters:    Size  Location     Type
  6842 ;;  a               4   26[BANK0 ] int 
  6843 ;;  b               4   30[BANK0 ] int 
  6844 ;; Auto vars:     Size  Location     Type
  6845 ;;		None
  6846 ;; Return value:  Size  Location     Type
  6847 ;;                  4   26[BANK0 ] int 
  6848 ;; Registers used:
  6849 ;;		wreg, status,2, status,0, btemp+1, pclath, cstack
  6850 ;; Tracked objects:
  6851 ;;		On entry : 0/0
  6852 ;;		On exit  : 0/0
  6853 ;;		Unchanged: 0/0
  6854 ;; Data sizes:     COMMON   BANK0   BANK1   BANK3   BANK2
  6855 ;;      Params:         0       8       0       0       0
  6856 ;;      Locals:         0       0       0       0       0
  6857 ;;      Temps:          0       0       0       0       0
  6858 ;;      Totals:         0       8       0       0       0
  6859 ;;Total ram usage:        8 bytes
  6860 ;; Hardware stack levels used: 1
  6861 ;; Hardware stack levels required when called: 1
  6862 ;; This function calls:
  6863 ;;		___fladd
  6864 ;; This function is called by:
  6865 ;;		_efgtoa
  6866 ;; This function uses a non-reentrant model
  6867 ;;
  6868                           
  6869  0000'                    ___flsub:	
  6870                           ;psect for function ___flsub
  6871                           
  6872  0000'                    i1l3134:	
  6873                           ;incstack = 0
  6874 ;; hardware stack exceeded
  6875                           ; Regs used in ___flsub: [wreg+status,2+status,0+btemp+1+pclath+cstack]
  6876                           
  6877  0000' 3080               	movlw	128
  6878  0001' 1283               	bcf	3,5	;RP0=0, select bank0
  6879  0002' 1303               	bcf	3,6	;RP1=0, select bank0
  6880  0003' 069D'              	xorwf	___flsub@a+3,f
  6881  0004'                    i1l3136:
  6882  0004' 0821'              	movf	___flsub@b+3,w
  6883  0005' 0083'              	movwf	___fladd@b+3
  6884  0006' 0820'              	movf	___flsub@b+2,w
  6885  0007' 0082'              	movwf	___fladd@b+2
  6886  0008' 081F'              	movf	___flsub@b+1,w
  6887  0009' 0081'              	movwf	___fladd@b+1
  6888  000A' 081E'              	movf	___flsub@b,w
  6889  000B' 0080'              	movwf	___fladd@b
  6890  000C' 081D'              	movf	___flsub@a+3,w
  6891  000D' 0087'              	movwf	___fladd@a+3
  6892  000E' 081C'              	movf	___flsub@a+2,w
  6893  000F' 0086'              	movwf	___fladd@a+2
  6894  0010' 081B'              	movf	___flsub@a+1,w
  6895  0011' 0085'              	movwf	___fladd@a+1
  6896  0012' 081A'              	movf	___flsub@a,w
  6897  0013' 0084'              	movwf	___fladd@a
  6898  0014' 120A' 118A' 2000' 120A' 118A' 	fcall	___fladd
  6899  0019' 1283               	bcf	3,5	;RP0=0, select bank0
  6900  001A' 1303               	bcf	3,6	;RP1=0, select bank0
  6901  001B' 0803'              	movf	?___fladd+3,w
  6902  001C' 009D'              	movwf	?___flsub+3
  6903  001D' 0802'              	movf	?___fladd+2,w
  6904  001E' 009C'              	movwf	?___flsub+2
  6905  001F' 0801'              	movf	?___fladd+1,w
  6906  0020' 009B'              	movwf	?___flsub+1
  6907  0021' 0800'              	movf	?___fladd,w
  6908  0022' 009A'              	movwf	?___flsub
  6909  0023'                    i1l723:
  6910  0023' 0008               	return
  6911  0024'                    __end_of___flsub:
  6912                           
  6913                           	psect	text31
  6914  0000'                    __ptext31:	
  6915 ;; *************** function ___flneg *****************
  6916 ;; Defined at:
  6917 ;;		line 15 in file "/opt/microchip/xc8/v2.45/pic/sources/c99/common/flneg.c"
  6918 ;; Parameters:    Size  Location     Type
  6919 ;;  f1              4    0[COMMON] int 
  6920 ;; Auto vars:     Size  Location     Type
  6921 ;;		None
  6922 ;; Return value:  Size  Location     Type
  6923 ;;                  4    0[COMMON] int 
  6924 ;; Registers used:
  6925 ;;		wreg
  6926 ;; Tracked objects:
  6927 ;;		On entry : 0/0
  6928 ;;		On exit  : 0/0
  6929 ;;		Unchanged: 0/0
  6930 ;; Data sizes:     COMMON   BANK0   BANK1   BANK3   BANK2
  6931 ;;      Params:         4       0       0       0       0
  6932 ;;      Locals:         0       0       0       0       0
  6933 ;;      Temps:          0       0       0       0       0
  6934 ;;      Totals:         4       0       0       0       0
  6935 ;;Total ram usage:        4 bytes
  6936 ;; Hardware stack levels used: 1
  6937 ;; This function calls:
  6938 ;;		Nothing
  6939 ;; This function is called by:
  6940 ;;		_efgtoa
  6941 ;; This function uses a non-reentrant model
  6942 ;;
  6943                           
  6944  0000'                    ___flneg:	
  6945                           ;psect for function ___flneg
  6946                           
  6947  0000'                    i1l3090:	
  6948                           ;incstack = 0
  6949 ;; hardware stack exceeded
  6950                           ; Regs used in ___flneg: [wreg]
  6951                           
  6952  0000' 0803'              	movf	___flneg@f1+3,w
  6953  0001' 0402'              	iorwf	___flneg@f1+2,w
  6954  0002' 0401'              	iorwf	___flneg@f1+1,w
  6955  0003' 0400'              	iorwf	___flneg@f1,w
  6956  0004' 1903               	skipnz
  6957  0005' 2800'              	goto	u374_21
  6958  0006' 2800'              	goto	u374_20
  6959  0007'                    u374_21:
  6960  0007' 2800'              	goto	i1l3094
  6961  0008'                    u374_20:
  6962  0008'                    i1l3092:
  6963  0008' 3080               	movlw	128
  6964  0009' 0683'              	xorwf	___flneg@f1+3,f
  6965  000A'                    i1l3094:
  6966  000A'                    i1l566:
  6967  000A' 0008               	return
  6968  000B'                    __end_of___flneg:
  6969                           
  6970                           	psect	text32
  6971  0000'                    __ptext32:	
  6972 ;; *************** function ___flge *****************
  6973 ;; Defined at:
  6974 ;;		line 4 in file "/opt/microchip/xc8/v2.45/pic/sources/c99/common/flge.c"
  6975 ;; Parameters:    Size  Location     Type
  6976 ;;  ff1             4   26[BANK0 ] int 
  6977 ;;  ff2             4   30[BANK0 ] int 
  6978 ;; Auto vars:     Size  Location     Type
  6979 ;;		None
  6980 ;; Return value:  Size  Location     Type
  6981 ;;		None               void
  6982 ;; Registers used:
  6983 ;;		wreg, status,2, status,0
  6984 ;; Tracked objects:
  6985 ;;		On entry : 0/0
  6986 ;;		On exit  : 0/0
  6987 ;;		Unchanged: 0/0
  6988 ;; Data sizes:     COMMON   BANK0   BANK1   BANK3   BANK2
  6989 ;;      Params:         0       8       0       0       0
  6990 ;;      Locals:         0       0       0       0       0
  6991 ;;      Temps:          0       4       0       0       0
  6992 ;;      Totals:         0      12       0       0       0
  6993 ;;Total ram usage:       12 bytes
  6994 ;; Hardware stack levels used: 1
  6995 ;; This function calls:
  6996 ;;		Nothing
  6997 ;; This function is called by:
  6998 ;;		_efgtoa
  6999 ;; This function uses a non-reentrant model
  7000 ;;
  7001                           
  7002  0000'                    ___flge:	
  7003                           ;psect for function ___flge
  7004                           
  7005  0000'                    i1l3070:	
  7006                           ;incstack = 0
  7007 ;; hardware stack exceeded
  7008                           ; Regs used in ___flge: [wreg+status,2+status,0]
  7009                           
  7010  0000' 3000               	movlw	0
  7011  0001' 1283               	bcf	3,5	;RP0=0, select bank0
  7012  0002' 1303               	bcf	3,6	;RP1=0, select bank0
  7013  0003' 051A'              	andwf	___flge@ff1,w
  7014  0004' 00A2'              	movwf	??___flge
  7015  0005' 3000               	movlw	0
  7016  0006' 051B'              	andwf	___flge@ff1+1,w
  7017  0007' 00A3'              	movwf	??___flge+1
  7018  0008' 3080               	movlw	128
  7019  0009' 051C'              	andwf	___flge@ff1+2,w
  7020  000A' 00A4'              	movwf	??___flge+2
  7021  000B' 307F               	movlw	127
  7022  000C' 051D'              	andwf	___flge@ff1+3,w
  7023  000D' 00A5'              	movwf	??___flge+3
  7024  000E' 0825'              	movf	??___flge+3,w
  7025  000F' 0424'              	iorwf	??___flge+2,w
  7026  0010' 0423'              	iorwf	??___flge+1,w
  7027  0011' 0422'              	iorwf	??___flge,w
  7028  0012' 1D03               	skipz
  7029  0013' 2800'              	goto	u367_21
  7030  0014' 2800'              	goto	u367_20
  7031  0015'                    u367_21:
  7032  0015' 2800'              	goto	i1l554
  7033  0016'                    u367_20:
  7034  0016'                    i1l3072:
  7035  0016' 3000               	movlw	0
  7036  0017' 009D'              	movwf	___flge@ff1+3
  7037  0018' 3000               	movlw	0
  7038  0019' 009C'              	movwf	___flge@ff1+2
  7039  001A' 3000               	movlw	0
  7040  001B' 009B'              	movwf	___flge@ff1+1
  7041  001C' 3000               	movlw	0
  7042  001D' 009A'              	movwf	___flge@ff1
  7043  001E'                    i1l554:
  7044  001E' 3000               	movlw	0
  7045  001F' 051E'              	andwf	___flge@ff2,w
  7046  0020' 00A2'              	movwf	??___flge
  7047  0021' 3000               	movlw	0
  7048  0022' 051F'              	andwf	___flge@ff2+1,w
  7049  0023' 00A3'              	movwf	??___flge+1
  7050  0024' 3080               	movlw	128
  7051  0025' 0520'              	andwf	___flge@ff2+2,w
  7052  0026' 00A4'              	movwf	??___flge+2
  7053  0027' 307F               	movlw	127
  7054  0028' 0521'              	andwf	___flge@ff2+3,w
  7055  0029' 00A5'              	movwf	??___flge+3
  7056  002A' 0825'              	movf	??___flge+3,w
  7057  002B' 0424'              	iorwf	??___flge+2,w
  7058  002C' 0423'              	iorwf	??___flge+1,w
  7059  002D' 0422'              	iorwf	??___flge,w
  7060  002E' 1D03               	skipz
  7061  002F' 2800'              	goto	u368_21
  7062  0030' 2800'              	goto	u368_20
  7063  0031'                    u368_21:
  7064  0031' 2800'              	goto	i1l3076
  7065  0032'                    u368_20:
  7066  0032'                    i1l3074:
  7067  0032' 3000               	movlw	0
  7068  0033' 00A1'              	movwf	___flge@ff2+3
  7069  0034' 3000               	movlw	0
  7070  0035' 00A0'              	movwf	___flge@ff2+2
  7071  0036' 3000               	movlw	0
  7072  0037' 009F'              	movwf	___flge@ff2+1
  7073  0038' 3000               	movlw	0
  7074  0039' 009E'              	movwf	___flge@ff2
  7075  003A'                    i1l3076:
  7076  003A' 1F9D'              	btfss	___flge@ff1+3,7
  7077  003B' 2800'              	goto	u369_21
  7078  003C' 2800'              	goto	u369_20
  7079  003D'                    u369_21:
  7080  003D' 2800'              	goto	i1l3080
  7081  003E'                    u369_20:
  7082  003E'                    i1l3078:
  7083  003E' 3000               	movlw	0
  7084  003F' 00A2'              	movwf	??___flge
  7085  0040' 3000               	movlw	0
  7086  0041' 00A3'              	movwf	??___flge+1
  7087  0042' 3000               	movlw	0
  7088  0043' 00A4'              	movwf	??___flge+2
  7089  0044' 3080               	movlw	128
  7090  0045' 00A5'              	movwf	??___flge+3
  7091  0046' 081A'              	movf	___flge@ff1,w
  7092  0047' 02A2'              	subwf	??___flge,f
  7093  0048' 081B'              	movf	___flge@ff1+1,w
  7094  0049' 1C03               	skipc
  7095  004A' 0F1B'              	incfsz	___flge@ff1+1,w
  7096  004B' 2800'              	goto	u370_21
  7097  004C' 2800'              	goto	u370_22
  7098  004D'                    u370_21:
  7099  004D' 02A3'              	subwf	??___flge+1,f
  7100  004E'                    u370_22:
  7101  004E' 081C'              	movf	___flge@ff1+2,w
  7102  004F' 1C03               	skipc
  7103  0050' 0F1C'              	incfsz	___flge@ff1+2,w
  7104  0051' 2800'              	goto	u370_23
  7105  0052' 2800'              	goto	u370_24
  7106  0053'                    u370_23:
  7107  0053' 02A4'              	subwf	??___flge+2,f
  7108  0054'                    u370_24:
  7109  0054' 081D'              	movf	___flge@ff1+3,w
  7110  0055' 1C03               	skipc
  7111  0056' 0F1D'              	incfsz	___flge@ff1+3,w
  7112  0057' 2800'              	goto	u370_25
  7113  0058' 2800'              	goto	u370_26
  7114  0059'                    u370_25:
  7115  0059' 02A5'              	subwf	??___flge+3,f
  7116  005A'                    u370_26:
  7117  005A' 0825'              	movf	??___flge+3,w
  7118  005B' 009D'              	movwf	___flge@ff1+3
  7119  005C' 0824'              	movf	??___flge+2,w
  7120  005D' 009C'              	movwf	___flge@ff1+2
  7121  005E' 0823'              	movf	??___flge+1,w
  7122  005F' 009B'              	movwf	___flge@ff1+1
  7123  0060' 0822'              	movf	??___flge,w
  7124  0061' 009A'              	movwf	___flge@ff1
  7125  0062'                    i1l3080:
  7126  0062' 1FA1'              	btfss	___flge@ff2+3,7
  7127  0063' 2800'              	goto	u371_21
  7128  0064' 2800'              	goto	u371_20
  7129  0065'                    u371_21:
  7130  0065' 2800'              	goto	i1l557
  7131  0066'                    u371_20:
  7132  0066'                    i1l3082:
  7133  0066' 3000               	movlw	0
  7134  0067' 00A2'              	movwf	??___flge
  7135  0068' 3000               	movlw	0
  7136  0069' 00A3'              	movwf	??___flge+1
  7137  006A' 3000               	movlw	0
  7138  006B' 00A4'              	movwf	??___flge+2
  7139  006C' 3080               	movlw	128
  7140  006D' 00A5'              	movwf	??___flge+3
  7141  006E' 081E'              	movf	___flge@ff2,w
  7142  006F' 02A2'              	subwf	??___flge,f
  7143  0070' 081F'              	movf	___flge@ff2+1,w
  7144  0071' 1C03               	skipc
  7145  0072' 0F1F'              	incfsz	___flge@ff2+1,w
  7146  0073' 2800'              	goto	u372_21
  7147  0074' 2800'              	goto	u372_22
  7148  0075'                    u372_21:
  7149  0075' 02A3'              	subwf	??___flge+1,f
  7150  0076'                    u372_22:
  7151  0076' 0820'              	movf	___flge@ff2+2,w
  7152  0077' 1C03               	skipc
  7153  0078' 0F20'              	incfsz	___flge@ff2+2,w
  7154  0079' 2800'              	goto	u372_23
  7155  007A' 2800'              	goto	u372_24
  7156  007B'                    u372_23:
  7157  007B' 02A4'              	subwf	??___flge+2,f
  7158  007C'                    u372_24:
  7159  007C' 0821'              	movf	___flge@ff2+3,w
  7160  007D' 1C03               	skipc
  7161  007E' 0F21'              	incfsz	___flge@ff2+3,w
  7162  007F' 2800'              	goto	u372_25
  7163  0080' 2800'              	goto	u372_26
  7164  0081'                    u372_25:
  7165  0081' 02A5'              	subwf	??___flge+3,f
  7166  0082'                    u372_26:
  7167  0082' 0825'              	movf	??___flge+3,w
  7168  0083' 00A1'              	movwf	___flge@ff2+3
  7169  0084' 0824'              	movf	??___flge+2,w
  7170  0085' 00A0'              	movwf	___flge@ff2+2
  7171  0086' 0823'              	movf	??___flge+1,w
  7172  0087' 009F'              	movwf	___flge@ff2+1
  7173  0088' 0822'              	movf	??___flge,w
  7174  0089' 009E'              	movwf	___flge@ff2
  7175  008A'                    i1l557:
  7176  008A' 3080               	movlw	128
  7177  008B' 069D'              	xorwf	___flge@ff1+3,f
  7178  008C' 3080               	movlw	128
  7179  008D' 06A1'              	xorwf	___flge@ff2+3,f
  7180  008E' 0821'              	movf	___flge@ff2+3,w
  7181  008F' 021D'              	subwf	___flge@ff1+3,w
  7182  0090' 1D03               	skipz
  7183  0091' 2800'              	goto	u373_25
  7184  0092' 0820'              	movf	___flge@ff2+2,w
  7185  0093' 021C'              	subwf	___flge@ff1+2,w
  7186  0094' 1D03               	skipz
  7187  0095' 2800'              	goto	u373_25
  7188  0096' 081F'              	movf	___flge@ff2+1,w
  7189  0097' 021B'              	subwf	___flge@ff1+1,w
  7190  0098' 1D03               	skipz
  7191  0099' 2800'              	goto	u373_25
  7192  009A' 081E'              	movf	___flge@ff2,w
  7193  009B' 021A'              	subwf	___flge@ff1,w
  7194  009C'                    u373_25:
  7195  009C' 1803               	skipnc
  7196  009D' 2800'              	goto	u373_21
  7197  009E' 2800'              	goto	u373_20
  7198  009F'                    u373_21:
  7199  009F' 2800'              	goto	i1l3086
  7200  00A0'                    u373_20:
  7201  00A0'                    i1l3084:
  7202  00A0' 1003               	clrc
  7203  00A1' 2800'              	goto	i1l562
  7204  00A2'                    i1l3086:
  7205  00A2' 1403               	setc
  7206  00A3'                    i1l562:
  7207  00A3' 0008               	return
  7208  00A4'                    __end_of___flge:
  7209                           
  7210                           	psect	text33
  7211  0000'                    __ptext33:	
  7212 ;; *************** function ___fleq *****************
  7213 ;; Defined at:
  7214 ;;		line 4 in file "/opt/microchip/xc8/v2.45/pic/sources/c99/common/fleq.c"
  7215 ;; Parameters:    Size  Location     Type
  7216 ;;  ff1             4    0[COMMON] int 
  7217 ;;  ff2             4    4[COMMON] int 
  7218 ;; Auto vars:     Size  Location     Type
  7219 ;;		None
  7220 ;; Return value:  Size  Location     Type
  7221 ;;		None               void
  7222 ;; Registers used:
  7223 ;;		wreg, status,2, status,0
  7224 ;; Tracked objects:
  7225 ;;		On entry : 0/0
  7226 ;;		On exit  : 0/0
  7227 ;;		Unchanged: 0/0
  7228 ;; Data sizes:     COMMON   BANK0   BANK1   BANK3   BANK2
  7229 ;;      Params:         8       0       0       0       0
  7230 ;;      Locals:         0       0       0       0       0
  7231 ;;      Temps:          4       0       0       0       0
  7232 ;;      Totals:        12       0       0       0       0
  7233 ;;Total ram usage:       12 bytes
  7234 ;; Hardware stack levels used: 1
  7235 ;; This function calls:
  7236 ;;		Nothing
  7237 ;; This function is called by:
  7238 ;;		_efgtoa
  7239 ;; This function uses a non-reentrant model
  7240 ;;
  7241                           
  7242  0000'                    ___fleq:	
  7243                           ;psect for function ___fleq
  7244                           
  7245  0000'                    i1l3058:	
  7246                           ;incstack = 0
  7247 ;; hardware stack exceeded
  7248                           ; Regs used in ___fleq: [wreg+status,2+status,0]
  7249                           
  7250  0000' 3000               	movlw	0
  7251  0001' 0500'              	andwf	___fleq@ff1,w
  7252  0002' 0088'              	movwf	??___fleq
  7253  0003' 3000               	movlw	0
  7254  0004' 0501'              	andwf	___fleq@ff1+1,w
  7255  0005' 0089'              	movwf	??___fleq+1
  7256  0006' 3080               	movlw	128
  7257  0007' 0502'              	andwf	___fleq@ff1+2,w
  7258  0008' 008A'              	movwf	??___fleq+2
  7259  0009' 307F               	movlw	127
  7260  000A' 0503'              	andwf	___fleq@ff1+3,w
  7261  000B' 008B'              	movwf	??___fleq+3
  7262  000C' 080B'              	movf	??___fleq+3,w
  7263  000D' 040A'              	iorwf	??___fleq+2,w
  7264  000E' 0409'              	iorwf	??___fleq+1,w
  7265  000F' 0408'              	iorwf	??___fleq,w
  7266  0010' 1D03               	skipz
  7267  0011' 2800'              	goto	u364_21
  7268  0012' 2800'              	goto	u364_20
  7269  0013'                    u364_21:
  7270  0013' 2800'              	goto	i1l545
  7271  0014'                    u364_20:
  7272  0014'                    i1l3060:
  7273  0014' 3000               	movlw	0
  7274  0015' 0083'              	movwf	___fleq@ff1+3
  7275  0016' 3000               	movlw	0
  7276  0017' 0082'              	movwf	___fleq@ff1+2
  7277  0018' 3000               	movlw	0
  7278  0019' 0081'              	movwf	___fleq@ff1+1
  7279  001A' 3000               	movlw	0
  7280  001B' 0080'              	movwf	___fleq@ff1
  7281  001C'                    i1l545:
  7282  001C' 3000               	movlw	0
  7283  001D' 0504'              	andwf	___fleq@ff2,w
  7284  001E' 0088'              	movwf	??___fleq
  7285  001F' 3000               	movlw	0
  7286  0020' 0505'              	andwf	___fleq@ff2+1,w
  7287  0021' 0089'              	movwf	??___fleq+1
  7288  0022' 3080               	movlw	128
  7289  0023' 0506'              	andwf	___fleq@ff2+2,w
  7290  0024' 008A'              	movwf	??___fleq+2
  7291  0025' 307F               	movlw	127
  7292  0026' 0507'              	andwf	___fleq@ff2+3,w
  7293  0027' 008B'              	movwf	??___fleq+3
  7294  0028' 080B'              	movf	??___fleq+3,w
  7295  0029' 040A'              	iorwf	??___fleq+2,w
  7296  002A' 0409'              	iorwf	??___fleq+1,w
  7297  002B' 0408'              	iorwf	??___fleq,w
  7298  002C' 1D03               	skipz
  7299  002D' 2800'              	goto	u365_21
  7300  002E' 2800'              	goto	u365_20
  7301  002F'                    u365_21:
  7302  002F' 2800'              	goto	i1l546
  7303  0030'                    u365_20:
  7304  0030'                    i1l3062:
  7305  0030' 3000               	movlw	0
  7306  0031' 0087'              	movwf	___fleq@ff2+3
  7307  0032' 3000               	movlw	0
  7308  0033' 0086'              	movwf	___fleq@ff2+2
  7309  0034' 3000               	movlw	0
  7310  0035' 0085'              	movwf	___fleq@ff2+1
  7311  0036' 3000               	movlw	0
  7312  0037' 0084'              	movwf	___fleq@ff2
  7313  0038'                    i1l546:
  7314  0038' 0807'              	movf	___fleq@ff2+3,w
  7315  0039' 0603'              	xorwf	___fleq@ff1+3,w
  7316  003A' 1D03               	skipz
  7317  003B' 2800'              	goto	u366_25
  7318  003C' 0806'              	movf	___fleq@ff2+2,w
  7319  003D' 0602'              	xorwf	___fleq@ff1+2,w
  7320  003E' 1D03               	skipz
  7321  003F' 2800'              	goto	u366_25
  7322  0040' 0805'              	movf	___fleq@ff2+1,w
  7323  0041' 0601'              	xorwf	___fleq@ff1+1,w
  7324  0042' 1D03               	skipz
  7325  0043' 2800'              	goto	u366_25
  7326  0044' 0804'              	movf	___fleq@ff2,w
  7327  0045' 0600'              	xorwf	___fleq@ff1,w
  7328  0046'                    u366_25:
  7329  0046' 1903               	skipnz
  7330  0047' 2800'              	goto	u366_21
  7331  0048' 2800'              	goto	u366_20
  7332  0049'                    u366_21:
  7333  0049' 2800'              	goto	i1l3066
  7334  004A'                    u366_20:
  7335  004A'                    i1l3064:
  7336  004A' 1003               	clrc
  7337  004B' 2800'              	goto	i1l551
  7338  004C'                    i1l3066:
  7339  004C' 1403               	setc
  7340  004D'                    i1l551:
  7341  004D' 0008               	return
  7342  004E'                    __end_of___fleq:
  7343                           
  7344                           	psect	text34
  7345  0000'                    __ptext34:	
  7346 ;; *************** function _dtoa *****************
  7347 ;; Defined at:
  7348 ;;		line 513 in file "/opt/microchip/xc8/v2.45/pic/sources/c99/common/doprnt.c"
  7349 ;; Parameters:    Size  Location     Type
  7350 ;;  fp              1    wreg     PTR struct _IO_FILE
  7351 ;;		 -> NULL(0), 
  7352 ;;  d               2   10[BANK0 ] int 
  7353 ;; Auto vars:     Size  Location     Type
  7354 ;;  fp              1   18[BANK0 ] PTR struct _IO_FILE
  7355 ;;		 -> NULL(0), 
  7356 ;;  i               2   20[BANK0 ] int 
  7357 ;;  p               2   16[BANK0 ] int 
  7358 ;;  w               2   14[BANK0 ] int 
  7359 ;;  s               1   19[BANK0 ] unsigned char 
  7360 ;; Return value:  Size  Location     Type
  7361 ;;                  1    wreg      void 
  7362 ;; Registers used:
  7363 ;;		wreg, fsr0l, fsr0h, status,2, status,0, btemp+1, pclath, cstack
  7364 ;; Tracked objects:
  7365 ;;		On entry : 0/0
  7366 ;;		On exit  : 0/0
  7367 ;;		Unchanged: 0/0
  7368 ;; Data sizes:     COMMON   BANK0   BANK1   BANK3   BANK2
  7369 ;;      Params:         0       2       0       0       0
  7370 ;;      Locals:         0      10       0       0       0
  7371 ;;      Temps:          0       0       0       0       0
  7372 ;;      Totals:         0      12       0       0       0
  7373 ;;Total ram usage:       12 bytes
  7374 ;; Hardware stack levels used: 1
  7375 ;; Hardware stack levels required when called: 4
  7376 ;; This function calls:
  7377 ;;		___awdiv
  7378 ;;		___awmod
  7379 ;;		_abs
  7380 ;;		_pad
  7381 ;; This function is called by:
  7382 ;;		_vfpfcnvrt
  7383 ;; This function uses a non-reentrant model
  7384 ;;
  7385                           
  7386  0000'                    _dtoa:	
  7387                           ;psect for function _dtoa
  7388                           
  7389                           
  7390                           ;incstack = 0
  7391 ;; hardware stack exceeded
  7392                           ; Regs used in _dtoa: [wreg-fsr0h+status,2+status,0+btemp+1+pclath+cstack]
  7393                           ;dtoa@fp stored from wreg
  7394  0000' 1283               	bcf	3,5	;RP0=0, select bank0
  7395  0001' 1303               	bcf	3,6	;RP1=0, select bank0
  7396  0002' 0092'              	movwf	dtoa@fp
  7397  0003'                    i1l3516:
  7398                           
  7399                           ;/opt/microchip/xc8/v2.45/pic/sources/c99/common/doprnt.c: 513: static void dtoa(FILE *f
      +                          p, vfpf_sint_t d);/opt/microchip/xc8/v2.45/pic/sources/c99/common/doprnt.c: 514: {;/opt/
      +                          microchip/xc8/v2.45/pic/sources/c99/common/doprnt.c: 515:  char s;;/opt/microchip/xc8/v2
      +                          .45/pic/sources/c99/common/doprnt.c: 516:     int i, w;;/opt/microchip/xc8/v2.45/pic/sou
      +                          rces/c99/common/doprnt.c: 518:  int p;;/opt/microchip/xc8/v2.45/pic/sources/c99/common/d
      +                          oprnt.c: 524:     s = d < 0 ? 1 : 0;
  7400  0003' 1B8B'              	btfsc	dtoa@d+1,7
  7401  0004' 2800'              	goto	u477_21
  7402  0005' 2800'              	goto	u477_20
  7403  0006'                    u477_21:
  7404  0006' 3001               	movlw	1
  7405  0007' 2800'              	goto	u478_20
  7406  0008'                    u477_20:
  7407  0008' 3000               	movlw	0
  7408  0009'                    u478_20:
  7409  0009' 0093'              	movwf	dtoa@s
  7410  000A'                    i1l3518:
  7411                           
  7412                           ;/opt/microchip/xc8/v2.45/pic/sources/c99/common/doprnt.c: 533:     p = (0 <= prec) ? pr
      +                          ec : 1;
  7413  000A' 1683               	bsf	3,5	;RP0=1, select bank1
  7414  000B' 1303               	bcf	3,6	;RP1=0, select bank1
  7415  000C' 1F80'              	btfss	(_prec+1)^(0+128),7
  7416  000D' 2800'              	goto	u479_21
  7417  000E' 2800'              	goto	u479_20
  7418  000F'                    u479_21:
  7419  000F' 2800'              	goto	i1l3522
  7420  0010'                    u479_20:
  7421  0010'                    i1l3520:
  7422  0010' 3001               	movlw	1
  7423  0011' 1283               	bcf	3,5	;RP0=0, select bank0
  7424  0012' 1303               	bcf	3,6	;RP1=0, select bank0
  7425  0013' 0090'              	movwf	dtoa@p
  7426  0014' 3000               	movlw	0
  7427  0015' 0091'              	movwf	dtoa@p+1
  7428  0016' 2800'              	goto	i1l878
  7429  0017'                    i1l3522:
  7430  0017' 0800'              	movf	(_prec+1)^(0+128),w
  7431  0018' 1283               	bcf	3,5	;RP0=0, select bank0
  7432  0019' 1303               	bcf	3,6	;RP1=0, select bank0
  7433  001A' 0091'              	movwf	dtoa@p+1
  7434  001B' 1683               	bsf	3,5	;RP0=1, select bank1
  7435  001C' 1303               	bcf	3,6	;RP1=0, select bank1
  7436  001D' 0800'              	movf	_prec^(0+128),w
  7437  001E' 1283               	bcf	3,5	;RP0=0, select bank0
  7438  001F' 1303               	bcf	3,6	;RP1=0, select bank0
  7439  0020' 0090'              	movwf	dtoa@p
  7440  0021'                    i1l878:
  7441                           
  7442                           ;/opt/microchip/xc8/v2.45/pic/sources/c99/common/doprnt.c: 535:     w = width;
  7443  0021' 1683               	bsf	3,5	;RP0=1, select bank3
  7444  0022' 1703               	bsf	3,6	;RP1=1, select bank3
  7445  0023' 0800'              	movf	(_width+1)^(0+384),w
  7446  0024' 1283               	bcf	3,5	;RP0=0, select bank0
  7447  0025' 1303               	bcf	3,6	;RP1=0, select bank0
  7448  0026' 008F'              	movwf	dtoa@w+1
  7449  0027' 1683               	bsf	3,5	;RP0=1, select bank3
  7450  0028' 1703               	bsf	3,6	;RP1=1, select bank3
  7451  0029' 0800'              	movf	_width^(0+384),w
  7452  002A' 1283               	bcf	3,5	;RP0=0, select bank0
  7453  002B' 1303               	bcf	3,6	;RP1=0, select bank0
  7454  002C' 008E'              	movwf	dtoa@w
  7455  002D'                    i1l3524:
  7456                           
  7457                           ;/opt/microchip/xc8/v2.45/pic/sources/c99/common/doprnt.c: 536:     if (s
  7458  002D' 0813'              	movf	dtoa@s,w
  7459  002E' 1903               	btfsc	3,2
  7460  002F' 2800'              	goto	u480_21
  7461  0030' 2800'              	goto	u480_20
  7462  0031'                    u480_21:
  7463  0031' 2800'              	goto	i1l879
  7464  0032'                    u480_20:
  7465  0032'                    i1l3526:
  7466                           
  7467                           ;/opt/microchip/xc8/v2.45/pic/sources/c99/common/doprnt.c: 540:     ) {;/opt/microchip/x
      +                          c8/v2.45/pic/sources/c99/common/doprnt.c: 541:         --w;
  7468  0032' 30FF               	movlw	255
  7469  0033' 078E'              	addwf	dtoa@w,f
  7470  0034' 1803               	skipnc
  7471  0035' 0A8F'              	incf	dtoa@w+1,f
  7472  0036' 30FF               	movlw	255
  7473  0037' 078F'              	addwf	dtoa@w+1,f
  7474  0038'                    i1l3528:
  7475                           
  7476                           ;/opt/microchip/xc8/v2.45/pic/sources/c99/common/doprnt.c: 542:   s = s ? '-' : '+';
  7477  0038' 0813'              	movf	dtoa@s,w
  7478  0039' 1D03               	btfss	3,2
  7479  003A' 2800'              	goto	u481_21
  7480  003B' 2800'              	goto	u481_20
  7481  003C'                    u481_21:
  7482  003C' 2800'              	goto	i1l3532
  7483  003D'                    u481_20:
  7484  003D'                    i1l3530:
  7485  003D' 302B               	movlw	43
  7486  003E' 008C'              	movwf	_dtoa$1389
  7487  003F' 3000               	movlw	0
  7488  0040' 008D'              	movwf	_dtoa$1389+1
  7489  0041' 2800'              	goto	i1l883
  7490  0042'                    i1l3532:
  7491  0042' 302D               	movlw	45
  7492  0043' 008C'              	movwf	_dtoa$1389
  7493  0044' 3000               	movlw	0
  7494  0045' 008D'              	movwf	_dtoa$1389+1
  7495  0046'                    i1l883:
  7496  0046' 080C'              	movf	_dtoa$1389,w
  7497  0047' 0093'              	movwf	dtoa@s
  7498  0048'                    i1l879:	
  7499                           ;/opt/microchip/xc8/v2.45/pic/sources/c99/common/doprnt.c: 543:     }
  7500                           
  7501                           
  7502                           ;/opt/microchip/xc8/v2.45/pic/sources/c99/common/doprnt.c: 552:     i = sizeof(dbuf) - 1
      +                          ;
  7503  0048' 304F               	movlw	79
  7504  0049' 0094'              	movwf	dtoa@i
  7505  004A' 3000               	movlw	0
  7506  004B' 0095'              	movwf	dtoa@i+1
  7507  004C'                    i1l3534:
  7508                           
  7509                           ;/opt/microchip/xc8/v2.45/pic/sources/c99/common/doprnt.c: 553:     dbuf[i] = '\0';
  7510  004C' 1283               	bcf	3,5	;RP0=0, select bank2
  7511  004D' 1703               	bsf	3,6	;RP1=1, select bank2
  7512  004E' 01CF'              	clrf	(_dbuf^(0+256)+79)
  7513                           
  7514                           ;/opt/microchip/xc8/v2.45/pic/sources/c99/common/doprnt.c: 554:     while (!(i < 1) && (
      +                          d != 0
  7515  004F' 2800'              	goto	i1l3546
  7516  0050'                    i1l3536:
  7517                           
  7518                           ;/opt/microchip/xc8/v2.45/pic/sources/c99/common/doprnt.c: 563:     )) {;/opt/microchip/
      +                          xc8/v2.45/pic/sources/c99/common/doprnt.c: 564:         --i;
  7519  0050' 30FF               	movlw	255
  7520  0051' 1283               	bcf	3,5	;RP0=0, select bank0
  7521  0052' 1303               	bcf	3,6	;RP1=0, select bank0
  7522  0053' 0794'              	addwf	dtoa@i,f
  7523  0054' 1803               	skipnc
  7524  0055' 0A95'              	incf	dtoa@i+1,f
  7525  0056' 30FF               	movlw	255
  7526  0057' 0795'              	addwf	dtoa@i+1,f
  7527  0058'                    i1l3538:
  7528                           
  7529                           ;/opt/microchip/xc8/v2.45/pic/sources/c99/common/doprnt.c: 565:         dbuf[i] = (char)
      +                          ((int)'0' + abs(d % 10));
  7530  0058' 0814'              	movf	dtoa@i,w
  7531  0059' 3E00'              	addlw	(low (_dbuf| (0+256)))& (0+255)
  7532  005A' 0084               	movwf	4
  7533  005B' 300A               	movlw	10
  7534  005C' 0080'              	movwf	___awmod@divisor
  7535  005D' 3000               	movlw	0
  7536  005E' 0081'              	movwf	___awmod@divisor+1
  7537  005F' 080B'              	movf	dtoa@d+1,w
  7538  0060' 0083'              	movwf	___awmod@dividend+1
  7539  0061' 080A'              	movf	dtoa@d,w
  7540  0062' 0082'              	movwf	___awmod@dividend
  7541  0063' 120A' 118A' 2000' 120A' 118A' 	fcall	___awmod
  7542  0068' 0801'              	movf	?___awmod+1,w
  7543  0069' 0088'              	movwf	abs@a+1
  7544  006A' 0800'              	movf	?___awmod,w
  7545  006B' 0087'              	movwf	abs@a
  7546  006C' 120A' 118A' 2000' 120A' 118A' 	fcall	_abs
  7547  0071' 0807'              	movf	?_abs,w
  7548  0072' 3E30               	addlw	48
  7549  0073' 1783               	bsf	3,7	;select IRP bank2
  7550  0074' 0080               	movwf	0
  7551  0075'                    i1l3540:
  7552                           
  7553                           ;/opt/microchip/xc8/v2.45/pic/sources/c99/common/doprnt.c: 567:         --p;
  7554  0075' 30FF               	movlw	255
  7555  0076' 1283               	bcf	3,5	;RP0=0, select bank0
  7556  0077' 1303               	bcf	3,6	;RP1=0, select bank0
  7557  0078' 0790'              	addwf	dtoa@p,f
  7558  0079' 1803               	skipnc
  7559  007A' 0A91'              	incf	dtoa@p+1,f
  7560  007B' 30FF               	movlw	255
  7561  007C' 0791'              	addwf	dtoa@p+1,f
  7562  007D'                    i1l3542:
  7563                           
  7564                           ;/opt/microchip/xc8/v2.45/pic/sources/c99/common/doprnt.c: 571:         --w;
  7565  007D' 30FF               	movlw	255
  7566  007E' 078E'              	addwf	dtoa@w,f
  7567  007F' 1803               	skipnc
  7568  0080' 0A8F'              	incf	dtoa@w+1,f
  7569  0081' 30FF               	movlw	255
  7570  0082' 078F'              	addwf	dtoa@w+1,f
  7571  0083'                    i1l3544:
  7572                           
  7573                           ;/opt/microchip/xc8/v2.45/pic/sources/c99/common/doprnt.c: 572:         d = d / 10;
  7574  0083' 300A               	movlw	10
  7575  0084' 0080'              	movwf	___awdiv@divisor
  7576  0085' 3000               	movlw	0
  7577  0086' 0081'              	movwf	___awdiv@divisor+1
  7578  0087' 080B'              	movf	dtoa@d+1,w
  7579  0088' 0083'              	movwf	___awdiv@dividend+1
  7580  0089' 080A'              	movf	dtoa@d,w
  7581  008A' 0082'              	movwf	___awdiv@dividend
  7582  008B' 120A' 118A' 2000' 120A' 118A' 	fcall	___awdiv
  7583  0090' 0801'              	movf	?___awdiv+1,w
  7584  0091' 1283               	bcf	3,5	;RP0=0, select bank0
  7585  0092' 1303               	bcf	3,6	;RP1=0, select bank0
  7586  0093' 008B'              	movwf	dtoa@d+1
  7587  0094' 0800'              	movf	?___awdiv,w
  7588  0095' 008A'              	movwf	dtoa@d
  7589  0096'                    i1l3546:
  7590                           
  7591                           ;/opt/microchip/xc8/v2.45/pic/sources/c99/common/doprnt.c: 554:     while (!(i < 1) && (
      +                          d != 0
  7592  0096' 1303               	bcf	3,6	;RP1=0, select bank0
  7593  0097' 0815'              	movf	dtoa@i+1,w
  7594  0098' 3A80               	xorlw	128
  7595  0099' 00FF               	movwf	btemp+1
  7596  009A' 3080               	movlw	128
  7597  009B' 027F               	subwf	btemp+1,w
  7598  009C' 1D03               	skipz
  7599  009D' 2800'              	goto	u482_25
  7600  009E' 3001               	movlw	1
  7601  009F' 0214'              	subwf	dtoa@i,w
  7602  00A0'                    u482_25:
  7603  00A0' 1C03               	skipc
  7604  00A1' 2800'              	goto	u482_21
  7605  00A2' 2800'              	goto	u482_20
  7606  00A3'                    u482_21:
  7607  00A3' 2800'              	goto	i1l3552
  7608  00A4'                    u482_20:
  7609  00A4'                    i1l3548:
  7610  00A4' 1283               	bcf	3,5	;RP0=0, select bank0
  7611  00A5' 1303               	bcf	3,6	;RP1=0, select bank0
  7612  00A6' 080A'              	movf	dtoa@d,w
  7613  00A7' 040B'              	iorwf	dtoa@d+1,w
  7614  00A8' 1D03               	btfss	3,2
  7615  00A9' 2800'              	goto	u483_21
  7616  00AA' 2800'              	goto	u483_20
  7617  00AB'                    u483_21:
  7618  00AB' 2800'              	goto	i1l3536
  7619  00AC'                    u483_20:
  7620  00AC'                    i1l3550:
  7621  00AC' 0811'              	movf	dtoa@p+1,w
  7622  00AD' 3A80               	xorlw	128
  7623  00AE' 00FF               	movwf	btemp+1
  7624  00AF' 3080               	movlw	128
  7625  00B0' 027F               	subwf	btemp+1,w
  7626  00B1' 1D03               	skipz
  7627  00B2' 2800'              	goto	u484_25
  7628  00B3' 3001               	movlw	1
  7629  00B4' 0210'              	subwf	dtoa@p,w
  7630  00B5'                    u484_25:
  7631  00B5' 1803               	skipnc
  7632  00B6' 2800'              	goto	u484_21
  7633  00B7' 2800'              	goto	u484_20
  7634  00B8'                    u484_21:
  7635  00B8' 2800'              	goto	i1l3536
  7636  00B9'                    u484_20:
  7637  00B9'                    i1l3552:
  7638                           
  7639                           ;/opt/microchip/xc8/v2.45/pic/sources/c99/common/doprnt.c: 576:     if (s != 0) {
  7640  00B9' 1283               	bcf	3,5	;RP0=0, select bank0
  7641  00BA' 1303               	bcf	3,6	;RP1=0, select bank0
  7642  00BB' 0813'              	movf	dtoa@s,w
  7643  00BC' 1903               	btfsc	3,2
  7644  00BD' 2800'              	goto	u485_21
  7645  00BE' 2800'              	goto	u485_20
  7646  00BF'                    u485_21:
  7647  00BF' 2800'              	goto	i1l3558
  7648  00C0'                    u485_20:
  7649  00C0'                    i1l3554:
  7650                           
  7651                           ;/opt/microchip/xc8/v2.45/pic/sources/c99/common/doprnt.c: 577:         --i;
  7652  00C0' 30FF               	movlw	255
  7653  00C1' 0794'              	addwf	dtoa@i,f
  7654  00C2' 1803               	skipnc
  7655  00C3' 0A95'              	incf	dtoa@i+1,f
  7656  00C4' 30FF               	movlw	255
  7657  00C5' 0795'              	addwf	dtoa@i+1,f
  7658  00C6'                    i1l3556:
  7659                           
  7660                           ;/opt/microchip/xc8/v2.45/pic/sources/c99/common/doprnt.c: 578:         dbuf[i] = s;
  7661  00C6' 0814'              	movf	dtoa@i,w
  7662  00C7' 3E00'              	addlw	(low (_dbuf| (0+256)))& (0+255)
  7663  00C8' 0084               	movwf	4
  7664  00C9' 0813'              	movf	dtoa@s,w
  7665  00CA' 1783               	bsf	3,7	;select IRP bank2
  7666  00CB' 0080               	movwf	0
  7667  00CC'                    i1l3558:
  7668                           
  7669                           ;/opt/microchip/xc8/v2.45/pic/sources/c99/common/doprnt.c: 582:     return (void) pad(fp
      +                          , &dbuf[i], w);
  7670  00CC' 0814'              	movf	dtoa@i,w
  7671  00CD' 3E00'              	addlw	(low (_dbuf| (0+256)))& (0+255)
  7672  00CE' 0084'              	movwf	pad@buf
  7673  00CF' 080F'              	movf	dtoa@w+1,w
  7674  00D0' 0086'              	movwf	pad@p+1
  7675  00D1' 080E'              	movf	dtoa@w,w
  7676  00D2' 0085'              	movwf	pad@p
  7677  00D3' 0812'              	movf	dtoa@fp,w
  7678  00D4' 120A' 118A' 2000' 120A' 118A' 	fcall	_pad
  7679  00D9'                    i1l890:
  7680  00D9' 0008               	return
  7681  00DA'                    __end_of_dtoa:
  7682                           
  7683                           	psect	text35
  7684  0000'                    __ptext35:	
  7685 ;; *************** function _pad *****************
  7686 ;; Defined at:
  7687 ;;		line 193 in file "/opt/microchip/xc8/v2.45/pic/sources/c99/common/doprnt.c"
  7688 ;; Parameters:    Size  Location     Type
  7689 ;;  fp              1    wreg     PTR struct _IO_FILE
  7690 ;;		 -> NULL(0), 
  7691 ;;  buf             1    4[BANK0 ] PTR unsigned char 
  7692 ;;		 -> dbuf(80), 
  7693 ;;  p               2    5[BANK0 ] int 
  7694 ;; Auto vars:     Size  Location     Type
  7695 ;;  fp              1    9[BANK0 ] PTR struct _IO_FILE
  7696 ;;		 -> NULL(0), 
  7697 ;;  i               2    7[BANK0 ] int 
  7698 ;; Return value:  Size  Location     Type
  7699 ;;                  1    wreg      void 
  7700 ;; Registers used:
  7701 ;;		wreg, fsr0l, fsr0h, status,2, status,0, pclath, cstack
  7702 ;; Tracked objects:
  7703 ;;		On entry : 0/0
  7704 ;;		On exit  : 0/0
  7705 ;;		Unchanged: 0/0
  7706 ;; Data sizes:     COMMON   BANK0   BANK1   BANK3   BANK2
  7707 ;;      Params:         0       3       0       0       0
  7708 ;;      Locals:         0       3       0       0       0
  7709 ;;      Temps:          1       0       0       0       0
  7710 ;;      Totals:         1       6       0       0       0
  7711 ;;Total ram usage:        7 bytes
  7712 ;; Hardware stack levels used: 1
  7713 ;; Hardware stack levels required when called: 3
  7714 ;; This function calls:
  7715 ;;		_fputc
  7716 ;;		_fputs
  7717 ;; This function is called by:
  7718 ;;		_dtoa
  7719 ;;		_efgtoa
  7720 ;; This function uses a non-reentrant model
  7721 ;;
  7722                           
  7723  0000'                    _pad:	
  7724                           ;psect for function _pad
  7725                           
  7726                           
  7727                           ;incstack = 0
  7728 ;; hardware stack exceeded
  7729                           ; Regs used in _pad: [wreg-fsr0h+status,2+status,0+pclath+cstack]
  7730                           ;pad@fp stored from wreg
  7731  0000' 1283               	bcf	3,5	;RP0=0, select bank0
  7732  0001' 1303               	bcf	3,6	;RP1=0, select bank0
  7733  0002' 0089'              	movwf	pad@fp
  7734  0003'                    i1l3422:
  7735                           
  7736                           ;/opt/microchip/xc8/v2.45/pic/sources/c99/common/doprnt.c: 193: static void pad(FILE *fp
      +                          , char *buf, int p);/opt/microchip/xc8/v2.45/pic/sources/c99/common/doprnt.c: 194: {;/op
      +                          t/microchip/xc8/v2.45/pic/sources/c99/common/doprnt.c: 195:     int i;;/opt/microchip/xc
      +                          8/v2.45/pic/sources/c99/common/doprnt.c: 205:  if (p < 0) {
  7737  0003' 1F86'              	btfss	pad@p+1,7
  7738  0004' 2800'              	goto	u451_21
  7739  0005' 2800'              	goto	u451_20
  7740  0006'                    u451_21:
  7741  0006' 2800'              	goto	i1l868
  7742  0007'                    u451_20:
  7743  0007'                    i1l3424:
  7744                           
  7745                           ;/opt/microchip/xc8/v2.45/pic/sources/c99/common/doprnt.c: 206:   p = 0;
  7746  0007' 0185'              	clrf	pad@p
  7747  0008' 0186'              	clrf	pad@p+1
  7748  0009'                    i1l868:	
  7749                           ;/opt/microchip/xc8/v2.45/pic/sources/c99/common/doprnt.c: 207:  }
  7750                           
  7751                           
  7752                           ;/opt/microchip/xc8/v2.45/pic/sources/c99/common/doprnt.c: 208:     i = 0;
  7753  0009' 0187'              	clrf	pad@i
  7754  000A' 0188'              	clrf	pad@i+1
  7755                           
  7756                           ;/opt/microchip/xc8/v2.45/pic/sources/c99/common/doprnt.c: 209:     while (i < p) {
  7757  000B' 2800'              	goto	i1l3430
  7758  000C'                    i1l3426:
  7759                           
  7760                           ;/opt/microchip/xc8/v2.45/pic/sources/c99/common/doprnt.c: 210:         fputc(' ', fp);
  7761  000C' 3020               	movlw	32
  7762  000D' 0081'              	movwf	fputc@c
  7763  000E' 3000               	movlw	0
  7764  000F' 0082'              	movwf	fputc@c+1
  7765  0010' 1283               	bcf	3,5	;RP0=0, select bank0
  7766  0011' 1303               	bcf	3,6	;RP1=0, select bank0
  7767  0012' 0809'              	movf	pad@fp,w
  7768  0013' 0083'              	movwf	fputc@fp
  7769  0014' 120A' 118A' 2000' 120A' 118A' 	fcall	_fputc
  7770  0019'                    i1l3428:
  7771                           
  7772                           ;/opt/microchip/xc8/v2.45/pic/sources/c99/common/doprnt.c: 211:         ++i;
  7773  0019' 3001               	movlw	1
  7774  001A' 1283               	bcf	3,5	;RP0=0, select bank0
  7775  001B' 1303               	bcf	3,6	;RP1=0, select bank0
  7776  001C' 0787'              	addwf	pad@i,f
  7777  001D' 1803               	skipnc
  7778  001E' 0A88'              	incf	pad@i+1,f
  7779  001F' 3000               	movlw	0
  7780  0020' 0788'              	addwf	pad@i+1,f
  7781  0021'                    i1l3430:
  7782                           
  7783                           ;/opt/microchip/xc8/v2.45/pic/sources/c99/common/doprnt.c: 209:     while (i < p) {
  7784  0021' 0808'              	movf	pad@i+1,w
  7785  0022' 3A80               	xorlw	128
  7786  0023' 008C'              	movwf	??_pad
  7787  0024' 0806'              	movf	pad@p+1,w
  7788  0025' 3A80               	xorlw	128
  7789  0026' 020C'              	subwf	??_pad,w
  7790  0027' 1D03               	skipz
  7791  0028' 2800'              	goto	u452_25
  7792  0029' 0805'              	movf	pad@p,w
  7793  002A' 0207'              	subwf	pad@i,w
  7794  002B'                    u452_25:
  7795  002B' 1C03               	skipc
  7796  002C' 2800'              	goto	u452_21
  7797  002D' 2800'              	goto	u452_20
  7798  002E'                    u452_21:
  7799  002E' 2800'              	goto	i1l3426
  7800  002F'                    u452_20:
  7801  002F'                    i1l3432:
  7802                           
  7803                           ;/opt/microchip/xc8/v2.45/pic/sources/c99/common/doprnt.c: 218:         fputs((const cha
      +                          r *)buf, fp);
  7804  002F' 1283               	bcf	3,5	;RP0=0, select bank0
  7805  0030' 1303               	bcf	3,6	;RP1=0, select bank0
  7806  0031' 0809'              	movf	pad@fp,w
  7807  0032' 0089'              	movwf	fputs@fp
  7808  0033' 0804'              	movf	pad@buf,w
  7809  0034' 120A' 118A' 2000' 120A' 118A' 	fcall	_fputs
  7810  0039'                    i1l872:
  7811  0039' 0008               	return
  7812  003A'                    __end_of_pad:
  7813                           
  7814                           	psect	text36
  7815  0000'                    __ptext36:	
  7816 ;; *************** function _fputs *****************
  7817 ;; Defined at:
  7818 ;;		line 8 in file "/opt/microchip/xc8/v2.45/pic/sources/c99/common/nf_fputs.c"
  7819 ;; Parameters:    Size  Location     Type
  7820 ;;  s               1    wreg     PTR const unsigned char 
  7821 ;;		 -> dbuf(80), 
  7822 ;;  fp              1    9[COMMON] PTR struct _IO_FILE
  7823 ;;		 -> NULL(0), 
  7824 ;; Auto vars:     Size  Location     Type
  7825 ;;  s               1    3[BANK0 ] PTR const unsigned char 
  7826 ;;		 -> dbuf(80), 
  7827 ;;  i               2    1[BANK0 ] int 
  7828 ;;  c               1    0[BANK0 ] unsigned char 
  7829 ;; Return value:  Size  Location     Type
  7830 ;;                  2    9[COMMON] int 
  7831 ;; Registers used:
  7832 ;;		wreg, fsr0l, fsr0h, status,2, status,0, pclath, cstack
  7833 ;; Tracked objects:
  7834 ;;		On entry : 0/0
  7835 ;;		On exit  : 0/0
  7836 ;;		Unchanged: 0/0
  7837 ;; Data sizes:     COMMON   BANK0   BANK1   BANK3   BANK2
  7838 ;;      Params:         1       0       0       0       0
  7839 ;;      Locals:         0       4       0       0       0
  7840 ;;      Temps:          2       0       0       0       0
  7841 ;;      Totals:         3       4       0       0       0
  7842 ;;Total ram usage:        7 bytes
  7843 ;; Hardware stack levels used: 1
  7844 ;; Hardware stack levels required when called: 2
  7845 ;; This function calls:
  7846 ;;		_fputc
  7847 ;; This function is called by:
  7848 ;;		_pad
  7849 ;; This function uses a non-reentrant model
  7850 ;;
  7851                           
  7852  0000'                    _fputs:	
  7853                           ;psect for function _fputs
  7854                           
  7855                           
  7856                           ;incstack = 0
  7857 ;; hardware stack exceeded
  7858                           ; Regs used in _fputs: [wreg-fsr0h+status,2+status,0+pclath+cstack]
  7859                           ;fputs@s stored from wreg
  7860  0000' 1283               	bcf	3,5	;RP0=0, select bank0
  7861  0001' 1303               	bcf	3,6	;RP1=0, select bank0
  7862  0002' 0083'              	movwf	fputs@s
  7863  0003'                    i1l2954:
  7864  0003' 0181'              	clrf	fputs@i
  7865  0004' 0182'              	clrf	fputs@i+1
  7866  0005' 2800'              	goto	i1l2960
  7867  0006'                    i1l2956:
  7868  0006' 0800'              	movf	fputs@c,w
  7869  0007' 008A'              	movwf	??_fputs
  7870  0008' 018B'              	clrf	??_fputs+1
  7871  0009' 080A'              	movf	??_fputs,w
  7872  000A' 0081'              	movwf	fputc@c
  7873  000B' 080B'              	movf	??_fputs+1,w
  7874  000C' 0082'              	movwf	fputc@c+1
  7875  000D' 0809'              	movf	fputs@fp,w
  7876  000E' 0083'              	movwf	fputc@fp
  7877  000F' 120A' 118A' 2000' 120A' 118A' 	fcall	_fputc
  7878  0014'                    i1l2958:
  7879  0014' 3001               	movlw	1
  7880  0015' 1283               	bcf	3,5	;RP0=0, select bank0
  7881  0016' 1303               	bcf	3,6	;RP1=0, select bank0
  7882  0017' 0781'              	addwf	fputs@i,f
  7883  0018' 1803               	skipnc
  7884  0019' 0A82'              	incf	fputs@i+1,f
  7885  001A' 3000               	movlw	0
  7886  001B' 0782'              	addwf	fputs@i+1,f
  7887  001C'                    i1l2960:
  7888  001C' 0801'              	movf	fputs@i,w
  7889  001D' 0703'              	addwf	fputs@s,w
  7890  001E' 008A'              	movwf	??_fputs
  7891  001F' 080A'              	movf	??_fputs,w
  7892  0020' 0084               	movwf	4
  7893  0021' 1783               	bsf	3,7	;select IRP bank2
  7894  0022' 0800               	movf	0,w
  7895  0023' 0080'              	movwf	fputs@c
  7896  0024' 0800'              	movf	fputs@c,w
  7897  0025' 1D03               	btfss	3,2
  7898  0026' 2800'              	goto	u340_21
  7899  0027' 2800'              	goto	u340_20
  7900  0028'                    u340_21:
  7901  0028' 2800'              	goto	i1l2956
  7902  0029'                    u340_20:
  7903  0029'                    i1l1060:
  7904  0029' 0008               	return
  7905  002A'                    __end_of_fputs:
  7906                           
  7907                           	psect	text37
  7908  0000'                    __ptext37:	
  7909 ;; *************** function _fputc *****************
  7910 ;; Defined at:
  7911 ;;		line 8 in file "/opt/microchip/xc8/v2.45/pic/sources/c99/common/nf_fputc.c"
  7912 ;; Parameters:    Size  Location     Type
  7913 ;;  c               2    1[COMMON] int 
  7914 ;;  fp              1    3[COMMON] PTR struct _IO_FILE
  7915 ;;		 -> NULL(0), 
  7916 ;; Auto vars:     Size  Location     Type
  7917 ;;		None
  7918 ;; Return value:  Size  Location     Type
  7919 ;;                  2    1[COMMON] int 
  7920 ;; Registers used:
  7921 ;;		wreg, fsr0l, fsr0h, status,2, status,0, pclath, cstack
  7922 ;; Tracked objects:
  7923 ;;		On entry : 0/0
  7924 ;;		On exit  : 0/0
  7925 ;;		Unchanged: 0/0
  7926 ;; Data sizes:     COMMON   BANK0   BANK1   BANK3   BANK2
  7927 ;;      Params:         3       0       0       0       0
  7928 ;;      Locals:         0       0       0       0       0
  7929 ;;      Temps:          5       0       0       0       0
  7930 ;;      Totals:         8       0       0       0       0
  7931 ;;Total ram usage:        8 bytes
  7932 ;; Hardware stack levels used: 1
  7933 ;; Hardware stack levels required when called: 1
  7934 ;; This function calls:
  7935 ;;		_putch
  7936 ;; This function is called by:
  7937 ;;		_pad
  7938 ;;		_stoa
  7939 ;;		_vfpfcnvrt
  7940 ;;		_fputs
  7941 ;; This function uses a non-reentrant model
  7942 ;;
  7943                           
  7944  0000'                    _fputc:	
  7945                           ;psect for function _fputc
  7946                           
  7947  0000'                    i1l2732:	
  7948                           ;incstack = 0
  7949 ;; hardware stack exceeded
  7950                           ; Regs used in _fputc: [wreg-fsr0h+status,2+status,0+pclath+cstack]
  7951                           
  7952  0000' 0803'              	movf	fputc@fp,w
  7953  0001' 1903               	btfsc	3,2
  7954  0002' 2800'              	goto	u287_21
  7955  0003' 2800'              	goto	u287_20
  7956  0004'                    u287_21:
  7957  0004' 2800'              	goto	i1l2736
  7958  0005'                    u287_20:
  7959  0005'                    i1l2734:
  7960  0005' 0803'              	movf	fputc@fp,w
  7961  0006' 1D03               	btfss	3,2
  7962  0007' 2800'              	goto	u288_21
  7963  0008' 2800'              	goto	u288_20
  7964  0009'                    u288_21:
  7965  0009' 2800'              	goto	i1l2738
  7966  000A'                    u288_20:
  7967  000A'                    i1l2736:
  7968  000A' 0801'              	movf	fputc@c,w
  7969  000B' 120A' 118A' 2000' 120A' 118A' 	fcall	_putch
  7970  0010' 2800'              	goto	i1l1052
  7971  0011'                    i1l2738:
  7972  0011' 0803'              	movf	fputc@fp,w
  7973  0012' 3E09               	addlw	9
  7974  0013' 0084               	movwf	4
  7975  0014' 1383               	bcf	3,7	;select IRP bank0
  7976  0015' 0800               	movf	0,w
  7977  0016' 0084'              	movwf	??_fputc
  7978  0017' 0A84               	incf	4,f
  7979  0018' 0800               	movf	0,w
  7980  0019' 0085'              	movwf	??_fputc+1
  7981  001A' 0804'              	movf	??_fputc,w
  7982  001B' 0405'              	iorwf	??_fputc+1,w
  7983  001C' 1903               	btfsc	3,2
  7984  001D' 2800'              	goto	u289_21
  7985  001E' 2800'              	goto	u289_20
  7986  001F'                    u289_21:
  7987  001F' 2800'              	goto	i1l2742
  7988  0020'                    u289_20:
  7989  0020'                    i1l2740:
  7990  0020' 0803'              	movf	fputc@fp,w
  7991  0021' 3E09               	addlw	9
  7992  0022' 0084               	movwf	4
  7993  0023' 0800               	movf	0,w
  7994  0024' 0084'              	movwf	??_fputc
  7995  0025' 0A84               	incf	4,f
  7996  0026' 0800               	movf	0,w
  7997  0027' 0085'              	movwf	??_fputc+1
  7998  0028' 0803'              	movf	fputc@fp,w
  7999  0029' 3E02               	addlw	2
  8000  002A' 0084               	movwf	4
  8001  002B' 0800               	movf	0,w
  8002  002C' 0086'              	movwf	??_fputc+2
  8003  002D' 0A84               	incf	4,f
  8004  002E' 0800               	movf	0,w
  8005  002F' 0087'              	movwf	??_fputc+3
  8006  0030' 0807'              	movf	??_fputc+3,w
  8007  0031' 3A80               	xorlw	128
  8008  0032' 0088'              	movwf	??_fputc+4
  8009  0033' 0805'              	movf	??_fputc+1,w
  8010  0034' 3A80               	xorlw	128
  8011  0035' 0208'              	subwf	??_fputc+4,w
  8012  0036' 1D03               	skipz
  8013  0037' 2800'              	goto	u290_25
  8014  0038' 0804'              	movf	??_fputc,w
  8015  0039' 0206'              	subwf	??_fputc+2,w
  8016  003A'                    u290_25:
  8017  003A' 1803               	skipnc
  8018  003B' 2800'              	goto	u290_21
  8019  003C' 2800'              	goto	u290_20
  8020  003D'                    u290_21:
  8021  003D' 2800'              	goto	i1l1052
  8022  003E'                    u290_20:
  8023  003E'                    i1l2742:
  8024  003E' 0803'              	movf	fputc@fp,w
  8025  003F' 3E02               	addlw	2
  8026  0040' 0084               	movwf	4
  8027  0041' 1383               	bcf	3,7	;select IRP bank0
  8028  0042' 0800               	movf	0,w
  8029  0043' 0084'              	movwf	??_fputc
  8030  0044' 0803'              	movf	fputc@fp,w
  8031  0045' 0084               	movwf	4
  8032  0046' 0800               	movf	0,w
  8033  0047' 0704'              	addwf	??_fputc,w
  8034  0048' 0085'              	movwf	??_fputc+1
  8035  0049' 0805'              	movf	??_fputc+1,w
  8036  004A' 0084               	movwf	4
  8037  004B' 0801'              	movf	fputc@c,w
  8038  004C' 0080               	movwf	0
  8039  004D' 0803'              	movf	fputc@fp,w
  8040  004E' 3E02               	addlw	2
  8041  004F' 0084               	movwf	4
  8042  0050' 3001               	movlw	1
  8043  0051' 0780               	addwf	0,f
  8044  0052' 0A84               	incf	4,f
  8045  0053' 1803               	skipnc
  8046  0054' 0A80               	incf	0,f
  8047  0055'                    i1l1052:
  8048  0055' 0008               	return
  8049  0056'                    __end_of_fputc:
  8050                           
  8051                           	psect	text38
  8052  0000'                    __ptext38:	
  8053 ;; *************** function _putch *****************
  8054 ;; Defined at:
  8055 ;;		line 46 in file "src/protocols/UART/uart.c"
  8056 ;; Parameters:    Size  Location     Type
  8057 ;;  data            1    wreg     unsigned char 
  8058 ;; Auto vars:     Size  Location     Type
  8059 ;;  data            1    0[COMMON] unsigned char 
  8060 ;; Return value:  Size  Location     Type
  8061 ;;                  1    wreg      void 
  8062 ;; Registers used:
  8063 ;;		wreg
  8064 ;; Tracked objects:
  8065 ;;		On entry : 0/0
  8066 ;;		On exit  : 0/0
  8067 ;;		Unchanged: 0/0
  8068 ;; Data sizes:     COMMON   BANK0   BANK1   BANK3   BANK2
  8069 ;;      Params:         0       0       0       0       0
  8070 ;;      Locals:         1       0       0       0       0
  8071 ;;      Temps:          0       0       0       0       0
  8072 ;;      Totals:         1       0       0       0       0
  8073 ;;Total ram usage:        1 bytes
  8074 ;; Hardware stack levels used: 1
  8075 ;; This function calls:
  8076 ;;		Nothing
  8077 ;; This function is called by:
  8078 ;;		_fputc
  8079 ;; This function uses a non-reentrant model
  8080 ;;
  8081                           
  8082  0000'                    _putch:	
  8083                           ;psect for function _putch
  8084                           
  8085                           
  8086                           ;incstack = 0
  8087 ;; hardware stack exceeded
  8088                           ; Regs used in _putch: [wreg]
  8089                           ;putch@data stored from wreg
  8090  0000' 0080'              	movwf	putch@data
  8091  0001'                    i1l2728:
  8092  0001'                    i1l59:	
  8093                           ;src/protocols/UART/uart.c: 46: void putch (char data);src/protocols/UART/uart.c: 47: {;
      +                          src/protocols/UART/uart.c: 48:     while(!TXIF)
  8094                           
  8095                           
  8096                           ;src/protocols/UART/uart.c: 48:     while(!TXIF)
  8097  0001' 1283               	bcf	3,5	;RP0=0, select bank0
  8098  0002' 1303               	bcf	3,6	;RP1=0, select bank0
  8099  0003' 1E0C               	btfss	12,4	;volatile
  8100  0004' 2800'              	goto	u286_21
  8101  0005' 2800'              	goto	u286_20
  8102  0006'                    u286_21:
  8103  0006' 2800'              	goto	i1l59
  8104  0007'                    u286_20:
  8105  0007'                    i1l2730:
  8106                           
  8107                           ;src/protocols/UART/uart.c: 50:     TXREG = data;
  8108  0007' 0800'              	movf	putch@data,w
  8109  0008' 0099               	movwf	25	;volatile
  8110  0009'                    i1l62:
  8111  0009' 0008               	return
  8112  000A'                    __end_of_putch:
  8113                           
  8114                           	psect	text39
  8115  0000'                    __ptext39:	
  8116 ;; *************** function _abs *****************
  8117 ;; Defined at:
  8118 ;;		line 1 in file "/opt/microchip/xc8/v2.45/pic/sources/c99/common/abs.c"
  8119 ;; Parameters:    Size  Location     Type
  8120 ;;  a               2    7[COMMON] int 
  8121 ;; Auto vars:     Size  Location     Type
  8122 ;;		None
  8123 ;; Return value:  Size  Location     Type
  8124 ;;                  2    7[COMMON] int 
  8125 ;; Registers used:
  8126 ;;		wreg, status,2, status,0
  8127 ;; Tracked objects:
  8128 ;;		On entry : 0/0
  8129 ;;		On exit  : 0/0
  8130 ;;		Unchanged: 0/0
  8131 ;; Data sizes:     COMMON   BANK0   BANK1   BANK3   BANK2
  8132 ;;      Params:         2       0       0       0       0
  8133 ;;      Locals:         0       0       0       0       0
  8134 ;;      Temps:          2       0       0       0       0
  8135 ;;      Totals:         4       0       0       0       0
  8136 ;;Total ram usage:        4 bytes
  8137 ;; Hardware stack levels used: 1
  8138 ;; This function calls:
  8139 ;;		Nothing
  8140 ;; This function is called by:
  8141 ;;		_dtoa
  8142 ;; This function uses a non-reentrant model
  8143 ;;
  8144                           
  8145  0000'                    _abs:	
  8146                           ;psect for function _abs
  8147                           
  8148  0000'                    i1l3434:	
  8149                           ;incstack = 0
  8150 ;; hardware stack exceeded
  8151                           ; Regs used in _abs: [wreg+status,2+status,0]
  8152                           
  8153  0000' 1B88'              	btfsc	abs@a+1,7
  8154  0001' 2800'              	goto	u453_21
  8155  0002' 2800'              	goto	u453_20
  8156  0003'                    u453_21:
  8157  0003' 2800'              	goto	i1l3438
  8158  0004'                    u453_20:
  8159  0004'                    i1l3436:
  8160  0004' 2800'              	goto	i1l1014
  8161  0005'                    i1l3438:
  8162  0005' 0907'              	comf	abs@a,w
  8163  0006' 0089'              	movwf	??_abs
  8164  0007' 0908'              	comf	abs@a+1,w
  8165  0008' 008A'              	movwf	??_abs+1
  8166  0009' 0A89'              	incf	??_abs,f
  8167  000A' 1903               	skipnz
  8168  000B' 0A8A'              	incf	??_abs+1,f
  8169  000C' 0809'              	movf	??_abs,w
  8170  000D' 0087'              	movwf	?_abs
  8171  000E' 080A'              	movf	??_abs+1,w
  8172  000F' 0088'              	movwf	?_abs+1
  8173  0010'                    i1l1014:
  8174  0010' 0008               	return
  8175  0011'                    __end_of_abs:
  8176                           
  8177                           	psect	text40
  8178  0000'                    __ptext40:	
  8179 ;; *************** function ___awmod *****************
  8180 ;; Defined at:
  8181 ;;		line 5 in file "/opt/microchip/xc8/v2.45/pic/sources/c99/common/awmod.c"
  8182 ;; Parameters:    Size  Location     Type
  8183 ;;  divisor         2    0[COMMON] int 
  8184 ;;  dividend        2    2[COMMON] int 
  8185 ;; Auto vars:     Size  Location     Type
  8186 ;;  sign            1    6[COMMON] unsigned char 
  8187 ;;  counter         1    5[COMMON] unsigned char 
  8188 ;; Return value:  Size  Location     Type
  8189 ;;                  2    0[COMMON] int 
  8190 ;; Registers used:
  8191 ;;		wreg, status,2, status,0
  8192 ;; Tracked objects:
  8193 ;;		On entry : 0/0
  8194 ;;		On exit  : 0/0
  8195 ;;		Unchanged: 0/0
  8196 ;; Data sizes:     COMMON   BANK0   BANK1   BANK3   BANK2
  8197 ;;      Params:         4       0       0       0       0
  8198 ;;      Locals:         2       0       0       0       0
  8199 ;;      Temps:          1       0       0       0       0
  8200 ;;      Totals:         7       0       0       0       0
  8201 ;;Total ram usage:        7 bytes
  8202 ;; Hardware stack levels used: 1
  8203 ;; This function calls:
  8204 ;;		Nothing
  8205 ;; This function is called by:
  8206 ;;		_interrupt_rutine
  8207 ;;		_dtoa
  8208 ;; This function uses a non-reentrant model
  8209 ;;
  8210                           
  8211  0000'                    ___awmod:	
  8212                           ;psect for function ___awmod
  8213                           
  8214  0000'                    i1l3020:	
  8215                           ;incstack = 0
  8216 ;; hardware stack exceeded
  8217                           ; Regs used in ___awmod: [wreg+status,2+status,0]
  8218                           
  8219  0000' 0186'              	clrf	___awmod@sign
  8220  0001'                    i1l3022:
  8221  0001' 1F83'              	btfss	___awmod@dividend+1,7
  8222  0002' 2800'              	goto	u355_21
  8223  0003' 2800'              	goto	u355_20
  8224  0004'                    u355_21:
  8225  0004' 2800'              	goto	i1l3028
  8226  0005'                    u355_20:
  8227  0005'                    i1l3024:
  8228  0005' 0982'              	comf	___awmod@dividend,f
  8229  0006' 0983'              	comf	___awmod@dividend+1,f
  8230  0007' 0A82'              	incf	___awmod@dividend,f
  8231  0008' 1903               	skipnz
  8232  0009' 0A83'              	incf	___awmod@dividend+1,f
  8233  000A'                    i1l3026:
  8234  000A' 0186'              	clrf	___awmod@sign
  8235  000B' 0A86'              	incf	___awmod@sign,f
  8236  000C'                    i1l3028:
  8237  000C' 1F81'              	btfss	___awmod@divisor+1,7
  8238  000D' 2800'              	goto	u356_21
  8239  000E' 2800'              	goto	u356_20
  8240  000F'                    u356_21:
  8241  000F' 2800'              	goto	i1l3032
  8242  0010'                    u356_20:
  8243  0010'                    i1l3030:
  8244  0010' 0980'              	comf	___awmod@divisor,f
  8245  0011' 0981'              	comf	___awmod@divisor+1,f
  8246  0012' 0A80'              	incf	___awmod@divisor,f
  8247  0013' 1903               	skipnz
  8248  0014' 0A81'              	incf	___awmod@divisor+1,f
  8249  0015'                    i1l3032:
  8250  0015' 0800'              	movf	___awmod@divisor,w
  8251  0016' 0401'              	iorwf	___awmod@divisor+1,w
  8252  0017' 1903               	btfsc	3,2
  8253  0018' 2800'              	goto	u357_21
  8254  0019' 2800'              	goto	u357_20
  8255  001A'                    u357_21:
  8256  001A' 2800'              	goto	i1l3050
  8257  001B'                    u357_20:
  8258  001B'                    i1l3034:
  8259  001B' 0185'              	clrf	___awmod@counter
  8260  001C' 0A85'              	incf	___awmod@counter,f
  8261  001D' 2800'              	goto	i1l3040
  8262  001E'                    i1l3036:
  8263  001E' 3001               	movlw	1
  8264  001F'                    u358_25:
  8265  001F' 1003               	clrc
  8266  0020' 0D80'              	rlf	___awmod@divisor,f
  8267  0021' 0D81'              	rlf	___awmod@divisor+1,f
  8268  0022' 3EFF               	addlw	-1
  8269  0023' 1D03               	skipz
  8270  0024' 2800'              	goto	u358_25
  8271  0025'                    i1l3038:
  8272  0025' 3001               	movlw	1
  8273  0026' 0084'              	movwf	??___awmod
  8274  0027' 0804'              	movf	??___awmod,w
  8275  0028' 0785'              	addwf	___awmod@counter,f
  8276  0029'                    i1l3040:
  8277  0029' 1F81'              	btfss	___awmod@divisor+1,7
  8278  002A' 2800'              	goto	u359_21
  8279  002B' 2800'              	goto	u359_20
  8280  002C'                    u359_21:
  8281  002C' 2800'              	goto	i1l3036
  8282  002D'                    u359_20:
  8283  002D'                    i1l3042:
  8284  002D' 0801'              	movf	___awmod@divisor+1,w
  8285  002E' 0203'              	subwf	___awmod@dividend+1,w
  8286  002F' 1D03               	skipz
  8287  0030' 2800'              	goto	u360_25
  8288  0031' 0800'              	movf	___awmod@divisor,w
  8289  0032' 0202'              	subwf	___awmod@dividend,w
  8290  0033'                    u360_25:
  8291  0033' 1C03               	skipc
  8292  0034' 2800'              	goto	u360_21
  8293  0035' 2800'              	goto	u360_20
  8294  0036'                    u360_21:
  8295  0036' 2800'              	goto	i1l3046
  8296  0037'                    u360_20:
  8297  0037'                    i1l3044:
  8298  0037' 0800'              	movf	___awmod@divisor,w
  8299  0038' 0282'              	subwf	___awmod@dividend,f
  8300  0039' 0801'              	movf	___awmod@divisor+1,w
  8301  003A' 1C03               	skipc
  8302  003B' 0383'              	decf	___awmod@dividend+1,f
  8303  003C' 0283'              	subwf	___awmod@dividend+1,f
  8304  003D'                    i1l3046:
  8305  003D' 3001               	movlw	1
  8306  003E'                    u361_25:
  8307  003E' 1003               	clrc
  8308  003F' 0C81'              	rrf	___awmod@divisor+1,f
  8309  0040' 0C80'              	rrf	___awmod@divisor,f
  8310  0041' 3EFF               	addlw	-1
  8311  0042' 1D03               	skipz
  8312  0043' 2800'              	goto	u361_25
  8313  0044'                    i1l3048:
  8314  0044' 3001               	movlw	1
  8315  0045' 0285'              	subwf	___awmod@counter,f
  8316  0046' 1D03               	btfss	3,2
  8317  0047' 2800'              	goto	u362_21
  8318  0048' 2800'              	goto	u362_20
  8319  0049'                    u362_21:
  8320  0049' 2800'              	goto	i1l3042
  8321  004A'                    u362_20:
  8322  004A'                    i1l3050:
  8323  004A' 0806'              	movf	___awmod@sign,w
  8324  004B' 1903               	btfsc	3,2
  8325  004C' 2800'              	goto	u363_21
  8326  004D' 2800'              	goto	u363_20
  8327  004E'                    u363_21:
  8328  004E' 2800'              	goto	i1l3054
  8329  004F'                    u363_20:
  8330  004F'                    i1l3052:
  8331  004F' 0982'              	comf	___awmod@dividend,f
  8332  0050' 0983'              	comf	___awmod@dividend+1,f
  8333  0051' 0A82'              	incf	___awmod@dividend,f
  8334  0052' 1903               	skipnz
  8335  0053' 0A83'              	incf	___awmod@dividend+1,f
  8336  0054'                    i1l3054:
  8337  0054' 0803'              	movf	___awmod@dividend+1,w
  8338  0055' 0081'              	movwf	?___awmod+1
  8339  0056' 0802'              	movf	___awmod@dividend,w
  8340  0057' 0080'              	movwf	?___awmod
  8341  0058'                    i1l542:
  8342  0058' 0008               	return
  8343  0059'                    __end_of___awmod:
  8344                           
  8345                           	psect	text41
  8346  0000'                    __ptext41:	
  8347 ;; *************** function ___awdiv *****************
  8348 ;; Defined at:
  8349 ;;		line 5 in file "/opt/microchip/xc8/v2.45/pic/sources/c99/common/awdiv.c"
  8350 ;; Parameters:    Size  Location     Type
  8351 ;;  divisor         2    0[COMMON] int 
  8352 ;;  dividend        2    2[COMMON] int 
  8353 ;; Auto vars:     Size  Location     Type
  8354 ;;  quotient        2    7[COMMON] int 
  8355 ;;  sign            1    6[COMMON] unsigned char 
  8356 ;;  counter         1    5[COMMON] unsigned char 
  8357 ;; Return value:  Size  Location     Type
  8358 ;;                  2    0[COMMON] int 
  8359 ;; Registers used:
  8360 ;;		wreg, status,2, status,0
  8361 ;; Tracked objects:
  8362 ;;		On entry : 0/0
  8363 ;;		On exit  : 0/0
  8364 ;;		Unchanged: 0/0
  8365 ;; Data sizes:     COMMON   BANK0   BANK1   BANK3   BANK2
  8366 ;;      Params:         4       0       0       0       0
  8367 ;;      Locals:         4       0       0       0       0
  8368 ;;      Temps:          1       0       0       0       0
  8369 ;;      Totals:         9       0       0       0       0
  8370 ;;Total ram usage:        9 bytes
  8371 ;; Hardware stack levels used: 1
  8372 ;; This function calls:
  8373 ;;		Nothing
  8374 ;; This function is called by:
  8375 ;;		_interrupt_rutine
  8376 ;;		_dtoa
  8377 ;; This function uses a non-reentrant model
  8378 ;;
  8379                           
  8380  0000'                    ___awdiv:	
  8381                           ;psect for function ___awdiv
  8382                           
  8383  0000'                    i1l2976:	
  8384                           ;incstack = 0
  8385 ;; hardware stack exceeded
  8386                           ; Regs used in ___awdiv: [wreg+status,2+status,0]
  8387                           
  8388  0000' 0186'              	clrf	___awdiv@sign
  8389  0001'                    i1l2978:
  8390  0001' 1F81'              	btfss	___awdiv@divisor+1,7
  8391  0002' 2800'              	goto	u345_21
  8392  0003' 2800'              	goto	u345_20
  8393  0004'                    u345_21:
  8394  0004' 2800'              	goto	i1l2984
  8395  0005'                    u345_20:
  8396  0005'                    i1l2980:
  8397  0005' 0980'              	comf	___awdiv@divisor,f
  8398  0006' 0981'              	comf	___awdiv@divisor+1,f
  8399  0007' 0A80'              	incf	___awdiv@divisor,f
  8400  0008' 1903               	skipnz
  8401  0009' 0A81'              	incf	___awdiv@divisor+1,f
  8402  000A'                    i1l2982:
  8403  000A' 0186'              	clrf	___awdiv@sign
  8404  000B' 0A86'              	incf	___awdiv@sign,f
  8405  000C'                    i1l2984:
  8406  000C' 1F83'              	btfss	___awdiv@dividend+1,7
  8407  000D' 2800'              	goto	u346_21
  8408  000E' 2800'              	goto	u346_20
  8409  000F'                    u346_21:
  8410  000F' 2800'              	goto	i1l2990
  8411  0010'                    u346_20:
  8412  0010'                    i1l2986:
  8413  0010' 0982'              	comf	___awdiv@dividend,f
  8414  0011' 0983'              	comf	___awdiv@dividend+1,f
  8415  0012' 0A82'              	incf	___awdiv@dividend,f
  8416  0013' 1903               	skipnz
  8417  0014' 0A83'              	incf	___awdiv@dividend+1,f
  8418  0015'                    i1l2988:
  8419  0015' 3001               	movlw	1
  8420  0016' 0084'              	movwf	??___awdiv
  8421  0017' 0804'              	movf	??___awdiv,w
  8422  0018' 0686'              	xorwf	___awdiv@sign,f
  8423  0019'                    i1l2990:
  8424  0019' 0187'              	clrf	___awdiv@quotient
  8425  001A' 0188'              	clrf	___awdiv@quotient+1
  8426  001B'                    i1l2992:
  8427  001B' 0800'              	movf	___awdiv@divisor,w
  8428  001C' 0401'              	iorwf	___awdiv@divisor+1,w
  8429  001D' 1903               	btfsc	3,2
  8430  001E' 2800'              	goto	u347_21
  8431  001F' 2800'              	goto	u347_20
  8432  0020'                    u347_21:
  8433  0020' 2800'              	goto	i1l3012
  8434  0021'                    u347_20:
  8435  0021'                    i1l2994:
  8436  0021' 0185'              	clrf	___awdiv@counter
  8437  0022' 0A85'              	incf	___awdiv@counter,f
  8438  0023' 2800'              	goto	i1l3000
  8439  0024'                    i1l2996:
  8440  0024' 3001               	movlw	1
  8441  0025'                    u348_25:
  8442  0025' 1003               	clrc
  8443  0026' 0D80'              	rlf	___awdiv@divisor,f
  8444  0027' 0D81'              	rlf	___awdiv@divisor+1,f
  8445  0028' 3EFF               	addlw	-1
  8446  0029' 1D03               	skipz
  8447  002A' 2800'              	goto	u348_25
  8448  002B'                    i1l2998:
  8449  002B' 3001               	movlw	1
  8450  002C' 0084'              	movwf	??___awdiv
  8451  002D' 0804'              	movf	??___awdiv,w
  8452  002E' 0785'              	addwf	___awdiv@counter,f
  8453  002F'                    i1l3000:
  8454  002F' 1F81'              	btfss	___awdiv@divisor+1,7
  8455  0030' 2800'              	goto	u349_21
  8456  0031' 2800'              	goto	u349_20
  8457  0032'                    u349_21:
  8458  0032' 2800'              	goto	i1l2996
  8459  0033'                    u349_20:
  8460  0033'                    i1l3002:
  8461  0033' 3001               	movlw	1
  8462  0034'                    u350_25:
  8463  0034' 1003               	clrc
  8464  0035' 0D87'              	rlf	___awdiv@quotient,f
  8465  0036' 0D88'              	rlf	___awdiv@quotient+1,f
  8466  0037' 3EFF               	addlw	-1
  8467  0038' 1D03               	skipz
  8468  0039' 2800'              	goto	u350_25
  8469  003A' 0801'              	movf	___awdiv@divisor+1,w
  8470  003B' 0203'              	subwf	___awdiv@dividend+1,w
  8471  003C' 1D03               	skipz
  8472  003D' 2800'              	goto	u351_25
  8473  003E' 0800'              	movf	___awdiv@divisor,w
  8474  003F' 0202'              	subwf	___awdiv@dividend,w
  8475  0040'                    u351_25:
  8476  0040' 1C03               	skipc
  8477  0041' 2800'              	goto	u351_21
  8478  0042' 2800'              	goto	u351_20
  8479  0043'                    u351_21:
  8480  0043' 2800'              	goto	i1l3008
  8481  0044'                    u351_20:
  8482  0044'                    i1l3004:
  8483  0044' 0800'              	movf	___awdiv@divisor,w
  8484  0045' 0282'              	subwf	___awdiv@dividend,f
  8485  0046' 0801'              	movf	___awdiv@divisor+1,w
  8486  0047' 1C03               	skipc
  8487  0048' 0383'              	decf	___awdiv@dividend+1,f
  8488  0049' 0283'              	subwf	___awdiv@dividend+1,f
  8489  004A'                    i1l3006:
  8490  004A' 1407'              	bsf	___awdiv@quotient,0
  8491  004B'                    i1l3008:
  8492  004B' 3001               	movlw	1
  8493  004C'                    u352_25:
  8494  004C' 1003               	clrc
  8495  004D' 0C81'              	rrf	___awdiv@divisor+1,f
  8496  004E' 0C80'              	rrf	___awdiv@divisor,f
  8497  004F' 3EFF               	addlw	-1
  8498  0050' 1D03               	skipz
  8499  0051' 2800'              	goto	u352_25
  8500  0052'                    i1l3010:
  8501  0052' 3001               	movlw	1
  8502  0053' 0285'              	subwf	___awdiv@counter,f
  8503  0054' 1D03               	btfss	3,2
  8504  0055' 2800'              	goto	u353_21
  8505  0056' 2800'              	goto	u353_20
  8506  0057'                    u353_21:
  8507  0057' 2800'              	goto	i1l3002
  8508  0058'                    u353_20:
  8509  0058'                    i1l3012:
  8510  0058' 0806'              	movf	___awdiv@sign,w
  8511  0059' 1903               	btfsc	3,2
  8512  005A' 2800'              	goto	u354_21
  8513  005B' 2800'              	goto	u354_20
  8514  005C'                    u354_21:
  8515  005C' 2800'              	goto	i1l3016
  8516  005D'                    u354_20:
  8517  005D'                    i1l3014:
  8518  005D' 0987'              	comf	___awdiv@quotient,f
  8519  005E' 0988'              	comf	___awdiv@quotient+1,f
  8520  005F' 0A87'              	incf	___awdiv@quotient,f
  8521  0060' 1903               	skipnz
  8522  0061' 0A88'              	incf	___awdiv@quotient+1,f
  8523  0062'                    i1l3016:
  8524  0062' 0808'              	movf	___awdiv@quotient+1,w
  8525  0063' 0081'              	movwf	?___awdiv+1
  8526  0064' 0807'              	movf	___awdiv@quotient,w
  8527  0065' 0080'              	movwf	?___awdiv
  8528  0066'                    i1l529:
  8529  0066' 0008               	return
  8530  0067'                    __end_of___awdiv:
  8531                           
  8532                           	psect	text42
  8533  0000'                    __ptext42:	
  8534 ;; *************** function _send_PWM_sign *****************
  8535 ;; Defined at:
  8536 ;;		line 18 in file "src/pwm/pwm.c"
  8537 ;; Parameters:    Size  Location     Type
  8538 ;;  percent         4   46[BANK0 ] float 
  8539 ;; Auto vars:     Size  Location     Type
  8540 ;;		None
  8541 ;; Return value:  Size  Location     Type
  8542 ;;                  1    wreg      void 
  8543 ;; Registers used:
  8544 ;;		wreg, status,2, status,0, btemp+1, pclath, cstack
  8545 ;; Tracked objects:
  8546 ;;		On entry : 0/0
  8547 ;;		On exit  : 0/0
  8548 ;;		Unchanged: 0/0
  8549 ;; Data sizes:     COMMON   BANK0   BANK1   BANK3   BANK2
  8550 ;;      Params:         0       4       0       0       0
  8551 ;;      Locals:         0       0       0       0       0
  8552 ;;      Temps:          0       0       0       0       0
  8553 ;;      Totals:         0       4       0       0       0
  8554 ;;Total ram usage:        4 bytes
  8555 ;; Hardware stack levels used: 1
  8556 ;; Hardware stack levels required when called: 2
  8557 ;; This function calls:
  8558 ;;		___flmul
  8559 ;;		___fltol
  8560 ;; This function is called by:
  8561 ;;		_interrupt_rutine
  8562 ;; This function uses a non-reentrant model
  8563 ;;
  8564                           
  8565  0000'                    _send_PWM_sign:	
  8566                           ;psect for function _send_PWM_sign
  8567                           
  8568  0000'                    i1l4170:	
  8569                           ;incstack = 0
  8570                           ; Regs used in _send_PWM_sign: [wreg+status,2+status,0+btemp+1+pclath+cstack]
  8571                           
  8572                           
  8573                           ;src/pwm/pwm.c: 18: void send_PWM_sign(float percent);src/pwm/pwm.c: 19: {;src/pwm/pwm.c
      +                          : 20:     CCPR1L = (uint8_t)(percent * 10);
  8574  0000' 1283               	bcf	3,5	;RP0=0, select bank0
  8575  0001' 1303               	bcf	3,6	;RP1=0, select bank0
  8576  0002' 0831'              	movf	send_PWM_sign@percent+3,w
  8577  0003' 0087'              	movwf	___flmul@a+3
  8578  0004' 0830'              	movf	send_PWM_sign@percent+2,w
  8579  0005' 0086'              	movwf	___flmul@a+2
  8580  0006' 082F'              	movf	send_PWM_sign@percent+1,w
  8581  0007' 0085'              	movwf	___flmul@a+1
  8582  0008' 082E'              	movf	send_PWM_sign@percent,w
  8583  0009' 0084'              	movwf	___flmul@a
  8584  000A' 3041               	movlw	65
  8585  000B' 0083'              	movwf	___flmul@b+3
  8586  000C' 3020               	movlw	32
  8587  000D' 0082'              	movwf	___flmul@b+2
  8588  000E' 3000               	movlw	0
  8589  000F' 0081'              	movwf	___flmul@b+1
  8590  0010' 3000               	movlw	0
  8591  0011' 0080'              	movwf	___flmul@b
  8592  0012' 120A' 118A' 2000' 120A' 118A' 	fcall	___flmul
  8593  0017' 1283               	bcf	3,5	;RP0=0, select bank0
  8594  0018' 1303               	bcf	3,6	;RP1=0, select bank0
  8595  0019' 0803'              	movf	?___flmul+3,w
  8596  001A' 009D'              	movwf	___fltol@f1+3
  8597  001B' 0802'              	movf	?___flmul+2,w
  8598  001C' 009C'              	movwf	___fltol@f1+2
  8599  001D' 0801'              	movf	?___flmul+1,w
  8600  001E' 009B'              	movwf	___fltol@f1+1
  8601  001F' 0800'              	movf	?___flmul,w
  8602  0020' 009A'              	movwf	___fltol@f1
  8603  0021' 120A' 118A' 2000' 120A' 118A' 	fcall	___fltol
  8604  0026' 1283               	bcf	3,5	;RP0=0, select bank0
  8605  0027' 1303               	bcf	3,6	;RP1=0, select bank0
  8606  0028' 081A'              	movf	?___fltol,w
  8607  0029' 0095               	movwf	21	;volatile
  8608  002A'                    i1l123:
  8609  002A' 0008               	return
  8610  002B'                    __end_of_send_PWM_sign:
  8611                           
  8612                           	psect	text43
  8613  0000'                    __ptext43:	
  8614 ;; *************** function ___fltol *****************
  8615 ;; Defined at:
  8616 ;;		line 43 in file "/opt/microchip/xc8/v2.45/pic/sources/c99/common/fltol.c"
  8617 ;; Parameters:    Size  Location     Type
  8618 ;;  f1              4   26[BANK0 ] void 
  8619 ;; Auto vars:     Size  Location     Type
  8620 ;;  exp1            1   35[BANK0 ] unsigned char 
  8621 ;;  sign1           1   34[BANK0 ] unsigned char 
  8622 ;; Return value:  Size  Location     Type
  8623 ;;                  4   26[BANK0 ] long 
  8624 ;; Registers used:
  8625 ;;		wreg, status,2, status,0
  8626 ;; Tracked objects:
  8627 ;;		On entry : 0/0
  8628 ;;		On exit  : 0/0
  8629 ;;		Unchanged: 0/0
  8630 ;; Data sizes:     COMMON   BANK0   BANK1   BANK3   BANK2
  8631 ;;      Params:         0       4       0       0       0
  8632 ;;      Locals:         0       2       0       0       0
  8633 ;;      Temps:          0       4       0       0       0
  8634 ;;      Totals:         0      10       0       0       0
  8635 ;;Total ram usage:       10 bytes
  8636 ;; Hardware stack levels used: 1
  8637 ;; This function calls:
  8638 ;;		Nothing
  8639 ;; This function is called by:
  8640 ;;		_send_PWM_sign
  8641 ;;		_efgtoa
  8642 ;; This function uses a non-reentrant model
  8643 ;;
  8644                           
  8645  0000'                    ___fltol:	
  8646                           ;psect for function ___fltol
  8647                           
  8648  0000'                    i1l3098:	
  8649                           ;incstack = 0
  8650 ;; hardware stack exceeded
  8651                           ; Regs used in ___fltol: [wreg+status,2+status,0]
  8652                           
  8653  0000' 1003               	clrc
  8654  0001' 1283               	bcf	3,5	;RP0=0, select bank0
  8655  0002' 1303               	bcf	3,6	;RP1=0, select bank0
  8656  0003' 0D1C'              	rlf	___fltol@f1+2,w
  8657  0004' 0D1D'              	rlf	___fltol@f1+3,w
  8658  0005' 00A3'              	movwf	___fltol@exp1
  8659  0006' 0823'              	movf	___fltol@exp1,w
  8660  0007' 1D03               	btfss	3,2
  8661  0008' 2800'              	goto	u375_21
  8662  0009' 2800'              	goto	u375_20
  8663  000A'                    u375_21:
  8664  000A' 2800'              	goto	i1l3104
  8665  000B'                    u375_20:
  8666  000B'                    i1l3100:
  8667  000B' 3000               	movlw	0
  8668  000C' 009D'              	movwf	?___fltol+3
  8669  000D' 3000               	movlw	0
  8670  000E' 009C'              	movwf	?___fltol+2
  8671  000F' 3000               	movlw	0
  8672  0010' 009B'              	movwf	?___fltol+1
  8673  0011' 3000               	movlw	0
  8674  0012' 009A'              	movwf	?___fltol
  8675  0013' 2800'              	goto	i1l570
  8676  0014'                    i1l3104:
  8677  0014' 081A'              	movf	___fltol@f1,w
  8678  0015' 009E'              	movwf	??___fltol
  8679  0016' 081B'              	movf	___fltol@f1+1,w
  8680  0017' 009F'              	movwf	??___fltol+1
  8681  0018' 081C'              	movf	___fltol@f1+2,w
  8682  0019' 00A0'              	movwf	??___fltol+2
  8683  001A' 081D'              	movf	___fltol@f1+3,w
  8684  001B' 00A1'              	movwf	??___fltol+3
  8685  001C' 301F               	movlw	31
  8686  001D'                    u376_25:
  8687  001D' 1003               	clrc
  8688  001E' 0CA1'              	rrf	??___fltol+3,f
  8689  001F' 0CA0'              	rrf	??___fltol+2,f
  8690  0020' 0C9F'              	rrf	??___fltol+1,f
  8691  0021' 0C9E'              	rrf	??___fltol,f
  8692  0022'                    u376_20:
  8693  0022' 3EFF               	addlw	-1
  8694  0023' 1D03               	skipz
  8695  0024' 2800'              	goto	u376_25
  8696  0025' 081E'              	movf	??___fltol,w
  8697  0026' 00A2'              	movwf	___fltol@sign1
  8698  0027'                    i1l3106:
  8699  0027' 179C'              	bsf	___fltol@f1+2,7
  8700  0028'                    i1l3108:
  8701  0028' 30FF               	movlw	255
  8702  0029' 059A'              	andwf	___fltol@f1,f
  8703  002A' 30FF               	movlw	255
  8704  002B' 059B'              	andwf	___fltol@f1+1,f
  8705  002C' 30FF               	movlw	255
  8706  002D' 059C'              	andwf	___fltol@f1+2,f
  8707  002E' 3000               	movlw	0
  8708  002F' 059D'              	andwf	___fltol@f1+3,f
  8709  0030'                    i1l3110:
  8710  0030' 3096               	movlw	150
  8711  0031' 02A3'              	subwf	___fltol@exp1,f
  8712  0032'                    i1l3112:
  8713  0032' 1FA3'              	btfss	___fltol@exp1,7
  8714  0033' 2800'              	goto	u377_21
  8715  0034' 2800'              	goto	u377_20
  8716  0035'                    u377_21:
  8717  0035' 2800'              	goto	i1l3122
  8718  0036'                    u377_20:
  8719  0036'                    i1l3114:
  8720  0036' 0823'              	movf	___fltol@exp1,w
  8721  0037' 3A80               	xorlw	128
  8722  0038' 3E97               	addlw	151
  8723  0039' 1803               	skipnc
  8724  003A' 2800'              	goto	u378_21
  8725  003B' 2800'              	goto	u378_20
  8726  003C'                    u378_21:
  8727  003C' 2800'              	goto	i1l3120
  8728  003D'                    u378_20:
  8729  003D' 2800'              	goto	i1l3100
  8730  003E'                    i1l3120:
  8731  003E' 3001               	movlw	1
  8732  003F'                    u379_25:
  8733  003F' 1003               	clrc
  8734  0040' 0C9D'              	rrf	___fltol@f1+3,f
  8735  0041' 0C9C'              	rrf	___fltol@f1+2,f
  8736  0042' 0C9B'              	rrf	___fltol@f1+1,f
  8737  0043' 0C9A'              	rrf	___fltol@f1,f
  8738  0044' 3EFF               	addlw	-1
  8739  0045' 1D03               	skipz
  8740  0046' 2800'              	goto	u379_25
  8741  0047' 3001               	movlw	1
  8742  0048' 009E'              	movwf	??___fltol
  8743  0049' 081E'              	movf	??___fltol,w
  8744  004A' 07A3'              	addwf	___fltol@exp1,f
  8745  004B' 1D03               	btfss	3,2
  8746  004C' 2800'              	goto	u380_21
  8747  004D' 2800'              	goto	u380_20
  8748  004E'                    u380_21:
  8749  004E' 2800'              	goto	i1l3120
  8750  004F'                    u380_20:
  8751  004F' 2800'              	goto	i1l3130
  8752  0050'                    i1l3122:
  8753  0050' 3020               	movlw	32
  8754  0051' 0223'              	subwf	___fltol@exp1,w
  8755  0052' 1C03               	skipc
  8756  0053' 2800'              	goto	u381_21
  8757  0054' 2800'              	goto	u381_20
  8758  0055'                    u381_21:
  8759  0055' 2800'              	goto	i1l577
  8760  0056'                    u381_20:
  8761  0056' 2800'              	goto	i1l3100
  8762  0057'                    i1l3128:
  8763  0057' 3001               	movlw	1
  8764  0058' 009E'              	movwf	??___fltol
  8765  0059'                    u382_25:
  8766  0059' 1003               	clrc
  8767  005A' 0D9A'              	rlf	___fltol@f1,f
  8768  005B' 0D9B'              	rlf	___fltol@f1+1,f
  8769  005C' 0D9C'              	rlf	___fltol@f1+2,f
  8770  005D' 0D9D'              	rlf	___fltol@f1+3,f
  8771  005E' 0B9E'              	decfsz	??___fltol,f
  8772  005F' 2800'              	goto	u382_25
  8773  0060' 3001               	movlw	1
  8774  0061' 02A3'              	subwf	___fltol@exp1,f
  8775  0062'                    i1l577:
  8776  0062' 0823'              	movf	___fltol@exp1,w
  8777  0063' 1D03               	btfss	3,2
  8778  0064' 2800'              	goto	u383_21
  8779  0065' 2800'              	goto	u383_20
  8780  0066'                    u383_21:
  8781  0066' 2800'              	goto	i1l3128
  8782  0067'                    u383_20:
  8783  0067'                    i1l3130:
  8784  0067' 0822'              	movf	___fltol@sign1,w
  8785  0068' 1903               	btfsc	3,2
  8786  0069' 2800'              	goto	u384_21
  8787  006A' 2800'              	goto	u384_20
  8788  006B'                    u384_21:
  8789  006B' 2800'              	goto	i1l580
  8790  006C'                    u384_20:
  8791  006C'                    i1l3132:
  8792  006C' 099A'              	comf	___fltol@f1,f
  8793  006D' 099B'              	comf	___fltol@f1+1,f
  8794  006E' 099C'              	comf	___fltol@f1+2,f
  8795  006F' 099D'              	comf	___fltol@f1+3,f
  8796  0070' 0A9A'              	incf	___fltol@f1,f
  8797  0071' 1903               	skipnz
  8798  0072' 0A9B'              	incf	___fltol@f1+1,f
  8799  0073' 1903               	skipnz
  8800  0074' 0A9C'              	incf	___fltol@f1+2,f
  8801  0075' 1903               	skipnz
  8802  0076' 0A9D'              	incf	___fltol@f1+3,f
  8803  0077'                    i1l580:
  8804  0077'                    i1l570:
  8805  0077' 0008               	return
  8806  0078'                    __end_of___fltol:
  8807                           
  8808                           	psect	text44
  8809  0000'                    __ptext44:	
  8810 ;; *************** function _reset_best_noise *****************
  8811 ;; Defined at:
  8812 ;;		line 15 in file "src/sensors/noise.c"
  8813 ;; Parameters:    Size  Location     Type
  8814 ;;		None
  8815 ;; Auto vars:     Size  Location     Type
  8816 ;;		None
  8817 ;; Return value:  Size  Location     Type
  8818 ;;                  1    wreg      void 
  8819 ;; Registers used:
  8820 ;;		status,2
  8821 ;; Tracked objects:
  8822 ;;		On entry : 0/0
  8823 ;;		On exit  : 0/0
  8824 ;;		Unchanged: 0/0
  8825 ;; Data sizes:     COMMON   BANK0   BANK1   BANK3   BANK2
  8826 ;;      Params:         0       0       0       0       0
  8827 ;;      Locals:         0       0       0       0       0
  8828 ;;      Temps:          0       0       0       0       0
  8829 ;;      Totals:         0       0       0       0       0
  8830 ;;Total ram usage:        0 bytes
  8831 ;; Hardware stack levels used: 1
  8832 ;; This function calls:
  8833 ;;		Nothing
  8834 ;; This function is called by:
  8835 ;;		_interrupt_rutine
  8836 ;; This function uses a non-reentrant model
  8837 ;;
  8838                           
  8839  0000'                    _reset_best_noise:	
  8840                           ;psect for function _reset_best_noise
  8841                           
  8842  0000'                    i1l4222:	
  8843                           ;incstack = 0
  8844                           ; Regs used in _reset_best_noise: [status,2]
  8845                           
  8846                           
  8847                           ;src/sensors/noise.c: 17:     best_noise = 0;
  8848  0000' 1683               	bsf	3,5	;RP0=1, select bank3
  8849  0001' 1703               	bsf	3,6	;RP1=1, select bank3
  8850  0002' 0180'              	clrf	_best_noise^(0+384)
  8851  0003' 0180'              	clrf	(_best_noise+1)^(0+384)
  8852  0004'                    i1l171:
  8853  0004' 0008               	return
  8854  0005'                    __end_of_reset_best_noise:
  8855                           
  8856                           	psect	text45
  8857  0000'                    __ptext45:	
  8858 ;; *************** function _receive_uart *****************
  8859 ;; Defined at:
  8860 ;;		line 40 in file "src/protocols/UART/uart.c"
  8861 ;; Parameters:    Size  Location     Type
  8862 ;;		None
  8863 ;; Auto vars:     Size  Location     Type
  8864 ;;		None
  8865 ;; Return value:  Size  Location     Type
  8866 ;;                  1    wreg      unsigned char 
  8867 ;; Registers used:
  8868 ;;		wreg
  8869 ;; Tracked objects:
  8870 ;;		On entry : 0/0
  8871 ;;		On exit  : 0/0
  8872 ;;		Unchanged: 0/0
  8873 ;; Data sizes:     COMMON   BANK0   BANK1   BANK3   BANK2
  8874 ;;      Params:         0       0       0       0       0
  8875 ;;      Locals:         0       0       0       0       0
  8876 ;;      Temps:          0       0       0       0       0
  8877 ;;      Totals:         0       0       0       0       0
  8878 ;;Total ram usage:        0 bytes
  8879 ;; Hardware stack levels used: 1
  8880 ;; This function calls:
  8881 ;;		Nothing
  8882 ;; This function is called by:
  8883 ;;		_interrupt_rutine
  8884 ;; This function uses a non-reentrant model
  8885 ;;
  8886                           
  8887  0000'                    _receive_uart:	
  8888                           ;psect for function _receive_uart
  8889                           
  8890  0000'                    i1l4164:	
  8891                           ;incstack = 0
  8892                           ; Regs used in _receive_uart: [wreg]
  8893                           
  8894                           
  8895                           ;src/protocols/UART/uart.c: 42:     PIR1bits.RCIF = 0;
  8896  0000' 1283               	bcf	3,5	;RP0=0, select bank0
  8897  0001' 1303               	bcf	3,6	;RP1=0, select bank0
  8898  0002' 128C               	bcf	12,5	;volatile
  8899  0003'                    i1l4166:
  8900                           
  8901                           ;src/protocols/UART/uart.c: 43:     return RCREG;
  8902  0003' 081A               	movf	26,w	;volatile
  8903  0004'                    i1l56:
  8904  0004' 0008               	return
  8905  0005'                    __end_of_receive_uart:
  8906                           
  8907                           	psect	text46
  8908  0000'                    __ptext46:	
  8909 ;; *************** function _read_temperature *****************
  8910 ;; Defined at:
  8911 ;;		line 3 in file "src/sensors/temperature.c"
  8912 ;; Parameters:    Size  Location     Type
  8913 ;;		None
  8914 ;; Auto vars:     Size  Location     Type
  8915 ;;  adc_value       2   50[BANK0 ] unsigned short 
  8916 ;; Return value:  Size  Location     Type
  8917 ;;                  4   46[BANK0 ] float 
  8918 ;; Registers used:
  8919 ;;		wreg, status,2, status,0, btemp+1, pclath, cstack
  8920 ;; Tracked objects:
  8921 ;;		On entry : 0/0
  8922 ;;		On exit  : 0/0
  8923 ;;		Unchanged: 0/0
  8924 ;; Data sizes:     COMMON   BANK0   BANK1   BANK3   BANK2
  8925 ;;      Params:         0       4       0       0       0
  8926 ;;      Locals:         0       2       0       0       0
  8927 ;;      Temps:          0       0       0       0       0
  8928 ;;      Totals:         0       6       0       0       0
  8929 ;;Total ram usage:        6 bytes
  8930 ;; Hardware stack levels used: 1
  8931 ;; Hardware stack levels required when called: 1
  8932 ;; This function calls:
  8933 ;;		___fldiv
  8934 ;;		___xxtofl
  8935 ;;		_read_adc_channel
  8936 ;; This function is called by:
  8937 ;;		_interrupt_rutine
  8938 ;; This function uses a non-reentrant model
  8939 ;;
  8940                           
  8941  0000'                    _read_temperature:	
  8942                           ;psect for function _read_temperature
  8943                           
  8944  0000'                    i1l4224:	
  8945                           ;incstack = 0
  8946                           ; Regs used in _read_temperature: [wreg+status,2+status,0+btemp+1+pclath+cstack]
  8947                           
  8948                           
  8949                           ;src/sensors/temperature.c: 5:     ADCON0bits.CHS = 0b1010;
  8950  0000' 1283               	bcf	3,5	;RP0=0, select bank0
  8951  0001' 1303               	bcf	3,6	;RP1=0, select bank0
  8952  0002' 081F               	movf	31,w	;volatile
  8953  0003' 39C3               	andlw	-61
  8954  0004' 3828               	iorlw	40
  8955  0005' 009F               	movwf	31	;volatile
  8956  0006'                    i1l4226:
  8957                           
  8958                           ;src/sensors/temperature.c: 6:     uint16_t adc_value = read_adc_channel();
  8959  0006' 120A' 118A' 2000' 120A' 118A' 	fcall	_read_adc_channel
  8960  000B' 0801'              	movf	?_read_adc_channel+1,w
  8961  000C' 1283               	bcf	3,5	;RP0=0, select bank0
  8962  000D' 1303               	bcf	3,6	;RP1=0, select bank0
  8963  000E' 00B3'              	movwf	read_temperature@adc_value+1
  8964  000F' 0800'              	movf	?_read_adc_channel,w
  8965  0010' 00B2'              	movwf	read_temperature@adc_value
  8966  0011'                    i1l4228:
  8967                           
  8968                           ;src/sensors/temperature.c: 7:     return (float)adc_value / 10;
  8969  0011' 3041               	movlw	65
  8970  0012' 0097'              	movwf	___fldiv@a+3
  8971  0013' 3020               	movlw	32
  8972  0014' 0096'              	movwf	___fldiv@a+2
  8973  0015' 3000               	movlw	0
  8974  0016' 0095'              	movwf	___fldiv@a+1
  8975  0017' 3000               	movlw	0
  8976  0018' 0094'              	movwf	___fldiv@a
  8977  0019' 0832'              	movf	read_temperature@adc_value,w
  8978  001A' 0080'              	movwf	___xxtofl@val
  8979  001B' 0833'              	movf	read_temperature@adc_value+1,w
  8980  001C' 0081'              	movwf	___xxtofl@val+1
  8981  001D' 0182'              	clrf	___xxtofl@val+2
  8982  001E' 0183'              	clrf	___xxtofl@val+3
  8983  001F' 3000               	movlw	0
  8984  0020' 120A' 118A' 2000' 120A' 118A' 	fcall	___xxtofl
  8985  0025' 0803'              	movf	?___xxtofl+3,w
  8986  0026' 1283               	bcf	3,5	;RP0=0, select bank0
  8987  0027' 1303               	bcf	3,6	;RP1=0, select bank0
  8988  0028' 009B'              	movwf	___fldiv@b+3
  8989  0029' 0802'              	movf	?___xxtofl+2,w
  8990  002A' 009A'              	movwf	___fldiv@b+2
  8991  002B' 0801'              	movf	?___xxtofl+1,w
  8992  002C' 0099'              	movwf	___fldiv@b+1
  8993  002D' 0800'              	movf	?___xxtofl,w
  8994  002E' 0098'              	movwf	___fldiv@b
  8995  002F' 120A' 118A' 2000' 120A' 118A' 	fcall	___fldiv
  8996  0034' 1283               	bcf	3,5	;RP0=0, select bank0
  8997  0035' 1303               	bcf	3,6	;RP1=0, select bank0
  8998  0036' 0817'              	movf	?___fldiv+3,w
  8999  0037' 00B1'              	movwf	?_read_temperature+3
  9000  0038' 0816'              	movf	?___fldiv+2,w
  9001  0039' 00B0'              	movwf	?_read_temperature+2
  9002  003A' 0815'              	movf	?___fldiv+1,w
  9003  003B' 00AF'              	movwf	?_read_temperature+1
  9004  003C' 0814'              	movf	?___fldiv,w
  9005  003D' 00AE'              	movwf	?_read_temperature
  9006  003E'                    i1l178:
  9007  003E' 0008               	return
  9008  003F'                    __end_of_read_temperature:
  9009                           
  9010                           	psect	text47
  9011  0000'                    __ptext47:	
  9012 ;; *************** function _read_noise_channel *****************
  9013 ;; Defined at:
  9014 ;;		line 3 in file "src/sensors/noise.c"
  9015 ;; Parameters:    Size  Location     Type
  9016 ;;		None
  9017 ;; Auto vars:     Size  Location     Type
  9018 ;;		None
  9019 ;; Return value:  Size  Location     Type
  9020 ;;                  2   10[COMMON] unsigned short 
  9021 ;; Registers used:
  9022 ;;		wreg, status,2, status,0, pclath, cstack
  9023 ;; Tracked objects:
  9024 ;;		On entry : 0/0
  9025 ;;		On exit  : 0/0
  9026 ;;		Unchanged: 0/0
  9027 ;; Data sizes:     COMMON   BANK0   BANK1   BANK3   BANK2
  9028 ;;      Params:         2       0       0       0       0
  9029 ;;      Locals:         0       0       0       0       0
  9030 ;;      Temps:          0       0       0       0       0
  9031 ;;      Totals:         2       0       0       0       0
  9032 ;;Total ram usage:        2 bytes
  9033 ;; Hardware stack levels used: 1
  9034 ;; Hardware stack levels required when called: 1
  9035 ;; This function calls:
  9036 ;;		_read_adc_channel
  9037 ;; This function is called by:
  9038 ;;		_interrupt_rutine
  9039 ;; This function uses a non-reentrant model
  9040 ;;
  9041                           
  9042  0000'                    _read_noise_channel:	
  9043                           ;psect for function _read_noise_channel
  9044                           
  9045  0000'                    i1l4212:	
  9046                           ;incstack = 0
  9047                           ; Regs used in _read_noise_channel: [wreg+status,2+status,0+pclath+cstack]
  9048                           
  9049                           
  9050                           ;src/sensors/noise.c: 5:     ADCON0bits.CHS = 0b1000;
  9051  0000' 1283               	bcf	3,5	;RP0=0, select bank0
  9052  0001' 1303               	bcf	3,6	;RP1=0, select bank0
  9053  0002' 081F               	movf	31,w	;volatile
  9054  0003' 39C3               	andlw	-61
  9055  0004' 3820               	iorlw	32
  9056  0005' 009F               	movwf	31	;volatile
  9057  0006'                    i1l4214:
  9058                           
  9059                           ;src/sensors/noise.c: 6:     return read_adc_channel ();
  9060  0006' 120A' 118A' 2000' 120A' 118A' 	fcall	_read_adc_channel
  9061  000B' 0801'              	movf	?_read_adc_channel+1,w
  9062  000C' 008B'              	movwf	?_read_noise_channel+1
  9063  000D' 0800'              	movf	?_read_adc_channel,w
  9064  000E' 008A'              	movwf	?_read_noise_channel
  9065  000F'                    i1l164:
  9066  000F' 0008               	return
  9067  0010'                    __end_of_read_noise_channel:
  9068                           
  9069                           	psect	text48
  9070  0000'                    __ptext48:	
  9071 ;; *************** function _read_luminosity *****************
  9072 ;; Defined at:
  9073 ;;		line 29 in file "src/sensors/luminosity.c"
  9074 ;; Parameters:    Size  Location     Type
  9075 ;;		None
  9076 ;; Auto vars:     Size  Location     Type
  9077 ;;  lum             2   34[BANK0 ] unsigned short 
  9078 ;;  ack             1    0        unsigned char 
  9079 ;; Return value:  Size  Location     Type
  9080 ;;                  4   26[BANK0 ] float 
  9081 ;; Registers used:
  9082 ;;		wreg, status,2, status,0, btemp+1, pclath, cstack
  9083 ;; Tracked objects:
  9084 ;;		On entry : 0/0
  9085 ;;		On exit  : 0/0
  9086 ;;		Unchanged: 0/0
  9087 ;; Data sizes:     COMMON   BANK0   BANK1   BANK3   BANK2
  9088 ;;      Params:         0       4       0       0       0
  9089 ;;      Locals:         0       2       0       0       0
  9090 ;;      Temps:          0       4       0       0       0
  9091 ;;      Totals:         0      10       0       0       0
  9092 ;;Total ram usage:       10 bytes
  9093 ;; Hardware stack levels used: 1
  9094 ;; Hardware stack levels required when called: 2
  9095 ;; This function calls:
  9096 ;;		___flmul
  9097 ;;		___xxtofl
  9098 ;;		_i2c_read
  9099 ;;		i1_i2c_start
  9100 ;;		i1_i2c_stop
  9101 ;; This function is called by:
  9102 ;;		_interrupt_rutine
  9103 ;; This function uses a non-reentrant model
  9104 ;;
  9105                           
  9106  0000'                    _read_luminosity:	
  9107                           ;psect for function _read_luminosity
  9108                           
  9109  0000'                    i1l4200:	
  9110                           ;incstack = 0
  9111                           ; Regs used in _read_luminosity: [wreg+status,2+status,0+btemp+1+pclath+cstack]
  9112                           
  9113  0000'                    i1l4202:
  9114                           
  9115                           ;src/sensors/luminosity.c: 34:     i2c_start();
  9116  0000' 120A' 118A' 2000' 120A' 118A' 	fcall	i1_i2c_start
  9117  0005'                    i1l4204:
  9118                           
  9119                           ;src/sensors/luminosity.c: 35:     lum = i2c_read(ack);
  9120  0005' 3001               	movlw	1
  9121  0006' 120A' 118A' 2000' 120A' 118A' 	fcall	_i2c_read
  9122  000B' 1283               	bcf	3,5	;RP0=0, select bank0
  9123  000C' 1303               	bcf	3,6	;RP1=0, select bank0
  9124  000D' 009E'              	movwf	??_read_luminosity
  9125  000E' 019F'              	clrf	??_read_luminosity+1
  9126  000F' 081E'              	movf	??_read_luminosity,w
  9127  0010' 00A2'              	movwf	read_luminosity@lum
  9128  0011' 081F'              	movf	??_read_luminosity+1,w
  9129  0012' 00A3'              	movwf	read_luminosity@lum+1
  9130  0013'                    i1l4206:
  9131                           
  9132                           ;src/sensors/luminosity.c: 36:     lum = (lum << 8) | i2c_read(ack);
  9133  0013' 3001               	movlw	1
  9134  0014' 120A' 118A' 2000' 120A' 118A' 	fcall	_i2c_read
  9135  0019' 1283               	bcf	3,5	;RP0=0, select bank0
  9136  001A' 1303               	bcf	3,6	;RP1=0, select bank0
  9137  001B' 009E'              	movwf	??_read_luminosity
  9138  001C' 019F'              	clrf	??_read_luminosity+1
  9139  001D' 0822'              	movf	read_luminosity@lum,w
  9140  001E' 00A1'              	movwf	??_read_luminosity+3
  9141  001F' 01A0'              	clrf	??_read_luminosity+2
  9142  0020' 081E'              	movf	??_read_luminosity,w
  9143  0021' 0420'              	iorwf	??_read_luminosity+2,w
  9144  0022' 00A2'              	movwf	read_luminosity@lum
  9145  0023' 081F'              	movf	??_read_luminosity+1,w
  9146  0024' 0421'              	iorwf	??_read_luminosity+3,w
  9147  0025' 00A3'              	movwf	read_luminosity@lum+1
  9148                           
  9149                           ;src/sensors/luminosity.c: 37:     i2c_stop();
  9150  0026' 120A' 118A' 2000' 120A' 118A' 	fcall	i1_i2c_stop
  9151  002B'                    i1l4208:
  9152                           
  9153                           ;src/sensors/luminosity.c: 39:     return (float)((int)lum * 0.4);
  9154  002B' 303E               	movlw	62
  9155  002C' 1283               	bcf	3,5	;RP0=0, select bank0
  9156  002D' 1303               	bcf	3,6	;RP1=0, select bank0
  9157  002E' 0083'              	movwf	___flmul@b+3
  9158  002F' 30CC               	movlw	204
  9159  0030' 0082'              	movwf	___flmul@b+2
  9160  0031' 30CC               	movlw	204
  9161  0032' 0081'              	movwf	___flmul@b+1
  9162  0033' 30CD               	movlw	205
  9163  0034' 0080'              	movwf	___flmul@b
  9164  0035' 0822'              	movf	read_luminosity@lum,w
  9165  0036' 0080'              	movwf	___xxtofl@val
  9166  0037' 0823'              	movf	read_luminosity@lum+1,w
  9167  0038' 0081'              	movwf	___xxtofl@val+1
  9168  0039' 3000               	movlw	0
  9169  003A' 1B81'              	btfsc	___xxtofl@val+1,7
  9170  003B' 30FF               	movlw	255
  9171  003C' 0082'              	movwf	___xxtofl@val+2
  9172  003D' 0083'              	movwf	___xxtofl@val+3
  9173  003E' 3001               	movlw	1
  9174  003F' 120A' 118A' 2000' 120A' 118A' 	fcall	___xxtofl
  9175  0044' 0803'              	movf	?___xxtofl+3,w
  9176  0045' 1283               	bcf	3,5	;RP0=0, select bank0
  9177  0046' 1303               	bcf	3,6	;RP1=0, select bank0
  9178  0047' 0087'              	movwf	___flmul@a+3
  9179  0048' 0802'              	movf	?___xxtofl+2,w
  9180  0049' 0086'              	movwf	___flmul@a+2
  9181  004A' 0801'              	movf	?___xxtofl+1,w
  9182  004B' 0085'              	movwf	___flmul@a+1
  9183  004C' 0800'              	movf	?___xxtofl,w
  9184  004D' 0084'              	movwf	___flmul@a
  9185  004E' 120A' 118A' 2000' 120A' 118A' 	fcall	___flmul
  9186  0053' 1283               	bcf	3,5	;RP0=0, select bank0
  9187  0054' 1303               	bcf	3,6	;RP1=0, select bank0
  9188  0055' 0803'              	movf	?___flmul+3,w
  9189  0056' 009D'              	movwf	?_read_luminosity+3
  9190  0057' 0802'              	movf	?___flmul+2,w
  9191  0058' 009C'              	movwf	?_read_luminosity+2
  9192  0059' 0801'              	movf	?___flmul+1,w
  9193  005A' 009B'              	movwf	?_read_luminosity+1
  9194  005B' 0800'              	movf	?___flmul,w
  9195  005C' 009A'              	movwf	?_read_luminosity
  9196  005D'                    i1l155:
  9197  005D' 0008               	return
  9198  005E'                    __end_of_read_luminosity:
  9199                           
  9200                           	psect	text49
  9201  0000'                    __ptext49:	
  9202 ;; *************** function ___flmul *****************
  9203 ;; Defined at:
  9204 ;;		line 8 in file "/opt/microchip/xc8/v2.45/pic/sources/c99/common/sprcmul.c"
  9205 ;; Parameters:    Size  Location     Type
  9206 ;;  b               4    0[BANK0 ] float 
  9207 ;;  a               4    4[BANK0 ] float 
  9208 ;; Auto vars:     Size  Location     Type
  9209 ;;  prod            4   20[BANK0 ] struct .
  9210 ;;  grs             4   14[BANK0 ] unsigned long 
  9211 ;;  temp            2   24[BANK0 ] struct .
  9212 ;;  bexp            1   19[BANK0 ] unsigned char 
  9213 ;;  aexp            1   18[BANK0 ] unsigned char 
  9214 ;;  sign            1   13[BANK0 ] unsigned char 
  9215 ;; Return value:  Size  Location     Type
  9216 ;;                  4    0[BANK0 ] unsigned char 
  9217 ;; Registers used:
  9218 ;;		wreg, status,2, status,0, btemp+1, pclath, cstack
  9219 ;; Tracked objects:
  9220 ;;		On entry : 0/0
  9221 ;;		On exit  : 0/0
  9222 ;;		Unchanged: 0/0
  9223 ;; Data sizes:     COMMON   BANK0   BANK1   BANK3   BANK2
  9224 ;;      Params:         0       8       0       0       0
  9225 ;;      Locals:         0      13       0       0       0
  9226 ;;      Temps:          0       5       0       0       0
  9227 ;;      Totals:         0      26       0       0       0
  9228 ;;Total ram usage:       26 bytes
  9229 ;; Hardware stack levels used: 1
  9230 ;; Hardware stack levels required when called: 1
  9231 ;; This function calls:
  9232 ;;		__Umul8_16
  9233 ;; This function is called by:
  9234 ;;		_send_PWM_sign
  9235 ;;		_read_luminosity
  9236 ;;		_efgtoa
  9237 ;; This function uses a non-reentrant model
  9238 ;;
  9239                           
  9240  0000'                    ___flmul:	
  9241                           ;psect for function ___flmul
  9242                           
  9243  0000'                    i1l3282:	
  9244                           ;incstack = 0
  9245 ;; hardware stack exceeded
  9246                           ; Regs used in ___flmul: [wreg+status,2+status,0+btemp+1+pclath+cstack]
  9247                           
  9248  0000' 1283               	bcf	3,5	;RP0=0, select bank0
  9249  0001' 1303               	bcf	3,6	;RP1=0, select bank0
  9250  0002' 0803'              	movf	___flmul@b+3,w
  9251  0003' 3980               	andlw	128
  9252  0004' 008D'              	movwf	___flmul@sign
  9253  0005'                    i1l3284:
  9254  0005' 0803'              	movf	___flmul@b+3,w
  9255  0006' 0088'              	movwf	??___flmul
  9256  0007' 0708'              	addwf	??___flmul,w
  9257  0008' 0093'              	movwf	___flmul@bexp
  9258  0009'                    i1l3286:
  9259  0009' 1F82'              	btfss	___flmul@b+2,7
  9260  000A' 2800'              	goto	u414_21
  9261  000B' 2800'              	goto	u414_20
  9262  000C'                    u414_21:
  9263  000C' 2800'              	goto	i1l3290
  9264  000D'                    u414_20:
  9265  000D'                    i1l3288:
  9266  000D' 1413'              	bsf	___flmul@bexp,0
  9267  000E'                    i1l3290:
  9268  000E' 0813'              	movf	___flmul@bexp,w
  9269  000F' 1903               	btfsc	3,2
  9270  0010' 2800'              	goto	u415_21
  9271  0011' 2800'              	goto	u415_20
  9272  0012'                    u415_21:
  9273  0012' 2800'              	goto	i1l3298
  9274  0013'                    u415_20:
  9275  0013'                    i1l3292:
  9276  0013' 0A13'              	incf	___flmul@bexp,w
  9277  0014' 1D03               	btfss	3,2
  9278  0015' 2800'              	goto	u416_21
  9279  0016' 2800'              	goto	u416_20
  9280  0017'                    u416_21:
  9281  0017' 2800'              	goto	i1l3296
  9282  0018'                    u416_20:
  9283  0018'                    i1l3294:
  9284  0018' 3000               	movlw	0
  9285  0019' 0083'              	movwf	___flmul@b+3
  9286  001A' 3000               	movlw	0
  9287  001B' 0082'              	movwf	___flmul@b+2
  9288  001C' 3000               	movlw	0
  9289  001D' 0081'              	movwf	___flmul@b+1
  9290  001E' 3000               	movlw	0
  9291  001F' 0080'              	movwf	___flmul@b
  9292  0020'                    i1l3296:
  9293  0020' 1782'              	bsf	___flmul@b+2,7
  9294  0021' 2800'              	goto	i1l3300
  9295  0022'                    i1l3298:
  9296  0022' 3000               	movlw	0
  9297  0023' 0083'              	movwf	___flmul@b+3
  9298  0024' 3000               	movlw	0
  9299  0025' 0082'              	movwf	___flmul@b+2
  9300  0026' 3000               	movlw	0
  9301  0027' 0081'              	movwf	___flmul@b+1
  9302  0028' 3000               	movlw	0
  9303  0029' 0080'              	movwf	___flmul@b
  9304  002A'                    i1l3300:
  9305  002A' 0807'              	movf	___flmul@a+3,w
  9306  002B' 3980               	andlw	128
  9307  002C' 0088'              	movwf	??___flmul
  9308  002D' 0808'              	movf	??___flmul,w
  9309  002E' 068D'              	xorwf	___flmul@sign,f
  9310  002F'                    i1l3302:
  9311  002F' 0807'              	movf	___flmul@a+3,w
  9312  0030' 0088'              	movwf	??___flmul
  9313  0031' 0708'              	addwf	??___flmul,w
  9314  0032' 0092'              	movwf	___flmul@aexp
  9315  0033'                    i1l3304:
  9316  0033' 1F86'              	btfss	___flmul@a+2,7
  9317  0034' 2800'              	goto	u417_21
  9318  0035' 2800'              	goto	u417_20
  9319  0036'                    u417_21:
  9320  0036' 2800'              	goto	i1l3308
  9321  0037'                    u417_20:
  9322  0037'                    i1l3306:
  9323  0037' 1412'              	bsf	___flmul@aexp,0
  9324  0038'                    i1l3308:
  9325  0038' 0812'              	movf	___flmul@aexp,w
  9326  0039' 1903               	btfsc	3,2
  9327  003A' 2800'              	goto	u418_21
  9328  003B' 2800'              	goto	u418_20
  9329  003C'                    u418_21:
  9330  003C' 2800'              	goto	i1l3316
  9331  003D'                    u418_20:
  9332  003D'                    i1l3310:
  9333  003D' 0A12'              	incf	___flmul@aexp,w
  9334  003E' 1D03               	btfss	3,2
  9335  003F' 2800'              	goto	u419_21
  9336  0040' 2800'              	goto	u419_20
  9337  0041'                    u419_21:
  9338  0041' 2800'              	goto	i1l3314
  9339  0042'                    u419_20:
  9340  0042'                    i1l3312:
  9341  0042' 3000               	movlw	0
  9342  0043' 0087'              	movwf	___flmul@a+3
  9343  0044' 3000               	movlw	0
  9344  0045' 0086'              	movwf	___flmul@a+2
  9345  0046' 3000               	movlw	0
  9346  0047' 0085'              	movwf	___flmul@a+1
  9347  0048' 3000               	movlw	0
  9348  0049' 0084'              	movwf	___flmul@a
  9349  004A'                    i1l3314:
  9350  004A' 1786'              	bsf	___flmul@a+2,7
  9351  004B' 2800'              	goto	i1l3318
  9352  004C'                    i1l3316:
  9353  004C' 3000               	movlw	0
  9354  004D' 0087'              	movwf	___flmul@a+3
  9355  004E' 3000               	movlw	0
  9356  004F' 0086'              	movwf	___flmul@a+2
  9357  0050' 3000               	movlw	0
  9358  0051' 0085'              	movwf	___flmul@a+1
  9359  0052' 3000               	movlw	0
  9360  0053' 0084'              	movwf	___flmul@a
  9361  0054'                    i1l3318:
  9362  0054' 0812'              	movf	___flmul@aexp,w
  9363  0055' 1903               	btfsc	3,2
  9364  0056' 2800'              	goto	u420_21
  9365  0057' 2800'              	goto	u420_20
  9366  0058'                    u420_21:
  9367  0058' 2800'              	goto	i1l3322
  9368  0059'                    u420_20:
  9369  0059'                    i1l3320:
  9370  0059' 0813'              	movf	___flmul@bexp,w
  9371  005A' 1D03               	btfss	3,2
  9372  005B' 2800'              	goto	u421_21
  9373  005C' 2800'              	goto	u421_20
  9374  005D'                    u421_21:
  9375  005D' 2800'              	goto	i1l3326
  9376  005E'                    u421_20:
  9377  005E'                    i1l3322:
  9378  005E' 3000               	movlw	0
  9379  005F' 0083'              	movwf	?___flmul+3
  9380  0060' 3000               	movlw	0
  9381  0061' 0082'              	movwf	?___flmul+2
  9382  0062' 3000               	movlw	0
  9383  0063' 0081'              	movwf	?___flmul+1
  9384  0064' 3000               	movlw	0
  9385  0065' 0080'              	movwf	?___flmul
  9386  0066' 2800'              	goto	i1l773
  9387  0067'                    i1l3326:
  9388  0067' 0800'              	movf	___flmul@b,w
  9389  0068' 0080'              	movwf	__Umul8_16@multiplicand
  9390  0069' 0806'              	movf	___flmul@a+2,w
  9391  006A' 120A' 118A' 2000' 120A' 118A' 	fcall	__Umul8_16
  9392  006F' 0801'              	movf	?__Umul8_16+1,w
  9393  0070' 1283               	bcf	3,5	;RP0=0, select bank0
  9394  0071' 1303               	bcf	3,6	;RP1=0, select bank0
  9395  0072' 0099'              	movwf	___flmul@temp+1
  9396  0073' 0800'              	movf	?__Umul8_16,w
  9397  0074' 0098'              	movwf	___flmul@temp
  9398  0075'                    i1l3328:
  9399  0075' 0818'              	movf	___flmul@temp,w
  9400  0076' 0088'              	movwf	??___flmul
  9401  0077' 0189'              	clrf	??___flmul+1
  9402  0078' 018A'              	clrf	??___flmul+2
  9403  0079' 018B'              	clrf	??___flmul+3
  9404  007A' 080B'              	movf	??___flmul+3,w
  9405  007B' 0091'              	movwf	___flmul@grs+3
  9406  007C' 080A'              	movf	??___flmul+2,w
  9407  007D' 0090'              	movwf	___flmul@grs+2
  9408  007E' 0809'              	movf	??___flmul+1,w
  9409  007F' 008F'              	movwf	___flmul@grs+1
  9410  0080' 0808'              	movf	??___flmul,w
  9411  0081' 008E'              	movwf	___flmul@grs
  9412  0082'                    i1l3330:
  9413  0082' 0819'              	movf	___flmul@temp+1,w
  9414  0083' 0088'              	movwf	??___flmul
  9415  0084' 0189'              	clrf	??___flmul+1
  9416  0085' 018A'              	clrf	??___flmul+2
  9417  0086' 018B'              	clrf	??___flmul+3
  9418  0087' 080B'              	movf	??___flmul+3,w
  9419  0088' 0097'              	movwf	___flmul@prod+3
  9420  0089' 080A'              	movf	??___flmul+2,w
  9421  008A' 0096'              	movwf	___flmul@prod+2
  9422  008B' 0809'              	movf	??___flmul+1,w
  9423  008C' 0095'              	movwf	___flmul@prod+1
  9424  008D' 0808'              	movf	??___flmul,w
  9425  008E' 0094'              	movwf	___flmul@prod
  9426  008F' 0801'              	movf	___flmul@b+1,w
  9427  0090' 0080'              	movwf	__Umul8_16@multiplicand
  9428  0091' 0805'              	movf	___flmul@a+1,w
  9429  0092' 120A' 118A' 2000' 120A' 118A' 	fcall	__Umul8_16
  9430  0097' 0801'              	movf	?__Umul8_16+1,w
  9431  0098' 1283               	bcf	3,5	;RP0=0, select bank0
  9432  0099' 1303               	bcf	3,6	;RP1=0, select bank0
  9433  009A' 0099'              	movwf	___flmul@temp+1
  9434  009B' 0800'              	movf	?__Umul8_16,w
  9435  009C' 0098'              	movwf	___flmul@temp
  9436  009D'                    i1l3332:
  9437  009D' 0818'              	movf	___flmul@temp,w
  9438  009E' 0088'              	movwf	??___flmul
  9439  009F' 0189'              	clrf	??___flmul+1
  9440  00A0' 018A'              	clrf	??___flmul+2
  9441  00A1' 018B'              	clrf	??___flmul+3
  9442  00A2' 0808'              	movf	??___flmul,w
  9443  00A3' 078E'              	addwf	___flmul@grs,f
  9444  00A4' 0809'              	movf	??___flmul+1,w
  9445  00A5' 1103               	clrz
  9446  00A6' 1803               	skipnc
  9447  00A7' 3E01               	addlw	1
  9448  00A8' 1903               	skipnz
  9449  00A9' 2800'              	goto	u422_21
  9450  00AA' 078F'              	addwf	___flmul@grs+1,f
  9451  00AB'                    u422_21:
  9452  00AB' 080A'              	movf	??___flmul+2,w
  9453  00AC' 1103               	clrz
  9454  00AD' 1803               	skipnc
  9455  00AE' 3E01               	addlw	1
  9456  00AF' 1903               	skipnz
  9457  00B0' 2800'              	goto	u422_22
  9458  00B1' 0790'              	addwf	___flmul@grs+2,f
  9459  00B2'                    u422_22:
  9460  00B2' 080B'              	movf	??___flmul+3,w
  9461  00B3' 1103               	clrz
  9462  00B4' 1803               	skipnc
  9463  00B5' 3E01               	addlw	1
  9464  00B6' 1903               	skipnz
  9465  00B7' 2800'              	goto	u422_23
  9466  00B8' 0791'              	addwf	___flmul@grs+3,f
  9467  00B9'                    u422_23:
  9468  00B9'                    i1l3334:
  9469  00B9' 0819'              	movf	___flmul@temp+1,w
  9470  00BA' 0088'              	movwf	??___flmul
  9471  00BB' 0189'              	clrf	??___flmul+1
  9472  00BC' 018A'              	clrf	??___flmul+2
  9473  00BD' 018B'              	clrf	??___flmul+3
  9474  00BE' 0808'              	movf	??___flmul,w
  9475  00BF' 0794'              	addwf	___flmul@prod,f
  9476  00C0' 0809'              	movf	??___flmul+1,w
  9477  00C1' 1103               	clrz
  9478  00C2' 1803               	skipnc
  9479  00C3' 3E01               	addlw	1
  9480  00C4' 1903               	skipnz
  9481  00C5' 2800'              	goto	u423_21
  9482  00C6' 0795'              	addwf	___flmul@prod+1,f
  9483  00C7'                    u423_21:
  9484  00C7' 080A'              	movf	??___flmul+2,w
  9485  00C8' 1103               	clrz
  9486  00C9' 1803               	skipnc
  9487  00CA' 3E01               	addlw	1
  9488  00CB' 1903               	skipnz
  9489  00CC' 2800'              	goto	u423_22
  9490  00CD' 0796'              	addwf	___flmul@prod+2,f
  9491  00CE'                    u423_22:
  9492  00CE' 080B'              	movf	??___flmul+3,w
  9493  00CF' 1103               	clrz
  9494  00D0' 1803               	skipnc
  9495  00D1' 3E01               	addlw	1
  9496  00D2' 1903               	skipnz
  9497  00D3' 2800'              	goto	u423_23
  9498  00D4' 0797'              	addwf	___flmul@prod+3,f
  9499  00D5'                    u423_23:
  9500  00D5' 0802'              	movf	___flmul@b+2,w
  9501  00D6' 0080'              	movwf	__Umul8_16@multiplicand
  9502  00D7' 0804'              	movf	___flmul@a,w
  9503  00D8' 120A' 118A' 2000' 120A' 118A' 	fcall	__Umul8_16
  9504  00DD' 0801'              	movf	?__Umul8_16+1,w
  9505  00DE' 1283               	bcf	3,5	;RP0=0, select bank0
  9506  00DF' 1303               	bcf	3,6	;RP1=0, select bank0
  9507  00E0' 0099'              	movwf	___flmul@temp+1
  9508  00E1' 0800'              	movf	?__Umul8_16,w
  9509  00E2' 0098'              	movwf	___flmul@temp
  9510  00E3'                    i1l3336:
  9511  00E3' 0818'              	movf	___flmul@temp,w
  9512  00E4' 0088'              	movwf	??___flmul
  9513  00E5' 0189'              	clrf	??___flmul+1
  9514  00E6' 018A'              	clrf	??___flmul+2
  9515  00E7' 018B'              	clrf	??___flmul+3
  9516  00E8' 0808'              	movf	??___flmul,w
  9517  00E9' 078E'              	addwf	___flmul@grs,f
  9518  00EA' 0809'              	movf	??___flmul+1,w
  9519  00EB' 1103               	clrz
  9520  00EC' 1803               	skipnc
  9521  00ED' 3E01               	addlw	1
  9522  00EE' 1903               	skipnz
  9523  00EF' 2800'              	goto	u424_21
  9524  00F0' 078F'              	addwf	___flmul@grs+1,f
  9525  00F1'                    u424_21:
  9526  00F1' 080A'              	movf	??___flmul+2,w
  9527  00F2' 1103               	clrz
  9528  00F3' 1803               	skipnc
  9529  00F4' 3E01               	addlw	1
  9530  00F5' 1903               	skipnz
  9531  00F6' 2800'              	goto	u424_22
  9532  00F7' 0790'              	addwf	___flmul@grs+2,f
  9533  00F8'                    u424_22:
  9534  00F8' 080B'              	movf	??___flmul+3,w
  9535  00F9' 1103               	clrz
  9536  00FA' 1803               	skipnc
  9537  00FB' 3E01               	addlw	1
  9538  00FC' 1903               	skipnz
  9539  00FD' 2800'              	goto	u424_23
  9540  00FE' 0791'              	addwf	___flmul@grs+3,f
  9541  00FF'                    u424_23:
  9542  00FF'                    i1l3338:
  9543  00FF' 0819'              	movf	___flmul@temp+1,w
  9544  0100' 0088'              	movwf	??___flmul
  9545  0101' 0189'              	clrf	??___flmul+1
  9546  0102' 018A'              	clrf	??___flmul+2
  9547  0103' 018B'              	clrf	??___flmul+3
  9548  0104' 0808'              	movf	??___flmul,w
  9549  0105' 0794'              	addwf	___flmul@prod,f
  9550  0106' 0809'              	movf	??___flmul+1,w
  9551  0107' 1103               	clrz
  9552  0108' 1803               	skipnc
  9553  0109' 3E01               	addlw	1
  9554  010A' 1903               	skipnz
  9555  010B' 2800'              	goto	u425_21
  9556  010C' 0795'              	addwf	___flmul@prod+1,f
  9557  010D'                    u425_21:
  9558  010D' 080A'              	movf	??___flmul+2,w
  9559  010E' 1103               	clrz
  9560  010F' 1803               	skipnc
  9561  0110' 3E01               	addlw	1
  9562  0111' 1903               	skipnz
  9563  0112' 2800'              	goto	u425_22
  9564  0113' 0796'              	addwf	___flmul@prod+2,f
  9565  0114'                    u425_22:
  9566  0114' 080B'              	movf	??___flmul+3,w
  9567  0115' 1103               	clrz
  9568  0116' 1803               	skipnc
  9569  0117' 3E01               	addlw	1
  9570  0118' 1903               	skipnz
  9571  0119' 2800'              	goto	u425_23
  9572  011A' 0797'              	addwf	___flmul@prod+3,f
  9573  011B'                    u425_23:
  9574  011B'                    i1l3340:
  9575  011B' 3008               	movlw	8
  9576  011C' 0088'              	movwf	??___flmul
  9577  011D'                    u426_25:
  9578  011D' 1003               	clrc
  9579  011E' 0D8E'              	rlf	___flmul@grs,f
  9580  011F' 0D8F'              	rlf	___flmul@grs+1,f
  9581  0120' 0D90'              	rlf	___flmul@grs+2,f
  9582  0121' 0D91'              	rlf	___flmul@grs+3,f
  9583  0122' 0B88'              	decfsz	??___flmul,f
  9584  0123' 2800'              	goto	u426_25
  9585  0124'                    i1l3342:
  9586  0124' 0801'              	movf	___flmul@b+1,w
  9587  0125' 0080'              	movwf	__Umul8_16@multiplicand
  9588  0126' 0804'              	movf	___flmul@a,w
  9589  0127' 120A' 118A' 2000' 120A' 118A' 	fcall	__Umul8_16
  9590  012C' 0801'              	movf	?__Umul8_16+1,w
  9591  012D' 1283               	bcf	3,5	;RP0=0, select bank0
  9592  012E' 1303               	bcf	3,6	;RP1=0, select bank0
  9593  012F' 0099'              	movwf	___flmul@temp+1
  9594  0130' 0800'              	movf	?__Umul8_16,w
  9595  0131' 0098'              	movwf	___flmul@temp
  9596  0132'                    i1l3344:
  9597  0132' 0818'              	movf	___flmul@temp,w
  9598  0133' 0088'              	movwf	??___flmul
  9599  0134' 0819'              	movf	___flmul@temp+1,w
  9600  0135' 0089'              	movwf	??___flmul+1
  9601  0136' 018A'              	clrf	??___flmul+2
  9602  0137' 018B'              	clrf	??___flmul+3
  9603  0138' 0808'              	movf	??___flmul,w
  9604  0139' 078E'              	addwf	___flmul@grs,f
  9605  013A' 0809'              	movf	??___flmul+1,w
  9606  013B' 1103               	clrz
  9607  013C' 1803               	skipnc
  9608  013D' 3E01               	addlw	1
  9609  013E' 1903               	skipnz
  9610  013F' 2800'              	goto	u427_21
  9611  0140' 078F'              	addwf	___flmul@grs+1,f
  9612  0141'                    u427_21:
  9613  0141' 080A'              	movf	??___flmul+2,w
  9614  0142' 1103               	clrz
  9615  0143' 1803               	skipnc
  9616  0144' 3E01               	addlw	1
  9617  0145' 1903               	skipnz
  9618  0146' 2800'              	goto	u427_22
  9619  0147' 0790'              	addwf	___flmul@grs+2,f
  9620  0148'                    u427_22:
  9621  0148' 080B'              	movf	??___flmul+3,w
  9622  0149' 1103               	clrz
  9623  014A' 1803               	skipnc
  9624  014B' 3E01               	addlw	1
  9625  014C' 1903               	skipnz
  9626  014D' 2800'              	goto	u427_23
  9627  014E' 0791'              	addwf	___flmul@grs+3,f
  9628  014F'                    u427_23:
  9629  014F'                    i1l3346:
  9630  014F' 0800'              	movf	___flmul@b,w
  9631  0150' 0080'              	movwf	__Umul8_16@multiplicand
  9632  0151' 0805'              	movf	___flmul@a+1,w
  9633  0152' 120A' 118A' 2000' 120A' 118A' 	fcall	__Umul8_16
  9634  0157' 0801'              	movf	?__Umul8_16+1,w
  9635  0158' 1283               	bcf	3,5	;RP0=0, select bank0
  9636  0159' 1303               	bcf	3,6	;RP1=0, select bank0
  9637  015A' 0099'              	movwf	___flmul@temp+1
  9638  015B' 0800'              	movf	?__Umul8_16,w
  9639  015C' 0098'              	movwf	___flmul@temp
  9640  015D'                    i1l3348:
  9641  015D' 0818'              	movf	___flmul@temp,w
  9642  015E' 0088'              	movwf	??___flmul
  9643  015F' 0819'              	movf	___flmul@temp+1,w
  9644  0160' 0089'              	movwf	??___flmul+1
  9645  0161' 018A'              	clrf	??___flmul+2
  9646  0162' 018B'              	clrf	??___flmul+3
  9647  0163' 0808'              	movf	??___flmul,w
  9648  0164' 078E'              	addwf	___flmul@grs,f
  9649  0165' 0809'              	movf	??___flmul+1,w
  9650  0166' 1103               	clrz
  9651  0167' 1803               	skipnc
  9652  0168' 3E01               	addlw	1
  9653  0169' 1903               	skipnz
  9654  016A' 2800'              	goto	u428_21
  9655  016B' 078F'              	addwf	___flmul@grs+1,f
  9656  016C'                    u428_21:
  9657  016C' 080A'              	movf	??___flmul+2,w
  9658  016D' 1103               	clrz
  9659  016E' 1803               	skipnc
  9660  016F' 3E01               	addlw	1
  9661  0170' 1903               	skipnz
  9662  0171' 2800'              	goto	u428_22
  9663  0172' 0790'              	addwf	___flmul@grs+2,f
  9664  0173'                    u428_22:
  9665  0173' 080B'              	movf	??___flmul+3,w
  9666  0174' 1103               	clrz
  9667  0175' 1803               	skipnc
  9668  0176' 3E01               	addlw	1
  9669  0177' 1903               	skipnz
  9670  0178' 2800'              	goto	u428_23
  9671  0179' 0791'              	addwf	___flmul@grs+3,f
  9672  017A'                    u428_23:
  9673  017A'                    i1l3350:
  9674  017A' 3008               	movlw	8
  9675  017B' 0088'              	movwf	??___flmul
  9676  017C'                    u429_25:
  9677  017C' 1003               	clrc
  9678  017D' 0D8E'              	rlf	___flmul@grs,f
  9679  017E' 0D8F'              	rlf	___flmul@grs+1,f
  9680  017F' 0D90'              	rlf	___flmul@grs+2,f
  9681  0180' 0D91'              	rlf	___flmul@grs+3,f
  9682  0181' 0B88'              	decfsz	??___flmul,f
  9683  0182' 2800'              	goto	u429_25
  9684  0183' 0800'              	movf	___flmul@b,w
  9685  0184' 0080'              	movwf	__Umul8_16@multiplicand
  9686  0185' 0804'              	movf	___flmul@a,w
  9687  0186' 120A' 118A' 2000' 120A' 118A' 	fcall	__Umul8_16
  9688  018B' 0801'              	movf	?__Umul8_16+1,w
  9689  018C' 1283               	bcf	3,5	;RP0=0, select bank0
  9690  018D' 1303               	bcf	3,6	;RP1=0, select bank0
  9691  018E' 0099'              	movwf	___flmul@temp+1
  9692  018F' 0800'              	movf	?__Umul8_16,w
  9693  0190' 0098'              	movwf	___flmul@temp
  9694  0191'                    i1l3352:
  9695  0191' 0818'              	movf	___flmul@temp,w
  9696  0192' 0088'              	movwf	??___flmul
  9697  0193' 0819'              	movf	___flmul@temp+1,w
  9698  0194' 0089'              	movwf	??___flmul+1
  9699  0195' 018A'              	clrf	??___flmul+2
  9700  0196' 018B'              	clrf	??___flmul+3
  9701  0197' 0808'              	movf	??___flmul,w
  9702  0198' 078E'              	addwf	___flmul@grs,f
  9703  0199' 0809'              	movf	??___flmul+1,w
  9704  019A' 1103               	clrz
  9705  019B' 1803               	skipnc
  9706  019C' 3E01               	addlw	1
  9707  019D' 1903               	skipnz
  9708  019E' 2800'              	goto	u430_21
  9709  019F' 078F'              	addwf	___flmul@grs+1,f
  9710  01A0'                    u430_21:
  9711  01A0' 080A'              	movf	??___flmul+2,w
  9712  01A1' 1103               	clrz
  9713  01A2' 1803               	skipnc
  9714  01A3' 3E01               	addlw	1
  9715  01A4' 1903               	skipnz
  9716  01A5' 2800'              	goto	u430_22
  9717  01A6' 0790'              	addwf	___flmul@grs+2,f
  9718  01A7'                    u430_22:
  9719  01A7' 080B'              	movf	??___flmul+3,w
  9720  01A8' 1103               	clrz
  9721  01A9' 1803               	skipnc
  9722  01AA' 3E01               	addlw	1
  9723  01AB' 1903               	skipnz
  9724  01AC' 2800'              	goto	u430_23
  9725  01AD' 0791'              	addwf	___flmul@grs+3,f
  9726  01AE'                    u430_23:
  9727  01AE'                    i1l3354:
  9728  01AE' 0801'              	movf	___flmul@b+1,w
  9729  01AF' 0080'              	movwf	__Umul8_16@multiplicand
  9730  01B0' 0806'              	movf	___flmul@a+2,w
  9731  01B1' 120A' 118A' 2000' 120A' 118A' 	fcall	__Umul8_16
  9732  01B6' 0801'              	movf	?__Umul8_16+1,w
  9733  01B7' 1283               	bcf	3,5	;RP0=0, select bank0
  9734  01B8' 1303               	bcf	3,6	;RP1=0, select bank0
  9735  01B9' 0099'              	movwf	___flmul@temp+1
  9736  01BA' 0800'              	movf	?__Umul8_16,w
  9737  01BB' 0098'              	movwf	___flmul@temp
  9738  01BC' 0818'              	movf	___flmul@temp,w
  9739  01BD' 0088'              	movwf	??___flmul
  9740  01BE' 0819'              	movf	___flmul@temp+1,w
  9741  01BF' 0089'              	movwf	??___flmul+1
  9742  01C0' 018A'              	clrf	??___flmul+2
  9743  01C1' 018B'              	clrf	??___flmul+3
  9744  01C2' 0808'              	movf	??___flmul,w
  9745  01C3' 0794'              	addwf	___flmul@prod,f
  9746  01C4' 0809'              	movf	??___flmul+1,w
  9747  01C5' 1103               	clrz
  9748  01C6' 1803               	skipnc
  9749  01C7' 3E01               	addlw	1
  9750  01C8' 1903               	skipnz
  9751  01C9' 2800'              	goto	u431_21
  9752  01CA' 0795'              	addwf	___flmul@prod+1,f
  9753  01CB'                    u431_21:
  9754  01CB' 080A'              	movf	??___flmul+2,w
  9755  01CC' 1103               	clrz
  9756  01CD' 1803               	skipnc
  9757  01CE' 3E01               	addlw	1
  9758  01CF' 1903               	skipnz
  9759  01D0' 2800'              	goto	u431_22
  9760  01D1' 0796'              	addwf	___flmul@prod+2,f
  9761  01D2'                    u431_22:
  9762  01D2' 080B'              	movf	??___flmul+3,w
  9763  01D3' 1103               	clrz
  9764  01D4' 1803               	skipnc
  9765  01D5' 3E01               	addlw	1
  9766  01D6' 1903               	skipnz
  9767  01D7' 2800'              	goto	u431_23
  9768  01D8' 0797'              	addwf	___flmul@prod+3,f
  9769  01D9'                    u431_23:
  9770  01D9'                    i1l3356:
  9771  01D9' 0802'              	movf	___flmul@b+2,w
  9772  01DA' 0080'              	movwf	__Umul8_16@multiplicand
  9773  01DB' 0805'              	movf	___flmul@a+1,w
  9774  01DC' 120A' 118A' 2000' 120A' 118A' 	fcall	__Umul8_16
  9775  01E1' 0801'              	movf	?__Umul8_16+1,w
  9776  01E2' 1283               	bcf	3,5	;RP0=0, select bank0
  9777  01E3' 1303               	bcf	3,6	;RP1=0, select bank0
  9778  01E4' 0099'              	movwf	___flmul@temp+1
  9779  01E5' 0800'              	movf	?__Umul8_16,w
  9780  01E6' 0098'              	movwf	___flmul@temp
  9781  01E7'                    i1l3358:
  9782  01E7' 0818'              	movf	___flmul@temp,w
  9783  01E8' 0088'              	movwf	??___flmul
  9784  01E9' 0819'              	movf	___flmul@temp+1,w
  9785  01EA' 0089'              	movwf	??___flmul+1
  9786  01EB' 018A'              	clrf	??___flmul+2
  9787  01EC' 018B'              	clrf	??___flmul+3
  9788  01ED' 0808'              	movf	??___flmul,w
  9789  01EE' 0794'              	addwf	___flmul@prod,f
  9790  01EF' 0809'              	movf	??___flmul+1,w
  9791  01F0' 1103               	clrz
  9792  01F1' 1803               	skipnc
  9793  01F2' 3E01               	addlw	1
  9794  01F3' 1903               	skipnz
  9795  01F4' 2800'              	goto	u432_21
  9796  01F5' 0795'              	addwf	___flmul@prod+1,f
  9797  01F6'                    u432_21:
  9798  01F6' 080A'              	movf	??___flmul+2,w
  9799  01F7' 1103               	clrz
  9800  01F8' 1803               	skipnc
  9801  01F9' 3E01               	addlw	1
  9802  01FA' 1903               	skipnz
  9803  01FB' 2800'              	goto	u432_22
  9804  01FC' 0796'              	addwf	___flmul@prod+2,f
  9805  01FD'                    u432_22:
  9806  01FD' 080B'              	movf	??___flmul+3,w
  9807  01FE' 1103               	clrz
  9808  01FF' 1803               	skipnc
  9809  0200' 3E01               	addlw	1
  9810  0201' 1903               	skipnz
  9811  0202' 2800'              	goto	u432_23
  9812  0203' 0797'              	addwf	___flmul@prod+3,f
  9813  0204'                    u432_23:
  9814  0204' 0802'              	movf	___flmul@b+2,w
  9815  0205' 0080'              	movwf	__Umul8_16@multiplicand
  9816  0206' 0806'              	movf	___flmul@a+2,w
  9817  0207' 120A' 118A' 2000' 120A' 118A' 	fcall	__Umul8_16
  9818  020C' 0801'              	movf	?__Umul8_16+1,w
  9819  020D' 1283               	bcf	3,5	;RP0=0, select bank0
  9820  020E' 1303               	bcf	3,6	;RP1=0, select bank0
  9821  020F' 0099'              	movwf	___flmul@temp+1
  9822  0210' 0800'              	movf	?__Umul8_16,w
  9823  0211' 0098'              	movwf	___flmul@temp
  9824  0212'                    i1l3360:
  9825  0212' 0818'              	movf	___flmul@temp,w
  9826  0213' 0088'              	movwf	??___flmul
  9827  0214' 0819'              	movf	___flmul@temp+1,w
  9828  0215' 0089'              	movwf	??___flmul+1
  9829  0216' 018A'              	clrf	??___flmul+2
  9830  0217' 018B'              	clrf	??___flmul+3
  9831  0218' 3008               	movlw	8
  9832  0219'                    u433_25:
  9833  0219' 1003               	clrc
  9834  021A' 0D88'              	rlf	??___flmul,f
  9835  021B' 0D89'              	rlf	??___flmul+1,f
  9836  021C' 0D8A'              	rlf	??___flmul+2,f
  9837  021D' 0D8B'              	rlf	??___flmul+3,f
  9838  021E'                    u433_20:
  9839  021E' 3EFF               	addlw	-1
  9840  021F' 1D03               	skipz
  9841  0220' 2800'              	goto	u433_25
  9842  0221' 0808'              	movf	??___flmul,w
  9843  0222' 0794'              	addwf	___flmul@prod,f
  9844  0223' 0809'              	movf	??___flmul+1,w
  9845  0224' 1103               	clrz
  9846  0225' 1803               	skipnc
  9847  0226' 3E01               	addlw	1
  9848  0227' 1903               	skipnz
  9849  0228' 2800'              	goto	u434_21
  9850  0229' 0795'              	addwf	___flmul@prod+1,f
  9851  022A'                    u434_21:
  9852  022A' 080A'              	movf	??___flmul+2,w
  9853  022B' 1103               	clrz
  9854  022C' 1803               	skipnc
  9855  022D' 3E01               	addlw	1
  9856  022E' 1903               	skipnz
  9857  022F' 2800'              	goto	u434_22
  9858  0230' 0796'              	addwf	___flmul@prod+2,f
  9859  0231'                    u434_22:
  9860  0231' 080B'              	movf	??___flmul+3,w
  9861  0232' 1103               	clrz
  9862  0233' 1803               	skipnc
  9863  0234' 3E01               	addlw	1
  9864  0235' 1903               	skipnz
  9865  0236' 2800'              	goto	u434_23
  9866  0237' 0797'              	addwf	___flmul@prod+3,f
  9867  0238'                    u434_23:
  9868  0238'                    i1l3362:
  9869  0238' 080E'              	movf	___flmul@grs,w
  9870  0239' 0088'              	movwf	??___flmul
  9871  023A' 080F'              	movf	___flmul@grs+1,w
  9872  023B' 0089'              	movwf	??___flmul+1
  9873  023C' 0810'              	movf	___flmul@grs+2,w
  9874  023D' 008A'              	movwf	??___flmul+2
  9875  023E' 0811'              	movf	___flmul@grs+3,w
  9876  023F' 008B'              	movwf	??___flmul+3
  9877  0240' 3018               	movlw	24
  9878  0241'                    u435_25:
  9879  0241' 1003               	clrc
  9880  0242' 0C8B'              	rrf	??___flmul+3,f
  9881  0243' 0C8A'              	rrf	??___flmul+2,f
  9882  0244' 0C89'              	rrf	??___flmul+1,f
  9883  0245' 0C88'              	rrf	??___flmul,f
  9884  0246'                    u435_20:
  9885  0246' 3EFF               	addlw	-1
  9886  0247' 1D03               	skipz
  9887  0248' 2800'              	goto	u435_25
  9888  0249' 0808'              	movf	??___flmul,w
  9889  024A' 0794'              	addwf	___flmul@prod,f
  9890  024B' 0809'              	movf	??___flmul+1,w
  9891  024C' 1103               	clrz
  9892  024D' 1803               	skipnc
  9893  024E' 3E01               	addlw	1
  9894  024F' 1903               	skipnz
  9895  0250' 2800'              	goto	u436_21
  9896  0251' 0795'              	addwf	___flmul@prod+1,f
  9897  0252'                    u436_21:
  9898  0252' 080A'              	movf	??___flmul+2,w
  9899  0253' 1103               	clrz
  9900  0254' 1803               	skipnc
  9901  0255' 3E01               	addlw	1
  9902  0256' 1903               	skipnz
  9903  0257' 2800'              	goto	u436_22
  9904  0258' 0796'              	addwf	___flmul@prod+2,f
  9905  0259'                    u436_22:
  9906  0259' 080B'              	movf	??___flmul+3,w
  9907  025A' 1103               	clrz
  9908  025B' 1803               	skipnc
  9909  025C' 3E01               	addlw	1
  9910  025D' 1903               	skipnz
  9911  025E' 2800'              	goto	u436_23
  9912  025F' 0797'              	addwf	___flmul@prod+3,f
  9913  0260'                    u436_23:
  9914  0260'                    i1l3364:
  9915  0260' 3008               	movlw	8
  9916  0261' 0088'              	movwf	??___flmul
  9917  0262'                    u437_25:
  9918  0262' 1003               	clrc
  9919  0263' 0D8E'              	rlf	___flmul@grs,f
  9920  0264' 0D8F'              	rlf	___flmul@grs+1,f
  9921  0265' 0D90'              	rlf	___flmul@grs+2,f
  9922  0266' 0D91'              	rlf	___flmul@grs+3,f
  9923  0267' 0B88'              	decfsz	??___flmul,f
  9924  0268' 2800'              	goto	u437_25
  9925  0269'                    i1l3366:
  9926  0269' 0813'              	movf	___flmul@bexp,w
  9927  026A' 0712'              	addwf	___flmul@aexp,w
  9928  026B' 0088'              	movwf	??___flmul
  9929  026C' 0189'              	clrf	??___flmul+1
  9930  026D' 0D89'              	rlf	??___flmul+1,f
  9931  026E' 0808'              	movf	??___flmul,w
  9932  026F' 3E82               	addlw	130
  9933  0270' 0098'              	movwf	___flmul@temp
  9934  0271' 0809'              	movf	??___flmul+1,w
  9935  0272' 1803               	skipnc
  9936  0273' 3E01               	addlw	1
  9937  0274' 3EFF               	addlw	255
  9938  0275' 0099'              	movwf	___flmul@temp+1
  9939  0276' 2800'              	goto	i1l3378
  9940  0277'                    i1l3368:
  9941  0277' 3001               	movlw	1
  9942  0278' 0088'              	movwf	??___flmul
  9943  0279'                    u438_25:
  9944  0279' 1003               	clrc
  9945  027A' 0D94'              	rlf	___flmul@prod,f
  9946  027B' 0D95'              	rlf	___flmul@prod+1,f
  9947  027C' 0D96'              	rlf	___flmul@prod+2,f
  9948  027D' 0D97'              	rlf	___flmul@prod+3,f
  9949  027E' 0B88'              	decfsz	??___flmul,f
  9950  027F' 2800'              	goto	u438_25
  9951  0280'                    i1l3370:
  9952  0280' 1F91'              	btfss	___flmul@grs+3,7
  9953  0281' 2800'              	goto	u439_21
  9954  0282' 2800'              	goto	u439_20
  9955  0283'                    u439_21:
  9956  0283' 2800'              	goto	i1l3374
  9957  0284'                    u439_20:
  9958  0284'                    i1l3372:
  9959  0284' 1414'              	bsf	___flmul@prod,0
  9960  0285'                    i1l3374:
  9961  0285' 3001               	movlw	1
  9962  0286' 0088'              	movwf	??___flmul
  9963  0287'                    u440_25:
  9964  0287' 1003               	clrc
  9965  0288' 0D8E'              	rlf	___flmul@grs,f
  9966  0289' 0D8F'              	rlf	___flmul@grs+1,f
  9967  028A' 0D90'              	rlf	___flmul@grs+2,f
  9968  028B' 0D91'              	rlf	___flmul@grs+3,f
  9969  028C' 0B88'              	decfsz	??___flmul,f
  9970  028D' 2800'              	goto	u440_25
  9971  028E'                    i1l3376:
  9972  028E' 30FF               	movlw	255
  9973  028F' 0798'              	addwf	___flmul@temp,f
  9974  0290' 1803               	skipnc
  9975  0291' 0A99'              	incf	___flmul@temp+1,f
  9976  0292' 30FF               	movlw	255
  9977  0293' 0799'              	addwf	___flmul@temp+1,f
  9978  0294'                    i1l3378:
  9979  0294' 1F96'              	btfss	___flmul@prod+2,7
  9980  0295' 2800'              	goto	u441_21
  9981  0296' 2800'              	goto	u441_20
  9982  0297'                    u441_21:
  9983  0297' 2800'              	goto	i1l3368
  9984  0298'                    u441_20:
  9985  0298'                    i1l3380:
  9986  0298' 0192'              	clrf	___flmul@aexp
  9987  0299'                    i1l3382:
  9988  0299' 1F91'              	btfss	___flmul@grs+3,7
  9989  029A' 2800'              	goto	u442_21
  9990  029B' 2800'              	goto	u442_20
  9991  029C'                    u442_21:
  9992  029C' 2800'              	goto	i1l3390
  9993  029D'                    u442_20:
  9994  029D'                    i1l3384:
  9995  029D' 30FF               	movlw	255
  9996  029E' 050E'              	andwf	___flmul@grs,w
  9997  029F' 0088'              	movwf	??___flmul
  9998  02A0' 30FF               	movlw	255
  9999  02A1' 050F'              	andwf	___flmul@grs+1,w
 10000  02A2' 0089'              	movwf	??___flmul+1
 10001  02A3' 30FF               	movlw	255
 10002  02A4' 0510'              	andwf	___flmul@grs+2,w
 10003  02A5' 008A'              	movwf	??___flmul+2
 10004  02A6' 307F               	movlw	127
 10005  02A7' 0511'              	andwf	___flmul@grs+3,w
 10006  02A8' 008B'              	movwf	??___flmul+3
 10007  02A9' 080B'              	movf	??___flmul+3,w
 10008  02AA' 040A'              	iorwf	??___flmul+2,w
 10009  02AB' 0409'              	iorwf	??___flmul+1,w
 10010  02AC' 0408'              	iorwf	??___flmul,w
 10011  02AD' 1903               	skipnz
 10012  02AE' 2800'              	goto	u443_21
 10013  02AF' 2800'              	goto	u443_20
 10014  02B0'                    u443_21:
 10015  02B0' 2800'              	goto	i1l779
 10016  02B1'                    u443_20:
 10017  02B1'                    i1l3386:
 10018  02B1' 0192'              	clrf	___flmul@aexp
 10019  02B2' 0A92'              	incf	___flmul@aexp,f
 10020  02B3' 2800'              	goto	i1l3390
 10021  02B4'                    i1l779:
 10022  02B4' 1C14'              	btfss	___flmul@prod,0
 10023  02B5' 2800'              	goto	u444_21
 10024  02B6' 2800'              	goto	u444_20
 10025  02B7'                    u444_21:
 10026  02B7' 2800'              	goto	i1l3390
 10027  02B8'                    u444_20:
 10028  02B8' 2800'              	goto	i1l3386
 10029  02B9'                    i1l3390:
 10030  02B9' 0812'              	movf	___flmul@aexp,w
 10031  02BA' 1903               	btfsc	3,2
 10032  02BB' 2800'              	goto	u445_21
 10033  02BC' 2800'              	goto	u445_20
 10034  02BD'                    u445_21:
 10035  02BD' 2800'              	goto	i1l3400
 10036  02BE'                    u445_20:
 10037  02BE'                    i1l3392:
 10038  02BE' 3001               	movlw	1
 10039  02BF' 0794'              	addwf	___flmul@prod,f
 10040  02C0' 3000               	movlw	0
 10041  02C1' 1803               	skipnc
 10042  02C2' 3001               	movlw	1
 10043  02C3' 0795'              	addwf	___flmul@prod+1,f
 10044  02C4' 3000               	movlw	0
 10045  02C5' 1803               	skipnc
 10046  02C6' 3001               	movlw	1
 10047  02C7' 0796'              	addwf	___flmul@prod+2,f
 10048  02C8' 3000               	movlw	0
 10049  02C9' 1803               	skipnc
 10050  02CA' 3001               	movlw	1
 10051  02CB' 0797'              	addwf	___flmul@prod+3,f
 10052  02CC'                    i1l3394:
 10053  02CC' 1C17'              	btfss	___flmul@prod+3,0
 10054  02CD' 2800'              	goto	u446_21
 10055  02CE' 2800'              	goto	u446_20
 10056  02CF'                    u446_21:
 10057  02CF' 2800'              	goto	i1l3400
 10058  02D0'                    u446_20:
 10059  02D0'                    i1l3396:
 10060  02D0' 0814'              	movf	___flmul@prod,w
 10061  02D1' 0088'              	movwf	??___flmul
 10062  02D2' 0815'              	movf	___flmul@prod+1,w
 10063  02D3' 0089'              	movwf	??___flmul+1
 10064  02D4' 0816'              	movf	___flmul@prod+2,w
 10065  02D5' 008A'              	movwf	??___flmul+2
 10066  02D6' 0817'              	movf	___flmul@prod+3,w
 10067  02D7' 008B'              	movwf	??___flmul+3
 10068  02D8' 3001               	movlw	1
 10069  02D9' 008C'              	movwf	??___flmul+4
 10070  02DA'                    u447_25:
 10071  02DA' 0D0B'              	rlf	??___flmul+3,w
 10072  02DB' 0C8B'              	rrf	??___flmul+3,f
 10073  02DC' 0C8A'              	rrf	??___flmul+2,f
 10074  02DD' 0C89'              	rrf	??___flmul+1,f
 10075  02DE' 0C88'              	rrf	??___flmul,f
 10076  02DF'                    u447_20:
 10077  02DF' 0B8C'              	decfsz	??___flmul+4,f
 10078  02E0' 2800'              	goto	u447_25
 10079  02E1' 080B'              	movf	??___flmul+3,w
 10080  02E2' 0097'              	movwf	___flmul@prod+3
 10081  02E3' 080A'              	movf	??___flmul+2,w
 10082  02E4' 0096'              	movwf	___flmul@prod+2
 10083  02E5' 0809'              	movf	??___flmul+1,w
 10084  02E6' 0095'              	movwf	___flmul@prod+1
 10085  02E7' 0808'              	movf	??___flmul,w
 10086  02E8' 0094'              	movwf	___flmul@prod
 10087  02E9'                    i1l3398:
 10088  02E9' 3001               	movlw	1
 10089  02EA' 0798'              	addwf	___flmul@temp,f
 10090  02EB' 1803               	skipnc
 10091  02EC' 0A99'              	incf	___flmul@temp+1,f
 10092  02ED' 3000               	movlw	0
 10093  02EE' 0799'              	addwf	___flmul@temp+1,f
 10094  02EF'                    i1l3400:
 10095  02EF' 0819'              	movf	___flmul@temp+1,w
 10096  02F0' 3A80               	xorlw	128
 10097  02F1' 00FF               	movwf	btemp+1
 10098  02F2' 3080               	movlw	128
 10099  02F3' 027F               	subwf	btemp+1,w
 10100  02F4' 1D03               	skipz
 10101  02F5' 2800'              	goto	u448_25
 10102  02F6' 30FF               	movlw	255
 10103  02F7' 0218'              	subwf	___flmul@temp,w
 10104  02F8'                    u448_25:
 10105  02F8' 1C03               	skipc
 10106  02F9' 2800'              	goto	u448_21
 10107  02FA' 2800'              	goto	u448_20
 10108  02FB'                    u448_21:
 10109  02FB' 2800'              	goto	i1l3404
 10110  02FC'                    u448_20:
 10111  02FC'                    i1l3402:
 10112  02FC' 307F               	movlw	127
 10113  02FD' 1283               	bcf	3,5	;RP0=0, select bank0
 10114  02FE' 1303               	bcf	3,6	;RP1=0, select bank0
 10115  02FF' 0097'              	movwf	___flmul@prod+3
 10116  0300' 3080               	movlw	128
 10117  0301' 0096'              	movwf	___flmul@prod+2
 10118  0302' 3000               	movlw	0
 10119  0303' 0095'              	movwf	___flmul@prod+1
 10120  0304' 3000               	movlw	0
 10121  0305' 0094'              	movwf	___flmul@prod
 10122  0306' 2800'              	goto	i1l785
 10123  0307'                    i1l3404:
 10124  0307' 1283               	bcf	3,5	;RP0=0, select bank0
 10125  0308' 1303               	bcf	3,6	;RP1=0, select bank0
 10126  0309' 0819'              	movf	___flmul@temp+1,w
 10127  030A' 3A80               	xorlw	128
 10128  030B' 00FF               	movwf	btemp+1
 10129  030C' 3080               	movlw	128
 10130  030D' 027F               	subwf	btemp+1,w
 10131  030E' 1D03               	skipz
 10132  030F' 2800'              	goto	u449_25
 10133  0310' 3001               	movlw	1
 10134  0311' 0218'              	subwf	___flmul@temp,w
 10135  0312'                    u449_25:
 10136  0312' 1803               	skipnc
 10137  0313' 2800'              	goto	u449_21
 10138  0314' 2800'              	goto	u449_20
 10139  0315'                    u449_21:
 10140  0315' 2800'              	goto	i1l3410
 10141  0316'                    u449_20:
 10142  0316'                    i1l3406:
 10143  0316' 3000               	movlw	0
 10144  0317' 1283               	bcf	3,5	;RP0=0, select bank0
 10145  0318' 1303               	bcf	3,6	;RP1=0, select bank0
 10146  0319' 0097'              	movwf	___flmul@prod+3
 10147  031A' 3000               	movlw	0
 10148  031B' 0096'              	movwf	___flmul@prod+2
 10149  031C' 3000               	movlw	0
 10150  031D' 0095'              	movwf	___flmul@prod+1
 10151  031E' 3000               	movlw	0
 10152  031F' 0094'              	movwf	___flmul@prod
 10153  0320'                    i1l3408:
 10154  0320' 018D'              	clrf	___flmul@sign
 10155  0321' 2800'              	goto	i1l785
 10156  0322'                    i1l3410:
 10157  0322' 1283               	bcf	3,5	;RP0=0, select bank0
 10158  0323' 1303               	bcf	3,6	;RP1=0, select bank0
 10159  0324' 0818'              	movf	___flmul@temp,w
 10160  0325' 0093'              	movwf	___flmul@bexp
 10161  0326' 30FF               	movlw	255
 10162  0327' 0594'              	andwf	___flmul@prod,f
 10163  0328' 30FF               	movlw	255
 10164  0329' 0595'              	andwf	___flmul@prod+1,f
 10165  032A' 307F               	movlw	127
 10166  032B' 0596'              	andwf	___flmul@prod+2,f
 10167  032C' 3000               	movlw	0
 10168  032D' 0597'              	andwf	___flmul@prod+3,f
 10169  032E'                    i1l3412:
 10170  032E' 1C13'              	btfss	___flmul@bexp,0
 10171  032F' 2800'              	goto	u450_21
 10172  0330' 2800'              	goto	u450_20
 10173  0331'                    u450_21:
 10174  0331' 2800'              	goto	i1l3416
 10175  0332'                    u450_20:
 10176  0332'                    i1l3414:
 10177  0332' 1796'              	bsf	___flmul@prod+2,7
 10178  0333'                    i1l3416:
 10179  0333' 0813'              	movf	___flmul@bexp,w
 10180  0334' 0088'              	movwf	??___flmul
 10181  0335' 1003               	clrc
 10182  0336' 0C08'              	rrf	??___flmul,w
 10183  0337' 0097'              	movwf	___flmul@prod+3
 10184  0338'                    i1l785:
 10185  0338' 080D'              	movf	___flmul@sign,w
 10186  0339' 0088'              	movwf	??___flmul
 10187  033A' 0808'              	movf	??___flmul,w
 10188  033B' 0497'              	iorwf	___flmul@prod+3,f
 10189  033C'                    i1l3418:
 10190  033C' 0817'              	movf	___flmul@prod+3,w
 10191  033D' 0083'              	movwf	?___flmul+3
 10192  033E' 0816'              	movf	___flmul@prod+2,w
 10193  033F' 0082'              	movwf	?___flmul+2
 10194  0340' 0815'              	movf	___flmul@prod+1,w
 10195  0341' 0081'              	movwf	?___flmul+1
 10196  0342' 0814'              	movf	___flmul@prod,w
 10197  0343' 0080'              	movwf	?___flmul
 10198  0344'                    i1l773:
 10199  0344' 0008               	return
 10200  0345'                    __end_of___flmul:
 10201                           
 10202                           	psect	text50
 10203  0000'                    __ptext50:	
 10204 ;; *************** function __Umul8_16 *****************
 10205 ;; Defined at:
 10206 ;;		line 4 in file "/opt/microchip/xc8/v2.45/pic/sources/c99/common/Umul8_16.c"
 10207 ;; Parameters:    Size  Location     Type
 10208 ;;  multiplier      1    wreg     unsigned char 
 10209 ;;  multiplicand    1    0[COMMON] unsigned char 
 10210 ;; Auto vars:     Size  Location     Type
 10211 ;;  multiplier      1    8[COMMON] unsigned char 
 10212 ;;  word_mpld       2    6[COMMON] unsigned short 
 10213 ;;  product         2    4[COMMON] unsigned short 
 10214 ;; Return value:  Size  Location     Type
 10215 ;;                  2    0[COMMON] unsigned int 
 10216 ;; Registers used:
 10217 ;;		wreg, status,2, status,0
 10218 ;; Tracked objects:
 10219 ;;		On entry : 0/0
 10220 ;;		On exit  : 0/0
 10221 ;;		Unchanged: 0/0
 10222 ;; Data sizes:     COMMON   BANK0   BANK1   BANK3   BANK2
 10223 ;;      Params:         2       0       0       0       0
 10224 ;;      Locals:         5       0       0       0       0
 10225 ;;      Temps:          2       0       0       0       0
 10226 ;;      Totals:         9       0       0       0       0
 10227 ;;Total ram usage:        9 bytes
 10228 ;; Hardware stack levels used: 1
 10229 ;; This function calls:
 10230 ;;		Nothing
 10231 ;; This function is called by:
 10232 ;;		___flmul
 10233 ;; This function uses a non-reentrant model
 10234 ;;
 10235                           
 10236  0000'                    __Umul8_16:	
 10237                           ;psect for function __Umul8_16
 10238                           
 10239                           
 10240                           ;incstack = 0
 10241 ;; hardware stack exceeded
 10242                           ; Regs used in __Umul8_16: [wreg+status,2+status,0]
 10243                           ;__Umul8_16@multiplier stored from wreg
 10244  0000' 0088'              	movwf	__Umul8_16@multiplier
 10245  0001'                    i1l2940:
 10246  0001' 0184'              	clrf	__Umul8_16@product
 10247  0002' 0185'              	clrf	__Umul8_16@product+1
 10248  0003'                    i1l2942:
 10249  0003' 0800'              	movf	__Umul8_16@multiplicand,w
 10250  0004' 0082'              	movwf	??__Umul8_16
 10251  0005' 0183'              	clrf	??__Umul8_16+1
 10252  0006' 0802'              	movf	??__Umul8_16,w
 10253  0007' 0086'              	movwf	__Umul8_16@word_mpld
 10254  0008' 0803'              	movf	??__Umul8_16+1,w
 10255  0009' 0087'              	movwf	__Umul8_16@word_mpld+1
 10256  000A'                    i1l2944:
 10257  000A' 1C08'              	btfss	__Umul8_16@multiplier,0
 10258  000B' 2800'              	goto	u337_21
 10259  000C' 2800'              	goto	u337_20
 10260  000D'                    u337_21:
 10261  000D' 2800'              	goto	i1l792
 10262  000E'                    u337_20:
 10263  000E'                    i1l2946:
 10264  000E' 0806'              	movf	__Umul8_16@word_mpld,w
 10265  000F' 0784'              	addwf	__Umul8_16@product,f
 10266  0010' 1803               	skipnc
 10267  0011' 0A85'              	incf	__Umul8_16@product+1,f
 10268  0012' 0807'              	movf	__Umul8_16@word_mpld+1,w
 10269  0013' 0785'              	addwf	__Umul8_16@product+1,f
 10270  0014'                    i1l792:
 10271  0014' 3001               	movlw	1
 10272  0015'                    u338_25:
 10273  0015' 1003               	clrc
 10274  0016' 0D86'              	rlf	__Umul8_16@word_mpld,f
 10275  0017' 0D87'              	rlf	__Umul8_16@word_mpld+1,f
 10276  0018' 3EFF               	addlw	-1
 10277  0019' 1D03               	skipz
 10278  001A' 2800'              	goto	u338_25
 10279  001B' 1003               	clrc
 10280  001C' 0C88'              	rrf	__Umul8_16@multiplier,f
 10281  001D'                    i1l2948:
 10282  001D' 0808'              	movf	__Umul8_16@multiplier,w
 10283  001E' 1D03               	btfss	3,2
 10284  001F' 2800'              	goto	u339_21
 10285  0020' 2800'              	goto	u339_20
 10286  0021'                    u339_21:
 10287  0021' 2800'              	goto	i1l2944
 10288  0022'                    u339_20:
 10289  0022'                    i1l2950:
 10290  0022' 0805'              	movf	__Umul8_16@product+1,w
 10291  0023' 0081'              	movwf	?__Umul8_16+1
 10292  0024' 0804'              	movf	__Umul8_16@product,w
 10293  0025' 0080'              	movwf	?__Umul8_16
 10294  0026'                    i1l794:
 10295  0026' 0008               	return
 10296  0027'                    __end_of__Umul8_16:
 10297                           
 10298                           	psect	text51
 10299  0000'                    __ptext51:	
 10300 ;; *************** function _read_humidity_channel *****************
 10301 ;; Defined at:
 10302 ;;		line 3 in file "src/sensors/humidity.c"
 10303 ;; Parameters:    Size  Location     Type
 10304 ;;		None
 10305 ;; Auto vars:     Size  Location     Type
 10306 ;;  adc_value       2   50[BANK0 ] unsigned short 
 10307 ;; Return value:  Size  Location     Type
 10308 ;;                  4   46[BANK0 ] float 
 10309 ;; Registers used:
 10310 ;;		wreg, status,2, status,0, btemp+1, pclath, cstack
 10311 ;; Tracked objects:
 10312 ;;		On entry : 0/0
 10313 ;;		On exit  : 0/0
 10314 ;;		Unchanged: 0/0
 10315 ;; Data sizes:     COMMON   BANK0   BANK1   BANK3   BANK2
 10316 ;;      Params:         0       4       0       0       0
 10317 ;;      Locals:         0       2       0       0       0
 10318 ;;      Temps:          0       0       0       0       0
 10319 ;;      Totals:         0       6       0       0       0
 10320 ;;Total ram usage:        6 bytes
 10321 ;; Hardware stack levels used: 1
 10322 ;; Hardware stack levels required when called: 1
 10323 ;; This function calls:
 10324 ;;		___fladd
 10325 ;;		___fldiv
 10326 ;;		___xxtofl
 10327 ;;		_read_adc_channel
 10328 ;; This function is called by:
 10329 ;;		_interrupt_rutine
 10330 ;; This function uses a non-reentrant model
 10331 ;;
 10332                           
 10333  0000'                    _read_humidity_channel:	
 10334                           ;psect for function _read_humidity_channel
 10335                           
 10336  0000'                    i1l4192:	
 10337                           ;incstack = 0
 10338                           ; Regs used in _read_humidity_channel: [wreg+status,2+status,0+btemp+1+pclath+cstack]
 10339                           
 10340                           
 10341                           ;src/sensors/humidity.c: 5:     ADCON0bits.CHS = 0b1100;
 10342  0000' 1283               	bcf	3,5	;RP0=0, select bank0
 10343  0001' 1303               	bcf	3,6	;RP1=0, select bank0
 10344  0002' 081F               	movf	31,w	;volatile
 10345  0003' 39C3               	andlw	-61
 10346  0004' 3830               	iorlw	48
 10347  0005' 009F               	movwf	31	;volatile
 10348  0006'                    i1l4194:
 10349                           
 10350                           ;src/sensors/humidity.c: 6:     uint16_t adc_value = read_adc_channel();
 10351  0006' 120A' 118A' 2000' 120A' 118A' 	fcall	_read_adc_channel
 10352  000B' 0801'              	movf	?_read_adc_channel+1,w
 10353  000C' 1283               	bcf	3,5	;RP0=0, select bank0
 10354  000D' 1303               	bcf	3,6	;RP1=0, select bank0
 10355  000E' 00B3'              	movwf	read_humidity_channel@adc_value+1
 10356  000F' 0800'              	movf	?_read_adc_channel,w
 10357  0010' 00B2'              	movwf	read_humidity_channel@adc_value
 10358  0011'                    i1l4196:
 10359                           
 10360                           ;src/sensors/humidity.c: 7:     return ((float)adc_value - 0.826)/0.0315;
 10361  0011' 303D               	movlw	61
 10362  0012' 0097'              	movwf	___fldiv@a+3
 10363  0013' 3001               	movlw	1
 10364  0014' 0096'              	movwf	___fldiv@a+2
 10365  0015' 3006               	movlw	6
 10366  0016' 0095'              	movwf	___fldiv@a+1
 10367  0017' 3025               	movlw	37
 10368  0018' 0094'              	movwf	___fldiv@a
 10369  0019' 30BF               	movlw	191
 10370  001A' 0083'              	movwf	___fladd@b+3
 10371  001B' 3053               	movlw	83
 10372  001C' 0082'              	movwf	___fladd@b+2
 10373  001D' 3074               	movlw	116
 10374  001E' 0081'              	movwf	___fladd@b+1
 10375  001F' 30BC               	movlw	188
 10376  0020' 0080'              	movwf	___fladd@b
 10377  0021' 0832'              	movf	read_humidity_channel@adc_value,w
 10378  0022' 0080'              	movwf	___xxtofl@val
 10379  0023' 0833'              	movf	read_humidity_channel@adc_value+1,w
 10380  0024' 0081'              	movwf	___xxtofl@val+1
 10381  0025' 0182'              	clrf	___xxtofl@val+2
 10382  0026' 0183'              	clrf	___xxtofl@val+3
 10383  0027' 3000               	movlw	0
 10384  0028' 120A' 118A' 2000' 120A' 118A' 	fcall	___xxtofl
 10385  002D' 0803'              	movf	?___xxtofl+3,w
 10386  002E' 1283               	bcf	3,5	;RP0=0, select bank0
 10387  002F' 1303               	bcf	3,6	;RP1=0, select bank0
 10388  0030' 0087'              	movwf	___fladd@a+3
 10389  0031' 0802'              	movf	?___xxtofl+2,w
 10390  0032' 0086'              	movwf	___fladd@a+2
 10391  0033' 0801'              	movf	?___xxtofl+1,w
 10392  0034' 0085'              	movwf	___fladd@a+1
 10393  0035' 0800'              	movf	?___xxtofl,w
 10394  0036' 0084'              	movwf	___fladd@a
 10395  0037' 120A' 118A' 2000' 120A' 118A' 	fcall	___fladd
 10396  003C' 1283               	bcf	3,5	;RP0=0, select bank0
 10397  003D' 1303               	bcf	3,6	;RP1=0, select bank0
 10398  003E' 0803'              	movf	?___fladd+3,w
 10399  003F' 009B'              	movwf	___fldiv@b+3
 10400  0040' 0802'              	movf	?___fladd+2,w
 10401  0041' 009A'              	movwf	___fldiv@b+2
 10402  0042' 0801'              	movf	?___fladd+1,w
 10403  0043' 0099'              	movwf	___fldiv@b+1
 10404  0044' 0800'              	movf	?___fladd,w
 10405  0045' 0098'              	movwf	___fldiv@b
 10406  0046' 120A' 118A' 2000' 120A' 118A' 	fcall	___fldiv
 10407  004B' 1283               	bcf	3,5	;RP0=0, select bank0
 10408  004C' 1303               	bcf	3,6	;RP1=0, select bank0
 10409  004D' 0817'              	movf	?___fldiv+3,w
 10410  004E' 00B1'              	movwf	?_read_humidity_channel+3
 10411  004F' 0816'              	movf	?___fldiv+2,w
 10412  0050' 00B0'              	movwf	?_read_humidity_channel+2
 10413  0051' 0815'              	movf	?___fldiv+1,w
 10414  0052' 00AF'              	movwf	?_read_humidity_channel+1
 10415  0053' 0814'              	movf	?___fldiv,w
 10416  0054' 00AE'              	movwf	?_read_humidity_channel
 10417  0055'                    i1l141:
 10418  0055' 0008               	return
 10419  0056'                    __end_of_read_humidity_channel:
 10420                           
 10421                           	psect	text52
 10422  0000'                    __ptext52:	
 10423 ;; *************** function _read_adc_channel *****************
 10424 ;; Defined at:
 10425 ;;		line 12 in file "src/adc/adc.c"
 10426 ;; Parameters:    Size  Location     Type
 10427 ;;		None
 10428 ;; Auto vars:     Size  Location     Type
 10429 ;;  adc_value       2    8[COMMON] unsigned short 
 10430 ;; Return value:  Size  Location     Type
 10431 ;;                  2    0[COMMON] unsigned short 
 10432 ;; Registers used:
 10433 ;;		wreg
 10434 ;; Tracked objects:
 10435 ;;		On entry : 0/0
 10436 ;;		On exit  : 0/0
 10437 ;;		Unchanged: 0/0
 10438 ;; Data sizes:     COMMON   BANK0   BANK1   BANK3   BANK2
 10439 ;;      Params:         2       0       0       0       0
 10440 ;;      Locals:         2       0       0       0       0
 10441 ;;      Temps:          6       0       0       0       0
 10442 ;;      Totals:        10       0       0       0       0
 10443 ;;Total ram usage:       10 bytes
 10444 ;; Hardware stack levels used: 1
 10445 ;; This function calls:
 10446 ;;		Nothing
 10447 ;; This function is called by:
 10448 ;;		_read_humidity_channel
 10449 ;;		_read_noise_channel
 10450 ;;		_read_temperature
 10451 ;; This function uses a non-reentrant model
 10452 ;;
 10453                           
 10454  0000'                    _read_adc_channel:	
 10455                           ;psect for function _read_adc_channel
 10456                           
 10457  0000'                    i1l3990:	
 10458                           ;incstack = 0
 10459                           ; Regs used in _read_adc_channel: [wreg]
 10460                           
 10461                           
 10462                           ;src/adc/adc.c: 14:     uint16_t adc_value;;src/adc/adc.c: 15:     ADCON0bits.GO = 1;
 10463  0000' 1283               	bcf	3,5	;RP0=0, select bank0
 10464  0001' 1303               	bcf	3,6	;RP1=0, select bank0
 10465  0002' 149F               	bsf	31,1	;volatile
 10466  0003'                    i1l3992:
 10467                           
 10468                           ;src/adc/adc.c: 16:     adc_value = ADRESH;
 10469  0003' 081E               	movf	30,w	;volatile
 10470  0004' 0082'              	movwf	??_read_adc_channel
 10471  0005' 0183'              	clrf	??_read_adc_channel+1
 10472  0006' 0802'              	movf	??_read_adc_channel,w
 10473  0007' 0088'              	movwf	read_adc_channel@adc_value
 10474  0008' 0803'              	movf	??_read_adc_channel+1,w
 10475  0009' 0089'              	movwf	read_adc_channel@adc_value+1
 10476                           
 10477                           ;src/adc/adc.c: 17:     adc_value = (adc_value << 8) | ADRESL;
 10478  000A' 1683               	bsf	3,5	;RP0=1, select bank1
 10479  000B' 1303               	bcf	3,6	;RP1=0, select bank1
 10480  000C' 081E               	movf	30,w	;volatile
 10481  000D' 0082'              	movwf	??_read_adc_channel
 10482  000E' 0183'              	clrf	??_read_adc_channel+1
 10483  000F' 0808'              	movf	read_adc_channel@adc_value,w
 10484  0010' 0085'              	movwf	??_read_adc_channel+3
 10485  0011' 0184'              	clrf	??_read_adc_channel+2
 10486  0012' 0802'              	movf	??_read_adc_channel,w
 10487  0013' 0404'              	iorwf	??_read_adc_channel+2,w
 10488  0014' 0086'              	movwf	??_read_adc_channel+4
 10489  0015' 0803'              	movf	??_read_adc_channel+1,w
 10490  0016' 0405'              	iorwf	??_read_adc_channel+3,w
 10491  0017' 0087'              	movwf	??_read_adc_channel+5
 10492  0018' 0806'              	movf	??_read_adc_channel+4,w
 10493  0019' 0088'              	movwf	read_adc_channel@adc_value
 10494  001A' 0807'              	movf	??_read_adc_channel+5,w
 10495  001B' 0089'              	movwf	read_adc_channel@adc_value+1
 10496                           
 10497                           ;src/adc/adc.c: 18:     return adc_value;
 10498  001C' 0809'              	movf	read_adc_channel@adc_value+1,w
 10499  001D' 0081'              	movwf	?_read_adc_channel+1
 10500  001E' 0808'              	movf	read_adc_channel@adc_value,w
 10501  001F' 0080'              	movwf	?_read_adc_channel
 10502  0020'                    i1l22:
 10503  0020' 0008               	return
 10504  0021'                    __end_of_read_adc_channel:
 10505                           
 10506                           	psect	text53
 10507  0000'                    __ptext53:	
 10508 ;; *************** function ___xxtofl *****************
 10509 ;; Defined at:
 10510 ;;		line 10 in file "/opt/microchip/xc8/v2.45/pic/sources/c99/common/xxtofl.c"
 10511 ;; Parameters:    Size  Location     Type
 10512 ;;  sign            1    wreg     unsigned char 
 10513 ;;  val             4    0[COMMON] long 
 10514 ;; Auto vars:     Size  Location     Type
 10515 ;;  sign            1    8[COMMON] unsigned char 
 10516 ;;  arg             4   10[COMMON] unsigned long 
 10517 ;;  exp             1    9[COMMON] unsigned char 
 10518 ;; Return value:  Size  Location     Type
 10519 ;;                  4    0[COMMON] unsigned char 
 10520 ;; Registers used:
 10521 ;;		wreg, status,2, status,0
 10522 ;; Tracked objects:
 10523 ;;		On entry : 0/0
 10524 ;;		On exit  : 0/0
 10525 ;;		Unchanged: 0/0
 10526 ;; Data sizes:     COMMON   BANK0   BANK1   BANK3   BANK2
 10527 ;;      Params:         4       0       0       0       0
 10528 ;;      Locals:         6       0       0       0       0
 10529 ;;      Temps:          4       0       0       0       0
 10530 ;;      Totals:        14       0       0       0       0
 10531 ;;Total ram usage:       14 bytes
 10532 ;; Hardware stack levels used: 1
 10533 ;; This function calls:
 10534 ;;		Nothing
 10535 ;; This function is called by:
 10536 ;;		_read_humidity_channel
 10537 ;;		_read_luminosity
 10538 ;;		_read_temperature
 10539 ;;		_interrupt_rutine
 10540 ;; This function uses a non-reentrant model
 10541 ;;
 10542                           
 10543  0000'                    ___xxtofl:	
 10544                           ;psect for function ___xxtofl
 10545                           
 10546                           
 10547                           ;incstack = 0
 10548                           ; Regs used in ___xxtofl: [wreg+status,2+status,0]
 10549                           ;___xxtofl@sign stored from wreg
 10550  0000' 0088'              	movwf	___xxtofl@sign
 10551  0001'                    i1l4092:
 10552  0001' 0808'              	movf	___xxtofl@sign,w
 10553  0002' 1903               	btfsc	3,2
 10554  0003' 2800'              	goto	u548_21
 10555  0004' 2800'              	goto	u548_20
 10556  0005'                    u548_21:
 10557  0005' 2800'              	goto	i1l4098
 10558  0006'                    u548_20:
 10559  0006'                    i1l4094:
 10560  0006' 1F83'              	btfss	___xxtofl@val+3,7
 10561  0007' 2800'              	goto	u549_21
 10562  0008' 2800'              	goto	u549_20
 10563  0009'                    u549_21:
 10564  0009' 2800'              	goto	i1l4098
 10565  000A'                    u549_20:
 10566  000A'                    i1l4096:
 10567  000A' 0900'              	comf	___xxtofl@val,w
 10568  000B' 008A'              	movwf	___xxtofl@arg
 10569  000C' 0901'              	comf	___xxtofl@val+1,w
 10570  000D' 008B'              	movwf	___xxtofl@arg+1
 10571  000E' 0902'              	comf	___xxtofl@val+2,w
 10572  000F' 008C'              	movwf	___xxtofl@arg+2
 10573  0010' 0903'              	comf	___xxtofl@val+3,w
 10574  0011' 008D'              	movwf	___xxtofl@arg+3
 10575  0012' 0A8A'              	incf	___xxtofl@arg,f
 10576  0013' 1903               	skipnz
 10577  0014' 0A8B'              	incf	___xxtofl@arg+1,f
 10578  0015' 1903               	skipnz
 10579  0016' 0A8C'              	incf	___xxtofl@arg+2,f
 10580  0017' 1903               	skipnz
 10581  0018' 0A8D'              	incf	___xxtofl@arg+3,f
 10582  0019' 2800'              	goto	i1l817
 10583  001A'                    i1l4098:
 10584  001A' 0803'              	movf	___xxtofl@val+3,w
 10585  001B' 008D'              	movwf	___xxtofl@arg+3
 10586  001C' 0802'              	movf	___xxtofl@val+2,w
 10587  001D' 008C'              	movwf	___xxtofl@arg+2
 10588  001E' 0801'              	movf	___xxtofl@val+1,w
 10589  001F' 008B'              	movwf	___xxtofl@arg+1
 10590  0020' 0800'              	movf	___xxtofl@val,w
 10591  0021' 008A'              	movwf	___xxtofl@arg
 10592  0022'                    i1l817:
 10593  0022' 0803'              	movf	___xxtofl@val+3,w
 10594  0023' 0402'              	iorwf	___xxtofl@val+2,w
 10595  0024' 0401'              	iorwf	___xxtofl@val+1,w
 10596  0025' 0400'              	iorwf	___xxtofl@val,w
 10597  0026' 1D03               	skipz
 10598  0027' 2800'              	goto	u550_21
 10599  0028' 2800'              	goto	u550_20
 10600  0029'                    u550_21:
 10601  0029' 2800'              	goto	i1l4104
 10602  002A'                    u550_20:
 10603  002A'                    i1l4100:
 10604  002A' 3000               	movlw	0
 10605  002B' 0083'              	movwf	?___xxtofl+3
 10606  002C' 3000               	movlw	0
 10607  002D' 0082'              	movwf	?___xxtofl+2
 10608  002E' 3000               	movlw	0
 10609  002F' 0081'              	movwf	?___xxtofl+1
 10610  0030' 3000               	movlw	0
 10611  0031' 0080'              	movwf	?___xxtofl
 10612  0032' 2800'              	goto	i1l819
 10613  0033'                    i1l4104:
 10614  0033' 3096               	movlw	150
 10615  0034' 0089'              	movwf	___xxtofl@exp
 10616  0035' 2800'              	goto	i1l4108
 10617  0036'                    i1l4106:
 10618  0036' 3001               	movlw	1
 10619  0037' 0084'              	movwf	??___xxtofl
 10620  0038' 0804'              	movf	??___xxtofl,w
 10621  0039' 0789'              	addwf	___xxtofl@exp,f
 10622  003A' 3001               	movlw	1
 10623  003B'                    u551_25:
 10624  003B' 1003               	clrc
 10625  003C' 0C8D'              	rrf	___xxtofl@arg+3,f
 10626  003D' 0C8C'              	rrf	___xxtofl@arg+2,f
 10627  003E' 0C8B'              	rrf	___xxtofl@arg+1,f
 10628  003F' 0C8A'              	rrf	___xxtofl@arg,f
 10629  0040' 3EFF               	addlw	-1
 10630  0041' 1D03               	skipz
 10631  0042' 2800'              	goto	u551_25
 10632  0043'                    i1l4108:
 10633  0043' 30FE               	movlw	254
 10634  0044' 050D'              	andwf	___xxtofl@arg+3,w
 10635  0045' 1D03               	btfss	3,2
 10636  0046' 2800'              	goto	u552_21
 10637  0047' 2800'              	goto	u552_20
 10638  0048'                    u552_21:
 10639  0048' 2800'              	goto	i1l4106
 10640  0049'                    u552_20:
 10641  0049' 2800'              	goto	i1l823
 10642  004A'                    i1l4110:
 10643  004A' 3001               	movlw	1
 10644  004B' 0084'              	movwf	??___xxtofl
 10645  004C' 0804'              	movf	??___xxtofl,w
 10646  004D' 0789'              	addwf	___xxtofl@exp,f
 10647  004E'                    i1l4112:
 10648  004E' 3001               	movlw	1
 10649  004F' 078A'              	addwf	___xxtofl@arg,f
 10650  0050' 3000               	movlw	0
 10651  0051' 1803               	skipnc
 10652  0052' 3001               	movlw	1
 10653  0053' 078B'              	addwf	___xxtofl@arg+1,f
 10654  0054' 3000               	movlw	0
 10655  0055' 1803               	skipnc
 10656  0056' 3001               	movlw	1
 10657  0057' 078C'              	addwf	___xxtofl@arg+2,f
 10658  0058' 3000               	movlw	0
 10659  0059' 1803               	skipnc
 10660  005A' 3001               	movlw	1
 10661  005B' 078D'              	addwf	___xxtofl@arg+3,f
 10662  005C'                    i1l4114:
 10663  005C' 3001               	movlw	1
 10664  005D'                    u553_25:
 10665  005D' 1003               	clrc
 10666  005E' 0C8D'              	rrf	___xxtofl@arg+3,f
 10667  005F' 0C8C'              	rrf	___xxtofl@arg+2,f
 10668  0060' 0C8B'              	rrf	___xxtofl@arg+1,f
 10669  0061' 0C8A'              	rrf	___xxtofl@arg,f
 10670  0062' 3EFF               	addlw	-1
 10671  0063' 1D03               	skipz
 10672  0064' 2800'              	goto	u553_25
 10673  0065'                    i1l823:
 10674  0065' 30FF               	movlw	255
 10675  0066' 050D'              	andwf	___xxtofl@arg+3,w
 10676  0067' 1D03               	btfss	3,2
 10677  0068' 2800'              	goto	u554_21
 10678  0069' 2800'              	goto	u554_20
 10679  006A'                    u554_21:
 10680  006A' 2800'              	goto	i1l4110
 10681  006B'                    u554_20:
 10682  006B' 2800'              	goto	i1l4118
 10683  006C'                    i1l4116:
 10684  006C' 3001               	movlw	1
 10685  006D' 0289'              	subwf	___xxtofl@exp,f
 10686  006E' 3001               	movlw	1
 10687  006F' 0084'              	movwf	??___xxtofl
 10688  0070'                    u555_25:
 10689  0070' 1003               	clrc
 10690  0071' 0D8A'              	rlf	___xxtofl@arg,f
 10691  0072' 0D8B'              	rlf	___xxtofl@arg+1,f
 10692  0073' 0D8C'              	rlf	___xxtofl@arg+2,f
 10693  0074' 0D8D'              	rlf	___xxtofl@arg+3,f
 10694  0075' 0B84'              	decfsz	??___xxtofl,f
 10695  0076' 2800'              	goto	u555_25
 10696  0077'                    i1l4118:
 10697  0077' 1B8C'              	btfsc	___xxtofl@arg+2,7
 10698  0078' 2800'              	goto	u556_21
 10699  0079' 2800'              	goto	u556_20
 10700  007A'                    u556_21:
 10701  007A' 2800'              	goto	i1l830
 10702  007B'                    u556_20:
 10703  007B'                    i1l4120:
 10704  007B' 3002               	movlw	2
 10705  007C' 0209'              	subwf	___xxtofl@exp,w
 10706  007D' 1803               	skipnc
 10707  007E' 2800'              	goto	u557_21
 10708  007F' 2800'              	goto	u557_20
 10709  0080'                    u557_21:
 10710  0080' 2800'              	goto	i1l4116
 10711  0081'                    u557_20:
 10712  0081'                    i1l830:
 10713  0081' 1809'              	btfsc	___xxtofl@exp,0
 10714  0082' 2800'              	goto	u558_21
 10715  0083' 2800'              	goto	u558_20
 10716  0084'                    u558_21:
 10717  0084' 2800'              	goto	i1l831
 10718  0085'                    u558_20:
 10719  0085'                    i1l4122:
 10720  0085' 30FF               	movlw	255
 10721  0086' 058A'              	andwf	___xxtofl@arg,f
 10722  0087' 30FF               	movlw	255
 10723  0088' 058B'              	andwf	___xxtofl@arg+1,f
 10724  0089' 307F               	movlw	127
 10725  008A' 058C'              	andwf	___xxtofl@arg+2,f
 10726  008B' 30FF               	movlw	255
 10727  008C' 058D'              	andwf	___xxtofl@arg+3,f
 10728  008D'                    i1l831:
 10729  008D' 1003               	clrc
 10730  008E' 0C89'              	rrf	___xxtofl@exp,f
 10731  008F'                    i1l4124:
 10732  008F' 0809'              	movf	___xxtofl@exp,w
 10733  0090' 0084'              	movwf	??___xxtofl
 10734  0091' 0185'              	clrf	??___xxtofl+1
 10735  0092' 0186'              	clrf	??___xxtofl+2
 10736  0093' 0187'              	clrf	??___xxtofl+3
 10737  0094' 3018               	movlw	24
 10738  0095'                    u559_25:
 10739  0095' 1003               	clrc
 10740  0096' 0D84'              	rlf	??___xxtofl,f
 10741  0097' 0D85'              	rlf	??___xxtofl+1,f
 10742  0098' 0D86'              	rlf	??___xxtofl+2,f
 10743  0099' 0D87'              	rlf	??___xxtofl+3,f
 10744  009A'                    u559_20:
 10745  009A' 3EFF               	addlw	-1
 10746  009B' 1D03               	skipz
 10747  009C' 2800'              	goto	u559_25
 10748  009D' 0804'              	movf	??___xxtofl,w
 10749  009E' 048A'              	iorwf	___xxtofl@arg,f
 10750  009F' 0805'              	movf	??___xxtofl+1,w
 10751  00A0' 048B'              	iorwf	___xxtofl@arg+1,f
 10752  00A1' 0806'              	movf	??___xxtofl+2,w
 10753  00A2' 048C'              	iorwf	___xxtofl@arg+2,f
 10754  00A3' 0807'              	movf	??___xxtofl+3,w
 10755  00A4' 048D'              	iorwf	___xxtofl@arg+3,f
 10756  00A5'                    i1l4126:
 10757  00A5' 0808'              	movf	___xxtofl@sign,w
 10758  00A6' 1903               	btfsc	3,2
 10759  00A7' 2800'              	goto	u560_21
 10760  00A8' 2800'              	goto	u560_20
 10761  00A9'                    u560_21:
 10762  00A9' 2800'              	goto	i1l4132
 10763  00AA'                    u560_20:
 10764  00AA'                    i1l4128:
 10765  00AA' 1F83'              	btfss	___xxtofl@val+3,7
 10766  00AB' 2800'              	goto	u561_21
 10767  00AC' 2800'              	goto	u561_20
 10768  00AD'                    u561_21:
 10769  00AD' 2800'              	goto	i1l4132
 10770  00AE'                    u561_20:
 10771  00AE'                    i1l4130:
 10772  00AE' 178D'              	bsf	___xxtofl@arg+3,7
 10773  00AF'                    i1l4132:
 10774  00AF' 080D'              	movf	___xxtofl@arg+3,w
 10775  00B0' 0083'              	movwf	?___xxtofl+3
 10776  00B1' 080C'              	movf	___xxtofl@arg+2,w
 10777  00B2' 0082'              	movwf	?___xxtofl+2
 10778  00B3' 080B'              	movf	___xxtofl@arg+1,w
 10779  00B4' 0081'              	movwf	?___xxtofl+1
 10780  00B5' 080A'              	movf	___xxtofl@arg,w
 10781  00B6' 0080'              	movwf	?___xxtofl
 10782  00B7'                    i1l819:
 10783  00B7' 0008               	return
 10784  00B8'                    __end_of___xxtofl:
 10785                           
 10786                           	psect	text54
 10787  0000'                    __ptext54:	
 10788 ;; *************** function ___fldiv *****************
 10789 ;; Defined at:
 10790 ;;		line 8 in file "/opt/microchip/xc8/v2.45/pic/sources/c99/common/sprcdiv.c"
 10791 ;; Parameters:    Size  Location     Type
 10792 ;;  a               4   20[BANK0 ] unsigned char 
 10793 ;;  b               4   24[BANK0 ] unsigned char 
 10794 ;; Auto vars:     Size  Location     Type
 10795 ;;  grs             4   40[BANK0 ] unsigned long 
 10796 ;;  rem             4   33[BANK0 ] unsigned long 
 10797 ;;  new_exp         2   38[BANK0 ] short 
 10798 ;;  aexp            1   45[BANK0 ] unsigned char 
 10799 ;;  bexp            1   44[BANK0 ] unsigned char 
 10800 ;;  sign            1   37[BANK0 ] unsigned char 
 10801 ;; Return value:  Size  Location     Type
 10802 ;;                  4   20[BANK0 ] unsigned char 
 10803 ;; Registers used:
 10804 ;;		wreg, status,2, status,0, btemp+1
 10805 ;; Tracked objects:
 10806 ;;		On entry : 0/0
 10807 ;;		On exit  : 0/0
 10808 ;;		Unchanged: 0/0
 10809 ;; Data sizes:     COMMON   BANK0   BANK1   BANK3   BANK2
 10810 ;;      Params:         0       8       0       0       0
 10811 ;;      Locals:         0      13       0       0       0
 10812 ;;      Temps:          0       5       0       0       0
 10813 ;;      Totals:         0      26       0       0       0
 10814 ;;Total ram usage:       26 bytes
 10815 ;; Hardware stack levels used: 1
 10816 ;; This function calls:
 10817 ;;		Nothing
 10818 ;; This function is called by:
 10819 ;;		_read_humidity_channel
 10820 ;;		_read_temperature
 10821 ;;		_interrupt_rutine
 10822 ;;		_efgtoa
 10823 ;; This function uses a non-reentrant model
 10824 ;;
 10825                           
 10826  0000'                    ___fldiv:	
 10827                           ;psect for function ___fldiv
 10828                           
 10829  0000'                    i1l3140:	
 10830                           ;incstack = 0
 10831 ;; hardware stack exceeded
 10832                           ; Regs used in ___fldiv: [wreg+status,2+status,0+btemp+1]
 10833                           
 10834  0000' 1283               	bcf	3,5	;RP0=0, select bank0
 10835  0001' 1303               	bcf	3,6	;RP1=0, select bank0
 10836  0002' 081B'              	movf	___fldiv@b+3,w
 10837  0003' 3980               	andlw	128
 10838  0004' 00A5'              	movwf	___fldiv@sign
 10839  0005'                    i1l3142:
 10840  0005' 081B'              	movf	___fldiv@b+3,w
 10841  0006' 009C'              	movwf	??___fldiv
 10842  0007' 071C'              	addwf	??___fldiv,w
 10843  0008' 00AC'              	movwf	___fldiv@bexp
 10844  0009'                    i1l3144:
 10845  0009' 1F9A'              	btfss	___fldiv@b+2,7
 10846  000A' 2800'              	goto	u385_21
 10847  000B' 2800'              	goto	u385_20
 10848  000C'                    u385_21:
 10849  000C' 2800'              	goto	i1l3148
 10850  000D'                    u385_20:
 10851  000D'                    i1l3146:
 10852  000D' 142C'              	bsf	___fldiv@bexp,0
 10853  000E'                    i1l3148:
 10854  000E' 082C'              	movf	___fldiv@bexp,w
 10855  000F' 1903               	btfsc	3,2
 10856  0010' 2800'              	goto	u386_21
 10857  0011' 2800'              	goto	u386_20
 10858  0012'                    u386_21:
 10859  0012' 2800'              	goto	i1l3158
 10860  0013'                    u386_20:
 10861  0013'                    i1l3150:
 10862  0013' 0A2C'              	incf	___fldiv@bexp,w
 10863  0014' 1D03               	btfss	3,2
 10864  0015' 2800'              	goto	u387_21
 10865  0016' 2800'              	goto	u387_20
 10866  0017'                    u387_21:
 10867  0017' 2800'              	goto	i1l3154
 10868  0018'                    u387_20:
 10869  0018'                    i1l3152:
 10870  0018' 3000               	movlw	0
 10871  0019' 009B'              	movwf	___fldiv@b+3
 10872  001A' 3000               	movlw	0
 10873  001B' 009A'              	movwf	___fldiv@b+2
 10874  001C' 3000               	movlw	0
 10875  001D' 0099'              	movwf	___fldiv@b+1
 10876  001E' 3000               	movlw	0
 10877  001F' 0098'              	movwf	___fldiv@b
 10878  0020'                    i1l3154:
 10879  0020' 179A'              	bsf	___fldiv@b+2,7
 10880  0021'                    i1l3156:
 10881  0021' 019B'              	clrf	___fldiv@b+3
 10882  0022' 2800'              	goto	i1l3160
 10883  0023'                    i1l3158:
 10884  0023' 3000               	movlw	0
 10885  0024' 009B'              	movwf	___fldiv@b+3
 10886  0025' 3000               	movlw	0
 10887  0026' 009A'              	movwf	___fldiv@b+2
 10888  0027' 3000               	movlw	0
 10889  0028' 0099'              	movwf	___fldiv@b+1
 10890  0029' 3000               	movlw	0
 10891  002A' 0098'              	movwf	___fldiv@b
 10892  002B'                    i1l3160:
 10893  002B' 0817'              	movf	___fldiv@a+3,w
 10894  002C' 3980               	andlw	128
 10895  002D' 009C'              	movwf	??___fldiv
 10896  002E' 081C'              	movf	??___fldiv,w
 10897  002F' 06A5'              	xorwf	___fldiv@sign,f
 10898  0030'                    i1l3162:
 10899  0030' 0817'              	movf	___fldiv@a+3,w
 10900  0031' 009C'              	movwf	??___fldiv
 10901  0032' 071C'              	addwf	??___fldiv,w
 10902  0033' 00AD'              	movwf	___fldiv@aexp
 10903  0034'                    i1l3164:
 10904  0034' 1F96'              	btfss	___fldiv@a+2,7
 10905  0035' 2800'              	goto	u388_21
 10906  0036' 2800'              	goto	u388_20
 10907  0037'                    u388_21:
 10908  0037' 2800'              	goto	i1l3168
 10909  0038'                    u388_20:
 10910  0038'                    i1l3166:
 10911  0038' 142D'              	bsf	___fldiv@aexp,0
 10912  0039'                    i1l3168:
 10913  0039' 082D'              	movf	___fldiv@aexp,w
 10914  003A' 1903               	btfsc	3,2
 10915  003B' 2800'              	goto	u389_21
 10916  003C' 2800'              	goto	u389_20
 10917  003D'                    u389_21:
 10918  003D' 2800'              	goto	i1l3178
 10919  003E'                    u389_20:
 10920  003E'                    i1l3170:
 10921  003E' 0A2D'              	incf	___fldiv@aexp,w
 10922  003F' 1D03               	btfss	3,2
 10923  0040' 2800'              	goto	u390_21
 10924  0041' 2800'              	goto	u390_20
 10925  0042'                    u390_21:
 10926  0042' 2800'              	goto	i1l3174
 10927  0043'                    u390_20:
 10928  0043'                    i1l3172:
 10929  0043' 3000               	movlw	0
 10930  0044' 0097'              	movwf	___fldiv@a+3
 10931  0045' 3000               	movlw	0
 10932  0046' 0096'              	movwf	___fldiv@a+2
 10933  0047' 3000               	movlw	0
 10934  0048' 0095'              	movwf	___fldiv@a+1
 10935  0049' 3000               	movlw	0
 10936  004A' 0094'              	movwf	___fldiv@a
 10937  004B'                    i1l3174:
 10938  004B' 1796'              	bsf	___fldiv@a+2,7
 10939  004C'                    i1l3176:
 10940  004C' 0197'              	clrf	___fldiv@a+3
 10941  004D' 2800'              	goto	i1l733
 10942  004E'                    i1l3178:
 10943  004E' 3000               	movlw	0
 10944  004F' 0097'              	movwf	___fldiv@a+3
 10945  0050' 3000               	movlw	0
 10946  0051' 0096'              	movwf	___fldiv@a+2
 10947  0052' 3000               	movlw	0
 10948  0053' 0095'              	movwf	___fldiv@a+1
 10949  0054' 3000               	movlw	0
 10950  0055' 0094'              	movwf	___fldiv@a
 10951  0056'                    i1l733:
 10952  0056' 0817'              	movf	___fldiv@a+3,w
 10953  0057' 0416'              	iorwf	___fldiv@a+2,w
 10954  0058' 0415'              	iorwf	___fldiv@a+1,w
 10955  0059' 0414'              	iorwf	___fldiv@a,w
 10956  005A' 1D03               	skipz
 10957  005B' 2800'              	goto	u391_21
 10958  005C' 2800'              	goto	u391_20
 10959  005D'                    u391_21:
 10960  005D' 2800'              	goto	i1l3188
 10961  005E'                    u391_20:
 10962  005E'                    i1l3180:
 10963  005E' 3000               	movlw	0
 10964  005F' 009B'              	movwf	___fldiv@b+3
 10965  0060' 3000               	movlw	0
 10966  0061' 009A'              	movwf	___fldiv@b+2
 10967  0062' 3000               	movlw	0
 10968  0063' 0099'              	movwf	___fldiv@b+1
 10969  0064' 3000               	movlw	0
 10970  0065' 0098'              	movwf	___fldiv@b
 10971  0066' 3080               	movlw	128
 10972  0067' 049A'              	iorwf	___fldiv@b+2,f
 10973  0068' 307F               	movlw	127
 10974  0069' 049B'              	iorwf	___fldiv@b+3,f
 10975  006A'                    i1l3182:
 10976  006A' 0825'              	movf	___fldiv@sign,w
 10977  006B' 009C'              	movwf	??___fldiv
 10978  006C' 081C'              	movf	??___fldiv,w
 10979  006D' 049B'              	iorwf	___fldiv@b+3,f
 10980  006E'                    i1l3184:
 10981  006E' 081B'              	movf	___fldiv@b+3,w
 10982  006F' 0097'              	movwf	?___fldiv+3
 10983  0070' 081A'              	movf	___fldiv@b+2,w
 10984  0071' 0096'              	movwf	?___fldiv+2
 10985  0072' 0819'              	movf	___fldiv@b+1,w
 10986  0073' 0095'              	movwf	?___fldiv+1
 10987  0074' 0818'              	movf	___fldiv@b,w
 10988  0075' 0094'              	movwf	?___fldiv
 10989  0076' 2800'              	goto	i1l735
 10990  0077'                    i1l3188:
 10991  0077' 082C'              	movf	___fldiv@bexp,w
 10992  0078' 1D03               	btfss	3,2
 10993  0079' 2800'              	goto	u392_21
 10994  007A' 2800'              	goto	u392_20
 10995  007B'                    u392_21:
 10996  007B' 2800'              	goto	i1l3194
 10997  007C'                    u392_20:
 10998  007C'                    i1l3190:
 10999  007C' 3000               	movlw	0
 11000  007D' 0097'              	movwf	?___fldiv+3
 11001  007E' 3000               	movlw	0
 11002  007F' 0096'              	movwf	?___fldiv+2
 11003  0080' 3000               	movlw	0
 11004  0081' 0095'              	movwf	?___fldiv+1
 11005  0082' 3000               	movlw	0
 11006  0083' 0094'              	movwf	?___fldiv
 11007  0084' 2800'              	goto	i1l735
 11008  0085'                    i1l3194:
 11009  0085' 082C'              	movf	___fldiv@bexp,w
 11010  0086' 009C'              	movwf	??___fldiv
 11011  0087' 019D'              	clrf	??___fldiv+1
 11012  0088' 081D'              	movf	??___fldiv+1,w
 11013  0089' 009F'              	movwf	??___fldiv+3
 11014  008A' 082D'              	movf	___fldiv@aexp,w
 11015  008B' 021C'              	subwf	??___fldiv,w
 11016  008C' 009E'              	movwf	??___fldiv+2
 11017  008D' 1C03               	skipc
 11018  008E' 039F'              	decf	??___fldiv+3,f
 11019  008F' 081E'              	movf	??___fldiv+2,w
 11020  0090' 3E7F               	addlw	127
 11021  0091' 00A6'              	movwf	___fldiv@new_exp
 11022  0092' 081F'              	movf	??___fldiv+3,w
 11023  0093' 1803               	skipnc
 11024  0094' 3E01               	addlw	1
 11025  0095' 3E00               	addlw	0
 11026  0096' 00A7'              	movwf	___fldiv@new_exp+1
 11027  0097'                    i1l3196:
 11028  0097' 081B'              	movf	___fldiv@b+3,w
 11029  0098' 00A4'              	movwf	___fldiv@rem+3
 11030  0099' 081A'              	movf	___fldiv@b+2,w
 11031  009A' 00A3'              	movwf	___fldiv@rem+2
 11032  009B' 0819'              	movf	___fldiv@b+1,w
 11033  009C' 00A2'              	movwf	___fldiv@rem+1
 11034  009D' 0818'              	movf	___fldiv@b,w
 11035  009E' 00A1'              	movwf	___fldiv@rem
 11036  009F'                    i1l3198:
 11037  009F' 3000               	movlw	0
 11038  00A0' 009B'              	movwf	___fldiv@b+3
 11039  00A1' 3000               	movlw	0
 11040  00A2' 009A'              	movwf	___fldiv@b+2
 11041  00A3' 3000               	movlw	0
 11042  00A4' 0099'              	movwf	___fldiv@b+1
 11043  00A5' 3000               	movlw	0
 11044  00A6' 0098'              	movwf	___fldiv@b
 11045  00A7'                    i1l3200:
 11046  00A7' 3000               	movlw	0
 11047  00A8' 00AB'              	movwf	___fldiv@grs+3
 11048  00A9' 3000               	movlw	0
 11049  00AA' 00AA'              	movwf	___fldiv@grs+2
 11050  00AB' 3000               	movlw	0
 11051  00AC' 00A9'              	movwf	___fldiv@grs+1
 11052  00AD' 3000               	movlw	0
 11053  00AE' 00A8'              	movwf	___fldiv@grs
 11054  00AF'                    i1l3202:
 11055  00AF' 01AD'              	clrf	___fldiv@aexp
 11056  00B0' 2800'              	goto	i1l3222
 11057  00B1'                    i1l3204:
 11058  00B1' 082D'              	movf	___fldiv@aexp,w
 11059  00B2' 1903               	btfsc	3,2
 11060  00B3' 2800'              	goto	u393_21
 11061  00B4' 2800'              	goto	u393_20
 11062  00B5'                    u393_21:
 11063  00B5' 2800'              	goto	i1l3214
 11064  00B6'                    u393_20:
 11065  00B6'                    i1l3206:
 11066  00B6' 3001               	movlw	1
 11067  00B7' 009C'              	movwf	??___fldiv
 11068  00B8'                    u394_25:
 11069  00B8' 1003               	clrc
 11070  00B9' 0DA1'              	rlf	___fldiv@rem,f
 11071  00BA' 0DA2'              	rlf	___fldiv@rem+1,f
 11072  00BB' 0DA3'              	rlf	___fldiv@rem+2,f
 11073  00BC' 0DA4'              	rlf	___fldiv@rem+3,f
 11074  00BD' 0B9C'              	decfsz	??___fldiv,f
 11075  00BE' 2800'              	goto	u394_25
 11076  00BF' 3001               	movlw	1
 11077  00C0' 009C'              	movwf	??___fldiv
 11078  00C1'                    u395_25:
 11079  00C1' 1003               	clrc
 11080  00C2' 0D98'              	rlf	___fldiv@b,f
 11081  00C3' 0D99'              	rlf	___fldiv@b+1,f
 11082  00C4' 0D9A'              	rlf	___fldiv@b+2,f
 11083  00C5' 0D9B'              	rlf	___fldiv@b+3,f
 11084  00C6' 0B9C'              	decfsz	??___fldiv,f
 11085  00C7' 2800'              	goto	u395_25
 11086  00C8'                    i1l3208:
 11087  00C8' 1FAB'              	btfss	___fldiv@grs+3,7
 11088  00C9' 2800'              	goto	u396_21
 11089  00CA' 2800'              	goto	u396_20
 11090  00CB'                    u396_21:
 11091  00CB' 2800'              	goto	i1l3212
 11092  00CC'                    u396_20:
 11093  00CC'                    i1l3210:
 11094  00CC' 1418'              	bsf	___fldiv@b,0
 11095  00CD'                    i1l3212:
 11096  00CD' 3001               	movlw	1
 11097  00CE' 009C'              	movwf	??___fldiv
 11098  00CF'                    u397_25:
 11099  00CF' 1003               	clrc
 11100  00D0' 0DA8'              	rlf	___fldiv@grs,f
 11101  00D1' 0DA9'              	rlf	___fldiv@grs+1,f
 11102  00D2' 0DAA'              	rlf	___fldiv@grs+2,f
 11103  00D3' 0DAB'              	rlf	___fldiv@grs+3,f
 11104  00D4' 0B9C'              	decfsz	??___fldiv,f
 11105  00D5' 2800'              	goto	u397_25
 11106  00D6'                    i1l3214:
 11107  00D6' 0817'              	movf	___fldiv@a+3,w
 11108  00D7' 0224'              	subwf	___fldiv@rem+3,w
 11109  00D8' 1D03               	skipz
 11110  00D9' 2800'              	goto	u398_25
 11111  00DA' 0816'              	movf	___fldiv@a+2,w
 11112  00DB' 0223'              	subwf	___fldiv@rem+2,w
 11113  00DC' 1D03               	skipz
 11114  00DD' 2800'              	goto	u398_25
 11115  00DE' 0815'              	movf	___fldiv@a+1,w
 11116  00DF' 0222'              	subwf	___fldiv@rem+1,w
 11117  00E0' 1D03               	skipz
 11118  00E1' 2800'              	goto	u398_25
 11119  00E2' 0814'              	movf	___fldiv@a,w
 11120  00E3' 0221'              	subwf	___fldiv@rem,w
 11121  00E4'                    u398_25:
 11122  00E4' 1C03               	skipc
 11123  00E5' 2800'              	goto	u398_21
 11124  00E6' 2800'              	goto	u398_20
 11125  00E7'                    u398_21:
 11126  00E7' 2800'              	goto	i1l3220
 11127  00E8'                    u398_20:
 11128  00E8'                    i1l3216:
 11129  00E8' 172B'              	bsf	___fldiv@grs+3,6
 11130  00E9'                    i1l3218:
 11131  00E9' 0814'              	movf	___fldiv@a,w
 11132  00EA' 02A1'              	subwf	___fldiv@rem,f
 11133  00EB' 0815'              	movf	___fldiv@a+1,w
 11134  00EC' 1C03               	skipc
 11135  00ED' 0F15'              	incfsz	___fldiv@a+1,w
 11136  00EE' 02A2'              	subwf	___fldiv@rem+1,f
 11137  00EF' 0816'              	movf	___fldiv@a+2,w
 11138  00F0' 1C03               	skipc
 11139  00F1' 0F16'              	incfsz	___fldiv@a+2,w
 11140  00F2' 02A3'              	subwf	___fldiv@rem+2,f
 11141  00F3' 0817'              	movf	___fldiv@a+3,w
 11142  00F4' 1C03               	skipc
 11143  00F5' 0F17'              	incfsz	___fldiv@a+3,w
 11144  00F6' 02A4'              	subwf	___fldiv@rem+3,f
 11145  00F7'                    i1l3220:
 11146  00F7' 3001               	movlw	1
 11147  00F8' 009C'              	movwf	??___fldiv
 11148  00F9' 081C'              	movf	??___fldiv,w
 11149  00FA' 07AD'              	addwf	___fldiv@aexp,f
 11150  00FB'                    i1l3222:
 11151  00FB' 301A               	movlw	26
 11152  00FC' 022D'              	subwf	___fldiv@aexp,w
 11153  00FD' 1C03               	skipc
 11154  00FE' 2800'              	goto	u399_21
 11155  00FF' 2800'              	goto	u399_20
 11156  0100'                    u399_21:
 11157  0100' 2800'              	goto	i1l3204
 11158  0101'                    u399_20:
 11159  0101'                    i1l3224:
 11160  0101' 0824'              	movf	___fldiv@rem+3,w
 11161  0102' 0423'              	iorwf	___fldiv@rem+2,w
 11162  0103' 0422'              	iorwf	___fldiv@rem+1,w
 11163  0104' 0421'              	iorwf	___fldiv@rem,w
 11164  0105' 1903               	skipnz
 11165  0106' 2800'              	goto	u400_21
 11166  0107' 2800'              	goto	u400_20
 11167  0108'                    u400_21:
 11168  0108' 2800'              	goto	i1l3238
 11169  0109'                    u400_20:
 11170  0109'                    i1l3226:
 11171  0109' 1428'              	bsf	___fldiv@grs,0
 11172  010A' 2800'              	goto	i1l3238
 11173  010B'                    i1l3228:
 11174  010B' 3001               	movlw	1
 11175  010C' 009C'              	movwf	??___fldiv
 11176  010D'                    u401_25:
 11177  010D' 1003               	clrc
 11178  010E' 0D98'              	rlf	___fldiv@b,f
 11179  010F' 0D99'              	rlf	___fldiv@b+1,f
 11180  0110' 0D9A'              	rlf	___fldiv@b+2,f
 11181  0111' 0D9B'              	rlf	___fldiv@b+3,f
 11182  0112' 0B9C'              	decfsz	??___fldiv,f
 11183  0113' 2800'              	goto	u401_25
 11184  0114'                    i1l3230:
 11185  0114' 1FAB'              	btfss	___fldiv@grs+3,7
 11186  0115' 2800'              	goto	u402_21
 11187  0116' 2800'              	goto	u402_20
 11188  0117'                    u402_21:
 11189  0117' 2800'              	goto	i1l3234
 11190  0118'                    u402_20:
 11191  0118'                    i1l3232:
 11192  0118' 1418'              	bsf	___fldiv@b,0
 11193  0119'                    i1l3234:
 11194  0119' 3001               	movlw	1
 11195  011A' 009C'              	movwf	??___fldiv
 11196  011B'                    u403_25:
 11197  011B' 1003               	clrc
 11198  011C' 0DA8'              	rlf	___fldiv@grs,f
 11199  011D' 0DA9'              	rlf	___fldiv@grs+1,f
 11200  011E' 0DAA'              	rlf	___fldiv@grs+2,f
 11201  011F' 0DAB'              	rlf	___fldiv@grs+3,f
 11202  0120' 0B9C'              	decfsz	??___fldiv,f
 11203  0121' 2800'              	goto	u403_25
 11204  0122'                    i1l3236:
 11205  0122' 30FF               	movlw	255
 11206  0123' 07A6'              	addwf	___fldiv@new_exp,f
 11207  0124' 1803               	skipnc
 11208  0125' 0AA7'              	incf	___fldiv@new_exp+1,f
 11209  0126' 30FF               	movlw	255
 11210  0127' 07A7'              	addwf	___fldiv@new_exp+1,f
 11211  0128'                    i1l3238:
 11212  0128' 1F9A'              	btfss	___fldiv@b+2,7
 11213  0129' 2800'              	goto	u404_21
 11214  012A' 2800'              	goto	u404_20
 11215  012B'                    u404_21:
 11216  012B' 2800'              	goto	i1l3228
 11217  012C'                    u404_20:
 11218  012C'                    i1l3240:
 11219  012C' 01AD'              	clrf	___fldiv@aexp
 11220  012D'                    i1l3242:
 11221  012D' 1FAB'              	btfss	___fldiv@grs+3,7
 11222  012E' 2800'              	goto	u405_21
 11223  012F' 2800'              	goto	u405_20
 11224  0130'                    u405_21:
 11225  0130' 2800'              	goto	i1l3250
 11226  0131'                    u405_20:
 11227  0131'                    i1l3244:
 11228  0131' 30FF               	movlw	255
 11229  0132' 0528'              	andwf	___fldiv@grs,w
 11230  0133' 009C'              	movwf	??___fldiv
 11231  0134' 30FF               	movlw	255
 11232  0135' 0529'              	andwf	___fldiv@grs+1,w
 11233  0136' 009D'              	movwf	??___fldiv+1
 11234  0137' 30FF               	movlw	255
 11235  0138' 052A'              	andwf	___fldiv@grs+2,w
 11236  0139' 009E'              	movwf	??___fldiv+2
 11237  013A' 307F               	movlw	127
 11238  013B' 052B'              	andwf	___fldiv@grs+3,w
 11239  013C' 009F'              	movwf	??___fldiv+3
 11240  013D' 081F'              	movf	??___fldiv+3,w
 11241  013E' 041E'              	iorwf	??___fldiv+2,w
 11242  013F' 041D'              	iorwf	??___fldiv+1,w
 11243  0140' 041C'              	iorwf	??___fldiv,w
 11244  0141' 1903               	skipnz
 11245  0142' 2800'              	goto	u406_21
 11246  0143' 2800'              	goto	u406_20
 11247  0144'                    u406_21:
 11248  0144' 2800'              	goto	i1l749
 11249  0145'                    u406_20:
 11250  0145'                    i1l3246:
 11251  0145' 01AD'              	clrf	___fldiv@aexp
 11252  0146' 0AAD'              	incf	___fldiv@aexp,f
 11253  0147' 2800'              	goto	i1l3250
 11254  0148'                    i1l749:
 11255  0148' 1C18'              	btfss	___fldiv@b,0
 11256  0149' 2800'              	goto	u407_21
 11257  014A' 2800'              	goto	u407_20
 11258  014B'                    u407_21:
 11259  014B' 2800'              	goto	i1l3250
 11260  014C'                    u407_20:
 11261  014C' 2800'              	goto	i1l3246
 11262  014D'                    i1l3250:
 11263  014D' 082D'              	movf	___fldiv@aexp,w
 11264  014E' 1903               	btfsc	3,2
 11265  014F' 2800'              	goto	u408_21
 11266  0150' 2800'              	goto	u408_20
 11267  0151'                    u408_21:
 11268  0151' 2800'              	goto	i1l3260
 11269  0152'                    u408_20:
 11270  0152'                    i1l3252:
 11271  0152' 3001               	movlw	1
 11272  0153' 0798'              	addwf	___fldiv@b,f
 11273  0154' 3000               	movlw	0
 11274  0155' 1803               	skipnc
 11275  0156' 3001               	movlw	1
 11276  0157' 0799'              	addwf	___fldiv@b+1,f
 11277  0158' 3000               	movlw	0
 11278  0159' 1803               	skipnc
 11279  015A' 3001               	movlw	1
 11280  015B' 079A'              	addwf	___fldiv@b+2,f
 11281  015C' 3000               	movlw	0
 11282  015D' 1803               	skipnc
 11283  015E' 3001               	movlw	1
 11284  015F' 079B'              	addwf	___fldiv@b+3,f
 11285  0160'                    i1l3254:
 11286  0160' 1C1B'              	btfss	___fldiv@b+3,0
 11287  0161' 2800'              	goto	u409_21
 11288  0162' 2800'              	goto	u409_20
 11289  0163'                    u409_21:
 11290  0163' 2800'              	goto	i1l3260
 11291  0164'                    u409_20:
 11292  0164'                    i1l3256:
 11293  0164' 0818'              	movf	___fldiv@b,w
 11294  0165' 009C'              	movwf	??___fldiv
 11295  0166' 0819'              	movf	___fldiv@b+1,w
 11296  0167' 009D'              	movwf	??___fldiv+1
 11297  0168' 081A'              	movf	___fldiv@b+2,w
 11298  0169' 009E'              	movwf	??___fldiv+2
 11299  016A' 081B'              	movf	___fldiv@b+3,w
 11300  016B' 009F'              	movwf	??___fldiv+3
 11301  016C' 3001               	movlw	1
 11302  016D' 00A0'              	movwf	??___fldiv+4
 11303  016E'                    u410_25:
 11304  016E' 0D1F'              	rlf	??___fldiv+3,w
 11305  016F' 0C9F'              	rrf	??___fldiv+3,f
 11306  0170' 0C9E'              	rrf	??___fldiv+2,f
 11307  0171' 0C9D'              	rrf	??___fldiv+1,f
 11308  0172' 0C9C'              	rrf	??___fldiv,f
 11309  0173'                    u410_20:
 11310  0173' 0BA0'              	decfsz	??___fldiv+4,f
 11311  0174' 2800'              	goto	u410_25
 11312  0175' 081F'              	movf	??___fldiv+3,w
 11313  0176' 009B'              	movwf	___fldiv@b+3
 11314  0177' 081E'              	movf	??___fldiv+2,w
 11315  0178' 009A'              	movwf	___fldiv@b+2
 11316  0179' 081D'              	movf	??___fldiv+1,w
 11317  017A' 0099'              	movwf	___fldiv@b+1
 11318  017B' 081C'              	movf	??___fldiv,w
 11319  017C' 0098'              	movwf	___fldiv@b
 11320  017D'                    i1l3258:
 11321  017D' 3001               	movlw	1
 11322  017E' 07A6'              	addwf	___fldiv@new_exp,f
 11323  017F' 1803               	skipnc
 11324  0180' 0AA7'              	incf	___fldiv@new_exp+1,f
 11325  0181' 3000               	movlw	0
 11326  0182' 07A7'              	addwf	___fldiv@new_exp+1,f
 11327  0183'                    i1l3260:
 11328  0183' 0827'              	movf	___fldiv@new_exp+1,w
 11329  0184' 3A80               	xorlw	128
 11330  0185' 00FF               	movwf	btemp+1
 11331  0186' 3080               	movlw	128
 11332  0187' 027F               	subwf	btemp+1,w
 11333  0188' 1D03               	skipz
 11334  0189' 2800'              	goto	u411_25
 11335  018A' 30FF               	movlw	255
 11336  018B' 0226'              	subwf	___fldiv@new_exp,w
 11337  018C'                    u411_25:
 11338  018C' 1C03               	skipc
 11339  018D' 2800'              	goto	u411_21
 11340  018E' 2800'              	goto	u411_20
 11341  018F'                    u411_21:
 11342  018F' 2800'              	goto	i1l3264
 11343  0190'                    u411_20:
 11344  0190'                    i1l3262:
 11345  0190' 30FF               	movlw	255
 11346  0191' 1283               	bcf	3,5	;RP0=0, select bank0
 11347  0192' 1303               	bcf	3,6	;RP1=0, select bank0
 11348  0193' 00A6'              	movwf	___fldiv@new_exp
 11349  0194' 3000               	movlw	0
 11350  0195' 00A7'              	movwf	___fldiv@new_exp+1
 11351  0196' 3000               	movlw	0
 11352  0197' 009B'              	movwf	___fldiv@b+3
 11353  0198' 3000               	movlw	0
 11354  0199' 009A'              	movwf	___fldiv@b+2
 11355  019A' 3000               	movlw	0
 11356  019B' 0099'              	movwf	___fldiv@b+1
 11357  019C' 3000               	movlw	0
 11358  019D' 0098'              	movwf	___fldiv@b
 11359  019E'                    i1l3264:
 11360  019E' 1283               	bcf	3,5	;RP0=0, select bank0
 11361  019F' 1303               	bcf	3,6	;RP1=0, select bank0
 11362  01A0' 0827'              	movf	___fldiv@new_exp+1,w
 11363  01A1' 3A80               	xorlw	128
 11364  01A2' 00FF               	movwf	btemp+1
 11365  01A3' 3080               	movlw	128
 11366  01A4' 027F               	subwf	btemp+1,w
 11367  01A5' 1D03               	skipz
 11368  01A6' 2800'              	goto	u412_25
 11369  01A7' 3001               	movlw	1
 11370  01A8' 0226'              	subwf	___fldiv@new_exp,w
 11371  01A9'                    u412_25:
 11372  01A9' 1803               	skipnc
 11373  01AA' 2800'              	goto	u412_21
 11374  01AB' 2800'              	goto	u412_20
 11375  01AC'                    u412_21:
 11376  01AC' 2800'              	goto	i1l755
 11377  01AD'                    u412_20:
 11378  01AD'                    i1l3266:
 11379  01AD' 1283               	bcf	3,5	;RP0=0, select bank0
 11380  01AE' 1303               	bcf	3,6	;RP1=0, select bank0
 11381  01AF' 01A6'              	clrf	___fldiv@new_exp
 11382  01B0' 01A7'              	clrf	___fldiv@new_exp+1
 11383  01B1'                    i1l3268:
 11384  01B1' 3000               	movlw	0
 11385  01B2' 009B'              	movwf	___fldiv@b+3
 11386  01B3' 3000               	movlw	0
 11387  01B4' 009A'              	movwf	___fldiv@b+2
 11388  01B5' 3000               	movlw	0
 11389  01B6' 0099'              	movwf	___fldiv@b+1
 11390  01B7' 3000               	movlw	0
 11391  01B8' 0098'              	movwf	___fldiv@b
 11392  01B9'                    i1l3270:
 11393  01B9' 01A5'              	clrf	___fldiv@sign
 11394  01BA'                    i1l755:
 11395  01BA' 1283               	bcf	3,5	;RP0=0, select bank0
 11396  01BB' 1303               	bcf	3,6	;RP1=0, select bank0
 11397  01BC' 0826'              	movf	___fldiv@new_exp,w
 11398  01BD' 00AC'              	movwf	___fldiv@bexp
 11399  01BE'                    i1l3272:
 11400  01BE' 1C2C'              	btfss	___fldiv@bexp,0
 11401  01BF' 2800'              	goto	u413_21
 11402  01C0' 2800'              	goto	u413_20
 11403  01C1'                    u413_21:
 11404  01C1' 2800'              	goto	i1l3276
 11405  01C2'                    u413_20:
 11406  01C2'                    i1l3274:
 11407  01C2' 179A'              	bsf	___fldiv@b+2,7
 11408  01C3' 2800'              	goto	i1l757
 11409  01C4'                    i1l3276:
 11410  01C4' 307F               	movlw	127
 11411  01C5' 009C'              	movwf	??___fldiv
 11412  01C6' 081C'              	movf	??___fldiv,w
 11413  01C7' 059A'              	andwf	___fldiv@b+2,f
 11414  01C8'                    i1l757:
 11415  01C8' 082C'              	movf	___fldiv@bexp,w
 11416  01C9' 009C'              	movwf	??___fldiv
 11417  01CA' 1003               	clrc
 11418  01CB' 0C1C'              	rrf	??___fldiv,w
 11419  01CC' 009B'              	movwf	___fldiv@b+3
 11420  01CD' 0825'              	movf	___fldiv@sign,w
 11421  01CE' 009C'              	movwf	??___fldiv
 11422  01CF' 081C'              	movf	??___fldiv,w
 11423  01D0' 049B'              	iorwf	___fldiv@b+3,f
 11424  01D1' 2800'              	goto	i1l3184
 11425  01D2'                    i1l735:
 11426  01D2' 0008               	return
 11427  01D3'                    __end_of___fldiv:
 11428                           
 11429                           	psect	text55
 11430  0000'                    __ptext55:	
 11431 ;; *************** function ___fladd *****************
 11432 ;; Defined at:
 11433 ;;		line 10 in file "/opt/microchip/xc8/v2.45/pic/sources/c99/common/sprcadd.c"
 11434 ;; Parameters:    Size  Location     Type
 11435 ;;  b               4    0[BANK0 ] unsigned char 
 11436 ;;  a               4    4[BANK0 ] unsigned char 
 11437 ;; Auto vars:     Size  Location     Type
 11438 ;;  grs             1   19[BANK0 ] unsigned char 
 11439 ;;  bexp            1   18[BANK0 ] unsigned char 
 11440 ;;  aexp            1   17[BANK0 ] unsigned char 
 11441 ;;  signs           1   16[BANK0 ] unsigned char 
 11442 ;; Return value:  Size  Location     Type
 11443 ;;                  4    0[BANK0 ] unsigned char 
 11444 ;; Registers used:
 11445 ;;		wreg, status,2, status,0, btemp+1
 11446 ;; Tracked objects:
 11447 ;;		On entry : 0/0
 11448 ;;		On exit  : 0/0
 11449 ;;		Unchanged: 0/0
 11450 ;; Data sizes:     COMMON   BANK0   BANK1   BANK3   BANK2
 11451 ;;      Params:         0       8       0       0       0
 11452 ;;      Locals:         0       4       0       0       0
 11453 ;;      Temps:          0       8       0       0       0
 11454 ;;      Totals:         0      20       0       0       0
 11455 ;;Total ram usage:       20 bytes
 11456 ;; Hardware stack levels used: 1
 11457 ;; This function calls:
 11458 ;;		Nothing
 11459 ;; This function is called by:
 11460 ;;		_read_humidity_channel
 11461 ;;		___flsub
 11462 ;;		_efgtoa
 11463 ;; This function uses a non-reentrant model
 11464 ;;
 11465                           
 11466  0000'                    ___fladd:	
 11467                           ;psect for function ___fladd
 11468                           
 11469  0000'                    i1l2746:	
 11470                           ;incstack = 0
 11471 ;; hardware stack exceeded
 11472                           ; Regs used in ___fladd: [wreg+status,2+status,0+btemp+1]
 11473                           
 11474  0000' 1283               	bcf	3,5	;RP0=0, select bank0
 11475  0001' 1303               	bcf	3,6	;RP1=0, select bank0
 11476  0002' 0803'              	movf	___fladd@b+3,w
 11477  0003' 3980               	andlw	128
 11478  0004' 0090'              	movwf	___fladd@signs
 11479  0005'                    i1l2748:
 11480  0005' 0803'              	movf	___fladd@b+3,w
 11481  0006' 0088'              	movwf	??___fladd
 11482  0007' 0708'              	addwf	??___fladd,w
 11483  0008' 0092'              	movwf	___fladd@bexp
 11484  0009'                    i1l2750:
 11485  0009' 1F82'              	btfss	___fladd@b+2,7
 11486  000A' 2800'              	goto	u291_21
 11487  000B' 2800'              	goto	u291_20
 11488  000C'                    u291_21:
 11489  000C' 2800'              	goto	i1l2754
 11490  000D'                    u291_20:
 11491  000D'                    i1l2752:
 11492  000D' 1412'              	bsf	___fladd@bexp,0
 11493  000E'                    i1l2754:
 11494  000E' 0812'              	movf	___fladd@bexp,w
 11495  000F' 1903               	btfsc	3,2
 11496  0010' 2800'              	goto	u292_21
 11497  0011' 2800'              	goto	u292_20
 11498  0012'                    u292_21:
 11499  0012' 2800'              	goto	i1l2764
 11500  0013'                    u292_20:
 11501  0013'                    i1l2756:
 11502  0013' 0A12'              	incf	___fladd@bexp,w
 11503  0014' 1D03               	btfss	3,2
 11504  0015' 2800'              	goto	u293_21
 11505  0016' 2800'              	goto	u293_20
 11506  0017'                    u293_21:
 11507  0017' 2800'              	goto	i1l2760
 11508  0018'                    u293_20:
 11509  0018'                    i1l2758:
 11510  0018' 3000               	movlw	0
 11511  0019' 0083'              	movwf	___fladd@b+3
 11512  001A' 3000               	movlw	0
 11513  001B' 0082'              	movwf	___fladd@b+2
 11514  001C' 3000               	movlw	0
 11515  001D' 0081'              	movwf	___fladd@b+1
 11516  001E' 3000               	movlw	0
 11517  001F' 0080'              	movwf	___fladd@b
 11518  0020'                    i1l2760:
 11519  0020' 1782'              	bsf	___fladd@b+2,7
 11520  0021'                    i1l2762:
 11521  0021' 0183'              	clrf	___fladd@b+3
 11522  0022' 2800'              	goto	i1l2766
 11523  0023'                    i1l2764:
 11524  0023' 3000               	movlw	0
 11525  0024' 0083'              	movwf	___fladd@b+3
 11526  0025' 3000               	movlw	0
 11527  0026' 0082'              	movwf	___fladd@b+2
 11528  0027' 3000               	movlw	0
 11529  0028' 0081'              	movwf	___fladd@b+1
 11530  0029' 3000               	movlw	0
 11531  002A' 0080'              	movwf	___fladd@b
 11532  002B'                    i1l2766:
 11533  002B' 0807'              	movf	___fladd@a+3,w
 11534  002C' 3980               	andlw	128
 11535  002D' 0091'              	movwf	___fladd@aexp
 11536  002E'                    i1l2768:
 11537  002E' 0811'              	movf	___fladd@aexp,w
 11538  002F' 0610'              	xorwf	___fladd@signs,w
 11539  0030' 1903               	skipnz
 11540  0031' 2800'              	goto	u294_21
 11541  0032' 2800'              	goto	u294_20
 11542  0033'                    u294_21:
 11543  0033' 2800'              	goto	i1l2772
 11544  0034'                    u294_20:
 11545  0034'                    i1l2770:
 11546  0034' 1710'              	bsf	___fladd@signs,6
 11547  0035'                    i1l2772:
 11548  0035' 0807'              	movf	___fladd@a+3,w
 11549  0036' 0088'              	movwf	??___fladd
 11550  0037' 0708'              	addwf	??___fladd,w
 11551  0038' 0091'              	movwf	___fladd@aexp
 11552  0039'                    i1l2774:
 11553  0039' 1F86'              	btfss	___fladd@a+2,7
 11554  003A' 2800'              	goto	u295_21
 11555  003B' 2800'              	goto	u295_20
 11556  003C'                    u295_21:
 11557  003C' 2800'              	goto	i1l2778
 11558  003D'                    u295_20:
 11559  003D'                    i1l2776:
 11560  003D' 1411'              	bsf	___fladd@aexp,0
 11561  003E'                    i1l2778:
 11562  003E' 0811'              	movf	___fladd@aexp,w
 11563  003F' 1903               	btfsc	3,2
 11564  0040' 2800'              	goto	u296_21
 11565  0041' 2800'              	goto	u296_20
 11566  0042'                    u296_21:
 11567  0042' 2800'              	goto	i1l2788
 11568  0043'                    u296_20:
 11569  0043'                    i1l2780:
 11570  0043' 0A11'              	incf	___fladd@aexp,w
 11571  0044' 1D03               	btfss	3,2
 11572  0045' 2800'              	goto	u297_21
 11573  0046' 2800'              	goto	u297_20
 11574  0047'                    u297_21:
 11575  0047' 2800'              	goto	i1l2784
 11576  0048'                    u297_20:
 11577  0048'                    i1l2782:
 11578  0048' 3000               	movlw	0
 11579  0049' 0087'              	movwf	___fladd@a+3
 11580  004A' 3000               	movlw	0
 11581  004B' 0086'              	movwf	___fladd@a+2
 11582  004C' 3000               	movlw	0
 11583  004D' 0085'              	movwf	___fladd@a+1
 11584  004E' 3000               	movlw	0
 11585  004F' 0084'              	movwf	___fladd@a
 11586  0050'                    i1l2784:
 11587  0050' 1786'              	bsf	___fladd@a+2,7
 11588  0051'                    i1l2786:
 11589  0051' 0187'              	clrf	___fladd@a+3
 11590  0052' 2800'              	goto	i1l677
 11591  0053'                    i1l2788:
 11592  0053' 3000               	movlw	0
 11593  0054' 0087'              	movwf	___fladd@a+3
 11594  0055' 3000               	movlw	0
 11595  0056' 0086'              	movwf	___fladd@a+2
 11596  0057' 3000               	movlw	0
 11597  0058' 0085'              	movwf	___fladd@a+1
 11598  0059' 3000               	movlw	0
 11599  005A' 0084'              	movwf	___fladd@a
 11600  005B'                    i1l677:
 11601  005B' 0812'              	movf	___fladd@bexp,w
 11602  005C' 0211'              	subwf	___fladd@aexp,w
 11603  005D' 1803               	skipnc
 11604  005E' 2800'              	goto	u298_21
 11605  005F' 2800'              	goto	u298_20
 11606  0060'                    u298_21:
 11607  0060' 2800'              	goto	i1l2824
 11608  0061'                    u298_20:
 11609  0061'                    i1l2790:
 11610  0061' 1F10'              	btfss	___fladd@signs,6
 11611  0062' 2800'              	goto	u299_21
 11612  0063' 2800'              	goto	u299_20
 11613  0064'                    u299_21:
 11614  0064' 2800'              	goto	i1l2794
 11615  0065'                    u299_20:
 11616  0065'                    i1l2792:
 11617  0065' 3080               	movlw	128
 11618  0066' 0088'              	movwf	??___fladd
 11619  0067' 0808'              	movf	??___fladd,w
 11620  0068' 0690'              	xorwf	___fladd@signs,f
 11621  0069'                    i1l2794:
 11622  0069' 0812'              	movf	___fladd@bexp,w
 11623  006A' 0093'              	movwf	___fladd@grs
 11624  006B'                    i1l2796:
 11625  006B' 0811'              	movf	___fladd@aexp,w
 11626  006C' 0092'              	movwf	___fladd@bexp
 11627  006D'                    i1l2798:
 11628  006D' 0813'              	movf	___fladd@grs,w
 11629  006E' 0091'              	movwf	___fladd@aexp
 11630  006F'                    i1l2800:
 11631  006F' 0800'              	movf	___fladd@b,w
 11632  0070' 0093'              	movwf	___fladd@grs
 11633  0071'                    i1l2802:
 11634  0071' 0804'              	movf	___fladd@a,w
 11635  0072' 0080'              	movwf	___fladd@b
 11636  0073'                    i1l2804:
 11637  0073' 0813'              	movf	___fladd@grs,w
 11638  0074' 0084'              	movwf	___fladd@a
 11639  0075'                    i1l2806:
 11640  0075' 0801'              	movf	___fladd@b+1,w
 11641  0076' 0093'              	movwf	___fladd@grs
 11642  0077'                    i1l2808:
 11643  0077' 0805'              	movf	___fladd@a+1,w
 11644  0078' 0081'              	movwf	___fladd@b+1
 11645  0079'                    i1l2810:
 11646  0079' 0813'              	movf	___fladd@grs,w
 11647  007A' 0085'              	movwf	___fladd@a+1
 11648  007B'                    i1l2812:
 11649  007B' 0802'              	movf	___fladd@b+2,w
 11650  007C' 0093'              	movwf	___fladd@grs
 11651  007D'                    i1l2814:
 11652  007D' 0806'              	movf	___fladd@a+2,w
 11653  007E' 0082'              	movwf	___fladd@b+2
 11654  007F'                    i1l2816:
 11655  007F' 0813'              	movf	___fladd@grs,w
 11656  0080' 0086'              	movwf	___fladd@a+2
 11657  0081'                    i1l2818:
 11658  0081' 0803'              	movf	___fladd@b+3,w
 11659  0082' 0093'              	movwf	___fladd@grs
 11660  0083'                    i1l2820:
 11661  0083' 0807'              	movf	___fladd@a+3,w
 11662  0084' 0083'              	movwf	___fladd@b+3
 11663  0085'                    i1l2822:
 11664  0085' 0813'              	movf	___fladd@grs,w
 11665  0086' 0087'              	movwf	___fladd@a+3
 11666  0087'                    i1l2824:
 11667  0087' 0193'              	clrf	___fladd@grs
 11668  0088'                    i1l2826:
 11669  0088' 0811'              	movf	___fladd@aexp,w
 11670  0089' 0088'              	movwf	??___fladd
 11671  008A' 0189'              	clrf	??___fladd+1
 11672  008B' 0809'              	movf	??___fladd+1,w
 11673  008C' 008B'              	movwf	??___fladd+3
 11674  008D' 0812'              	movf	___fladd@bexp,w
 11675  008E' 0208'              	subwf	??___fladd,w
 11676  008F' 008A'              	movwf	??___fladd+2
 11677  0090' 1C03               	skipc
 11678  0091' 038B'              	decf	??___fladd+3,f
 11679  0092' 080B'              	movf	??___fladd+3,w
 11680  0093' 3A80               	xorlw	128
 11681  0094' 00FF               	movwf	btemp+1
 11682  0095' 3080               	movlw	128
 11683  0096' 027F               	subwf	btemp+1,w
 11684  0097' 1D03               	skipz
 11685  0098' 2800'              	goto	u300_25
 11686  0099' 301A               	movlw	26
 11687  009A' 020A'              	subwf	??___fladd+2,w
 11688  009B'                    u300_25:
 11689  009B' 1C03               	skipc
 11690  009C' 2800'              	goto	u300_21
 11691  009D' 2800'              	goto	u300_20
 11692  009E'                    u300_21:
 11693  009E' 2800'              	goto	i1l2842
 11694  009F'                    u300_20:
 11695  009F'                    i1l2828:
 11696  009F' 1283               	bcf	3,5	;RP0=0, select bank0
 11697  00A0' 1303               	bcf	3,6	;RP1=0, select bank0
 11698  00A1' 0803'              	movf	___fladd@b+3,w
 11699  00A2' 0402'              	iorwf	___fladd@b+2,w
 11700  00A3' 0401'              	iorwf	___fladd@b+1,w
 11701  00A4' 0400'              	iorwf	___fladd@b,w
 11702  00A5' 1D03               	skipz
 11703  00A6' 2800'              	goto	u301_21
 11704  00A7' 2800'              	goto	u301_20
 11705  00A8'                    u301_21:
 11706  00A8' 3001               	movlw	1
 11707  00A9' 2800'              	goto	u302_20
 11708  00AA'                    u301_20:
 11709  00AA' 3000               	movlw	0
 11710  00AB'                    u302_20:
 11711  00AB' 0093'              	movwf	___fladd@grs
 11712  00AC' 3000               	movlw	0
 11713  00AD' 0083'              	movwf	___fladd@b+3
 11714  00AE' 3000               	movlw	0
 11715  00AF' 0082'              	movwf	___fladd@b+2
 11716  00B0' 3000               	movlw	0
 11717  00B1' 0081'              	movwf	___fladd@b+1
 11718  00B2' 3000               	movlw	0
 11719  00B3' 0080'              	movwf	___fladd@b
 11720  00B4' 0811'              	movf	___fladd@aexp,w
 11721  00B5' 0092'              	movwf	___fladd@bexp
 11722  00B6' 2800'              	goto	i1l681
 11723  00B7'                    i1l683:
 11724  00B7' 1C13'              	btfss	___fladd@grs,0
 11725  00B8' 2800'              	goto	u303_21
 11726  00B9' 2800'              	goto	u303_20
 11727  00BA'                    u303_21:
 11728  00BA' 2800'              	goto	i1l2832
 11729  00BB'                    u303_20:
 11730  00BB'                    i1l2830:
 11731  00BB' 0813'              	movf	___fladd@grs,w
 11732  00BC' 0088'              	movwf	??___fladd
 11733  00BD' 1003               	clrc
 11734  00BE' 0C08'              	rrf	??___fladd,w
 11735  00BF' 3801               	iorlw	1
 11736  00C0' 0093'              	movwf	___fladd@grs
 11737  00C1' 2800'              	goto	i1l2834
 11738  00C2'                    i1l2832:
 11739  00C2' 1003               	clrc
 11740  00C3' 0C93'              	rrf	___fladd@grs,f
 11741  00C4'                    i1l2834:
 11742  00C4' 1C00'              	btfss	___fladd@b,0
 11743  00C5' 2800'              	goto	u304_21
 11744  00C6' 2800'              	goto	u304_20
 11745  00C7'                    u304_21:
 11746  00C7' 2800'              	goto	i1l2838
 11747  00C8'                    u304_20:
 11748  00C8'                    i1l2836:
 11749  00C8' 1793'              	bsf	___fladd@grs,7
 11750  00C9'                    i1l2838:
 11751  00C9' 3001               	movlw	1
 11752  00CA' 0088'              	movwf	??___fladd
 11753  00CB'                    u305_25:
 11754  00CB' 0D03'              	rlf	___fladd@b+3,w
 11755  00CC' 0C83'              	rrf	___fladd@b+3,f
 11756  00CD' 0C82'              	rrf	___fladd@b+2,f
 11757  00CE' 0C81'              	rrf	___fladd@b+1,f
 11758  00CF' 0C80'              	rrf	___fladd@b,f
 11759  00D0' 0B80'              	decfsz	??___fladd& (0+127),f
 11760  00D1' 2800'              	goto	u305_25
 11761  00D2'                    i1l2840:
 11762  00D2' 3001               	movlw	1
 11763  00D3' 0088'              	movwf	??___fladd
 11764  00D4' 0808'              	movf	??___fladd,w
 11765  00D5' 0792'              	addwf	___fladd@bexp,f
 11766  00D6'                    i1l2842:
 11767  00D6' 1283               	bcf	3,5	;RP0=0, select bank0
 11768  00D7' 1303               	bcf	3,6	;RP1=0, select bank0
 11769  00D8' 0811'              	movf	___fladd@aexp,w
 11770  00D9' 0212'              	subwf	___fladd@bexp,w
 11771  00DA' 1C03               	skipc
 11772  00DB' 2800'              	goto	u306_21
 11773  00DC' 2800'              	goto	u306_20
 11774  00DD'                    u306_21:
 11775  00DD' 2800'              	goto	i1l683
 11776  00DE'                    u306_20:
 11777  00DE'                    i1l681:
 11778  00DE' 1B10'              	btfsc	___fladd@signs,6
 11779  00DF' 2800'              	goto	u307_21
 11780  00E0' 2800'              	goto	u307_20
 11781  00E1'                    u307_21:
 11782  00E1' 2800'              	goto	i1l2868
 11783  00E2'                    u307_20:
 11784  00E2'                    i1l2844:
 11785  00E2' 0812'              	movf	___fladd@bexp,w
 11786  00E3' 1D03               	btfss	3,2
 11787  00E4' 2800'              	goto	u308_21
 11788  00E5' 2800'              	goto	u308_20
 11789  00E6'                    u308_21:
 11790  00E6' 2800'              	goto	i1l2850
 11791  00E7'                    u308_20:
 11792  00E7'                    i1l2846:
 11793  00E7' 3000               	movlw	0
 11794  00E8' 0083'              	movwf	?___fladd+3
 11795  00E9' 3000               	movlw	0
 11796  00EA' 0082'              	movwf	?___fladd+2
 11797  00EB' 3000               	movlw	0
 11798  00EC' 0081'              	movwf	?___fladd+1
 11799  00ED' 3000               	movlw	0
 11800  00EE' 0080'              	movwf	?___fladd
 11801  00EF' 2800'              	goto	i1l690
 11802  00F0'                    i1l2850:
 11803  00F0' 0804'              	movf	___fladd@a,w
 11804  00F1' 0780'              	addwf	___fladd@b,f
 11805  00F2' 0805'              	movf	___fladd@a+1,w
 11806  00F3' 1103               	clrz
 11807  00F4' 1803               	skipnc
 11808  00F5' 3E01               	addlw	1
 11809  00F6' 1903               	skipnz
 11810  00F7' 2800'              	goto	u309_21
 11811  00F8' 0781'              	addwf	___fladd@b+1,f
 11812  00F9'                    u309_21:
 11813  00F9' 0806'              	movf	___fladd@a+2,w
 11814  00FA' 1103               	clrz
 11815  00FB' 1803               	skipnc
 11816  00FC' 3E01               	addlw	1
 11817  00FD' 1903               	skipnz
 11818  00FE' 2800'              	goto	u309_22
 11819  00FF' 0782'              	addwf	___fladd@b+2,f
 11820  0100'                    u309_22:
 11821  0100' 0807'              	movf	___fladd@a+3,w
 11822  0101' 1103               	clrz
 11823  0102' 1803               	skipnc
 11824  0103' 3E01               	addlw	1
 11825  0104' 1903               	skipnz
 11826  0105' 2800'              	goto	u309_23
 11827  0106' 0783'              	addwf	___fladd@b+3,f
 11828  0107'                    u309_23:
 11829  0107'                    i1l2852:
 11830  0107' 1C03'              	btfss	___fladd@b+3,0
 11831  0108' 2800'              	goto	u310_21
 11832  0109' 2800'              	goto	u310_20
 11833  010A'                    u310_21:
 11834  010A' 2800'              	goto	i1l2902
 11835  010B'                    u310_20:
 11836  010B'                    i1l2854:
 11837  010B' 1C13'              	btfss	___fladd@grs,0
 11838  010C' 2800'              	goto	u311_21
 11839  010D' 2800'              	goto	u311_20
 11840  010E'                    u311_21:
 11841  010E' 2800'              	goto	i1l2858
 11842  010F'                    u311_20:
 11843  010F'                    i1l2856:
 11844  010F' 0813'              	movf	___fladd@grs,w
 11845  0110' 0088'              	movwf	??___fladd
 11846  0111' 1003               	clrc
 11847  0112' 0C08'              	rrf	??___fladd,w
 11848  0113' 3801               	iorlw	1
 11849  0114' 0093'              	movwf	___fladd@grs
 11850  0115' 2800'              	goto	i1l2860
 11851  0116'                    i1l2858:
 11852  0116' 1003               	clrc
 11853  0117' 0C93'              	rrf	___fladd@grs,f
 11854  0118'                    i1l2860:
 11855  0118' 1C00'              	btfss	___fladd@b,0
 11856  0119' 2800'              	goto	u312_21
 11857  011A' 2800'              	goto	u312_20
 11858  011B'                    u312_21:
 11859  011B' 2800'              	goto	i1l2864
 11860  011C'                    u312_20:
 11861  011C'                    i1l2862:
 11862  011C' 1793'              	bsf	___fladd@grs,7
 11863  011D'                    i1l2864:
 11864  011D' 3001               	movlw	1
 11865  011E' 0088'              	movwf	??___fladd
 11866  011F'                    u313_25:
 11867  011F' 0D03'              	rlf	___fladd@b+3,w
 11868  0120' 0C83'              	rrf	___fladd@b+3,f
 11869  0121' 0C82'              	rrf	___fladd@b+2,f
 11870  0122' 0C81'              	rrf	___fladd@b+1,f
 11871  0123' 0C80'              	rrf	___fladd@b,f
 11872  0124' 0B80'              	decfsz	??___fladd& (0+127),f
 11873  0125' 2800'              	goto	u313_25
 11874  0126'                    i1l2866:
 11875  0126' 3001               	movlw	1
 11876  0127' 0088'              	movwf	??___fladd
 11877  0128' 0808'              	movf	??___fladd,w
 11878  0129' 0792'              	addwf	___fladd@bexp,f
 11879  012A' 2800'              	goto	i1l2902
 11880  012B'                    i1l2868:
 11881  012B' 0803'              	movf	___fladd@b+3,w
 11882  012C' 3A80               	xorlw	128
 11883  012D' 00FF               	movwf	btemp+1
 11884  012E' 0807'              	movf	___fladd@a+3,w
 11885  012F' 3A80               	xorlw	128
 11886  0130' 027F               	subwf	btemp+1,w
 11887  0131' 1D03               	skipz
 11888  0132' 2800'              	goto	u314_23
 11889  0133' 0806'              	movf	___fladd@a+2,w
 11890  0134' 0202'              	subwf	___fladd@b+2,w
 11891  0135' 1D03               	skipz
 11892  0136' 2800'              	goto	u314_23
 11893  0137' 0805'              	movf	___fladd@a+1,w
 11894  0138' 0201'              	subwf	___fladd@b+1,w
 11895  0139' 1D03               	skipz
 11896  013A' 2800'              	goto	u314_23
 11897  013B' 0804'              	movf	___fladd@a,w
 11898  013C' 0200'              	subwf	___fladd@b,w
 11899  013D'                    u314_23:
 11900  013D' 1803               	skipnc
 11901  013E' 2800'              	goto	u314_21
 11902  013F' 2800'              	goto	u314_20
 11903  0140'                    u314_21:
 11904  0140' 2800'              	goto	i1l2878
 11905  0141'                    u314_20:
 11906  0141'                    i1l2870:
 11907  0141' 30FF               	movlw	255
 11908  0142' 0088'              	movwf	??___fladd
 11909  0143' 30FF               	movlw	255
 11910  0144' 0089'              	movwf	??___fladd+1
 11911  0145' 30FF               	movlw	255
 11912  0146' 008A'              	movwf	??___fladd+2
 11913  0147' 30FF               	movlw	255
 11914  0148' 008B'              	movwf	??___fladd+3
 11915  0149' 0804'              	movf	___fladd@a,w
 11916  014A' 008C'              	movwf	??___fladd+4
 11917  014B' 0805'              	movf	___fladd@a+1,w
 11918  014C' 008D'              	movwf	??___fladd+5
 11919  014D' 0806'              	movf	___fladd@a+2,w
 11920  014E' 008E'              	movwf	??___fladd+6
 11921  014F' 0807'              	movf	___fladd@a+3,w
 11922  0150' 008F'              	movwf	??___fladd+7
 11923  0151' 0800'              	movf	___fladd@b,w
 11924  0152' 028C'              	subwf	??___fladd+4,f
 11925  0153' 0801'              	movf	___fladd@b+1,w
 11926  0154' 1C03               	skipc
 11927  0155' 0F01'              	incfsz	___fladd@b+1,w
 11928  0156' 2800'              	goto	u315_21
 11929  0157' 2800'              	goto	u315_22
 11930  0158'                    u315_21:
 11931  0158' 028D'              	subwf	??___fladd+5,f
 11932  0159'                    u315_22:
 11933  0159' 0802'              	movf	___fladd@b+2,w
 11934  015A' 1C03               	skipc
 11935  015B' 0F02'              	incfsz	___fladd@b+2,w
 11936  015C' 2800'              	goto	u315_23
 11937  015D' 2800'              	goto	u315_24
 11938  015E'                    u315_23:
 11939  015E' 028E'              	subwf	??___fladd+6,f
 11940  015F'                    u315_24:
 11941  015F' 0803'              	movf	___fladd@b+3,w
 11942  0160' 1C03               	skipc
 11943  0161' 0F03'              	incfsz	___fladd@b+3,w
 11944  0162' 2800'              	goto	u315_25
 11945  0163' 2800'              	goto	u315_26
 11946  0164'                    u315_25:
 11947  0164' 028F'              	subwf	??___fladd+7,f
 11948  0165'                    u315_26:
 11949  0165' 080C'              	movf	??___fladd+4,w
 11950  0166' 0788'              	addwf	??___fladd,f
 11951  0167' 080D'              	movf	??___fladd+5,w
 11952  0168' 1803               	skipnc
 11953  0169' 0F0D'              	incfsz	??___fladd+5,w
 11954  016A' 2800'              	goto	u316_20
 11955  016B' 2800'              	goto	u316_21
 11956  016C'                    u316_20:
 11957  016C' 0789'              	addwf	??___fladd+1,f
 11958  016D'                    u316_21:
 11959  016D' 080E'              	movf	??___fladd+6,w
 11960  016E' 1803               	skipnc
 11961  016F' 0F0E'              	incfsz	??___fladd+6,w
 11962  0170' 2800'              	goto	u316_22
 11963  0171' 2800'              	goto	u316_23
 11964  0172'                    u316_22:
 11965  0172' 078A'              	addwf	??___fladd+2,f
 11966  0173'                    u316_23:
 11967  0173' 080F'              	movf	??___fladd+7,w
 11968  0174' 1803               	skipnc
 11969  0175' 0A0F'              	incf	??___fladd+7,w
 11970  0176' 078B'              	addwf	??___fladd+3,f
 11971  0177' 080B'              	movf	??___fladd+3,w
 11972  0178' 0083'              	movwf	___fladd@b+3
 11973  0179' 080A'              	movf	??___fladd+2,w
 11974  017A' 0082'              	movwf	___fladd@b+2
 11975  017B' 0809'              	movf	??___fladd+1,w
 11976  017C' 0081'              	movwf	___fladd@b+1
 11977  017D' 0808'              	movf	??___fladd,w
 11978  017E' 0080'              	movwf	___fladd@b
 11979  017F'                    i1l2872:
 11980  017F' 3080               	movlw	128
 11981  0180' 0088'              	movwf	??___fladd
 11982  0181' 0808'              	movf	??___fladd,w
 11983  0182' 0690'              	xorwf	___fladd@signs,f
 11984  0183' 0993'              	comf	___fladd@grs,f
 11985  0184' 0A93'              	incf	___fladd@grs,f
 11986  0185'                    i1l2874:
 11987  0185' 0813'              	movf	___fladd@grs,w
 11988  0186' 1D03               	btfss	3,2
 11989  0187' 2800'              	goto	u317_21
 11990  0188' 2800'              	goto	u317_20
 11991  0189'                    u317_21:
 11992  0189' 2800'              	goto	i1l698
 11993  018A'                    u317_20:
 11994  018A'                    i1l2876:
 11995  018A' 3001               	movlw	1
 11996  018B' 0780'              	addwf	___fladd@b,f
 11997  018C' 3000               	movlw	0
 11998  018D' 1803               	skipnc
 11999  018E' 3001               	movlw	1
 12000  018F' 0781'              	addwf	___fladd@b+1,f
 12001  0190' 3000               	movlw	0
 12002  0191' 1803               	skipnc
 12003  0192' 3001               	movlw	1
 12004  0193' 0782'              	addwf	___fladd@b+2,f
 12005  0194' 3000               	movlw	0
 12006  0195' 1803               	skipnc
 12007  0196' 3001               	movlw	1
 12008  0197' 0783'              	addwf	___fladd@b+3,f
 12009  0198' 2800'              	goto	i1l698
 12010  0199'                    i1l2878:
 12011  0199' 0804'              	movf	___fladd@a,w
 12012  019A' 0280'              	subwf	___fladd@b,f
 12013  019B' 0805'              	movf	___fladd@a+1,w
 12014  019C' 1C03               	skipc
 12015  019D' 0F05'              	incfsz	___fladd@a+1,w
 12016  019E' 0281'              	subwf	___fladd@b+1,f
 12017  019F' 0806'              	movf	___fladd@a+2,w
 12018  01A0' 1C03               	skipc
 12019  01A1' 0F06'              	incfsz	___fladd@a+2,w
 12020  01A2' 0282'              	subwf	___fladd@b+2,f
 12021  01A3' 0807'              	movf	___fladd@a+3,w
 12022  01A4' 1C03               	skipc
 12023  01A5' 0F07'              	incfsz	___fladd@a+3,w
 12024  01A6' 0283'              	subwf	___fladd@b+3,f
 12025  01A7'                    i1l698:
 12026  01A7' 0803'              	movf	___fladd@b+3,w
 12027  01A8' 0402'              	iorwf	___fladd@b+2,w
 12028  01A9' 0401'              	iorwf	___fladd@b+1,w
 12029  01AA' 0400'              	iorwf	___fladd@b,w
 12030  01AB' 1D03               	skipz
 12031  01AC' 2800'              	goto	u318_21
 12032  01AD' 2800'              	goto	u318_20
 12033  01AE'                    u318_21:
 12034  01AE' 2800'              	goto	i1l2900
 12035  01AF'                    u318_20:
 12036  01AF'                    i1l2880:
 12037  01AF' 0813'              	movf	___fladd@grs,w
 12038  01B0' 1D03               	btfss	3,2
 12039  01B1' 2800'              	goto	u319_21
 12040  01B2' 2800'              	goto	u319_20
 12041  01B3'                    u319_21:
 12042  01B3' 2800'              	goto	i1l2900
 12043  01B4'                    u319_20:
 12044  01B4'                    i1l2882:
 12045  01B4' 3000               	movlw	0
 12046  01B5' 0083'              	movwf	?___fladd+3
 12047  01B6' 3000               	movlw	0
 12048  01B7' 0082'              	movwf	?___fladd+2
 12049  01B8' 3000               	movlw	0
 12050  01B9' 0081'              	movwf	?___fladd+1
 12051  01BA' 3000               	movlw	0
 12052  01BB' 0080'              	movwf	?___fladd
 12053  01BC' 2800'              	goto	i1l690
 12054  01BD'                    i1l2886:
 12055  01BD' 3001               	movlw	1
 12056  01BE' 0088'              	movwf	??___fladd
 12057  01BF'                    u320_25:
 12058  01BF' 1003               	clrc
 12059  01C0' 0D80'              	rlf	___fladd@b,f
 12060  01C1' 0D81'              	rlf	___fladd@b+1,f
 12061  01C2' 0D82'              	rlf	___fladd@b+2,f
 12062  01C3' 0D83'              	rlf	___fladd@b+3,f
 12063  01C4' 0B88'              	decfsz	??___fladd,f
 12064  01C5' 2800'              	goto	u320_25
 12065  01C6'                    i1l2888:
 12066  01C6' 1F93'              	btfss	___fladd@grs,7
 12067  01C7' 2800'              	goto	u321_21
 12068  01C8' 2800'              	goto	u321_20
 12069  01C9'                    u321_21:
 12070  01C9' 2800'              	goto	i1l702
 12071  01CA'                    u321_20:
 12072  01CA'                    i1l2890:
 12073  01CA' 1400'              	bsf	___fladd@b,0
 12074  01CB'                    i1l702:
 12075  01CB' 1C13'              	btfss	___fladd@grs,0
 12076  01CC' 2800'              	goto	u322_21
 12077  01CD' 2800'              	goto	u322_20
 12078  01CE'                    u322_21:
 12079  01CE' 2800'              	goto	i1l2894
 12080  01CF'                    u322_20:
 12081  01CF'                    i1l2892:
 12082  01CF' 1403               	setc
 12083  01D0' 0D93'              	rlf	___fladd@grs,f
 12084  01D1' 2800'              	goto	i1l2896
 12085  01D2'                    i1l2894:
 12086  01D2' 1003               	clrc
 12087  01D3' 0D93'              	rlf	___fladd@grs,f
 12088  01D4'                    i1l2896:
 12089  01D4' 0812'              	movf	___fladd@bexp,w
 12090  01D5' 1903               	btfsc	3,2
 12091  01D6' 2800'              	goto	u323_21
 12092  01D7' 2800'              	goto	u323_20
 12093  01D8'                    u323_21:
 12094  01D8' 2800'              	goto	i1l2900
 12095  01D9'                    u323_20:
 12096  01D9'                    i1l2898:
 12097  01D9' 3001               	movlw	1
 12098  01DA' 0292'              	subwf	___fladd@bexp,f
 12099  01DB'                    i1l2900:
 12100  01DB' 1F82'              	btfss	___fladd@b+2,7
 12101  01DC' 2800'              	goto	u324_21
 12102  01DD' 2800'              	goto	u324_20
 12103  01DE'                    u324_21:
 12104  01DE' 2800'              	goto	i1l2886
 12105  01DF'                    u324_20:
 12106  01DF'                    i1l2902:
 12107  01DF' 0191'              	clrf	___fladd@aexp
 12108  01E0'                    i1l2904:
 12109  01E0' 1F93'              	btfss	___fladd@grs,7
 12110  01E1' 2800'              	goto	u325_21
 12111  01E2' 2800'              	goto	u325_20
 12112  01E3'                    u325_21:
 12113  01E3' 2800'              	goto	i1l2912
 12114  01E4'                    u325_20:
 12115  01E4'                    i1l2906:
 12116  01E4' 0813'              	movf	___fladd@grs,w
 12117  01E5' 397F               	andlw	127
 12118  01E6' 1903               	btfsc	3,2
 12119  01E7' 2800'              	goto	u326_21
 12120  01E8' 2800'              	goto	u326_20
 12121  01E9'                    u326_21:
 12122  01E9' 2800'              	goto	i1l708
 12123  01EA'                    u326_20:
 12124  01EA'                    i1l2908:
 12125  01EA' 0191'              	clrf	___fladd@aexp
 12126  01EB' 0A91'              	incf	___fladd@aexp,f
 12127  01EC' 2800'              	goto	i1l2912
 12128  01ED'                    i1l708:
 12129  01ED' 1C00'              	btfss	___fladd@b,0
 12130  01EE' 2800'              	goto	u327_21
 12131  01EF' 2800'              	goto	u327_20
 12132  01F0'                    u327_21:
 12133  01F0' 2800'              	goto	i1l2912
 12134  01F1'                    u327_20:
 12135  01F1' 2800'              	goto	i1l2908
 12136  01F2'                    i1l2912:
 12137  01F2' 0811'              	movf	___fladd@aexp,w
 12138  01F3' 1903               	btfsc	3,2
 12139  01F4' 2800'              	goto	u328_21
 12140  01F5' 2800'              	goto	u328_20
 12141  01F6'                    u328_21:
 12142  01F6' 2800'              	goto	i1l711
 12143  01F7'                    u328_20:
 12144  01F7'                    i1l2914:
 12145  01F7' 3001               	movlw	1
 12146  01F8' 0780'              	addwf	___fladd@b,f
 12147  01F9' 3000               	movlw	0
 12148  01FA' 1803               	skipnc
 12149  01FB' 3001               	movlw	1
 12150  01FC' 0781'              	addwf	___fladd@b+1,f
 12151  01FD' 3000               	movlw	0
 12152  01FE' 1803               	skipnc
 12153  01FF' 3001               	movlw	1
 12154  0200' 0782'              	addwf	___fladd@b+2,f
 12155  0201' 3000               	movlw	0
 12156  0202' 1803               	skipnc
 12157  0203' 3001               	movlw	1
 12158  0204' 0783'              	addwf	___fladd@b+3,f
 12159  0205'                    i1l2916:
 12160  0205' 1C03'              	btfss	___fladd@b+3,0
 12161  0206' 2800'              	goto	u329_21
 12162  0207' 2800'              	goto	u329_20
 12163  0208'                    u329_21:
 12164  0208' 2800'              	goto	i1l711
 12165  0209'                    u329_20:
 12166  0209'                    i1l2918:
 12167  0209' 0800'              	movf	___fladd@b,w
 12168  020A' 0088'              	movwf	??___fladd
 12169  020B' 0801'              	movf	___fladd@b+1,w
 12170  020C' 0089'              	movwf	??___fladd+1
 12171  020D' 0802'              	movf	___fladd@b+2,w
 12172  020E' 008A'              	movwf	??___fladd+2
 12173  020F' 0803'              	movf	___fladd@b+3,w
 12174  0210' 008B'              	movwf	??___fladd+3
 12175  0211' 3001               	movlw	1
 12176  0212' 008C'              	movwf	??___fladd+4
 12177  0213'                    u330_25:
 12178  0213' 0D0B'              	rlf	??___fladd+3,w
 12179  0214' 0C8B'              	rrf	??___fladd+3,f
 12180  0215' 0C8A'              	rrf	??___fladd+2,f
 12181  0216' 0C89'              	rrf	??___fladd+1,f
 12182  0217' 0C88'              	rrf	??___fladd,f
 12183  0218'                    u330_20:
 12184  0218' 0B8C'              	decfsz	??___fladd+4,f
 12185  0219' 2800'              	goto	u330_25
 12186  021A' 080B'              	movf	??___fladd+3,w
 12187  021B' 0083'              	movwf	___fladd@b+3
 12188  021C' 080A'              	movf	??___fladd+2,w
 12189  021D' 0082'              	movwf	___fladd@b+2
 12190  021E' 0809'              	movf	??___fladd+1,w
 12191  021F' 0081'              	movwf	___fladd@b+1
 12192  0220' 0808'              	movf	??___fladd,w
 12193  0221' 0080'              	movwf	___fladd@b
 12194  0222' 0A12'              	incf	___fladd@bexp,w
 12195  0223' 1903               	btfsc	3,2
 12196  0224' 2800'              	goto	u331_21
 12197  0225' 2800'              	goto	u331_20
 12198  0226'                    u331_21:
 12199  0226' 2800'              	goto	i1l711
 12200  0227'                    u331_20:
 12201  0227'                    i1l2920:
 12202  0227' 3001               	movlw	1
 12203  0228' 0088'              	movwf	??___fladd
 12204  0229' 0808'              	movf	??___fladd,w
 12205  022A' 0792'              	addwf	___fladd@bexp,f
 12206  022B'                    i1l711:
 12207  022B' 0A12'              	incf	___fladd@bexp,w
 12208  022C' 1903               	btfsc	3,2
 12209  022D' 2800'              	goto	u332_21
 12210  022E' 2800'              	goto	u332_20
 12211  022F'                    u332_21:
 12212  022F' 2800'              	goto	i1l2924
 12213  0230'                    u332_20:
 12214  0230'                    i1l2922:
 12215  0230' 0812'              	movf	___fladd@bexp,w
 12216  0231' 1D03               	btfss	3,2
 12217  0232' 2800'              	goto	u333_21
 12218  0233' 2800'              	goto	u333_20
 12219  0234'                    u333_21:
 12220  0234' 2800'              	goto	i1l2930
 12221  0235'                    u333_20:
 12222  0235'                    i1l2924:
 12223  0235' 3000               	movlw	0
 12224  0236' 0083'              	movwf	___fladd@b+3
 12225  0237' 3000               	movlw	0
 12226  0238' 0082'              	movwf	___fladd@b+2
 12227  0239' 3000               	movlw	0
 12228  023A' 0081'              	movwf	___fladd@b+1
 12229  023B' 3000               	movlw	0
 12230  023C' 0080'              	movwf	___fladd@b
 12231  023D'                    i1l2926:
 12232  023D' 0812'              	movf	___fladd@bexp,w
 12233  023E' 1D03               	btfss	3,2
 12234  023F' 2800'              	goto	u334_21
 12235  0240' 2800'              	goto	u334_20
 12236  0241'                    u334_21:
 12237  0241' 2800'              	goto	i1l2930
 12238  0242'                    u334_20:
 12239  0242'                    i1l2928:
 12240  0242' 0190'              	clrf	___fladd@signs
 12241  0243'                    i1l2930:
 12242  0243' 1C12'              	btfss	___fladd@bexp,0
 12243  0244' 2800'              	goto	u335_21
 12244  0245' 2800'              	goto	u335_20
 12245  0246'                    u335_21:
 12246  0246' 2800'              	goto	i1l2934
 12247  0247'                    u335_20:
 12248  0247'                    i1l2932:
 12249  0247' 1782'              	bsf	___fladd@b+2,7
 12250  0248' 2800'              	goto	i1l719
 12251  0249'                    i1l2934:
 12252  0249' 307F               	movlw	127
 12253  024A' 0088'              	movwf	??___fladd
 12254  024B' 0808'              	movf	??___fladd,w
 12255  024C' 0582'              	andwf	___fladd@b+2,f
 12256  024D'                    i1l719:
 12257  024D' 0812'              	movf	___fladd@bexp,w
 12258  024E' 0088'              	movwf	??___fladd
 12259  024F' 1003               	clrc
 12260  0250' 0C08'              	rrf	??___fladd,w
 12261  0251' 0083'              	movwf	___fladd@b+3
 12262  0252'                    i1l2936:
 12263  0252' 1F90'              	btfss	___fladd@signs,7
 12264  0253' 2800'              	goto	u336_21
 12265  0254' 2800'              	goto	u336_20
 12266  0255'                    u336_21:
 12267  0255' 2800'              	goto	i1l720
 12268  0256'                    u336_20:
 12269  0256'                    i1l2938:
 12270  0256' 1783'              	bsf	___fladd@b+3,7
 12271  0257'                    i1l720:
 12272  0257'                    i1l690:
 12273  0257' 0008               	return
 12274  0258'                    __end_of___fladd:
 12275                           
 12276                           	psect	text56
 12277  0000'                    __ptext56:	
 12278 ;; *************** function _read_co2_environment *****************
 12279 ;; Defined at:
 12280 ;;		line 3 in file "src/sensors/co2.c"
 12281 ;; Parameters:    Size  Location     Type
 12282 ;;		None
 12283 ;; Auto vars:     Size  Location     Type
 12284 ;;  co2_value       2    8[COMMON] unsigned short 
 12285 ;;  ack             1    0        unsigned char 
 12286 ;; Return value:  Size  Location     Type
 12287 ;;                  2    2[COMMON] unsigned short 
 12288 ;; Registers used:
 12289 ;;		wreg, status,2, status,0, pclath, cstack
 12290 ;; Tracked objects:
 12291 ;;		On entry : 0/0
 12292 ;;		On exit  : 0/0
 12293 ;;		Unchanged: 0/0
 12294 ;; Data sizes:     COMMON   BANK0   BANK1   BANK3   BANK2
 12295 ;;      Params:         2       0       0       0       0
 12296 ;;      Locals:         2       0       0       0       0
 12297 ;;      Temps:          4       0       0       0       0
 12298 ;;      Totals:         8       0       0       0       0
 12299 ;;Total ram usage:        8 bytes
 12300 ;; Hardware stack levels used: 1
 12301 ;; Hardware stack levels required when called: 2
 12302 ;; This function calls:
 12303 ;;		_i2c_read
 12304 ;;		i1_i2c_start
 12305 ;;		i1_i2c_stop
 12306 ;;		i1_i2c_write
 12307 ;; This function is called by:
 12308 ;;		_interrupt_rutine
 12309 ;; This function uses a non-reentrant model
 12310 ;;
 12311                           
 12312  0000'                    _read_co2_environment:	
 12313                           ;psect for function _read_co2_environment
 12314                           
 12315  0000'                    i1l4172:	
 12316                           ;incstack = 0
 12317                           ; Regs used in _read_co2_environment: [wreg+status,2+status,0+pclath+cstack]
 12318                           
 12319  0000'                    i1l4174:
 12320                           
 12321                           ;src/sensors/co2.c: 8:     i2c_start();
 12322  0000' 120A' 118A' 2000' 120A' 118A' 	fcall	i1_i2c_start
 12323  0005'                    i1l4176:
 12324                           
 12325                           ;src/sensors/co2.c: 9:     i2c_write(0xB5);
 12326  0005' 30B5               	movlw	181
 12327  0006' 120A' 118A' 2000' 120A' 118A' 	fcall	i1_i2c_write
 12328  000B'                    i1l4178:
 12329                           
 12330                           ;src/sensors/co2.c: 10:     i2c_stop();
 12331  000B' 120A' 118A' 2000' 120A' 118A' 	fcall	i1_i2c_stop
 12332  0010'                    i1l4180:
 12333                           
 12334                           ;src/sensors/co2.c: 12:     i2c_start();
 12335  0010' 120A' 118A' 2000' 120A' 118A' 	fcall	i1_i2c_start
 12336  0015'                    i1l4182:
 12337                           
 12338                           ;src/sensors/co2.c: 13:     co2_value = i2c_read(ack);
 12339  0015' 3001               	movlw	1
 12340  0016' 120A' 118A' 2000' 120A' 118A' 	fcall	_i2c_read
 12341  001B' 0084'              	movwf	??_read_co2_environment
 12342  001C' 0185'              	clrf	??_read_co2_environment+1
 12343  001D' 0804'              	movf	??_read_co2_environment,w
 12344  001E' 0088'              	movwf	read_co2_environment@co2_value
 12345  001F' 0805'              	movf	??_read_co2_environment+1,w
 12346  0020' 0089'              	movwf	read_co2_environment@co2_value+1
 12347  0021'                    i1l4184:
 12348                           
 12349                           ;src/sensors/co2.c: 14:     co2_value = (co2_value << 8)| i2c_read(ack);
 12350  0021' 3001               	movlw	1
 12351  0022' 120A' 118A' 2000' 120A' 118A' 	fcall	_i2c_read
 12352  0027' 0084'              	movwf	??_read_co2_environment
 12353  0028' 0185'              	clrf	??_read_co2_environment+1
 12354  0029' 0808'              	movf	read_co2_environment@co2_value,w
 12355  002A' 0087'              	movwf	??_read_co2_environment+3
 12356  002B' 0186'              	clrf	??_read_co2_environment+2
 12357  002C' 0804'              	movf	??_read_co2_environment,w
 12358  002D' 0406'              	iorwf	??_read_co2_environment+2,w
 12359  002E' 0088'              	movwf	read_co2_environment@co2_value
 12360  002F' 0805'              	movf	??_read_co2_environment+1,w
 12361  0030' 0407'              	iorwf	??_read_co2_environment+3,w
 12362  0031' 0089'              	movwf	read_co2_environment@co2_value+1
 12363  0032'                    i1l4186:
 12364                           
 12365                           ;src/sensors/co2.c: 16:     i2c_stop();
 12366  0032' 120A' 118A' 2000' 120A' 118A' 	fcall	i1_i2c_stop
 12367  0037'                    i1l4188:
 12368                           
 12369                           ;src/sensors/co2.c: 17:     return co2_value;
 12370  0037' 0809'              	movf	read_co2_environment@co2_value+1,w
 12371  0038' 0083'              	movwf	?_read_co2_environment+1
 12372  0039' 0808'              	movf	read_co2_environment@co2_value,w
 12373  003A' 0082'              	movwf	?_read_co2_environment
 12374  003B'                    i1l134:
 12375  003B' 0008               	return
 12376  003C'                    __end_of_read_co2_environment:
 12377                           
 12378                           	psect	text57
 12379  0000'                    __ptext57:	
 12380 ;; *************** function i1_i2c_write *****************
 12381 ;; Defined at:
 12382 ;;		line 45 in file "src/protocols/I2C/i2c-v2.c"
 12383 ;; Parameters:    Size  Location     Type
 12384 ;;  I2C_data        1    wreg     unsigned char 
 12385 ;; Auto vars:     Size  Location     Type
 12386 ;;  I2C_data        1    0[COMMON] unsigned char 
 12387 ;; Return value:  Size  Location     Type
 12388 ;;                  1    wreg      unsigned char 
 12389 ;; Registers used:
 12390 ;;		wreg, status,2, status,0, pclath, cstack
 12391 ;; Tracked objects:
 12392 ;;		On entry : 0/0
 12393 ;;		On exit  : 0/0
 12394 ;;		Unchanged: 0/0
 12395 ;; Data sizes:     COMMON   BANK0   BANK1   BANK3   BANK2
 12396 ;;      Params:         0       0       0       0       0
 12397 ;;      Locals:         1       0       0       0       0
 12398 ;;      Temps:          0       0       0       0       0
 12399 ;;      Totals:         1       0       0       0       0
 12400 ;;Total ram usage:        1 bytes
 12401 ;; Hardware stack levels used: 1
 12402 ;; Hardware stack levels required when called: 1
 12403 ;; This function calls:
 12404 ;;		i1_wait_MSSP
 12405 ;; This function is called by:
 12406 ;;		_read_co2_environment
 12407 ;; This function uses a non-reentrant model
 12408 ;;
 12409                           
 12410  0000'                    i1_i2c_write:	
 12411                           ;psect for function i1_i2c_write
 12412                           
 12413                           
 12414                           ;incstack = 0
 12415                           ; Regs used in i1_i2c_write: [wreg+status,2+status,0+pclath+cstack]
 12416                           ;i1i2c_write@I2C_data stored from wreg
 12417  0000' 0080'              	movwf	i1i2c_write@I2C_data
 12418  0001'                    i1l4148:
 12419                           
 12420                           ;src/protocols/I2C/i2c-v2.c: 45: unsigned char i2c_write(unsigned char I2C_data);src/pro
      +                          tocols/I2C/i2c-v2.c: 46: {;src/protocols/I2C/i2c-v2.c: 47:     SSPBUF = I2C_data;
 12421  0001' 0800'              	movf	i1i2c_write@I2C_data,w
 12422  0002' 1283               	bcf	3,5	;RP0=0, select bank0
 12423  0003' 1303               	bcf	3,6	;RP1=0, select bank0
 12424  0004' 0093               	movwf	19	;volatile
 12425  0005'                    i1l4150:
 12426                           
 12427                           ;src/protocols/I2C/i2c-v2.c: 48:     wait_MSSP();
 12428  0005' 120A' 118A' 2000' 120A' 118A' 	fcall	i1_wait_MSSP
 12429  000A'                    i1l4152:
 12430                           
 12431                           ;src/protocols/I2C/i2c-v2.c: 49:     return((unsigned char)!SSPCON2bits.ACKSTAT);;	Retur
      +                          n value of i1_i2c_write is never used
 12432  000A' 1683               	bsf	3,5	;RP0=1, select bank1
 12433  000B' 1303               	bcf	3,6	;RP1=0, select bank1
 12434  000C' 0811               	movf	17,w	;volatile
 12435  000D'                    i1l101:
 12436  000D' 0008               	return
 12437  000E'                    __end_ofi1_i2c_write:
 12438                           
 12439                           	psect	text58
 12440  0000'                    __ptext58:	
 12441 ;; *************** function i1_i2c_stop *****************
 12442 ;; Defined at:
 12443 ;;		line 31 in file "src/protocols/I2C/i2c-v2.c"
 12444 ;; Parameters:    Size  Location     Type
 12445 ;;		None
 12446 ;; Auto vars:     Size  Location     Type
 12447 ;;		None
 12448 ;; Return value:  Size  Location     Type
 12449 ;;                  1    wreg      void 
 12450 ;; Registers used:
 12451 ;;		status,2, status,0, pclath, cstack
 12452 ;; Tracked objects:
 12453 ;;		On entry : 0/0
 12454 ;;		On exit  : 0/0
 12455 ;;		Unchanged: 0/0
 12456 ;; Data sizes:     COMMON   BANK0   BANK1   BANK3   BANK2
 12457 ;;      Params:         0       0       0       0       0
 12458 ;;      Locals:         0       0       0       0       0
 12459 ;;      Temps:          0       0       0       0       0
 12460 ;;      Totals:         0       0       0       0       0
 12461 ;;Total ram usage:        0 bytes
 12462 ;; Hardware stack levels used: 1
 12463 ;; Hardware stack levels required when called: 1
 12464 ;; This function calls:
 12465 ;;		i1_wait_MSSP
 12466 ;; This function is called by:
 12467 ;;		_read_co2_environment
 12468 ;;		_read_luminosity
 12469 ;; This function uses a non-reentrant model
 12470 ;;
 12471                           
 12472  0000'                    i1_i2c_stop:	
 12473                           ;psect for function i1_i2c_stop
 12474                           
 12475  0000'                    i1l4142:	
 12476                           ;incstack = 0
 12477                           ; Regs used in i1_i2c_stop: [status,2+status,0+pclath+cstack]
 12478                           
 12479                           
 12480                           ;src/protocols/I2C/i2c-v2.c: 33:     SSPCON2bits.PEN = 1;
 12481  0000' 1683               	bsf	3,5	;RP0=1, select bank1
 12482  0001' 1303               	bcf	3,6	;RP1=0, select bank1
 12483  0002' 1511               	bsf	17,2	;volatile
 12484  0003'                    i1l4144:
 12485                           
 12486                           ;src/protocols/I2C/i2c-v2.c: 34:     wait_MSSP();
 12487  0003' 120A' 118A' 2000' 120A' 118A' 	fcall	i1_wait_MSSP
 12488  0008'                    i1l95:
 12489  0008' 0008               	return
 12490  0009'                    __end_ofi1_i2c_stop:
 12491                           
 12492                           	psect	text59
 12493  0000'                    __ptext59:	
 12494 ;; *************** function i1_i2c_start *****************
 12495 ;; Defined at:
 12496 ;;		line 24 in file "src/protocols/I2C/i2c-v2.c"
 12497 ;; Parameters:    Size  Location     Type
 12498 ;;		None
 12499 ;; Auto vars:     Size  Location     Type
 12500 ;;		None
 12501 ;; Return value:  Size  Location     Type
 12502 ;;                  1    wreg      void 
 12503 ;; Registers used:
 12504 ;;		status,2, status,0, pclath, cstack
 12505 ;; Tracked objects:
 12506 ;;		On entry : 0/0
 12507 ;;		On exit  : 0/0
 12508 ;;		Unchanged: 0/0
 12509 ;; Data sizes:     COMMON   BANK0   BANK1   BANK3   BANK2
 12510 ;;      Params:         0       0       0       0       0
 12511 ;;      Locals:         0       0       0       0       0
 12512 ;;      Temps:          0       0       0       0       0
 12513 ;;      Totals:         0       0       0       0       0
 12514 ;;Total ram usage:        0 bytes
 12515 ;; Hardware stack levels used: 1
 12516 ;; Hardware stack levels required when called: 1
 12517 ;; This function calls:
 12518 ;;		i1_wait_MSSP
 12519 ;; This function is called by:
 12520 ;;		_read_co2_environment
 12521 ;;		_read_luminosity
 12522 ;; This function uses a non-reentrant model
 12523 ;;
 12524                           
 12525  0000'                    i1_i2c_start:	
 12526                           ;psect for function i1_i2c_start
 12527                           
 12528  0000'                    i1l4136:	
 12529                           ;incstack = 0
 12530                           ; Regs used in i1_i2c_start: [status,2+status,0+pclath+cstack]
 12531                           
 12532                           
 12533                           ;src/protocols/I2C/i2c-v2.c: 26:     SSPCON2bits.SEN = 1;
 12534  0000' 1683               	bsf	3,5	;RP0=1, select bank1
 12535  0001' 1303               	bcf	3,6	;RP1=0, select bank1
 12536  0002' 1411               	bsf	17,0	;volatile
 12537  0003'                    i1l4138:
 12538                           
 12539                           ;src/protocols/I2C/i2c-v2.c: 27:     wait_MSSP();
 12540  0003' 120A' 118A' 2000' 120A' 118A' 	fcall	i1_wait_MSSP
 12541  0008'                    i1l92:
 12542  0008' 0008               	return
 12543  0009'                    __end_ofi1_i2c_start:
 12544                           
 12545                           	psect	text60
 12546  0000'                    __ptext60:	
 12547 ;; *************** function _i2c_read *****************
 12548 ;; Defined at:
 12549 ;;		line 55 in file "src/protocols/I2C/i2c-v2.c"
 12550 ;; Parameters:    Size  Location     Type
 12551 ;;  master_ack      1    wreg     unsigned char 
 12552 ;; Auto vars:     Size  Location     Type
 12553 ;;  master_ack      1    0[COMMON] unsigned char 
 12554 ;;  I2C_data        1    1[COMMON] unsigned char 
 12555 ;; Return value:  Size  Location     Type
 12556 ;;                  1    wreg      unsigned char 
 12557 ;; Registers used:
 12558 ;;		wreg, status,2, status,0, pclath, cstack
 12559 ;; Tracked objects:
 12560 ;;		On entry : 0/0
 12561 ;;		On exit  : 0/0
 12562 ;;		Unchanged: 0/0
 12563 ;; Data sizes:     COMMON   BANK0   BANK1   BANK3   BANK2
 12564 ;;      Params:         0       0       0       0       0
 12565 ;;      Locals:         2       0       0       0       0
 12566 ;;      Temps:          0       0       0       0       0
 12567 ;;      Totals:         2       0       0       0       0
 12568 ;;Total ram usage:        2 bytes
 12569 ;; Hardware stack levels used: 1
 12570 ;; Hardware stack levels required when called: 1
 12571 ;; This function calls:
 12572 ;;		i1_wait_MSSP
 12573 ;; This function is called by:
 12574 ;;		_read_co2_environment
 12575 ;;		_read_luminosity
 12576 ;; This function uses a non-reentrant model
 12577 ;;
 12578                           
 12579  0000'                    _i2c_read:	
 12580                           ;psect for function _i2c_read
 12581                           
 12582                           
 12583                           ;incstack = 0
 12584                           ; Regs used in _i2c_read: [wreg+status,2+status,0+pclath+cstack]
 12585                           ;i2c_read@master_ack stored from wreg
 12586  0000' 0080'              	movwf	i2c_read@master_ack
 12587  0001'                    i1l4032:
 12588                           
 12589                           ;src/protocols/I2C/i2c-v2.c: 55: unsigned char i2c_read(char master_ack);src/protocols/I
      +                          2C/i2c-v2.c: 56: {;src/protocols/I2C/i2c-v2.c: 57:     unsigned char I2C_data;;src/proto
      +                          cols/I2C/i2c-v2.c: 59:     SSPCON2bits.RCEN = 1;
 12590  0001' 1683               	bsf	3,5	;RP0=1, select bank1
 12591  0002' 1303               	bcf	3,6	;RP1=0, select bank1
 12592  0003' 1591               	bsf	17,3	;volatile
 12593  0004'                    i1l4034:
 12594                           
 12595                           ;src/protocols/I2C/i2c-v2.c: 60:     wait_MSSP();
 12596  0004' 120A' 118A' 2000' 120A' 118A' 	fcall	i1_wait_MSSP
 12597  0009'                    i1l4036:
 12598                           
 12599                           ;src/protocols/I2C/i2c-v2.c: 62:     I2C_data = SSPBUF;
 12600  0009' 1283               	bcf	3,5	;RP0=0, select bank0
 12601  000A' 1303               	bcf	3,6	;RP1=0, select bank0
 12602  000B' 0813               	movf	19,w	;volatile
 12603  000C' 0081'              	movwf	i2c_read@I2C_data
 12604  000D'                    i1l4038:
 12605                           
 12606                           ;src/protocols/I2C/i2c-v2.c: 64:     if(master_ack)
 12607  000D' 0800'              	movf	i2c_read@master_ack,w
 12608  000E' 1903               	btfsc	3,2
 12609  000F' 2800'              	goto	u547_21
 12610  0010' 2800'              	goto	u547_20
 12611  0011'                    u547_21:
 12612  0011' 2800'              	goto	i1l104
 12613  0012'                    u547_20:
 12614  0012'                    i1l4040:
 12615                           
 12616                           ;src/protocols/I2C/i2c-v2.c: 65:         SSPCON2bits.ACKDT = 0;
 12617  0012' 1683               	bsf	3,5	;RP0=1, select bank1
 12618  0013' 1303               	bcf	3,6	;RP1=0, select bank1
 12619  0014' 1291               	bcf	17,5	;volatile
 12620  0015' 2800'              	goto	i1l105
 12621  0016'                    i1l104:	
 12622                           ;src/protocols/I2C/i2c-v2.c: 66:     else
 12623                           
 12624                           
 12625                           ;src/protocols/I2C/i2c-v2.c: 67:         SSPCON2bits.ACKDT = 1;
 12626  0016' 1683               	bsf	3,5	;RP0=1, select bank1
 12627  0017' 1303               	bcf	3,6	;RP1=0, select bank1
 12628  0018' 1691               	bsf	17,5	;volatile
 12629  0019'                    i1l105:
 12630                           
 12631                           ;src/protocols/I2C/i2c-v2.c: 69:     SSPCON2bits.ACKEN = 1;
 12632  0019' 1611               	bsf	17,4	;volatile
 12633  001A'                    i1l4042:
 12634                           
 12635                           ;src/protocols/I2C/i2c-v2.c: 70:     wait_MSSP();
 12636  001A' 120A' 118A' 2000' 120A' 118A' 	fcall	i1_wait_MSSP
 12637  001F'                    i1l4044:
 12638                           
 12639                           ;src/protocols/I2C/i2c-v2.c: 71:     return(I2C_data);
 12640  001F' 0801'              	movf	i2c_read@I2C_data,w
 12641  0020'                    i1l106:
 12642  0020' 0008               	return
 12643  0021'                    __end_of_i2c_read:
 12644                           
 12645                           	psect	text61
 12646  0000'                    __ptext61:	
 12647 ;; *************** function i1_wait_MSSP *****************
 12648 ;; Defined at:
 12649 ;;		line 16 in file "src/protocols/I2C/i2c-v2.c"
 12650 ;; Parameters:    Size  Location     Type
 12651 ;;		None
 12652 ;; Auto vars:     Size  Location     Type
 12653 ;;		None
 12654 ;; Return value:  Size  Location     Type
 12655 ;;                  1    wreg      void 
 12656 ;; Registers used:
 12657 ;;		None
 12658 ;; Tracked objects:
 12659 ;;		On entry : 0/0
 12660 ;;		On exit  : 0/0
 12661 ;;		Unchanged: 0/0
 12662 ;; Data sizes:     COMMON   BANK0   BANK1   BANK3   BANK2
 12663 ;;      Params:         0       0       0       0       0
 12664 ;;      Locals:         0       0       0       0       0
 12665 ;;      Temps:          0       0       0       0       0
 12666 ;;      Totals:         0       0       0       0       0
 12667 ;;Total ram usage:        0 bytes
 12668 ;; Hardware stack levels used: 1
 12669 ;; This function calls:
 12670 ;;		Nothing
 12671 ;; This function is called by:
 12672 ;;		_i2c_read
 12673 ;;		i1_i2c_start
 12674 ;;		i1_i2c_stop
 12675 ;;		i1_i2c_write
 12676 ;; This function uses a non-reentrant model
 12677 ;;
 12678                           
 12679  0000'                    i1_wait_MSSP:	
 12680                           ;psect for function i1_wait_MSSP
 12681                           
 12682  0000'                    i1l3966:	
 12683                           ;incstack = 0
 12684                           ; Regs used in i1_wait_MSSP: []
 12685                           
 12686  0000'                    i1l86:	
 12687                           ;src/protocols/I2C/i2c-v2.c: 18:     while(!PIR1bits.SSPIF);
 12688                           
 12689  0000' 1283               	bcf	3,5	;RP0=0, select bank0
 12690  0001' 1303               	bcf	3,6	;RP1=0, select bank0
 12691  0002' 1D8C               	btfss	12,3	;volatile
 12692  0003' 2800'              	goto	u541_21
 12693  0004' 2800'              	goto	u541_20
 12694  0005'                    u541_21:
 12695  0005' 2800'              	goto	i1l86
 12696  0006'                    u541_20:
 12697  0006'                    i1l88:
 12698                           
 12699                           ;src/protocols/I2C/i2c-v2.c: 20:     PIR1bits.SSPIF = 0;
 12700  0006' 118C               	bcf	12,3	;volatile
 12701  0007'                    i1l89:	
 12702                           ;src/protocols/I2C/i2c-v2.c: 21:     return;
 12703                           
 12704  0007' 0008               	return
 12705  0008'                    __end_ofi1_wait_MSSP:
 12706                           
 12707                           	psect	text62
 12708  0000'                    __ptext62:	
 12709 ;; *************** function _change_color_lamp *****************
 12710 ;; Defined at:
 12711 ;;		line 8 in file "src/actuators/leds.c"
 12712 ;; Parameters:    Size  Location     Type
 12713 ;;  R               1    wreg     unsigned char 
 12714 ;;  G               1    5[COMMON] unsigned char 
 12715 ;;  B               1    6[COMMON] unsigned char 
 12716 ;; Auto vars:     Size  Location     Type
 12717 ;;  R               1    7[COMMON] unsigned char 
 12718 ;; Return value:  Size  Location     Type
 12719 ;;                  1    wreg      void 
 12720 ;; Registers used:
 12721 ;;		wreg, status,2, status,0, pclath, cstack
 12722 ;; Tracked objects:
 12723 ;;		On entry : 0/0
 12724 ;;		On exit  : 0/0
 12725 ;;		Unchanged: 0/0
 12726 ;; Data sizes:     COMMON   BANK0   BANK1   BANK3   BANK2
 12727 ;;      Params:         2       0       0       0       0
 12728 ;;      Locals:         1       0       0       0       0
 12729 ;;      Temps:          0       0       0       0       0
 12730 ;;      Totals:         3       0       0       0       0
 12731 ;;Total ram usage:        3 bytes
 12732 ;; Hardware stack levels used: 1
 12733 ;; Hardware stack levels required when called: 1
 12734 ;; This function calls:
 12735 ;;		_spi_write_read
 12736 ;; This function is called by:
 12737 ;;		_interrupt_rutine
 12738 ;; This function uses a non-reentrant model
 12739 ;;
 12740                           
 12741  0000'                    _change_color_lamp:	
 12742                           ;psect for function _change_color_lamp
 12743                           
 12744                           
 12745                           ;incstack = 0
 12746                           ; Regs used in _change_color_lamp: [wreg+status,2+status,0+pclath+cstack]
 12747                           ;change_color_lamp@R stored from wreg
 12748  0000' 0087'              	movwf	change_color_lamp@R
 12749  0001'                    i1l4158:
 12750                           
 12751                           ;src/actuators/leds.c: 8: void change_color_lamp (uint8_t R, uint8_t G, uint8_t B);src/a
      +                          ctuators/leds.c: 9: {;src/actuators/leds.c: 10:     spi_write_read (R);
 12752  0001' 0807'              	movf	change_color_lamp@R,w
 12753  0002' 120A' 118A' 2000' 120A' 118A' 	fcall	_spi_write_read
 12754                           
 12755                           ;src/actuators/leds.c: 11:     spi_write_read (G);
 12756  0007' 0805'              	movf	change_color_lamp@G,w
 12757  0008' 120A' 118A' 2000' 120A' 118A' 	fcall	_spi_write_read
 12758                           
 12759                           ;src/actuators/leds.c: 12:     spi_write_read (B);
 12760  000D' 0806'              	movf	change_color_lamp@B,w
 12761  000E' 120A' 118A' 2000' 120A' 118A' 	fcall	_spi_write_read
 12762  0013'                    i1l8:
 12763  0013' 0008               	return
 12764  0014'                    __end_of_change_color_lamp:
 12765                           
 12766                           	psect	text63
 12767  0000'                    __ptext63:	
 12768 ;; *************** function _change_brightness_lamp *****************
 12769 ;; Defined at:
 12770 ;;		line 4 in file "src/actuators/leds.c"
 12771 ;; Parameters:    Size  Location     Type
 12772 ;;  brightness      1    wreg     unsigned char 
 12773 ;; Auto vars:     Size  Location     Type
 12774 ;;  brightness      1    5[COMMON] unsigned char 
 12775 ;; Return value:  Size  Location     Type
 12776 ;;                  1    wreg      void 
 12777 ;; Registers used:
 12778 ;;		wreg, status,2, status,0, pclath, cstack
 12779 ;; Tracked objects:
 12780 ;;		On entry : 0/0
 12781 ;;		On exit  : 0/0
 12782 ;;		Unchanged: 0/0
 12783 ;; Data sizes:     COMMON   BANK0   BANK1   BANK3   BANK2
 12784 ;;      Params:         0       0       0       0       0
 12785 ;;      Locals:         1       0       0       0       0
 12786 ;;      Temps:          0       0       0       0       0
 12787 ;;      Totals:         1       0       0       0       0
 12788 ;;Total ram usage:        1 bytes
 12789 ;; Hardware stack levels used: 1
 12790 ;; Hardware stack levels required when called: 1
 12791 ;; This function calls:
 12792 ;;		_spi_write_read
 12793 ;; This function is called by:
 12794 ;;		_interrupt_rutine
 12795 ;; This function uses a non-reentrant model
 12796 ;;
 12797                           
 12798  0000'                    _change_brightness_lamp:	
 12799                           ;psect for function _change_brightness_lamp
 12800                           
 12801                           
 12802                           ;incstack = 0
 12803                           ; Regs used in _change_brightness_lamp: [wreg+status,2+status,0+pclath+cstack]
 12804                           ;change_brightness_lamp@brightness stored from wreg
 12805  0000' 0085'              	movwf	change_brightness_lamp@brightness
 12806  0001'                    i1l4156:
 12807                           
 12808                           ;src/actuators/leds.c: 4: void change_brightness_lamp (uint8_t brightness);src/actuators
      +                          /leds.c: 5: {;src/actuators/leds.c: 6:     spi_write_read (brightness);
 12809  0001' 0805'              	movf	change_brightness_lamp@brightness,w
 12810  0002' 120A' 118A' 2000' 120A' 118A' 	fcall	_spi_write_read
 12811  0007'                    i1l5:
 12812  0007' 0008               	return
 12813  0008'                    __end_of_change_brightness_lamp:
 12814                           
 12815                           	psect	text64
 12816  0000'                    __ptext64:	
 12817 ;; *************** function _spi_write_read *****************
 12818 ;; Defined at:
 12819 ;;		line 8 in file "src/protocols/SPI/spi-master-v1.c"
 12820 ;; Parameters:    Size  Location     Type
 12821 ;;  one_byte        1    wreg     unsigned char 
 12822 ;; Auto vars:     Size  Location     Type
 12823 ;;  one_byte        1    2[COMMON] unsigned char 
 12824 ;;  x               1    4[COMMON] unsigned char 
 12825 ;;  answer          1    3[COMMON] unsigned char 
 12826 ;; Return value:  Size  Location     Type
 12827 ;;                  1    wreg      unsigned char 
 12828 ;; Registers used:
 12829 ;;		wreg, status,2, status,0
 12830 ;; Tracked objects:
 12831 ;;		On entry : 0/0
 12832 ;;		On exit  : 0/0
 12833 ;;		Unchanged: 0/0
 12834 ;; Data sizes:     COMMON   BANK0   BANK1   BANK3   BANK2
 12835 ;;      Params:         0       0       0       0       0
 12836 ;;      Locals:         3       0       0       0       0
 12837 ;;      Temps:          2       0       0       0       0
 12838 ;;      Totals:         5       0       0       0       0
 12839 ;;Total ram usage:        5 bytes
 12840 ;; Hardware stack levels used: 1
 12841 ;; This function calls:
 12842 ;;		Nothing
 12843 ;; This function is called by:
 12844 ;;		_change_brightness_lamp
 12845 ;;		_change_color_lamp
 12846 ;; This function uses a non-reentrant model
 12847 ;;
 12848                           
 12849  0000'                    _spi_write_read:	
 12850                           ;psect for function _spi_write_read
 12851                           
 12852                           
 12853                           ;incstack = 0
 12854                           ; Regs used in _spi_write_read: [wreg+status,2+status,0]
 12855                           ;spi_write_read@one_byte stored from wreg
 12856  0000' 0082'              	movwf	spi_write_read@one_byte
 12857  0001'                    i1l3968:
 12858                           
 12859                           ;src/protocols/SPI/spi-master-v1.c: 8: char spi_write_read(char one_byte);src/protocols/
      +                          SPI/spi-master-v1.c: 9: {;src/protocols/SPI/spi-master-v1.c: 10:     char answer, x;;src
      +                          /protocols/SPI/spi-master-v1.c: 12:     answer = 0;
 12860  0001' 0183'              	clrf	spi_write_read@answer
 12861  0002'                    i1l3970:
 12862                           
 12863                           ;src/protocols/SPI/spi-master-v1.c: 14:     for(x = 8; x > 0; x--)
 12864  0002' 3008               	movlw	8
 12865  0003' 0084'              	movwf	spi_write_read@x
 12866  0004'                    i1l3976:
 12867                           
 12868                           ;src/protocols/SPI/spi-master-v1.c: 15:     {;src/protocols/SPI/spi-master-v1.c: 16:    
      +                               PORTCbits.RC0 = (__bit)((one_byte >> (x - 1)) & 0b00000001);
 12869  0004' 0802'              	movf	spi_write_read@one_byte,w
 12870  0005' 0080'              	movwf	??_spi_write_read
 12871  0006' 0804'              	movf	spi_write_read@x,w
 12872  0007' 3EFF               	addlw	-1
 12873  0008' 3E01               	addlw	1
 12874  0009' 2800'              	goto	u542_24
 12875  000A'                    u542_25:
 12876  000A' 1003               	clrc
 12877  000B' 0C80'              	rrf	??_spi_write_read,f
 12878  000C'                    u542_24:
 12879  000C' 3EFF               	addlw	-1
 12880  000D' 1D03               	skipz
 12881  000E' 2800'              	goto	u542_25
 12882  000F' 1800'              	btfsc	??_spi_write_read,0
 12883  0010' 2800'              	goto	u543_21
 12884  0011' 2800'              	goto	u543_20
 12885  0012'                    u543_21:
 12886  0012' 1283               	bcf	3,5	;RP0=0, select bank0
 12887  0013' 1303               	bcf	3,6	;RP1=0, select bank0
 12888  0014' 1407               	bsf	7,0	;volatile
 12889  0015' 2800'              	goto	u544_24
 12890  0016'                    u543_20:
 12891  0016' 1283               	bcf	3,5	;RP0=0, select bank0
 12892  0017' 1303               	bcf	3,6	;RP1=0, select bank0
 12893  0018' 1007               	bcf	7,0	;volatile
 12894  0019'                    u544_24:
 12895  0019'                    i1l3978:
 12896                           
 12897                           ;src/protocols/SPI/spi-master-v1.c: 18:         PORTCbits.RC5 = 1;
 12898  0019' 1687               	bsf	7,5	;volatile
 12899                           
 12900                           ;src/protocols/SPI/spi-master-v1.c: 20:         answer |= (char)PORTAbits.RA5;
 12901  001A' 0E05               	swapf	5,w	;volatile
 12902  001B' 0080'              	movwf	??_spi_write_read
 12903  001C' 0C00'              	rrf	??_spi_write_read,w
 12904  001D' 3901               	andlw	1
 12905  001E' 0081'              	movwf	??_spi_write_read+1
 12906  001F' 0801'              	movf	??_spi_write_read+1,w
 12907  0020' 0483'              	iorwf	spi_write_read@answer,f
 12908  0021'                    i1l3980:
 12909                           
 12910                           ;src/protocols/SPI/spi-master-v1.c: 21:         PORTCbits.RC5 = 0;
 12911  0021' 1287               	bcf	7,5	;volatile
 12912  0022'                    i1l3982:
 12913                           
 12914                           ;src/protocols/SPI/spi-master-v1.c: 23:         if(x > 1)
 12915  0022' 3002               	movlw	2
 12916  0023' 0204'              	subwf	spi_write_read@x,w
 12917  0024' 1C03               	skipc
 12918  0025' 2800'              	goto	u545_21
 12919  0026' 2800'              	goto	u545_20
 12920  0027'                    u545_21:
 12921  0027' 2800'              	goto	i1l71
 12922  0028'                    u545_20:
 12923  0028'                    i1l3984:
 12924                           
 12925                           ;src/protocols/SPI/spi-master-v1.c: 24:             answer = answer << 1;
 12926  0028' 0803'              	movf	spi_write_read@answer,w
 12927  0029' 0080'              	movwf	??_spi_write_read
 12928  002A' 0700'              	addwf	??_spi_write_read,w
 12929  002B' 0083'              	movwf	spi_write_read@answer
 12930  002C'                    i1l71:
 12931                           
 12932                           ;src/protocols/SPI/spi-master-v1.c: 25:     }
 12933  002C' 3001               	movlw	1
 12934  002D' 0284'              	subwf	spi_write_read@x,f
 12935  002E' 0804'              	movf	spi_write_read@x,w
 12936  002F' 1D03               	btfss	3,2
 12937  0030' 2800'              	goto	u546_21
 12938  0031' 2800'              	goto	u546_20
 12939  0032'                    u546_21:
 12940  0032' 2800'              	goto	i1l3976
 12941  0033'                    u546_20:
 12942  0033'                    i1l72:
 12943  0033' 0008               	return
 12944  0034'                    __end_of_spi_write_read:
 12945  007E                     btemp	set	126	;btemp
 12946  007E                     wtemp0	set	126
 12947                           
 12948                           	psect	config
 12949                           
 12950                           ;Config register CONFIG1 @ 0x2007
 12951                           ;	Oscillator Selection bits
 12952                           ;	FOSC = HS, HS oscillator: High-speed crystal/resonator on RA6/OSC2/CLKOUT and RA7/OSC1
      +                          /CLKIN
 12953                           ;	Watchdog Timer Enable bit
 12954                           ;	WDTE = OFF, WDT disabled and can be enabled by SWDTEN bit of the WDTCON register
 12955                           ;	Power-up Timer Enable bit
 12956                           ;	PWRTE = ON, PWRT enabled
 12957                           ;	RE3/MCLR pin function select bit
 12958                           ;	MCLRE = ON, RE3/MCLR pin function is MCLR
 12959                           ;	Code Protection bit
 12960                           ;	CP = OFF, Program memory code protection is disabled
 12961                           ;	Data Code Protection bit
 12962                           ;	CPD = OFF, Data memory code protection is disabled
 12963                           ;	Brown Out Reset Selection bits
 12964                           ;	BOREN = OFF, BOR disabled
 12965                           ;	Internal External Switchover bit
 12966                           ;	IESO = OFF, Internal/External Switchover mode is disabled
 12967                           ;	Fail-Safe Clock Monitor Enabled bit
 12968                           ;	FCMEN = OFF, Fail-Safe Clock Monitor is disabled
 12969                           ;	Low Voltage Programming Enable bit
 12970                           ;	LVP = OFF, RB3 pin has digital I/O, HV on MCLR must be used for programming
 12971                           ;	In-Circuit Debugger Mode bit
 12972                           ;	DEBUG = OFF, In-Circuit Debugger disabled, RB6/ICSPCLK and RB7/ICSPDAT are general pur
      +                          pose I/O pins
 12973  2007                     	org	8199
 12974  2007  20E2               	dw	8418
 12975                           
 12976                           ;Config register CONFIG2 @ 0x2008
 12977                           ;	Brown-out Reset Selection bit
 12978                           ;	BOR4V = BOR21V, Brown-out Reset set to 2.1V
 12979                           ;	Flash Program Memory Self Write Enable bits
 12980                           ;	WRT = OFF, Write protection off
 12981  2008                     	org	8200
 12982  2008  3EFF               	dw	16127
 12983                           
 12984                           	psect	text24_split_1
 12985  0000'                    i1l3608:
 12986                           
 12987                           ;/opt/microchip/xc8/v2.45/pic/sources/c99/common/doprnt.c: 657:     u.f = 1.0;
 12988  0000' 303F               	movlw	63
 12989  0001' 1683               	bsf	3,5	;RP0=1, select bank1
 12990  0002' 1303               	bcf	3,6	;RP1=0, select bank1
 12991  0003' 0080'              	movwf	(efgtoa@u+3)^(0+128)
 12992  0004' 3080               	movlw	128
 12993  0005' 0080'              	movwf	(efgtoa@u+2)^(0+128)
 12994  0006' 3000               	movlw	0
 12995  0007' 0080'              	movwf	(efgtoa@u+1)^(0+128)
 12996  0008' 3000               	movlw	0
 12997  0009' 0080'              	movwf	efgtoa@u^(0+128)
 12998  000A'                    i1l3610:
 12999                           
 13000                           ;/opt/microchip/xc8/v2.45/pic/sources/c99/common/doprnt.c: 658:     e = 0;
 13001  000A' 0180'              	clrf	efgtoa@e^(0+128)
 13002  000B' 0180'              	clrf	(efgtoa@e+1)^(0+128)
 13003  000C'                    i1l3612:
 13004                           
 13005                           ;/opt/microchip/xc8/v2.45/pic/sources/c99/common/doprnt.c: 659:  if (!(g.f == 0.0)) {
 13006  000C' 0800'              	movf	(efgtoa@g+3)^(0+128),w
 13007  000D' 0083'              	movwf	___fleq@ff1+3
 13008  000E' 0800'              	movf	(efgtoa@g+2)^(0+128),w
 13009  000F' 0082'              	movwf	___fleq@ff1+2
 13010  0010' 0800'              	movf	(efgtoa@g+1)^(0+128),w
 13011  0011' 0081'              	movwf	___fleq@ff1+1
 13012  0012' 0800'              	movf	efgtoa@g^(0+128),w
 13013  0013' 0080'              	movwf	___fleq@ff1
 13014  0014' 3000               	movlw	0
 13015  0015' 0087'              	movwf	___fleq@ff2+3
 13016  0016' 3000               	movlw	0
 13017  0017' 0086'              	movwf	___fleq@ff2+2
 13018  0018' 3000               	movlw	0
 13019  0019' 0085'              	movwf	___fleq@ff2+1
 13020  001A' 3000               	movlw	0
 13021  001B' 0084'              	movwf	___fleq@ff2
 13022  001C' 120A' 118A' 2000' 120A' 118A' 	fcall	___fleq
 13023  0021' 1803               	btfsc	3,0
 13024  0022' 2800'              	goto	u493_21
 13025  0023' 2800'              	goto	u493_20
 13026  0024'                    u493_21:
 13027  0024' 2800'              	goto	i1l3638
 13028  0025'                    u493_20:
 13029  0025' 2800'              	goto	i1l3618
 13030  0026'                    i1l3616:
 13031                           
 13032                           ;/opt/microchip/xc8/v2.45/pic/sources/c99/common/doprnt.c: 661:    u = ou;
 13033  0026' 1683               	bsf	3,5	;RP0=1, select bank1
 13034  0027' 1303               	bcf	3,6	;RP1=0, select bank1
 13035  0028' 0800'              	movf	(efgtoa@ou+3)^(0+128),w
 13036  0029' 0080'              	movwf	(efgtoa@u+3)^(0+128)
 13037  002A' 0800'              	movf	(efgtoa@ou+2)^(0+128),w
 13038  002B' 0080'              	movwf	(efgtoa@u+2)^(0+128)
 13039  002C' 0800'              	movf	(efgtoa@ou+1)^(0+128),w
 13040  002D' 0080'              	movwf	(efgtoa@u+1)^(0+128)
 13041  002E' 0800'              	movf	efgtoa@ou^(0+128),w
 13042  002F' 0080'              	movwf	efgtoa@u^(0+128)
 13043                           
 13044                           ;/opt/microchip/xc8/v2.45/pic/sources/c99/common/doprnt.c: 662:    ++e;
 13045  0030' 3001               	movlw	1
 13046  0031' 0780'              	addwf	efgtoa@e^(0+128),f
 13047  0032' 1803               	skipnc
 13048  0033' 0A80'              	incf	(efgtoa@e+1)^(0+128),f
 13049  0034' 3000               	movlw	0
 13050  0035' 0780'              	addwf	(efgtoa@e+1)^(0+128),f
 13051  0036'                    i1l3618:
 13052                           
 13053                           ;/opt/microchip/xc8/v2.45/pic/sources/c99/common/doprnt.c: 660:   while ((labs((g).u-((o
      +                          u.f = u.f*10.0,ou)).u) <= 1) || g.f > ou.f) {
 13054  0036' 3041               	movlw	65
 13055  0037' 1283               	bcf	3,5	;RP0=0, select bank0
 13056  0038' 1303               	bcf	3,6	;RP1=0, select bank0
 13057  0039' 0083'              	movwf	___flmul@b+3
 13058  003A' 3020               	movlw	32
 13059  003B' 0082'              	movwf	___flmul@b+2
 13060  003C' 3000               	movlw	0
 13061  003D' 0081'              	movwf	___flmul@b+1
 13062  003E' 3000               	movlw	0
 13063  003F' 0080'              	movwf	___flmul@b
 13064  0040' 1683               	bsf	3,5	;RP0=1, select bank1
 13065  0041' 1303               	bcf	3,6	;RP1=0, select bank1
 13066  0042' 0800'              	movf	(efgtoa@u+3)^(0+128),w
 13067  0043' 1283               	bcf	3,5	;RP0=0, select bank0
 13068  0044' 1303               	bcf	3,6	;RP1=0, select bank0
 13069  0045' 0087'              	movwf	___flmul@a+3
 13070  0046' 1683               	bsf	3,5	;RP0=1, select bank1
 13071  0047' 1303               	bcf	3,6	;RP1=0, select bank1
 13072  0048' 0800'              	movf	(efgtoa@u+2)^(0+128),w
 13073  0049' 1283               	bcf	3,5	;RP0=0, select bank0
 13074  004A' 1303               	bcf	3,6	;RP1=0, select bank0
 13075  004B' 0086'              	movwf	___flmul@a+2
 13076  004C' 1683               	bsf	3,5	;RP0=1, select bank1
 13077  004D' 1303               	bcf	3,6	;RP1=0, select bank1
 13078  004E' 0800'              	movf	(efgtoa@u+1)^(0+128),w
 13079  004F' 1283               	bcf	3,5	;RP0=0, select bank0
 13080  0050' 1303               	bcf	3,6	;RP1=0, select bank0
 13081  0051' 0085'              	movwf	___flmul@a+1
 13082  0052' 1683               	bsf	3,5	;RP0=1, select bank1
 13083  0053' 1303               	bcf	3,6	;RP1=0, select bank1
 13084  0054' 0800'              	movf	efgtoa@u^(0+128),w
 13085  0055' 1283               	bcf	3,5	;RP0=0, select bank0
 13086  0056' 1303               	bcf	3,6	;RP1=0, select bank0
 13087  0057' 0084'              	movwf	___flmul@a
 13088  0058' 120A' 118A' 2000' 120A' 118A' 	fcall	___flmul
 13089  005D' 1283               	bcf	3,5	;RP0=0, select bank0
 13090  005E' 1303               	bcf	3,6	;RP1=0, select bank0
 13091  005F' 0803'              	movf	?___flmul+3,w
 13092  0060' 1683               	bsf	3,5	;RP0=1, select bank1
 13093  0061' 1303               	bcf	3,6	;RP1=0, select bank1
 13094  0062' 0080'              	movwf	(efgtoa@ou+3)^(0+128)
 13095  0063' 1283               	bcf	3,5	;RP0=0, select bank0
 13096  0064' 1303               	bcf	3,6	;RP1=0, select bank0
 13097  0065' 0802'              	movf	?___flmul+2,w
 13098  0066' 1683               	bsf	3,5	;RP0=1, select bank1
 13099  0067' 1303               	bcf	3,6	;RP1=0, select bank1
 13100  0068' 0080'              	movwf	(efgtoa@ou+2)^(0+128)
 13101  0069' 1283               	bcf	3,5	;RP0=0, select bank0
 13102  006A' 1303               	bcf	3,6	;RP1=0, select bank0
 13103  006B' 0801'              	movf	?___flmul+1,w
 13104  006C' 1683               	bsf	3,5	;RP0=1, select bank1
 13105  006D' 1303               	bcf	3,6	;RP1=0, select bank1
 13106  006E' 0080'              	movwf	(efgtoa@ou+1)^(0+128)
 13107  006F' 1283               	bcf	3,5	;RP0=0, select bank0
 13108  0070' 1303               	bcf	3,6	;RP1=0, select bank0
 13109  0071' 0800'              	movf	?___flmul,w
 13110  0072' 1683               	bsf	3,5	;RP0=1, select bank1
 13111  0073' 1303               	bcf	3,6	;RP1=0, select bank1
 13112  0074' 0080'              	movwf	efgtoa@ou^(0+128)
 13113  0075'                    i1l3620:
 13114  0075' 0800'              	movf	efgtoa@g^(0+128),w
 13115  0076' 1283               	bcf	3,5	;RP0=0, select bank0
 13116  0077' 1303               	bcf	3,6	;RP1=0, select bank0
 13117  0078' 00C7'              	movwf	??_efgtoa
 13118  0079' 1683               	bsf	3,5	;RP0=1, select bank1
 13119  007A' 1303               	bcf	3,6	;RP1=0, select bank1
 13120  007B' 0800'              	movf	(efgtoa@g+1)^(0+128),w
 13121  007C' 1283               	bcf	3,5	;RP0=0, select bank0
 13122  007D' 1303               	bcf	3,6	;RP1=0, select bank0
 13123  007E' 00C8'              	movwf	??_efgtoa+1
 13124  007F' 1683               	bsf	3,5	;RP0=1, select bank1
 13125  0080' 1303               	bcf	3,6	;RP1=0, select bank1
 13126  0081' 0800'              	movf	(efgtoa@g+2)^(0+128),w
 13127  0082' 1283               	bcf	3,5	;RP0=0, select bank0
 13128  0083' 1303               	bcf	3,6	;RP1=0, select bank0
 13129  0084' 00C9'              	movwf	??_efgtoa+2
 13130  0085' 1683               	bsf	3,5	;RP0=1, select bank1
 13131  0086' 1303               	bcf	3,6	;RP1=0, select bank1
 13132  0087' 0800'              	movf	(efgtoa@g+3)^(0+128),w
 13133  0088' 1283               	bcf	3,5	;RP0=0, select bank0
 13134  0089' 1303               	bcf	3,6	;RP1=0, select bank0
 13135  008A' 00CA'              	movwf	??_efgtoa+3
 13136  008B' 1683               	bsf	3,5	;RP0=1, select bank1
 13137  008C' 1303               	bcf	3,6	;RP1=0, select bank1
 13138  008D' 0800'              	movf	efgtoa@ou^(0+128),w
 13139  008E' 1283               	bcf	3,5	;RP0=0, select bank0
 13140  008F' 1303               	bcf	3,6	;RP1=0, select bank0
 13141  0090' 02C7'              	subwf	??_efgtoa,f
 13142  0091' 1683               	bsf	3,5	;RP0=1, select bank1
 13143  0092' 1303               	bcf	3,6	;RP1=0, select bank1
 13144  0093' 0800'              	movf	(efgtoa@ou+1)^(0+128),w
 13145  0094' 1C03               	skipc
 13146  0095' 0F00'              	incfsz	(efgtoa@ou+1)^(0+128),w
 13147  0096' 2800'              	goto	u494_21
 13148  0097' 2800'              	goto	u494_22
 13149  0098'                    u494_21:
 13150  0098' 1283               	bcf	3,5	;RP0=0, select bank0
 13151  0099' 1303               	bcf	3,6	;RP1=0, select bank0
 13152  009A' 02C8'              	subwf	??_efgtoa+1,f
 13153  009B'                    u494_22:
 13154  009B' 1683               	bsf	3,5	;RP0=1, select bank1
 13155  009C' 1303               	bcf	3,6	;RP1=0, select bank1
 13156  009D' 0800'              	movf	(efgtoa@ou+2)^(0+128),w
 13157  009E' 1C03               	skipc
 13158  009F' 0F00'              	incfsz	(efgtoa@ou+2)^(0+128),w
 13159  00A0' 2800'              	goto	u494_23
 13160  00A1' 2800'              	goto	u494_24
 13161  00A2'                    u494_23:
 13162  00A2' 1283               	bcf	3,5	;RP0=0, select bank0
 13163  00A3' 1303               	bcf	3,6	;RP1=0, select bank0
 13164  00A4' 02C9'              	subwf	??_efgtoa+2,f
 13165  00A5'                    u494_24:
 13166  00A5' 1683               	bsf	3,5	;RP0=1, select bank1
 13167  00A6' 1303               	bcf	3,6	;RP1=0, select bank1
 13168  00A7' 0800'              	movf	(efgtoa@ou+3)^(0+128),w
 13169  00A8' 1C03               	skipc
 13170  00A9' 0F00'              	incfsz	(efgtoa@ou+3)^(0+128),w
 13171  00AA' 2800'              	goto	u494_25
 13172  00AB' 2800'              	goto	u494_26
 13173  00AC'                    u494_25:
 13174  00AC' 1283               	bcf	3,5	;RP0=0, select bank0
 13175  00AD' 1303               	bcf	3,6	;RP1=0, select bank0
 13176  00AE' 02CA'              	subwf	??_efgtoa+3,f
 13177  00AF'                    u494_26:
 13178  00AF' 1683               	bsf	3,5	;RP0=1, select bank1
 13179  00B0' 1303               	bcf	3,6	;RP1=0, select bank1
 13180  00B1' 1283               	bcf	3,5	;RP0=0, select bank0
 13181  00B2' 1303               	bcf	3,6	;RP1=0, select bank0
 13182  00B3' 084A'              	movf	??_efgtoa+3,w
 13183  00B4' 0083'              	movwf	labs@a+3
 13184  00B5' 0849'              	movf	??_efgtoa+2,w
 13185  00B6' 0082'              	movwf	labs@a+2
 13186  00B7' 0848'              	movf	??_efgtoa+1,w
 13187  00B8' 0081'              	movwf	labs@a+1
 13188  00B9' 0847'              	movf	??_efgtoa,w
 13189  00BA' 0080'              	movwf	labs@a
 13190  00BB' 120A' 118A' 2000' 120A' 118A' 	fcall	_labs
 13191  00C0' 1B83'              	btfsc	?_labs+3,7
 13192  00C1' 2800'              	goto	u495_21
 13193  00C2' 0803'              	movf	?_labs+3,w
 13194  00C3' 1D03               	btfss	3,2
 13195  00C4' 2800'              	goto	u495_20
 13196  00C5' 0802'              	movf	?_labs+2,w
 13197  00C6' 1D03               	btfss	3,2
 13198  00C7' 2800'              	goto	u495_20
 13199  00C8' 0801'              	movf	?_labs+1,w
 13200  00C9' 1D03               	btfss	3,2
 13201  00CA' 2800'              	goto	u495_20
 13202  00CB' 3002               	movlw	2
 13203  00CC' 0200'              	subwf	?_labs,w
 13204  00CD' 1D03               	skipz
 13205  00CE' 2800'              	goto	u495_23
 13206  00CF'                    u495_23:
 13207  00CF' 1C03               	btfss	3,0
 13208  00D0' 2800'              	goto	u495_21
 13209  00D1' 2800'              	goto	u495_20
 13210  00D2'                    u495_21:
 13211  00D2' 2800'              	goto	i1l3616
 13212  00D3'                    u495_20:
 13213  00D3'                    i1l3622:
 13214  00D3' 1683               	bsf	3,5	;RP0=1, select bank1
 13215  00D4' 1303               	bcf	3,6	;RP1=0, select bank1
 13216  00D5' 0800'              	movf	(efgtoa@ou+3)^(0+128),w
 13217  00D6' 1283               	bcf	3,5	;RP0=0, select bank0
 13218  00D7' 1303               	bcf	3,6	;RP1=0, select bank0
 13219  00D8' 009D'              	movwf	___flge@ff1+3
 13220  00D9' 1683               	bsf	3,5	;RP0=1, select bank1
 13221  00DA' 1303               	bcf	3,6	;RP1=0, select bank1
 13222  00DB' 0800'              	movf	(efgtoa@ou+2)^(0+128),w
 13223  00DC' 1283               	bcf	3,5	;RP0=0, select bank0
 13224  00DD' 1303               	bcf	3,6	;RP1=0, select bank0
 13225  00DE' 009C'              	movwf	___flge@ff1+2
 13226  00DF' 1683               	bsf	3,5	;RP0=1, select bank1
 13227  00E0' 1303               	bcf	3,6	;RP1=0, select bank1
 13228  00E1' 0800'              	movf	(efgtoa@ou+1)^(0+128),w
 13229  00E2' 1283               	bcf	3,5	;RP0=0, select bank0
 13230  00E3' 1303               	bcf	3,6	;RP1=0, select bank0
 13231  00E4' 009B'              	movwf	___flge@ff1+1
 13232  00E5' 1683               	bsf	3,5	;RP0=1, select bank1
 13233  00E6' 1303               	bcf	3,6	;RP1=0, select bank1
 13234  00E7' 0800'              	movf	efgtoa@ou^(0+128),w
 13235  00E8' 1283               	bcf	3,5	;RP0=0, select bank0
 13236  00E9' 1303               	bcf	3,6	;RP1=0, select bank0
 13237  00EA' 009A'              	movwf	___flge@ff1
 13238  00EB' 1683               	bsf	3,5	;RP0=1, select bank1
 13239  00EC' 1303               	bcf	3,6	;RP1=0, select bank1
 13240  00ED' 0800'              	movf	(efgtoa@g+3)^(0+128),w
 13241  00EE' 1283               	bcf	3,5	;RP0=0, select bank0
 13242  00EF' 1303               	bcf	3,6	;RP1=0, select bank0
 13243  00F0' 00A1'              	movwf	___flge@ff2+3
 13244  00F1' 1683               	bsf	3,5	;RP0=1, select bank1
 13245  00F2' 1303               	bcf	3,6	;RP1=0, select bank1
 13246  00F3' 0800'              	movf	(efgtoa@g+2)^(0+128),w
 13247  00F4' 1283               	bcf	3,5	;RP0=0, select bank0
 13248  00F5' 1303               	bcf	3,6	;RP1=0, select bank0
 13249  00F6' 00A0'              	movwf	___flge@ff2+2
 13250  00F7' 1683               	bsf	3,5	;RP0=1, select bank1
 13251  00F8' 1303               	bcf	3,6	;RP1=0, select bank1
 13252  00F9' 0800'              	movf	(efgtoa@g+1)^(0+128),w
 13253  00FA' 1283               	bcf	3,5	;RP0=0, select bank0
 13254  00FB' 1303               	bcf	3,6	;RP1=0, select bank0
 13255  00FC' 009F'              	movwf	___flge@ff2+1
 13256  00FD' 1683               	bsf	3,5	;RP0=1, select bank1
 13257  00FE' 1303               	bcf	3,6	;RP1=0, select bank1
 13258  00FF' 0800'              	movf	efgtoa@g^(0+128),w
 13259  0100' 1283               	bcf	3,5	;RP0=0, select bank0
 13260  0101' 1303               	bcf	3,6	;RP1=0, select bank0
 13261  0102' 009E'              	movwf	___flge@ff2
 13262  0103' 120A' 118A' 2000' 120A' 118A' 	fcall	___flge
 13263  0108' 1C03               	btfss	3,0
 13264  0109' 2800'              	goto	u496_21
 13265  010A' 2800'              	goto	u496_20
 13266  010B'                    u496_21:
 13267  010B' 2800'              	goto	i1l3616
 13268  010C'                    u496_20:
 13269  010C'                    i1l3624:
 13270                           
 13271                           ;/opt/microchip/xc8/v2.45/pic/sources/c99/common/doprnt.c: 664:   if ((labs((g).u-(u).u)
      +                           <= 1)) {
 13272  010C' 1683               	bsf	3,5	;RP0=1, select bank1
 13273  010D' 1303               	bcf	3,6	;RP1=0, select bank1
 13274  010E' 0800'              	movf	efgtoa@g^(0+128),w
 13275  010F' 1283               	bcf	3,5	;RP0=0, select bank0
 13276  0110' 1303               	bcf	3,6	;RP1=0, select bank0
 13277  0111' 00C7'              	movwf	??_efgtoa
 13278  0112' 1683               	bsf	3,5	;RP0=1, select bank1
 13279  0113' 1303               	bcf	3,6	;RP1=0, select bank1
 13280  0114' 0800'              	movf	(efgtoa@g+1)^(0+128),w
 13281  0115' 1283               	bcf	3,5	;RP0=0, select bank0
 13282  0116' 1303               	bcf	3,6	;RP1=0, select bank0
 13283  0117' 00C8'              	movwf	??_efgtoa+1
 13284  0118' 1683               	bsf	3,5	;RP0=1, select bank1
 13285  0119' 1303               	bcf	3,6	;RP1=0, select bank1
 13286  011A' 0800'              	movf	(efgtoa@g+2)^(0+128),w
 13287  011B' 1283               	bcf	3,5	;RP0=0, select bank0
 13288  011C' 1303               	bcf	3,6	;RP1=0, select bank0
 13289  011D' 00C9'              	movwf	??_efgtoa+2
 13290  011E' 1683               	bsf	3,5	;RP0=1, select bank1
 13291  011F' 1303               	bcf	3,6	;RP1=0, select bank1
 13292  0120' 0800'              	movf	(efgtoa@g+3)^(0+128),w
 13293  0121' 1283               	bcf	3,5	;RP0=0, select bank0
 13294  0122' 1303               	bcf	3,6	;RP1=0, select bank0
 13295  0123' 00CA'              	movwf	??_efgtoa+3
 13296  0124' 1683               	bsf	3,5	;RP0=1, select bank1
 13297  0125' 1303               	bcf	3,6	;RP1=0, select bank1
 13298  0126' 0800'              	movf	efgtoa@u^(0+128),w
 13299  0127' 1283               	bcf	3,5	;RP0=0, select bank0
 13300  0128' 1303               	bcf	3,6	;RP1=0, select bank0
 13301  0129' 02C7'              	subwf	??_efgtoa,f
 13302  012A' 1683               	bsf	3,5	;RP0=1, select bank1
 13303  012B' 1303               	bcf	3,6	;RP1=0, select bank1
 13304  012C' 0800'              	movf	(efgtoa@u+1)^(0+128),w
 13305  012D' 1C03               	skipc
 13306  012E' 0F00'              	incfsz	(efgtoa@u+1)^(0+128),w
 13307  012F' 2800'              	goto	u497_21
 13308  0130' 2800'              	goto	u497_22
 13309  0131'                    u497_21:
 13310  0131' 1283               	bcf	3,5	;RP0=0, select bank0
 13311  0132' 1303               	bcf	3,6	;RP1=0, select bank0
 13312  0133' 02C8'              	subwf	??_efgtoa+1,f
 13313  0134'                    u497_22:
 13314  0134' 1683               	bsf	3,5	;RP0=1, select bank1
 13315  0135' 1303               	bcf	3,6	;RP1=0, select bank1
 13316  0136' 0800'              	movf	(efgtoa@u+2)^(0+128),w
 13317  0137' 1C03               	skipc
 13318  0138' 0F00'              	incfsz	(efgtoa@u+2)^(0+128),w
 13319  0139' 2800'              	goto	u497_23
 13320  013A' 2800'              	goto	u497_24
 13321  013B'                    u497_23:
 13322  013B' 1283               	bcf	3,5	;RP0=0, select bank0
 13323  013C' 1303               	bcf	3,6	;RP1=0, select bank0
 13324  013D' 02C9'              	subwf	??_efgtoa+2,f
 13325  013E'                    u497_24:
 13326  013E' 1683               	bsf	3,5	;RP0=1, select bank1
 13327  013F' 1303               	bcf	3,6	;RP1=0, select bank1
 13328  0140' 0800'              	movf	(efgtoa@u+3)^(0+128),w
 13329  0141' 1C03               	skipc
 13330  0142' 0F00'              	incfsz	(efgtoa@u+3)^(0+128),w
 13331  0143' 2800'              	goto	u497_25
 13332  0144' 2800'              	goto	u497_26
 13333  0145'                    u497_25:
 13334  0145' 1283               	bcf	3,5	;RP0=0, select bank0
 13335  0146' 1303               	bcf	3,6	;RP1=0, select bank0
 13336  0147' 02CA'              	subwf	??_efgtoa+3,f
 13337  0148'                    u497_26:
 13338  0148' 1683               	bsf	3,5	;RP0=1, select bank1
 13339  0149' 1303               	bcf	3,6	;RP1=0, select bank1
 13340  014A' 1283               	bcf	3,5	;RP0=0, select bank0
 13341  014B' 1303               	bcf	3,6	;RP1=0, select bank0
 13342  014C' 084A'              	movf	??_efgtoa+3,w
 13343  014D' 0083'              	movwf	labs@a+3
 13344  014E' 0849'              	movf	??_efgtoa+2,w
 13345  014F' 0082'              	movwf	labs@a+2
 13346  0150' 0848'              	movf	??_efgtoa+1,w
 13347  0151' 0081'              	movwf	labs@a+1
 13348  0152' 0847'              	movf	??_efgtoa,w
 13349  0153' 0080'              	movwf	labs@a
 13350  0154' 120A' 118A' 2000' 120A' 118A' 	fcall	_labs
 13351  0159' 1B83'              	btfsc	?_labs+3,7
 13352  015A' 2800'              	goto	u498_20
 13353  015B' 0803'              	movf	?_labs+3,w
 13354  015C' 1D03               	btfss	3,2
 13355  015D' 2800'              	goto	u498_21
 13356  015E' 0802'              	movf	?_labs+2,w
 13357  015F' 1D03               	btfss	3,2
 13358  0160' 2800'              	goto	u498_21
 13359  0161' 0801'              	movf	?_labs+1,w
 13360  0162' 1D03               	btfss	3,2
 13361  0163' 2800'              	goto	u498_21
 13362  0164' 3002               	movlw	2
 13363  0165' 0200'              	subwf	?_labs,w
 13364  0166' 1D03               	skipz
 13365  0167' 2800'              	goto	u498_23
 13366  0168'                    u498_23:
 13367  0168' 1803               	btfsc	3,0
 13368  0169' 2800'              	goto	u498_21
 13369  016A' 2800'              	goto	u498_20
 13370  016B'                    u498_21:
 13371  016B' 2800'              	goto	i1l3636
 13372  016C'                    u498_20:
 13373  016C'                    i1l3626:
 13374                           
 13375                           ;/opt/microchip/xc8/v2.45/pic/sources/c99/common/doprnt.c: 665:    g = u;
 13376  016C' 1683               	bsf	3,5	;RP0=1, select bank1
 13377  016D' 1303               	bcf	3,6	;RP1=0, select bank1
 13378  016E' 0800'              	movf	(efgtoa@u+3)^(0+128),w
 13379  016F' 0080'              	movwf	(efgtoa@g+3)^(0+128)
 13380  0170' 0800'              	movf	(efgtoa@u+2)^(0+128),w
 13381  0171' 0080'              	movwf	(efgtoa@g+2)^(0+128)
 13382  0172' 0800'              	movf	(efgtoa@u+1)^(0+128),w
 13383  0173' 0080'              	movwf	(efgtoa@g+1)^(0+128)
 13384  0174' 0800'              	movf	efgtoa@u^(0+128),w
 13385  0175' 0080'              	movwf	efgtoa@g^(0+128)
 13386                           
 13387                           ;/opt/microchip/xc8/v2.45/pic/sources/c99/common/doprnt.c: 666:   }
 13388  0176' 2800'              	goto	i1l3638
 13389  0177'                    i1l3628:
 13390                           
 13391                           ;/opt/microchip/xc8/v2.45/pic/sources/c99/common/doprnt.c: 669:     u.f = u.f/10.0;
 13392  0177' 3041               	movlw	65
 13393  0178' 1283               	bcf	3,5	;RP0=0, select bank0
 13394  0179' 1303               	bcf	3,6	;RP1=0, select bank0
 13395  017A' 0097'              	movwf	___fldiv@a+3
 13396  017B' 3020               	movlw	32
 13397  017C' 0096'              	movwf	___fldiv@a+2
 13398  017D' 3000               	movlw	0
 13399  017E' 0095'              	movwf	___fldiv@a+1
 13400  017F' 3000               	movlw	0
 13401  0180' 0094'              	movwf	___fldiv@a
 13402  0181' 1683               	bsf	3,5	;RP0=1, select bank1
 13403  0182' 1303               	bcf	3,6	;RP1=0, select bank1
 13404  0183' 0800'              	movf	(efgtoa@u+3)^(0+128),w
 13405  0184' 1283               	bcf	3,5	;RP0=0, select bank0
 13406  0185' 1303               	bcf	3,6	;RP1=0, select bank0
 13407  0186' 009B'              	movwf	___fldiv@b+3
 13408  0187' 1683               	bsf	3,5	;RP0=1, select bank1
 13409  0188' 1303               	bcf	3,6	;RP1=0, select bank1
 13410  0189' 0800'              	movf	(efgtoa@u+2)^(0+128),w
 13411  018A' 1283               	bcf	3,5	;RP0=0, select bank0
 13412  018B' 1303               	bcf	3,6	;RP1=0, select bank0
 13413  018C' 009A'              	movwf	___fldiv@b+2
 13414  018D' 1683               	bsf	3,5	;RP0=1, select bank1
 13415  018E' 1303               	bcf	3,6	;RP1=0, select bank1
 13416  018F' 0800'              	movf	(efgtoa@u+1)^(0+128),w
 13417  0190' 1283               	bcf	3,5	;RP0=0, select bank0
 13418  0191' 1303               	bcf	3,6	;RP1=0, select bank0
 13419  0192' 0099'              	movwf	___fldiv@b+1
 13420  0193' 1683               	bsf	3,5	;RP0=1, select bank1
 13421  0194' 1303               	bcf	3,6	;RP1=0, select bank1
 13422  0195' 0800'              	movf	efgtoa@u^(0+128),w
 13423  0196' 1283               	bcf	3,5	;RP0=0, select bank0
 13424  0197' 1303               	bcf	3,6	;RP1=0, select bank0
 13425  0198' 0098'              	movwf	___fldiv@b
 13426  0199' 120A' 118A' 2000' 120A' 118A' 	fcall	___fldiv
 13427  019E' 1283               	bcf	3,5	;RP0=0, select bank0
 13428  019F' 1303               	bcf	3,6	;RP1=0, select bank0
 13429  01A0' 0817'              	movf	?___fldiv+3,w
 13430  01A1' 1683               	bsf	3,5	;RP0=1, select bank1
 13431  01A2' 1303               	bcf	3,6	;RP1=0, select bank1
 13432  01A3' 0080'              	movwf	(efgtoa@u+3)^(0+128)
 13433  01A4' 1283               	bcf	3,5	;RP0=0, select bank0
 13434  01A5' 1303               	bcf	3,6	;RP1=0, select bank0
 13435  01A6' 0816'              	movf	?___fldiv+2,w
 13436  01A7' 1683               	bsf	3,5	;RP0=1, select bank1
 13437  01A8' 1303               	bcf	3,6	;RP1=0, select bank1
 13438  01A9' 0080'              	movwf	(efgtoa@u+2)^(0+128)
 13439  01AA' 1283               	bcf	3,5	;RP0=0, select bank0
 13440  01AB' 1303               	bcf	3,6	;RP1=0, select bank0
 13441  01AC' 0815'              	movf	?___fldiv+1,w
 13442  01AD' 1683               	bsf	3,5	;RP0=1, select bank1
 13443  01AE' 1303               	bcf	3,6	;RP1=0, select bank1
 13444  01AF' 0080'              	movwf	(efgtoa@u+1)^(0+128)
 13445  01B0' 1283               	bcf	3,5	;RP0=0, select bank0
 13446  01B1' 1303               	bcf	3,6	;RP1=0, select bank0
 13447  01B2' 0814'              	movf	?___fldiv,w
 13448  01B3' 1683               	bsf	3,5	;RP0=1, select bank1
 13449  01B4' 1303               	bcf	3,6	;RP1=0, select bank1
 13450  01B5' 0080'              	movwf	efgtoa@u^(0+128)
 13451  01B6'                    i1l3630:
 13452                           
 13453                           ;/opt/microchip/xc8/v2.45/pic/sources/c99/common/doprnt.c: 670:     --e;
 13454  01B6' 30FF               	movlw	255
 13455  01B7' 0780'              	addwf	efgtoa@e^(0+128),f
 13456  01B8' 1803               	skipnc
 13457  01B9' 0A80'              	incf	(efgtoa@e+1)^(0+128),f
 13458  01BA' 30FF               	movlw	255
 13459  01BB' 0780'              	addwf	(efgtoa@e+1)^(0+128),f
 13460  01BC'                    i1l3632:
 13461                           
 13462                           ;/opt/microchip/xc8/v2.45/pic/sources/c99/common/doprnt.c: 671:     if ((labs((g).u-(u).
      +                          u) <= 1)) {
 13463  01BC' 0800'              	movf	efgtoa@g^(0+128),w
 13464  01BD' 1283               	bcf	3,5	;RP0=0, select bank0
 13465  01BE' 1303               	bcf	3,6	;RP1=0, select bank0
 13466  01BF' 00C7'              	movwf	??_efgtoa
 13467  01C0' 1683               	bsf	3,5	;RP0=1, select bank1
 13468  01C1' 1303               	bcf	3,6	;RP1=0, select bank1
 13469  01C2' 0800'              	movf	(efgtoa@g+1)^(0+128),w
 13470  01C3' 1283               	bcf	3,5	;RP0=0, select bank0
 13471  01C4' 1303               	bcf	3,6	;RP1=0, select bank0
 13472  01C5' 00C8'              	movwf	??_efgtoa+1
 13473  01C6' 1683               	bsf	3,5	;RP0=1, select bank1
 13474  01C7' 1303               	bcf	3,6	;RP1=0, select bank1
 13475  01C8' 0800'              	movf	(efgtoa@g+2)^(0+128),w
 13476  01C9' 1283               	bcf	3,5	;RP0=0, select bank0
 13477  01CA' 1303               	bcf	3,6	;RP1=0, select bank0
 13478  01CB' 00C9'              	movwf	??_efgtoa+2
 13479  01CC' 1683               	bsf	3,5	;RP0=1, select bank1
 13480  01CD' 1303               	bcf	3,6	;RP1=0, select bank1
 13481  01CE' 0800'              	movf	(efgtoa@g+3)^(0+128),w
 13482  01CF' 1283               	bcf	3,5	;RP0=0, select bank0
 13483  01D0' 1303               	bcf	3,6	;RP1=0, select bank0
 13484  01D1' 00CA'              	movwf	??_efgtoa+3
 13485  01D2' 1683               	bsf	3,5	;RP0=1, select bank1
 13486  01D3' 1303               	bcf	3,6	;RP1=0, select bank1
 13487  01D4' 0800'              	movf	efgtoa@u^(0+128),w
 13488  01D5' 1283               	bcf	3,5	;RP0=0, select bank0
 13489  01D6' 1303               	bcf	3,6	;RP1=0, select bank0
 13490  01D7' 02C7'              	subwf	??_efgtoa,f
 13491  01D8' 1683               	bsf	3,5	;RP0=1, select bank1
 13492  01D9' 1303               	bcf	3,6	;RP1=0, select bank1
 13493  01DA' 0800'              	movf	(efgtoa@u+1)^(0+128),w
 13494  01DB' 1C03               	skipc
 13495  01DC' 0F00'              	incfsz	(efgtoa@u+1)^(0+128),w
 13496  01DD' 2800'              	goto	u499_21
 13497  01DE' 2800'              	goto	u499_22
 13498  01DF'                    u499_21:
 13499  01DF' 1283               	bcf	3,5	;RP0=0, select bank0
 13500  01E0' 1303               	bcf	3,6	;RP1=0, select bank0
 13501  01E1' 02C8'              	subwf	??_efgtoa+1,f
 13502  01E2'                    u499_22:
 13503  01E2' 1683               	bsf	3,5	;RP0=1, select bank1
 13504  01E3' 1303               	bcf	3,6	;RP1=0, select bank1
 13505  01E4' 0800'              	movf	(efgtoa@u+2)^(0+128),w
 13506  01E5' 1C03               	skipc
 13507  01E6' 0F00'              	incfsz	(efgtoa@u+2)^(0+128),w
 13508  01E7' 2800'              	goto	u499_23
 13509  01E8' 2800'              	goto	u499_24
 13510  01E9'                    u499_23:
 13511  01E9' 1283               	bcf	3,5	;RP0=0, select bank0
 13512  01EA' 1303               	bcf	3,6	;RP1=0, select bank0
 13513  01EB' 02C9'              	subwf	??_efgtoa+2,f
 13514  01EC'                    u499_24:
 13515  01EC' 1683               	bsf	3,5	;RP0=1, select bank1
 13516  01ED' 1303               	bcf	3,6	;RP1=0, select bank1
 13517  01EE' 0800'              	movf	(efgtoa@u+3)^(0+128),w
 13518  01EF' 1C03               	skipc
 13519  01F0' 0F00'              	incfsz	(efgtoa@u+3)^(0+128),w
 13520  01F1' 2800'              	goto	u499_25
 13521  01F2' 2800'              	goto	u499_26
 13522  01F3'                    u499_25:
 13523  01F3' 1283               	bcf	3,5	;RP0=0, select bank0
 13524  01F4' 1303               	bcf	3,6	;RP1=0, select bank0
 13525  01F5' 02CA'              	subwf	??_efgtoa+3,f
 13526  01F6'                    u499_26:
 13527  01F6' 1683               	bsf	3,5	;RP0=1, select bank1
 13528  01F7' 1303               	bcf	3,6	;RP1=0, select bank1
 13529  01F8' 1283               	bcf	3,5	;RP0=0, select bank0
 13530  01F9' 1303               	bcf	3,6	;RP1=0, select bank0
 13531  01FA' 084A'              	movf	??_efgtoa+3,w
 13532  01FB' 0083'              	movwf	labs@a+3
 13533  01FC' 0849'              	movf	??_efgtoa+2,w
 13534  01FD' 0082'              	movwf	labs@a+2
 13535  01FE' 0848'              	movf	??_efgtoa+1,w
 13536  01FF' 0081'              	movwf	labs@a+1
 13537  0200' 0847'              	movf	??_efgtoa,w
 13538  0201' 0080'              	movwf	labs@a
 13539  0202' 120A' 118A' 2000' 120A' 118A' 	fcall	_labs
 13540  0207' 1B83'              	btfsc	?_labs+3,7
 13541  0208' 2800'              	goto	u500_20
 13542  0209' 0803'              	movf	?_labs+3,w
 13543  020A' 1D03               	btfss	3,2
 13544  020B' 2800'              	goto	u500_21
 13545  020C' 0802'              	movf	?_labs+2,w
 13546  020D' 1D03               	btfss	3,2
 13547  020E' 2800'              	goto	u500_21
 13548  020F' 0801'              	movf	?_labs+1,w
 13549  0210' 1D03               	btfss	3,2
 13550  0211' 2800'              	goto	u500_21
 13551  0212' 3002               	movlw	2
 13552  0213' 0200'              	subwf	?_labs,w
 13553  0214' 1D03               	skipz
 13554  0215' 2800'              	goto	u500_23
 13555  0216'                    u500_23:
 13556  0216' 1803               	btfsc	3,0
 13557  0217' 2800'              	goto	u500_21
 13558  0218' 2800'              	goto	u500_20
 13559  0219'                    u500_21:
 13560  0219' 2800'              	goto	i1l3636
 13561  021A'                    u500_20:
 13562  021A' 2800'              	goto	i1l3626
 13563  021B'                    i1l3636:
 13564                           
 13565                           ;/opt/microchip/xc8/v2.45/pic/sources/c99/common/doprnt.c: 668:    while (g.f < u.f) {
 13566  021B' 1683               	bsf	3,5	;RP0=1, select bank1
 13567  021C' 1303               	bcf	3,6	;RP1=0, select bank1
 13568  021D' 0800'              	movf	(efgtoa@g+3)^(0+128),w
 13569  021E' 1283               	bcf	3,5	;RP0=0, select bank0
 13570  021F' 1303               	bcf	3,6	;RP1=0, select bank0
 13571  0220' 009D'              	movwf	___flge@ff1+3
 13572  0221' 1683               	bsf	3,5	;RP0=1, select bank1
 13573  0222' 1303               	bcf	3,6	;RP1=0, select bank1
 13574  0223' 0800'              	movf	(efgtoa@g+2)^(0+128),w
 13575  0224' 1283               	bcf	3,5	;RP0=0, select bank0
 13576  0225' 1303               	bcf	3,6	;RP1=0, select bank0
 13577  0226' 009C'              	movwf	___flge@ff1+2
 13578  0227' 1683               	bsf	3,5	;RP0=1, select bank1
 13579  0228' 1303               	bcf	3,6	;RP1=0, select bank1
 13580  0229' 0800'              	movf	(efgtoa@g+1)^(0+128),w
 13581  022A' 1283               	bcf	3,5	;RP0=0, select bank0
 13582  022B' 1303               	bcf	3,6	;RP1=0, select bank0
 13583  022C' 009B'              	movwf	___flge@ff1+1
 13584  022D' 1683               	bsf	3,5	;RP0=1, select bank1
 13585  022E' 1303               	bcf	3,6	;RP1=0, select bank1
 13586  022F' 0800'              	movf	efgtoa@g^(0+128),w
 13587  0230' 1283               	bcf	3,5	;RP0=0, select bank0
 13588  0231' 1303               	bcf	3,6	;RP1=0, select bank0
 13589  0232' 009A'              	movwf	___flge@ff1
 13590  0233' 1683               	bsf	3,5	;RP0=1, select bank1
 13591  0234' 1303               	bcf	3,6	;RP1=0, select bank1
 13592  0235' 0800'              	movf	(efgtoa@u+3)^(0+128),w
 13593  0236' 1283               	bcf	3,5	;RP0=0, select bank0
 13594  0237' 1303               	bcf	3,6	;RP1=0, select bank0
 13595  0238' 00A1'              	movwf	___flge@ff2+3
 13596  0239' 1683               	bsf	3,5	;RP0=1, select bank1
 13597  023A' 1303               	bcf	3,6	;RP1=0, select bank1
 13598  023B' 0800'              	movf	(efgtoa@u+2)^(0+128),w
 13599  023C' 1283               	bcf	3,5	;RP0=0, select bank0
 13600  023D' 1303               	bcf	3,6	;RP1=0, select bank0
 13601  023E' 00A0'              	movwf	___flge@ff2+2
 13602  023F' 1683               	bsf	3,5	;RP0=1, select bank1
 13603  0240' 1303               	bcf	3,6	;RP1=0, select bank1
 13604  0241' 0800'              	movf	(efgtoa@u+1)^(0+128),w
 13605  0242' 1283               	bcf	3,5	;RP0=0, select bank0
 13606  0243' 1303               	bcf	3,6	;RP1=0, select bank0
 13607  0244' 009F'              	movwf	___flge@ff2+1
 13608  0245' 1683               	bsf	3,5	;RP0=1, select bank1
 13609  0246' 1303               	bcf	3,6	;RP1=0, select bank1
 13610  0247' 0800'              	movf	efgtoa@u^(0+128),w
 13611  0248' 1283               	bcf	3,5	;RP0=0, select bank0
 13612  0249' 1303               	bcf	3,6	;RP1=0, select bank0
 13613  024A' 009E'              	movwf	___flge@ff2
 13614  024B' 120A' 118A' 2000' 120A' 118A' 	fcall	___flge
 13615  0250' 1C03               	btfss	3,0
 13616  0251' 2800'              	goto	u501_21
 13617  0252' 2800'              	goto	u501_20
 13618  0253'                    u501_21:
 13619  0253' 2800'              	goto	i1l3628
 13620  0254'                    u501_20:
 13621  0254'                    i1l3638:
 13622                           
 13623                           ;/opt/microchip/xc8/v2.45/pic/sources/c99/common/doprnt.c: 683:  mode = c;
 13624  0254' 1283               	bcf	3,5	;RP0=0, select bank0
 13625  0255' 1303               	bcf	3,6	;RP1=0, select bank0
 13626  0256' 0846'              	movf	efgtoa@c,w
 13627  0257' 1683               	bsf	3,5	;RP0=1, select bank1
 13628  0258' 1303               	bcf	3,6	;RP1=0, select bank1
 13629  0259' 0080'              	movwf	efgtoa@mode^(0+128)
 13630                           
 13631                           ;/opt/microchip/xc8/v2.45/pic/sources/c99/common/doprnt.c: 685:     nmode = mode;
 13632  025A' 0800'              	movf	efgtoa@mode^(0+128),w
 13633  025B' 0080'              	movwf	efgtoa@nmode^(0+128)
 13634  025C'                    i1l3640:
 13635                           
 13636                           ;/opt/microchip/xc8/v2.45/pic/sources/c99/common/doprnt.c: 695:  {;/opt/microchip/xc8/v2
      +                          .45/pic/sources/c99/common/doprnt.c: 696:         p = (prec < 0) ? 6 : prec;
 13637  025C' 1B80'              	btfsc	(_prec+1)^(0+128),7
 13638  025D' 2800'              	goto	u502_21
 13639  025E' 2800'              	goto	u502_20
 13640  025F'                    u502_21:
 13641  025F' 2800'              	goto	i1l3644
 13642  0260'                    u502_20:
 13643  0260'                    i1l3642:
 13644  0260' 0800'              	movf	(_prec+1)^(0+128),w
 13645  0261' 0080'              	movwf	(efgtoa@p+1)^(0+128)
 13646  0262' 0800'              	movf	_prec^(0+128),w
 13647  0263' 0080'              	movwf	efgtoa@p^(0+128)
 13648  0264' 2800'              	goto	i1l917
 13649  0265'                    i1l3644:
 13650  0265' 3006               	movlw	6
 13651  0266' 0080'              	movwf	efgtoa@p^(0+128)
 13652  0267' 3000               	movlw	0
 13653  0268' 0081'              	movwf	(efgtoa@p^(0+128)+1)
 13654  0269'                    i1l917:
 13655                           
 13656                           ;/opt/microchip/xc8/v2.45/pic/sources/c99/common/doprnt.c: 697:     };/opt/microchip/xc8
      +                          /v2.45/pic/sources/c99/common/doprnt.c: 711:     m = p;
 13657  0269' 0800'              	movf	(efgtoa@p+1)^(0+128),w
 13658  026A' 0080'              	movwf	(efgtoa@m+1)^(0+128)
 13659  026B' 0800'              	movf	efgtoa@p^(0+128),w
 13660  026C' 0080'              	movwf	efgtoa@m^(0+128)
 13661                           
 13662                           ;/opt/microchip/xc8/v2.45/pic/sources/c99/common/doprnt.c: 715:  {;/opt/microchip/xc8/v2
      +                          .45/pic/sources/c99/common/doprnt.c: 716:         ++m;
 13663  026D' 3001               	movlw	1
 13664  026E' 0780'              	addwf	efgtoa@m^(0+128),f
 13665  026F' 1803               	skipnc
 13666  0270' 0A80'              	incf	(efgtoa@m+1)^(0+128),f
 13667  0271' 3000               	movlw	0
 13668  0272' 0780'              	addwf	(efgtoa@m+1)^(0+128),f
 13669  0273'                    i1l3646:
 13670                           
 13671                           ;/opt/microchip/xc8/v2.45/pic/sources/c99/common/doprnt.c: 717:     };/opt/microchip/xc8
      +                          /v2.45/pic/sources/c99/common/doprnt.c: 721:     if (nmode == 'f') {
 13672  0273' 3066               	movlw	102
 13673  0274' 0600'              	xorwf	efgtoa@nmode^(0+128),w
 13674  0275' 1D03               	btfss	3,2
 13675  0276' 2800'              	goto	u503_21
 13676  0277' 2800'              	goto	u503_20
 13677  0278'                    u503_21:
 13678  0278' 2800'              	goto	i1l3658
 13679  0279'                    u503_20:
 13680  0279'                    i1l3648:
 13681                           
 13682                           ;/opt/microchip/xc8/v2.45/pic/sources/c99/common/doprnt.c: 722:         if (e < 0) {
 13683  0279' 1F80'              	btfss	(efgtoa@e+1)^(0+128),7
 13684  027A' 2800'              	goto	u504_21
 13685  027B' 2800'              	goto	u504_20
 13686  027C'                    u504_21:
 13687  027C' 2800'              	goto	i1l3654
 13688  027D'                    u504_20:
 13689  027D'                    i1l3650:
 13690                           
 13691                           ;/opt/microchip/xc8/v2.45/pic/sources/c99/common/doprnt.c: 723:             u.f = 1.0;
 13692  027D' 303F               	movlw	63
 13693  027E' 0080'              	movwf	(efgtoa@u+3)^(0+128)
 13694  027F' 3080               	movlw	128
 13695  0280' 0080'              	movwf	(efgtoa@u+2)^(0+128)
 13696  0281' 3000               	movlw	0
 13697  0282' 0080'              	movwf	(efgtoa@u+1)^(0+128)
 13698  0283' 3000               	movlw	0
 13699  0284' 0080'              	movwf	efgtoa@u^(0+128)
 13700  0285'                    i1l3652:
 13701                           
 13702                           ;/opt/microchip/xc8/v2.45/pic/sources/c99/common/doprnt.c: 724:             e = 0;
 13703  0285' 0180'              	clrf	efgtoa@e^(0+128)
 13704  0286' 0180'              	clrf	(efgtoa@e+1)^(0+128)
 13705  0287'                    i1l3654:
 13706                           
 13707                           ;/opt/microchip/xc8/v2.45/pic/sources/c99/common/doprnt.c: 726:         if (!(mode == 'g
      +                          ')) {
 13708  0287' 3067               	movlw	103
 13709  0288' 0600'              	xorwf	efgtoa@mode^(0+128),w
 13710  0289' 1903               	btfsc	3,2
 13711  028A' 2800'              	goto	u505_21
 13712  028B' 2800'              	goto	u505_20
 13713  028C'                    u505_21:
 13714  028C' 2800'              	goto	i1l3658
 13715  028D'                    u505_20:
 13716  028D'                    i1l3656:
 13717                           
 13718                           ;/opt/microchip/xc8/v2.45/pic/sources/c99/common/doprnt.c: 727:             m += e;
 13719  028D' 0800'              	movf	efgtoa@e^(0+128),w
 13720  028E' 0780'              	addwf	efgtoa@m^(0+128),f
 13721  028F' 1803               	skipnc
 13722  0290' 0A80'              	incf	(efgtoa@m+1)^(0+128),f
 13723  0291' 0800'              	movf	(efgtoa@e+1)^(0+128),w
 13724  0292' 0780'              	addwf	(efgtoa@m+1)^(0+128),f
 13725  0293'                    i1l3658:
 13726                           
 13727                           ;/opt/microchip/xc8/v2.45/pic/sources/c99/common/doprnt.c: 733:     i = 0;
 13728  0293' 0180'              	clrf	efgtoa@i^(0+128)
 13729  0294' 0180'              	clrf	(efgtoa@i+1)^(0+128)
 13730  0295'                    i1l3660:
 13731                           
 13732                           ;/opt/microchip/xc8/v2.45/pic/sources/c99/common/doprnt.c: 734:     h = g.f;
 13733  0295' 0800'              	movf	(efgtoa@g+3)^(0+128),w
 13734  0296' 0080'              	movwf	(efgtoa@h+3)^(0+128)
 13735  0297' 0800'              	movf	(efgtoa@g+2)^(0+128),w
 13736  0298' 0080'              	movwf	(efgtoa@h+2)^(0+128)
 13737  0299' 0800'              	movf	(efgtoa@g+1)^(0+128),w
 13738  029A' 0080'              	movwf	(efgtoa@h+1)^(0+128)
 13739  029B' 0800'              	movf	efgtoa@g^(0+128),w
 13740  029C' 0080'              	movwf	efgtoa@h^(0+128)
 13741  029D'                    i1l3662:
 13742                           
 13743                           ;/opt/microchip/xc8/v2.45/pic/sources/c99/common/doprnt.c: 735:     ou = u;
 13744  029D' 0800'              	movf	(efgtoa@u+3)^(0+128),w
 13745  029E' 0080'              	movwf	(efgtoa@ou+3)^(0+128)
 13746  029F' 0800'              	movf	(efgtoa@u+2)^(0+128),w
 13747  02A0' 0080'              	movwf	(efgtoa@ou+2)^(0+128)
 13748  02A1' 0800'              	movf	(efgtoa@u+1)^(0+128),w
 13749  02A2' 0080'              	movwf	(efgtoa@ou+1)^(0+128)
 13750  02A3' 0800'              	movf	efgtoa@u^(0+128),w
 13751  02A4' 0080'              	movwf	efgtoa@ou^(0+128)
 13752                           
 13753                           ;/opt/microchip/xc8/v2.45/pic/sources/c99/common/doprnt.c: 736:     while (i < m) {
 13754  02A5' 2800'              	goto	i1l3674
 13755  02A6'                    i1l3664:
 13756                           
 13757                           ;/opt/microchip/xc8/v2.45/pic/sources/c99/common/doprnt.c: 737:         l = floorf(h/u.f
      +                          );
 13758  02A6' 1683               	bsf	3,5	;RP0=1, select bank1
 13759  02A7' 1303               	bcf	3,6	;RP1=0, select bank1
 13760  02A8' 0800'              	movf	(efgtoa@u+3)^(0+128),w
 13761  02A9' 1283               	bcf	3,5	;RP0=0, select bank0
 13762  02AA' 1303               	bcf	3,6	;RP1=0, select bank0
 13763  02AB' 0097'              	movwf	___fldiv@a+3
 13764  02AC' 1683               	bsf	3,5	;RP0=1, select bank1
 13765  02AD' 1303               	bcf	3,6	;RP1=0, select bank1
 13766  02AE' 0800'              	movf	(efgtoa@u+2)^(0+128),w
 13767  02AF' 1283               	bcf	3,5	;RP0=0, select bank0
 13768  02B0' 1303               	bcf	3,6	;RP1=0, select bank0
 13769  02B1' 0096'              	movwf	___fldiv@a+2
 13770  02B2' 1683               	bsf	3,5	;RP0=1, select bank1
 13771  02B3' 1303               	bcf	3,6	;RP1=0, select bank1
 13772  02B4' 0800'              	movf	(efgtoa@u+1)^(0+128),w
 13773  02B5' 1283               	bcf	3,5	;RP0=0, select bank0
 13774  02B6' 1303               	bcf	3,6	;RP1=0, select bank0
 13775  02B7' 0095'              	movwf	___fldiv@a+1
 13776  02B8' 1683               	bsf	3,5	;RP0=1, select bank1
 13777  02B9' 1303               	bcf	3,6	;RP1=0, select bank1
 13778  02BA' 0800'              	movf	efgtoa@u^(0+128),w
 13779  02BB' 1283               	bcf	3,5	;RP0=0, select bank0
 13780  02BC' 1303               	bcf	3,6	;RP1=0, select bank0
 13781  02BD' 0094'              	movwf	___fldiv@a
 13782  02BE' 1683               	bsf	3,5	;RP0=1, select bank1
 13783  02BF' 1303               	bcf	3,6	;RP1=0, select bank1
 13784  02C0' 0800'              	movf	(efgtoa@h+3)^(0+128),w
 13785  02C1' 1283               	bcf	3,5	;RP0=0, select bank0
 13786  02C2' 1303               	bcf	3,6	;RP1=0, select bank0
 13787  02C3' 009B'              	movwf	___fldiv@b+3
 13788  02C4' 1683               	bsf	3,5	;RP0=1, select bank1
 13789  02C5' 1303               	bcf	3,6	;RP1=0, select bank1
 13790  02C6' 0800'              	movf	(efgtoa@h+2)^(0+128),w
 13791  02C7' 1283               	bcf	3,5	;RP0=0, select bank0
 13792  02C8' 1303               	bcf	3,6	;RP1=0, select bank0
 13793  02C9' 009A'              	movwf	___fldiv@b+2
 13794  02CA' 1683               	bsf	3,5	;RP0=1, select bank1
 13795  02CB' 1303               	bcf	3,6	;RP1=0, select bank1
 13796  02CC' 0800'              	movf	(efgtoa@h+1)^(0+128),w
 13797  02CD' 1283               	bcf	3,5	;RP0=0, select bank0
 13798  02CE' 1303               	bcf	3,6	;RP1=0, select bank0
 13799  02CF' 0099'              	movwf	___fldiv@b+1
 13800  02D0' 1683               	bsf	3,5	;RP0=1, select bank1
 13801  02D1' 1303               	bcf	3,6	;RP1=0, select bank1
 13802  02D2' 0800'              	movf	efgtoa@h^(0+128),w
 13803  02D3' 1283               	bcf	3,5	;RP0=0, select bank0
 13804  02D4' 1303               	bcf	3,6	;RP1=0, select bank0
 13805  02D5' 0098'              	movwf	___fldiv@b
 13806  02D6' 120A' 118A' 2000' 120A' 118A' 	fcall	___fldiv
 13807  02DB' 1283               	bcf	3,5	;RP0=0, select bank0
 13808  02DC' 1303               	bcf	3,6	;RP1=0, select bank0
 13809  02DD' 0817'              	movf	?___fldiv+3,w
 13810  02DE' 00B1'              	movwf	floorf@x+3
 13811  02DF' 0816'              	movf	?___fldiv+2,w
 13812  02E0' 00B0'              	movwf	floorf@x+2
 13813  02E1' 0815'              	movf	?___fldiv+1,w
 13814  02E2' 00AF'              	movwf	floorf@x+1
 13815  02E3' 0814'              	movf	?___fldiv,w
 13816  02E4' 00AE'              	movwf	floorf@x
 13817  02E5' 120A' 118A' 2000' 120A' 118A' 	fcall	_floorf
 13818  02EA' 1283               	bcf	3,5	;RP0=0, select bank0
 13819  02EB' 1303               	bcf	3,6	;RP1=0, select bank0
 13820  02EC' 0831'              	movf	?_floorf+3,w
 13821  02ED' 1683               	bsf	3,5	;RP0=1, select bank1
 13822  02EE' 1303               	bcf	3,6	;RP1=0, select bank1
 13823  02EF' 0080'              	movwf	(efgtoa@l+3)^(0+128)
 13824  02F0' 1283               	bcf	3,5	;RP0=0, select bank0
 13825  02F1' 1303               	bcf	3,6	;RP1=0, select bank0
 13826  02F2' 0830'              	movf	?_floorf+2,w
 13827  02F3' 1683               	bsf	3,5	;RP0=1, select bank1
 13828  02F4' 1303               	bcf	3,6	;RP1=0, select bank1
 13829  02F5' 0080'              	movwf	(efgtoa@l+2)^(0+128)
 13830  02F6' 1283               	bcf	3,5	;RP0=0, select bank0
 13831  02F7' 1303               	bcf	3,6	;RP1=0, select bank0
 13832  02F8' 082F'              	movf	?_floorf+1,w
 13833  02F9' 1683               	bsf	3,5	;RP0=1, select bank1
 13834  02FA' 1303               	bcf	3,6	;RP1=0, select bank1
 13835  02FB' 0080'              	movwf	(efgtoa@l+1)^(0+128)
 13836  02FC' 1283               	bcf	3,5	;RP0=0, select bank0
 13837  02FD' 1303               	bcf	3,6	;RP1=0, select bank0
 13838  02FE' 082E'              	movf	?_floorf,w
 13839  02FF' 1683               	bsf	3,5	;RP0=1, select bank1
 13840  0300' 1303               	bcf	3,6	;RP1=0, select bank1
 13841  0301' 0080'              	movwf	efgtoa@l^(0+128)
 13842  0302'                    i1l3666:
 13843                           
 13844                           ;/opt/microchip/xc8/v2.45/pic/sources/c99/common/doprnt.c: 738:         d = (int)l;
 13845  0302' 0800'              	movf	(efgtoa@l+3)^(0+128),w
 13846  0303' 1283               	bcf	3,5	;RP0=0, select bank0
 13847  0304' 1303               	bcf	3,6	;RP1=0, select bank0
 13848  0305' 009D'              	movwf	___fltol@f1+3
 13849  0306' 1683               	bsf	3,5	;RP0=1, select bank1
 13850  0307' 1303               	bcf	3,6	;RP1=0, select bank1
 13851  0308' 0800'              	movf	(efgtoa@l+2)^(0+128),w
 13852  0309' 1283               	bcf	3,5	;RP0=0, select bank0
 13853  030A' 1303               	bcf	3,6	;RP1=0, select bank0
 13854  030B' 009C'              	movwf	___fltol@f1+2
 13855  030C' 1683               	bsf	3,5	;RP0=1, select bank1
 13856  030D' 1303               	bcf	3,6	;RP1=0, select bank1
 13857  030E' 0800'              	movf	(efgtoa@l+1)^(0+128),w
 13858  030F' 1283               	bcf	3,5	;RP0=0, select bank0
 13859  0310' 1303               	bcf	3,6	;RP1=0, select bank0
 13860  0311' 009B'              	movwf	___fltol@f1+1
 13861  0312' 1683               	bsf	3,5	;RP0=1, select bank1
 13862  0313' 1303               	bcf	3,6	;RP1=0, select bank1
 13863  0314' 0800'              	movf	efgtoa@l^(0+128),w
 13864  0315' 1283               	bcf	3,5	;RP0=0, select bank0
 13865  0316' 1303               	bcf	3,6	;RP1=0, select bank0
 13866  0317' 009A'              	movwf	___fltol@f1
 13867  0318' 120A' 118A' 2000' 120A' 118A' 	fcall	___fltol
 13868  031D' 1283               	bcf	3,5	;RP0=0, select bank0
 13869  031E' 1303               	bcf	3,6	;RP1=0, select bank0
 13870  031F' 081B'              	movf	?___fltol+1,w
 13871  0320' 1683               	bsf	3,5	;RP0=1, select bank1
 13872  0321' 1303               	bcf	3,6	;RP1=0, select bank1
 13873  0322' 0080'              	movwf	(efgtoa@d+1)^(0+128)
 13874  0323' 1283               	bcf	3,5	;RP0=0, select bank0
 13875  0324' 1303               	bcf	3,6	;RP1=0, select bank0
 13876  0325' 081A'              	movf	?___fltol,w
 13877  0326' 1683               	bsf	3,5	;RP0=1, select bank1
 13878  0327' 1303               	bcf	3,6	;RP1=0, select bank1
 13879  0328' 0080'              	movwf	efgtoa@d^(0+128)
 13880  0329'                    i1l3668:
 13881                           
 13882                           ;/opt/microchip/xc8/v2.45/pic/sources/c99/common/doprnt.c: 739:         h -= l*u.f;
 13883  0329' 0800'              	movf	(efgtoa@u+3)^(0+128),w
 13884  032A' 1283               	bcf	3,5	;RP0=0, select bank0
 13885  032B' 1303               	bcf	3,6	;RP1=0, select bank0
 13886  032C' 0087'              	movwf	___flmul@a+3
 13887  032D' 1683               	bsf	3,5	;RP0=1, select bank1
 13888  032E' 1303               	bcf	3,6	;RP1=0, select bank1
 13889  032F' 0800'              	movf	(efgtoa@u+2)^(0+128),w
 13890  0330' 1283               	bcf	3,5	;RP0=0, select bank0
 13891  0331' 1303               	bcf	3,6	;RP1=0, select bank0
 13892  0332' 0086'              	movwf	___flmul@a+2
 13893  0333' 1683               	bsf	3,5	;RP0=1, select bank1
 13894  0334' 1303               	bcf	3,6	;RP1=0, select bank1
 13895  0335' 0800'              	movf	(efgtoa@u+1)^(0+128),w
 13896  0336' 1283               	bcf	3,5	;RP0=0, select bank0
 13897  0337' 1303               	bcf	3,6	;RP1=0, select bank0
 13898  0338' 0085'              	movwf	___flmul@a+1
 13899  0339' 1683               	bsf	3,5	;RP0=1, select bank1
 13900  033A' 1303               	bcf	3,6	;RP1=0, select bank1
 13901  033B' 0800'              	movf	efgtoa@u^(0+128),w
 13902  033C' 1283               	bcf	3,5	;RP0=0, select bank0
 13903  033D' 1303               	bcf	3,6	;RP1=0, select bank0
 13904  033E' 0084'              	movwf	___flmul@a
 13905  033F' 1683               	bsf	3,5	;RP0=1, select bank1
 13906  0340' 1303               	bcf	3,6	;RP1=0, select bank1
 13907  0341' 0800'              	movf	(efgtoa@l+3)^(0+128),w
 13908  0342' 1283               	bcf	3,5	;RP0=0, select bank0
 13909  0343' 1303               	bcf	3,6	;RP1=0, select bank0
 13910  0344' 0083'              	movwf	___flmul@b+3
 13911  0345' 1683               	bsf	3,5	;RP0=1, select bank1
 13912  0346' 1303               	bcf	3,6	;RP1=0, select bank1
 13913  0347' 0800'              	movf	(efgtoa@l+2)^(0+128),w
 13914  0348' 1283               	bcf	3,5	;RP0=0, select bank0
 13915  0349' 1303               	bcf	3,6	;RP1=0, select bank0
 13916  034A' 0082'              	movwf	___flmul@b+2
 13917  034B' 1683               	bsf	3,5	;RP0=1, select bank1
 13918  034C' 1303               	bcf	3,6	;RP1=0, select bank1
 13919  034D' 0800'              	movf	(efgtoa@l+1)^(0+128),w
 13920  034E' 1283               	bcf	3,5	;RP0=0, select bank0
 13921  034F' 1303               	bcf	3,6	;RP1=0, select bank0
 13922  0350' 0081'              	movwf	___flmul@b+1
 13923  0351' 1683               	bsf	3,5	;RP0=1, select bank1
 13924  0352' 1303               	bcf	3,6	;RP1=0, select bank1
 13925  0353' 0800'              	movf	efgtoa@l^(0+128),w
 13926  0354' 1283               	bcf	3,5	;RP0=0, select bank0
 13927  0355' 1303               	bcf	3,6	;RP1=0, select bank0
 13928  0356' 0080'              	movwf	___flmul@b
 13929  0357' 120A' 118A' 2000' 120A' 118A' 	fcall	___flmul
 13930  035C' 1283               	bcf	3,5	;RP0=0, select bank0
 13931  035D' 1303               	bcf	3,6	;RP1=0, select bank0
 13932  035E' 0803'              	movf	?___flmul+3,w
 13933  035F' 009D'              	movwf	___flsub@a+3
 13934  0360' 0802'              	movf	?___flmul+2,w
 13935  0361' 009C'              	movwf	___flsub@a+2
 13936  0362' 0801'              	movf	?___flmul+1,w
 13937  0363' 009B'              	movwf	___flsub@a+1
 13938  0364' 0800'              	movf	?___flmul,w
 13939  0365' 009A'              	movwf	___flsub@a
 13940  0366' 1683               	bsf	3,5	;RP0=1, select bank1
 13941  0367' 1303               	bcf	3,6	;RP1=0, select bank1
 13942  0368' 0800'              	movf	(efgtoa@h+3)^(0+128),w
 13943  0369' 1283               	bcf	3,5	;RP0=0, select bank0
 13944  036A' 1303               	bcf	3,6	;RP1=0, select bank0
 13945  036B' 00A1'              	movwf	___flsub@b+3
 13946  036C' 1683               	bsf	3,5	;RP0=1, select bank1
 13947  036D' 1303               	bcf	3,6	;RP1=0, select bank1
 13948  036E' 0800'              	movf	(efgtoa@h+2)^(0+128),w
 13949  036F' 1283               	bcf	3,5	;RP0=0, select bank0
 13950  0370' 1303               	bcf	3,6	;RP1=0, select bank0
 13951  0371' 00A0'              	movwf	___flsub@b+2
 13952  0372' 1683               	bsf	3,5	;RP0=1, select bank1
 13953  0373' 1303               	bcf	3,6	;RP1=0, select bank1
 13954  0374' 0800'              	movf	(efgtoa@h+1)^(0+128),w
 13955  0375' 1283               	bcf	3,5	;RP0=0, select bank0
 13956  0376' 1303               	bcf	3,6	;RP1=0, select bank0
 13957  0377' 009F'              	movwf	___flsub@b+1
 13958  0378' 1683               	bsf	3,5	;RP0=1, select bank1
 13959  0379' 1303               	bcf	3,6	;RP1=0, select bank1
 13960  037A' 0800'              	movf	efgtoa@h^(0+128),w
 13961  037B' 1283               	bcf	3,5	;RP0=0, select bank0
 13962  037C' 1303               	bcf	3,6	;RP1=0, select bank0
 13963  037D' 009E'              	movwf	___flsub@b
 13964  037E' 120A' 118A' 2000' 120A' 118A' 	fcall	___flsub
 13965  0383' 1283               	bcf	3,5	;RP0=0, select bank0
 13966  0384' 1303               	bcf	3,6	;RP1=0, select bank0
 13967  0385' 081D'              	movf	?___flsub+3,w
 13968  0386' 1683               	bsf	3,5	;RP0=1, select bank1
 13969  0387' 1303               	bcf	3,6	;RP1=0, select bank1
 13970  0388' 0080'              	movwf	(efgtoa@h+3)^(0+128)
 13971  0389' 1283               	bcf	3,5	;RP0=0, select bank0
 13972  038A' 1303               	bcf	3,6	;RP1=0, select bank0
 13973  038B' 081C'              	movf	?___flsub+2,w
 13974  038C' 1683               	bsf	3,5	;RP0=1, select bank1
 13975  038D' 1303               	bcf	3,6	;RP1=0, select bank1
 13976  038E' 0080'              	movwf	(efgtoa@h+2)^(0+128)
 13977  038F' 1283               	bcf	3,5	;RP0=0, select bank0
 13978  0390' 1303               	bcf	3,6	;RP1=0, select bank0
 13979  0391' 081B'              	movf	?___flsub+1,w
 13980  0392' 1683               	bsf	3,5	;RP0=1, select bank1
 13981  0393' 1303               	bcf	3,6	;RP1=0, select bank1
 13982  0394' 0080'              	movwf	(efgtoa@h+1)^(0+128)
 13983  0395' 1283               	bcf	3,5	;RP0=0, select bank0
 13984  0396' 1303               	bcf	3,6	;RP1=0, select bank0
 13985  0397' 081A'              	movf	?___flsub,w
 13986  0398' 1683               	bsf	3,5	;RP0=1, select bank1
 13987  0399' 1303               	bcf	3,6	;RP1=0, select bank1
 13988  039A' 0080'              	movwf	efgtoa@h^(0+128)
 13989  039B'                    i1l3670:
 13990                           
 13991                           ;/opt/microchip/xc8/v2.45/pic/sources/c99/common/doprnt.c: 740:         u.f = u.f/10.0;
 13992  039B' 3041               	movlw	65
 13993  039C' 1283               	bcf	3,5	;RP0=0, select bank0
 13994  039D' 1303               	bcf	3,6	;RP1=0, select bank0
 13995  039E' 0097'              	movwf	___fldiv@a+3
 13996  039F' 3020               	movlw	32
 13997  03A0' 0096'              	movwf	___fldiv@a+2
 13998  03A1' 3000               	movlw	0
 13999  03A2' 0095'              	movwf	___fldiv@a+1
 14000  03A3' 3000               	movlw	0
 14001  03A4' 0094'              	movwf	___fldiv@a
 14002  03A5' 1683               	bsf	3,5	;RP0=1, select bank1
 14003  03A6' 1303               	bcf	3,6	;RP1=0, select bank1
 14004  03A7' 0800'              	movf	(efgtoa@u+3)^(0+128),w
 14005  03A8' 1283               	bcf	3,5	;RP0=0, select bank0
 14006  03A9' 1303               	bcf	3,6	;RP1=0, select bank0
 14007  03AA' 009B'              	movwf	___fldiv@b+3
 14008  03AB' 1683               	bsf	3,5	;RP0=1, select bank1
 14009  03AC' 1303               	bcf	3,6	;RP1=0, select bank1
 14010  03AD' 0800'              	movf	(efgtoa@u+2)^(0+128),w
 14011  03AE' 1283               	bcf	3,5	;RP0=0, select bank0
 14012  03AF' 1303               	bcf	3,6	;RP1=0, select bank0
 14013  03B0' 009A'              	movwf	___fldiv@b+2
 14014  03B1' 1683               	bsf	3,5	;RP0=1, select bank1
 14015  03B2' 1303               	bcf	3,6	;RP1=0, select bank1
 14016  03B3' 0800'              	movf	(efgtoa@u+1)^(0+128),w
 14017  03B4' 1283               	bcf	3,5	;RP0=0, select bank0
 14018  03B5' 1303               	bcf	3,6	;RP1=0, select bank0
 14019  03B6' 0099'              	movwf	___fldiv@b+1
 14020  03B7' 1683               	bsf	3,5	;RP0=1, select bank1
 14021  03B8' 1303               	bcf	3,6	;RP1=0, select bank1
 14022  03B9' 0800'              	movf	efgtoa@u^(0+128),w
 14023  03BA' 1283               	bcf	3,5	;RP0=0, select bank0
 14024  03BB' 1303               	bcf	3,6	;RP1=0, select bank0
 14025  03BC' 0098'              	movwf	___fldiv@b
 14026  03BD' 120A' 118A' 2000' 120A' 118A' 	fcall	___fldiv
 14027  03C2' 1283               	bcf	3,5	;RP0=0, select bank0
 14028  03C3' 1303               	bcf	3,6	;RP1=0, select bank0
 14029  03C4' 0817'              	movf	?___fldiv+3,w
 14030  03C5' 1683               	bsf	3,5	;RP0=1, select bank1
 14031  03C6' 1303               	bcf	3,6	;RP1=0, select bank1
 14032  03C7' 0080'              	movwf	(efgtoa@u+3)^(0+128)
 14033  03C8' 1283               	bcf	3,5	;RP0=0, select bank0
 14034  03C9' 1303               	bcf	3,6	;RP1=0, select bank0
 14035  03CA' 0816'              	movf	?___fldiv+2,w
 14036  03CB' 1683               	bsf	3,5	;RP0=1, select bank1
 14037  03CC' 1303               	bcf	3,6	;RP1=0, select bank1
 14038  03CD' 0080'              	movwf	(efgtoa@u+2)^(0+128)
 14039  03CE' 1283               	bcf	3,5	;RP0=0, select bank0
 14040  03CF' 1303               	bcf	3,6	;RP1=0, select bank0
 14041  03D0' 0815'              	movf	?___fldiv+1,w
 14042  03D1' 1683               	bsf	3,5	;RP0=1, select bank1
 14043  03D2' 1303               	bcf	3,6	;RP1=0, select bank1
 14044  03D3' 0080'              	movwf	(efgtoa@u+1)^(0+128)
 14045  03D4' 1283               	bcf	3,5	;RP0=0, select bank0
 14046  03D5' 1303               	bcf	3,6	;RP1=0, select bank0
 14047  03D6' 0814'              	movf	?___fldiv,w
 14048  03D7' 1683               	bsf	3,5	;RP0=1, select bank1
 14049  03D8' 1303               	bcf	3,6	;RP1=0, select bank1
 14050  03D9' 0080'              	movwf	efgtoa@u^(0+128)
 14051  03DA'                    i1l3672:
 14052                           
 14053                           ;/opt/microchip/xc8/v2.45/pic/sources/c99/common/doprnt.c: 741:         ++i;
 14054  03DA' 3001               	movlw	1
 14055  03DB' 0780'              	addwf	efgtoa@i^(0+128),f
 14056  03DC' 1803               	skipnc
 14057  03DD' 0A80'              	incf	(efgtoa@i+1)^(0+128),f
 14058  03DE' 3000               	movlw	0
 14059  03DF' 0780'              	addwf	(efgtoa@i+1)^(0+128),f
 14060  03E0'                    i1l3674:
 14061                           
 14062                           ;/opt/microchip/xc8/v2.45/pic/sources/c99/common/doprnt.c: 736:     while (i < m) {
 14063  03E0' 0800'              	movf	(efgtoa@i+1)^(0+128),w
 14064  03E1' 3A80               	xorlw	128
 14065  03E2' 1283               	bcf	3,5	;RP0=0, select bank0
 14066  03E3' 1303               	bcf	3,6	;RP1=0, select bank0
 14067  03E4' 00C7'              	movwf	??_efgtoa
 14068  03E5' 1683               	bsf	3,5	;RP0=1, select bank1
 14069  03E6' 1303               	bcf	3,6	;RP1=0, select bank1
 14070  03E7' 0800'              	movf	(efgtoa@m+1)^(0+128),w
 14071  03E8' 3A80               	xorlw	128
 14072  03E9' 1283               	bcf	3,5	;RP0=0, select bank0
 14073  03EA' 1303               	bcf	3,6	;RP1=0, select bank0
 14074  03EB' 0247'              	subwf	??_efgtoa,w
 14075  03EC' 1D03               	skipz
 14076  03ED' 2800'              	goto	u506_25
 14077  03EE' 1683               	bsf	3,5	;RP0=1, select bank1
 14078  03EF' 1303               	bcf	3,6	;RP1=0, select bank1
 14079  03F0' 0800'              	movf	efgtoa@m^(0+128),w
 14080  03F1' 0200'              	subwf	efgtoa@i^(0+128),w
 14081  03F2'                    u506_25:
 14082  03F2' 1C03               	skipc
 14083  03F3' 2800'              	goto	u506_21
 14084  03F4' 2800'              	goto	u506_20
 14085  03F5'                    u506_21:
 14086  03F5' 2800'              	goto	i1l3664
 14087  03F6'                    u506_20:
 14088  03F6'                    i1l3676:
 14089                           
 14090                           ;/opt/microchip/xc8/v2.45/pic/sources/c99/common/doprnt.c: 745:     l = u.f*5.0;
 14091  03F6' 3040               	movlw	64
 14092  03F7' 1283               	bcf	3,5	;RP0=0, select bank0
 14093  03F8' 1303               	bcf	3,6	;RP1=0, select bank0
 14094  03F9' 0083'              	movwf	___flmul@b+3
 14095  03FA' 30A0               	movlw	160
 14096  03FB' 0082'              	movwf	___flmul@b+2
 14097  03FC' 3000               	movlw	0
 14098  03FD' 0081'              	movwf	___flmul@b+1
 14099  03FE' 3000               	movlw	0
 14100  03FF' 0080'              	movwf	___flmul@b
 14101  0400' 1683               	bsf	3,5	;RP0=1, select bank1
 14102  0401' 1303               	bcf	3,6	;RP1=0, select bank1
 14103  0402' 0800'              	movf	(efgtoa@u+3)^(0+128),w
 14104  0403' 1283               	bcf	3,5	;RP0=0, select bank0
 14105  0404' 1303               	bcf	3,6	;RP1=0, select bank0
 14106  0405' 0087'              	movwf	___flmul@a+3
 14107  0406' 1683               	bsf	3,5	;RP0=1, select bank1
 14108  0407' 1303               	bcf	3,6	;RP1=0, select bank1
 14109  0408' 0800'              	movf	(efgtoa@u+2)^(0+128),w
 14110  0409' 1283               	bcf	3,5	;RP0=0, select bank0
 14111  040A' 1303               	bcf	3,6	;RP1=0, select bank0
 14112  040B' 0086'              	movwf	___flmul@a+2
 14113  040C' 1683               	bsf	3,5	;RP0=1, select bank1
 14114  040D' 1303               	bcf	3,6	;RP1=0, select bank1
 14115  040E' 0800'              	movf	(efgtoa@u+1)^(0+128),w
 14116  040F' 1283               	bcf	3,5	;RP0=0, select bank0
 14117  0410' 1303               	bcf	3,6	;RP1=0, select bank0
 14118  0411' 0085'              	movwf	___flmul@a+1
 14119  0412' 1683               	bsf	3,5	;RP0=1, select bank1
 14120  0413' 1303               	bcf	3,6	;RP1=0, select bank1
 14121  0414' 0800'              	movf	efgtoa@u^(0+128),w
 14122  0415' 1283               	bcf	3,5	;RP0=0, select bank0
 14123  0416' 1303               	bcf	3,6	;RP1=0, select bank0
 14124  0417' 0084'              	movwf	___flmul@a
 14125  0418' 120A' 118A' 2000' 120A' 118A' 	fcall	___flmul
 14126  041D' 1283               	bcf	3,5	;RP0=0, select bank0
 14127  041E' 1303               	bcf	3,6	;RP1=0, select bank0
 14128  041F' 0803'              	movf	?___flmul+3,w
 14129  0420' 1683               	bsf	3,5	;RP0=1, select bank1
 14130  0421' 1303               	bcf	3,6	;RP1=0, select bank1
 14131  0422' 0080'              	movwf	(efgtoa@l+3)^(0+128)
 14132  0423' 1283               	bcf	3,5	;RP0=0, select bank0
 14133  0424' 1303               	bcf	3,6	;RP1=0, select bank0
 14134  0425' 0802'              	movf	?___flmul+2,w
 14135  0426' 1683               	bsf	3,5	;RP0=1, select bank1
 14136  0427' 1303               	bcf	3,6	;RP1=0, select bank1
 14137  0428' 0080'              	movwf	(efgtoa@l+2)^(0+128)
 14138  0429' 1283               	bcf	3,5	;RP0=0, select bank0
 14139  042A' 1303               	bcf	3,6	;RP1=0, select bank0
 14140  042B' 0801'              	movf	?___flmul+1,w
 14141  042C' 1683               	bsf	3,5	;RP0=1, select bank1
 14142  042D' 1303               	bcf	3,6	;RP1=0, select bank1
 14143  042E' 0080'              	movwf	(efgtoa@l+1)^(0+128)
 14144  042F' 1283               	bcf	3,5	;RP0=0, select bank0
 14145  0430' 1303               	bcf	3,6	;RP1=0, select bank0
 14146  0431' 0800'              	movf	?___flmul,w
 14147  0432' 1683               	bsf	3,5	;RP0=1, select bank1
 14148  0433' 1303               	bcf	3,6	;RP1=0, select bank1
 14149  0434' 0080'              	movwf	efgtoa@l^(0+128)
 14150  0435'                    i1l3678:
 14151                           
 14152                           ;/opt/microchip/xc8/v2.45/pic/sources/c99/common/doprnt.c: 746:     if (h < l) {
 14153  0435' 0800'              	movf	(efgtoa@h+3)^(0+128),w
 14154  0436' 1283               	bcf	3,5	;RP0=0, select bank0
 14155  0437' 1303               	bcf	3,6	;RP1=0, select bank0
 14156  0438' 009D'              	movwf	___flge@ff1+3
 14157  0439' 1683               	bsf	3,5	;RP0=1, select bank1
 14158  043A' 1303               	bcf	3,6	;RP1=0, select bank1
 14159  043B' 0800'              	movf	(efgtoa@h+2)^(0+128),w
 14160  043C' 1283               	bcf	3,5	;RP0=0, select bank0
 14161  043D' 1303               	bcf	3,6	;RP1=0, select bank0
 14162  043E' 009C'              	movwf	___flge@ff1+2
 14163  043F' 1683               	bsf	3,5	;RP0=1, select bank1
 14164  0440' 1303               	bcf	3,6	;RP1=0, select bank1
 14165  0441' 0800'              	movf	(efgtoa@h+1)^(0+128),w
 14166  0442' 1283               	bcf	3,5	;RP0=0, select bank0
 14167  0443' 1303               	bcf	3,6	;RP1=0, select bank0
 14168  0444' 009B'              	movwf	___flge@ff1+1
 14169  0445' 1683               	bsf	3,5	;RP0=1, select bank1
 14170  0446' 1303               	bcf	3,6	;RP1=0, select bank1
 14171  0447' 0800'              	movf	efgtoa@h^(0+128),w
 14172  0448' 1283               	bcf	3,5	;RP0=0, select bank0
 14173  0449' 1303               	bcf	3,6	;RP1=0, select bank0
 14174  044A' 009A'              	movwf	___flge@ff1
 14175  044B' 1683               	bsf	3,5	;RP0=1, select bank1
 14176  044C' 1303               	bcf	3,6	;RP1=0, select bank1
 14177  044D' 0800'              	movf	(efgtoa@l+3)^(0+128),w
 14178  044E' 1283               	bcf	3,5	;RP0=0, select bank0
 14179  044F' 1303               	bcf	3,6	;RP1=0, select bank0
 14180  0450' 00A1'              	movwf	___flge@ff2+3
 14181  0451' 1683               	bsf	3,5	;RP0=1, select bank1
 14182  0452' 1303               	bcf	3,6	;RP1=0, select bank1
 14183  0453' 0800'              	movf	(efgtoa@l+2)^(0+128),w
 14184  0454' 1283               	bcf	3,5	;RP0=0, select bank0
 14185  0455' 1303               	bcf	3,6	;RP1=0, select bank0
 14186  0456' 00A0'              	movwf	___flge@ff2+2
 14187  0457' 1683               	bsf	3,5	;RP0=1, select bank1
 14188  0458' 1303               	bcf	3,6	;RP1=0, select bank1
 14189  0459' 0800'              	movf	(efgtoa@l+1)^(0+128),w
 14190  045A' 1283               	bcf	3,5	;RP0=0, select bank0
 14191  045B' 1303               	bcf	3,6	;RP1=0, select bank0
 14192  045C' 009F'              	movwf	___flge@ff2+1
 14193  045D' 1683               	bsf	3,5	;RP0=1, select bank1
 14194  045E' 1303               	bcf	3,6	;RP1=0, select bank1
 14195  045F' 0800'              	movf	efgtoa@l^(0+128),w
 14196  0460' 1283               	bcf	3,5	;RP0=0, select bank0
 14197  0461' 1303               	bcf	3,6	;RP1=0, select bank0
 14198  0462' 009E'              	movwf	___flge@ff2
 14199  0463' 120A' 118A' 2000' 120A' 118A' 	fcall	___flge
 14200  0468' 1803               	btfsc	3,0
 14201  0469' 2800'              	goto	u507_21
 14202  046A' 2800'              	goto	u507_20
 14203  046B'                    u507_21:
 14204  046B' 2800'              	goto	i1l3682
 14205  046C'                    u507_20:
 14206  046C'                    i1l3680:
 14207                           
 14208                           ;/opt/microchip/xc8/v2.45/pic/sources/c99/common/doprnt.c: 747:         l = 0.0;
 14209  046C' 3000               	movlw	0
 14210  046D' 1683               	bsf	3,5	;RP0=1, select bank1
 14211  046E' 1303               	bcf	3,6	;RP1=0, select bank1
 14212  046F' 0080'              	movwf	(efgtoa@l+3)^(0+128)
 14213  0470' 3000               	movlw	0
 14214  0471' 0080'              	movwf	(efgtoa@l+2)^(0+128)
 14215  0472' 3000               	movlw	0
 14216  0473' 0080'              	movwf	(efgtoa@l+1)^(0+128)
 14217  0474' 3000               	movlw	0
 14218  0475' 0080'              	movwf	efgtoa@l^(0+128)
 14219                           
 14220                           ;/opt/microchip/xc8/v2.45/pic/sources/c99/common/doprnt.c: 748:     } else {
 14221  0476' 2800'              	goto	i1l3688
 14222  0477'                    i1l3682:
 14223                           
 14224                           ;/opt/microchip/xc8/v2.45/pic/sources/c99/common/doprnt.c: 750:         if ((h == l) && 
      +                          !(d % 2)) {
 14225  0477' 1683               	bsf	3,5	;RP0=1, select bank1
 14226  0478' 1303               	bcf	3,6	;RP1=0, select bank1
 14227  0479' 0800'              	movf	(efgtoa@h+3)^(0+128),w
 14228  047A' 0083'              	movwf	___fleq@ff1+3
 14229  047B' 0800'              	movf	(efgtoa@h+2)^(0+128),w
 14230  047C' 0082'              	movwf	___fleq@ff1+2
 14231  047D' 0800'              	movf	(efgtoa@h+1)^(0+128),w
 14232  047E' 0081'              	movwf	___fleq@ff1+1
 14233  047F' 0800'              	movf	efgtoa@h^(0+128),w
 14234  0480' 0080'              	movwf	___fleq@ff1
 14235  0481' 0800'              	movf	(efgtoa@l+3)^(0+128),w
 14236  0482' 0087'              	movwf	___fleq@ff2+3
 14237  0483' 0800'              	movf	(efgtoa@l+2)^(0+128),w
 14238  0484' 0086'              	movwf	___fleq@ff2+2
 14239  0485' 0800'              	movf	(efgtoa@l+1)^(0+128),w
 14240  0486' 0085'              	movwf	___fleq@ff2+1
 14241  0487' 0800'              	movf	efgtoa@l^(0+128),w
 14242  0488' 0084'              	movwf	___fleq@ff2
 14243  0489' 120A' 118A' 2000' 120A' 118A' 	fcall	___fleq
 14244  048E' 1C03               	btfss	3,0
 14245  048F' 2800'              	goto	u508_21
 14246  0490' 2800'              	goto	u508_20
 14247  0491'                    u508_21:
 14248  0491' 2800'              	goto	i1l3688
 14249  0492'                    u508_20:
 14250  0492'                    i1l3684:
 14251  0492' 1683               	bsf	3,5	;RP0=1, select bank1
 14252  0493' 1303               	bcf	3,6	;RP1=0, select bank1
 14253  0494' 1800'              	btfsc	efgtoa@d^(0+128),0
 14254  0495' 2800'              	goto	u509_21
 14255  0496' 2800'              	goto	u509_20
 14256  0497'                    u509_21:
 14257  0497' 2800'              	goto	i1l3688
 14258  0498'                    u509_20:
 14259  0498'                    i1l3686:
 14260                           
 14261                           ;/opt/microchip/xc8/v2.45/pic/sources/c99/common/doprnt.c: 751:             l = 0.0;
 14262  0498' 3000               	movlw	0
 14263  0499' 0080'              	movwf	(efgtoa@l+3)^(0+128)
 14264  049A' 3000               	movlw	0
 14265  049B' 0080'              	movwf	(efgtoa@l+2)^(0+128)
 14266  049C' 3000               	movlw	0
 14267  049D' 0080'              	movwf	(efgtoa@l+1)^(0+128)
 14268  049E' 3000               	movlw	0
 14269  049F' 0080'              	movwf	efgtoa@l^(0+128)
 14270  04A0'                    i1l3688:
 14271                           
 14272                           ;/opt/microchip/xc8/v2.45/pic/sources/c99/common/doprnt.c: 756:     h = g.f + l;
 14273  04A0' 1683               	bsf	3,5	;RP0=1, select bank1
 14274  04A1' 1303               	bcf	3,6	;RP1=0, select bank1
 14275  04A2' 0800'              	movf	(efgtoa@l+3)^(0+128),w
 14276  04A3' 1283               	bcf	3,5	;RP0=0, select bank0
 14277  04A4' 1303               	bcf	3,6	;RP1=0, select bank0
 14278  04A5' 0083'              	movwf	___fladd@b+3
 14279  04A6' 1683               	bsf	3,5	;RP0=1, select bank1
 14280  04A7' 1303               	bcf	3,6	;RP1=0, select bank1
 14281  04A8' 0800'              	movf	(efgtoa@l+2)^(0+128),w
 14282  04A9' 1283               	bcf	3,5	;RP0=0, select bank0
 14283  04AA' 1303               	bcf	3,6	;RP1=0, select bank0
 14284  04AB' 0082'              	movwf	___fladd@b+2
 14285  04AC' 1683               	bsf	3,5	;RP0=1, select bank1
 14286  04AD' 1303               	bcf	3,6	;RP1=0, select bank1
 14287  04AE' 0800'              	movf	(efgtoa@l+1)^(0+128),w
 14288  04AF' 1283               	bcf	3,5	;RP0=0, select bank0
 14289  04B0' 1303               	bcf	3,6	;RP1=0, select bank0
 14290  04B1' 0081'              	movwf	___fladd@b+1
 14291  04B2' 1683               	bsf	3,5	;RP0=1, select bank1
 14292  04B3' 1303               	bcf	3,6	;RP1=0, select bank1
 14293  04B4' 0800'              	movf	efgtoa@l^(0+128),w
 14294  04B5' 1283               	bcf	3,5	;RP0=0, select bank0
 14295  04B6' 1303               	bcf	3,6	;RP1=0, select bank0
 14296  04B7' 0080'              	movwf	___fladd@b
 14297  04B8' 1683               	bsf	3,5	;RP0=1, select bank1
 14298  04B9' 1303               	bcf	3,6	;RP1=0, select bank1
 14299  04BA' 0800'              	movf	(efgtoa@g+3)^(0+128),w
 14300  04BB' 1283               	bcf	3,5	;RP0=0, select bank0
 14301  04BC' 1303               	bcf	3,6	;RP1=0, select bank0
 14302  04BD' 0087'              	movwf	___fladd@a+3
 14303  04BE' 1683               	bsf	3,5	;RP0=1, select bank1
 14304  04BF' 1303               	bcf	3,6	;RP1=0, select bank1
 14305  04C0' 0800'              	movf	(efgtoa@g+2)^(0+128),w
 14306  04C1' 1283               	bcf	3,5	;RP0=0, select bank0
 14307  04C2' 1303               	bcf	3,6	;RP1=0, select bank0
 14308  04C3' 0086'              	movwf	___fladd@a+2
 14309  04C4' 1683               	bsf	3,5	;RP0=1, select bank1
 14310  04C5' 1303               	bcf	3,6	;RP1=0, select bank1
 14311  04C6' 0800'              	movf	(efgtoa@g+1)^(0+128),w
 14312  04C7' 1283               	bcf	3,5	;RP0=0, select bank0
 14313  04C8' 1303               	bcf	3,6	;RP1=0, select bank0
 14314  04C9' 0085'              	movwf	___fladd@a+1
 14315  04CA' 1683               	bsf	3,5	;RP0=1, select bank1
 14316  04CB' 1303               	bcf	3,6	;RP1=0, select bank1
 14317  04CC' 0800'              	movf	efgtoa@g^(0+128),w
 14318  04CD' 1283               	bcf	3,5	;RP0=0, select bank0
 14319  04CE' 1303               	bcf	3,6	;RP1=0, select bank0
 14320  04CF' 0084'              	movwf	___fladd@a
 14321  04D0' 120A' 118A' 2000' 120A' 118A' 	fcall	___fladd
 14322  04D5' 1283               	bcf	3,5	;RP0=0, select bank0
 14323  04D6' 1303               	bcf	3,6	;RP1=0, select bank0
 14324  04D7' 0803'              	movf	?___fladd+3,w
 14325  04D8' 1683               	bsf	3,5	;RP0=1, select bank1
 14326  04D9' 1303               	bcf	3,6	;RP1=0, select bank1
 14327  04DA' 0080'              	movwf	(efgtoa@h+3)^(0+128)
 14328  04DB' 1283               	bcf	3,5	;RP0=0, select bank0
 14329  04DC' 1303               	bcf	3,6	;RP1=0, select bank0
 14330  04DD' 0802'              	movf	?___fladd+2,w
 14331  04DE' 1683               	bsf	3,5	;RP0=1, select bank1
 14332  04DF' 1303               	bcf	3,6	;RP1=0, select bank1
 14333  04E0' 0080'              	movwf	(efgtoa@h+2)^(0+128)
 14334  04E1' 1283               	bcf	3,5	;RP0=0, select bank0
 14335  04E2' 1303               	bcf	3,6	;RP1=0, select bank0
 14336  04E3' 0801'              	movf	?___fladd+1,w
 14337  04E4' 1683               	bsf	3,5	;RP0=1, select bank1
 14338  04E5' 1303               	bcf	3,6	;RP1=0, select bank1
 14339  04E6' 0080'              	movwf	(efgtoa@h+1)^(0+128)
 14340  04E7' 1283               	bcf	3,5	;RP0=0, select bank0
 14341  04E8' 1303               	bcf	3,6	;RP1=0, select bank0
 14342  04E9' 0800'              	movf	?___fladd,w
 14343  04EA' 1683               	bsf	3,5	;RP0=1, select bank1
 14344  04EB' 1303               	bcf	3,6	;RP1=0, select bank1
 14345  04EC' 0080'              	movwf	efgtoa@h^(0+128)
 14346  04ED'                    i1l3690:
 14347                           
 14348                           ;/opt/microchip/xc8/v2.45/pic/sources/c99/common/doprnt.c: 758:  if (h >= (ou.f*10.0)) {
 14349  04ED' 0800'              	movf	(efgtoa@h+3)^(0+128),w
 14350  04EE' 1283               	bcf	3,5	;RP0=0, select bank0
 14351  04EF' 1303               	bcf	3,6	;RP1=0, select bank0
 14352  04F0' 009D'              	movwf	___flge@ff1+3
 14353  04F1' 1683               	bsf	3,5	;RP0=1, select bank1
 14354  04F2' 1303               	bcf	3,6	;RP1=0, select bank1
 14355  04F3' 0800'              	movf	(efgtoa@h+2)^(0+128),w
 14356  04F4' 1283               	bcf	3,5	;RP0=0, select bank0
 14357  04F5' 1303               	bcf	3,6	;RP1=0, select bank0
 14358  04F6' 009C'              	movwf	___flge@ff1+2
 14359  04F7' 1683               	bsf	3,5	;RP0=1, select bank1
 14360  04F8' 1303               	bcf	3,6	;RP1=0, select bank1
 14361  04F9' 0800'              	movf	(efgtoa@h+1)^(0+128),w
 14362  04FA' 1283               	bcf	3,5	;RP0=0, select bank0
 14363  04FB' 1303               	bcf	3,6	;RP1=0, select bank0
 14364  04FC' 009B'              	movwf	___flge@ff1+1
 14365  04FD' 1683               	bsf	3,5	;RP0=1, select bank1
 14366  04FE' 1303               	bcf	3,6	;RP1=0, select bank1
 14367  04FF' 0800'              	movf	efgtoa@h^(0+128),w
 14368  0500' 1283               	bcf	3,5	;RP0=0, select bank0
 14369  0501' 1303               	bcf	3,6	;RP1=0, select bank0
 14370  0502' 009A'              	movwf	___flge@ff1
 14371  0503' 3041               	movlw	65
 14372  0504' 0083'              	movwf	___flmul@b+3
 14373  0505' 3020               	movlw	32
 14374  0506' 0082'              	movwf	___flmul@b+2
 14375  0507' 3000               	movlw	0
 14376  0508' 0081'              	movwf	___flmul@b+1
 14377  0509' 3000               	movlw	0
 14378  050A' 0080'              	movwf	___flmul@b
 14379  050B' 1683               	bsf	3,5	;RP0=1, select bank1
 14380  050C' 1303               	bcf	3,6	;RP1=0, select bank1
 14381  050D' 0800'              	movf	(efgtoa@ou+3)^(0+128),w
 14382  050E' 1283               	bcf	3,5	;RP0=0, select bank0
 14383  050F' 1303               	bcf	3,6	;RP1=0, select bank0
 14384  0510' 0087'              	movwf	___flmul@a+3
 14385  0511' 1683               	bsf	3,5	;RP0=1, select bank1
 14386  0512' 1303               	bcf	3,6	;RP1=0, select bank1
 14387  0513' 0800'              	movf	(efgtoa@ou+2)^(0+128),w
 14388  0514' 1283               	bcf	3,5	;RP0=0, select bank0
 14389  0515' 1303               	bcf	3,6	;RP1=0, select bank0
 14390  0516' 0086'              	movwf	___flmul@a+2
 14391  0517' 1683               	bsf	3,5	;RP0=1, select bank1
 14392  0518' 1303               	bcf	3,6	;RP1=0, select bank1
 14393  0519' 0800'              	movf	(efgtoa@ou+1)^(0+128),w
 14394  051A' 1283               	bcf	3,5	;RP0=0, select bank0
 14395  051B' 1303               	bcf	3,6	;RP1=0, select bank0
 14396  051C' 0085'              	movwf	___flmul@a+1
 14397  051D' 1683               	bsf	3,5	;RP0=1, select bank1
 14398  051E' 1303               	bcf	3,6	;RP1=0, select bank1
 14399  051F' 0800'              	movf	efgtoa@ou^(0+128),w
 14400  0520' 1283               	bcf	3,5	;RP0=0, select bank0
 14401  0521' 1303               	bcf	3,6	;RP1=0, select bank0
 14402  0522' 0084'              	movwf	___flmul@a
 14403  0523' 120A' 118A' 2000' 120A' 118A' 	fcall	___flmul
 14404  0528' 1283               	bcf	3,5	;RP0=0, select bank0
 14405  0529' 1303               	bcf	3,6	;RP1=0, select bank0
 14406  052A' 0803'              	movf	?___flmul+3,w
 14407  052B' 00A1'              	movwf	___flge@ff2+3
 14408  052C' 0802'              	movf	?___flmul+2,w
 14409  052D' 00A0'              	movwf	___flge@ff2+2
 14410  052E' 0801'              	movf	?___flmul+1,w
 14411  052F' 009F'              	movwf	___flge@ff2+1
 14412  0530' 0800'              	movf	?___flmul,w
 14413  0531' 009E'              	movwf	___flge@ff2
 14414  0532' 120A' 118A' 2000' 120A' 118A' 	fcall	___flge
 14415  0537' 1C03               	btfss	3,0
 14416  0538' 2800'              	goto	u510_21
 14417  0539' 2800'              	goto	u510_20
 14418  053A'                    u510_21:
 14419  053A' 2800'              	goto	i1l927
 14420  053B'                    u510_20:
 14421  053B'                    i1l3692:
 14422                           
 14423                           ;/opt/microchip/xc8/v2.45/pic/sources/c99/common/doprnt.c: 759:   e++;
 14424  053B' 3001               	movlw	1
 14425  053C' 1683               	bsf	3,5	;RP0=1, select bank1
 14426  053D' 1303               	bcf	3,6	;RP1=0, select bank1
 14427  053E' 0780'              	addwf	efgtoa@e^(0+128),f
 14428  053F' 1803               	skipnc
 14429  0540' 0A80'              	incf	(efgtoa@e+1)^(0+128),f
 14430  0541' 3000               	movlw	0
 14431  0542' 0780'              	addwf	(efgtoa@e+1)^(0+128),f
 14432  0543'                    i1l3694:
 14433                           
 14434                           ;/opt/microchip/xc8/v2.45/pic/sources/c99/common/doprnt.c: 760:   ou.f *= 10.0;
 14435  0543' 3041               	movlw	65
 14436  0544' 1283               	bcf	3,5	;RP0=0, select bank0
 14437  0545' 1303               	bcf	3,6	;RP1=0, select bank0
 14438  0546' 0083'              	movwf	___flmul@b+3
 14439  0547' 3020               	movlw	32
 14440  0548' 0082'              	movwf	___flmul@b+2
 14441  0549' 3000               	movlw	0
 14442  054A' 0081'              	movwf	___flmul@b+1
 14443  054B' 3000               	movlw	0
 14444  054C' 0080'              	movwf	___flmul@b
 14445  054D' 1683               	bsf	3,5	;RP0=1, select bank1
 14446  054E' 1303               	bcf	3,6	;RP1=0, select bank1
 14447  054F' 0800'              	movf	(efgtoa@ou+3)^(0+128),w
 14448  0550' 1283               	bcf	3,5	;RP0=0, select bank0
 14449  0551' 1303               	bcf	3,6	;RP1=0, select bank0
 14450  0552' 0087'              	movwf	___flmul@a+3
 14451  0553' 1683               	bsf	3,5	;RP0=1, select bank1
 14452  0554' 1303               	bcf	3,6	;RP1=0, select bank1
 14453  0555' 0800'              	movf	(efgtoa@ou+2)^(0+128),w
 14454  0556' 1283               	bcf	3,5	;RP0=0, select bank0
 14455  0557' 1303               	bcf	3,6	;RP1=0, select bank0
 14456  0558' 0086'              	movwf	___flmul@a+2
 14457  0559' 1683               	bsf	3,5	;RP0=1, select bank1
 14458  055A' 1303               	bcf	3,6	;RP1=0, select bank1
 14459  055B' 0800'              	movf	(efgtoa@ou+1)^(0+128),w
 14460  055C' 1283               	bcf	3,5	;RP0=0, select bank0
 14461  055D' 1303               	bcf	3,6	;RP1=0, select bank0
 14462  055E' 0085'              	movwf	___flmul@a+1
 14463  055F' 1683               	bsf	3,5	;RP0=1, select bank1
 14464  0560' 1303               	bcf	3,6	;RP1=0, select bank1
 14465  0561' 0800'              	movf	efgtoa@ou^(0+128),w
 14466  0562' 1283               	bcf	3,5	;RP0=0, select bank0
 14467  0563' 1303               	bcf	3,6	;RP1=0, select bank0
 14468  0564' 0084'              	movwf	___flmul@a
 14469  0565' 120A' 118A' 2000' 120A' 118A' 	fcall	___flmul
 14470  056A' 1283               	bcf	3,5	;RP0=0, select bank0
 14471  056B' 1303               	bcf	3,6	;RP1=0, select bank0
 14472  056C' 0803'              	movf	?___flmul+3,w
 14473  056D' 1683               	bsf	3,5	;RP0=1, select bank1
 14474  056E' 1303               	bcf	3,6	;RP1=0, select bank1
 14475  056F' 0080'              	movwf	(efgtoa@ou+3)^(0+128)
 14476  0570' 1283               	bcf	3,5	;RP0=0, select bank0
 14477  0571' 1303               	bcf	3,6	;RP1=0, select bank0
 14478  0572' 0802'              	movf	?___flmul+2,w
 14479  0573' 1683               	bsf	3,5	;RP0=1, select bank1
 14480  0574' 1303               	bcf	3,6	;RP1=0, select bank1
 14481  0575' 0080'              	movwf	(efgtoa@ou+2)^(0+128)
 14482  0576' 1283               	bcf	3,5	;RP0=0, select bank0
 14483  0577' 1303               	bcf	3,6	;RP1=0, select bank0
 14484  0578' 0801'              	movf	?___flmul+1,w
 14485  0579' 1683               	bsf	3,5	;RP0=1, select bank1
 14486  057A' 1303               	bcf	3,6	;RP1=0, select bank1
 14487  057B' 0080'              	movwf	(efgtoa@ou+1)^(0+128)
 14488  057C' 1283               	bcf	3,5	;RP0=0, select bank0
 14489  057D' 1303               	bcf	3,6	;RP1=0, select bank0
 14490  057E' 0800'              	movf	?___flmul,w
 14491  057F' 1683               	bsf	3,5	;RP0=1, select bank1
 14492  0580' 1303               	bcf	3,6	;RP1=0, select bank1
 14493  0581' 0080'              	movwf	efgtoa@ou^(0+128)
 14494  0582'                    i1l3696:
 14495                           
 14496                           ;/opt/microchip/xc8/v2.45/pic/sources/c99/common/doprnt.c: 762:   if (nmode == 'f') {
 14497  0582' 3066               	movlw	102
 14498  0583' 0600'              	xorwf	efgtoa@nmode^(0+128),w
 14499  0584' 1D03               	btfss	3,2
 14500  0585' 2800'              	goto	u511_21
 14501  0586' 2800'              	goto	u511_20
 14502  0587'                    u511_21:
 14503  0587' 2800'              	goto	i1l927
 14504  0588'                    u511_20:
 14505  0588'                    i1l3698:
 14506                           
 14507                           ;/opt/microchip/xc8/v2.45/pic/sources/c99/common/doprnt.c: 764:    m++;
 14508  0588' 3001               	movlw	1
 14509  0589' 0780'              	addwf	efgtoa@m^(0+128),f
 14510  058A' 1803               	skipnc
 14511  058B' 0A80'              	incf	(efgtoa@m+1)^(0+128),f
 14512  058C' 3000               	movlw	0
 14513  058D' 0780'              	addwf	(efgtoa@m+1)^(0+128),f
 14514  058E'                    i1l927:	
 14515                           ;/opt/microchip/xc8/v2.45/pic/sources/c99/common/doprnt.c: 767:  }
 14516                           
 14517                           
 14518                           ;/opt/microchip/xc8/v2.45/pic/sources/c99/common/doprnt.c: 770:     u = ou;
 14519  058E' 1683               	bsf	3,5	;RP0=1, select bank1
 14520  058F' 1303               	bcf	3,6	;RP1=0, select bank1
 14521  0590' 0800'              	movf	(efgtoa@ou+3)^(0+128),w
 14522  0591' 0080'              	movwf	(efgtoa@u+3)^(0+128)
 14523  0592' 0800'              	movf	(efgtoa@ou+2)^(0+128),w
 14524  0593' 0080'              	movwf	(efgtoa@u+2)^(0+128)
 14525  0594' 0800'              	movf	(efgtoa@ou+1)^(0+128),w
 14526  0595' 0080'              	movwf	(efgtoa@u+1)^(0+128)
 14527  0596' 0800'              	movf	efgtoa@ou^(0+128),w
 14528  0597' 0080'              	movwf	efgtoa@u^(0+128)
 14529                           
 14530                           ;/opt/microchip/xc8/v2.45/pic/sources/c99/common/doprnt.c: 774:  ne = e;
 14531  0598' 0800'              	movf	(efgtoa@e+1)^(0+128),w
 14532  0599' 0080'              	movwf	(efgtoa@ne+1)^(0+128)
 14533  059A' 0800'              	movf	efgtoa@e^(0+128),w
 14534  059B' 0080'              	movwf	efgtoa@ne^(0+128)
 14535  059C'                    i1l3700:
 14536                           
 14537                           ;/opt/microchip/xc8/v2.45/pic/sources/c99/common/doprnt.c: 776:     pp = 0;
 14538  059C' 0180'              	clrf	efgtoa@pp^(0+128)
 14539  059D'                    i1l3702:
 14540                           
 14541                           ;/opt/microchip/xc8/v2.45/pic/sources/c99/common/doprnt.c: 777:     t = 0;
 14542  059D' 0180'              	clrf	efgtoa@t^(0+128)
 14543  059E' 0180'              	clrf	(efgtoa@t+1)^(0+128)
 14544  059F'                    i1l3704:
 14545                           
 14546                           ;/opt/microchip/xc8/v2.45/pic/sources/c99/common/doprnt.c: 778:     i = 0;
 14547  059F' 0180'              	clrf	efgtoa@i^(0+128)
 14548  05A0' 0180'              	clrf	(efgtoa@i+1)^(0+128)
 14549                           
 14550                           ;/opt/microchip/xc8/v2.45/pic/sources/c99/common/doprnt.c: 779:     while ((i < m) && (n
      +                           < (80 - 5))) {
 14551  05A1' 2800'              	goto	i1l3748
 14552  05A2'                    i1l3706:
 14553                           
 14554                           ;/opt/microchip/xc8/v2.45/pic/sources/c99/common/doprnt.c: 780:         l = floorf(h/u.f
      +                          );
 14555  05A2' 1683               	bsf	3,5	;RP0=1, select bank1
 14556  05A3' 1303               	bcf	3,6	;RP1=0, select bank1
 14557  05A4' 0800'              	movf	(efgtoa@u+3)^(0+128),w
 14558  05A5' 1283               	bcf	3,5	;RP0=0, select bank0
 14559  05A6' 1303               	bcf	3,6	;RP1=0, select bank0
 14560  05A7' 0097'              	movwf	___fldiv@a+3
 14561  05A8' 1683               	bsf	3,5	;RP0=1, select bank1
 14562  05A9' 1303               	bcf	3,6	;RP1=0, select bank1
 14563  05AA' 0800'              	movf	(efgtoa@u+2)^(0+128),w
 14564  05AB' 1283               	bcf	3,5	;RP0=0, select bank0
 14565  05AC' 1303               	bcf	3,6	;RP1=0, select bank0
 14566  05AD' 0096'              	movwf	___fldiv@a+2
 14567  05AE' 1683               	bsf	3,5	;RP0=1, select bank1
 14568  05AF' 1303               	bcf	3,6	;RP1=0, select bank1
 14569  05B0' 0800'              	movf	(efgtoa@u+1)^(0+128),w
 14570  05B1' 1283               	bcf	3,5	;RP0=0, select bank0
 14571  05B2' 1303               	bcf	3,6	;RP1=0, select bank0
 14572  05B3' 0095'              	movwf	___fldiv@a+1
 14573  05B4' 1683               	bsf	3,5	;RP0=1, select bank1
 14574  05B5' 1303               	bcf	3,6	;RP1=0, select bank1
 14575  05B6' 0800'              	movf	efgtoa@u^(0+128),w
 14576  05B7' 1283               	bcf	3,5	;RP0=0, select bank0
 14577  05B8' 1303               	bcf	3,6	;RP1=0, select bank0
 14578  05B9' 0094'              	movwf	___fldiv@a
 14579  05BA' 1683               	bsf	3,5	;RP0=1, select bank1
 14580  05BB' 1303               	bcf	3,6	;RP1=0, select bank1
 14581  05BC' 0800'              	movf	(efgtoa@h+3)^(0+128),w
 14582  05BD' 1283               	bcf	3,5	;RP0=0, select bank0
 14583  05BE' 1303               	bcf	3,6	;RP1=0, select bank0
 14584  05BF' 009B'              	movwf	___fldiv@b+3
 14585  05C0' 1683               	bsf	3,5	;RP0=1, select bank1
 14586  05C1' 1303               	bcf	3,6	;RP1=0, select bank1
 14587  05C2' 0800'              	movf	(efgtoa@h+2)^(0+128),w
 14588  05C3' 1283               	bcf	3,5	;RP0=0, select bank0
 14589  05C4' 1303               	bcf	3,6	;RP1=0, select bank0
 14590  05C5' 009A'              	movwf	___fldiv@b+2
 14591  05C6' 1683               	bsf	3,5	;RP0=1, select bank1
 14592  05C7' 1303               	bcf	3,6	;RP1=0, select bank1
 14593  05C8' 0800'              	movf	(efgtoa@h+1)^(0+128),w
 14594  05C9' 1283               	bcf	3,5	;RP0=0, select bank0
 14595  05CA' 1303               	bcf	3,6	;RP1=0, select bank0
 14596  05CB' 0099'              	movwf	___fldiv@b+1
 14597  05CC' 1683               	bsf	3,5	;RP0=1, select bank1
 14598  05CD' 1303               	bcf	3,6	;RP1=0, select bank1
 14599  05CE' 0800'              	movf	efgtoa@h^(0+128),w
 14600  05CF' 1283               	bcf	3,5	;RP0=0, select bank0
 14601  05D0' 1303               	bcf	3,6	;RP1=0, select bank0
 14602  05D1' 0098'              	movwf	___fldiv@b
 14603  05D2' 120A' 118A' 2000' 120A' 118A' 	fcall	___fldiv
 14604  05D7' 1283               	bcf	3,5	;RP0=0, select bank0
 14605  05D8' 1303               	bcf	3,6	;RP1=0, select bank0
 14606  05D9' 0817'              	movf	?___fldiv+3,w
 14607  05DA' 00B1'              	movwf	floorf@x+3
 14608  05DB' 0816'              	movf	?___fldiv+2,w
 14609  05DC' 00B0'              	movwf	floorf@x+2
 14610  05DD' 0815'              	movf	?___fldiv+1,w
 14611  05DE' 00AF'              	movwf	floorf@x+1
 14612  05DF' 0814'              	movf	?___fldiv,w
 14613  05E0' 00AE'              	movwf	floorf@x
 14614  05E1' 120A' 118A' 2000' 120A' 118A' 	fcall	_floorf
 14615  05E6' 1283               	bcf	3,5	;RP0=0, select bank0
 14616  05E7' 1303               	bcf	3,6	;RP1=0, select bank0
 14617  05E8' 0831'              	movf	?_floorf+3,w
 14618  05E9' 1683               	bsf	3,5	;RP0=1, select bank1
 14619  05EA' 1303               	bcf	3,6	;RP1=0, select bank1
 14620  05EB' 0080'              	movwf	(efgtoa@l+3)^(0+128)
 14621  05EC' 1283               	bcf	3,5	;RP0=0, select bank0
 14622  05ED' 1303               	bcf	3,6	;RP1=0, select bank0
 14623  05EE' 0830'              	movf	?_floorf+2,w
 14624  05EF' 1683               	bsf	3,5	;RP0=1, select bank1
 14625  05F0' 1303               	bcf	3,6	;RP1=0, select bank1
 14626  05F1' 0080'              	movwf	(efgtoa@l+2)^(0+128)
 14627  05F2' 1283               	bcf	3,5	;RP0=0, select bank0
 14628  05F3' 1303               	bcf	3,6	;RP1=0, select bank0
 14629  05F4' 082F'              	movf	?_floorf+1,w
 14630  05F5' 1683               	bsf	3,5	;RP0=1, select bank1
 14631  05F6' 1303               	bcf	3,6	;RP1=0, select bank1
 14632  05F7' 0080'              	movwf	(efgtoa@l+1)^(0+128)
 14633  05F8' 1283               	bcf	3,5	;RP0=0, select bank0
 14634  05F9' 1303               	bcf	3,6	;RP1=0, select bank0
 14635  05FA' 082E'              	movf	?_floorf,w
 14636  05FB' 1683               	bsf	3,5	;RP0=1, select bank1
 14637  05FC' 1303               	bcf	3,6	;RP1=0, select bank1
 14638  05FD' 0080'              	movwf	efgtoa@l^(0+128)
 14639                           
 14640                           ;/opt/microchip/xc8/v2.45/pic/sources/c99/common/doprnt.c: 781:         d = (int)l > 9 ?
      +                           9 : (int)l;
 14641  05FE' 0800'              	movf	(efgtoa@l+3)^(0+128),w
 14642  05FF' 1283               	bcf	3,5	;RP0=0, select bank0
 14643  0600' 1303               	bcf	3,6	;RP1=0, select bank0
 14644  0601' 009D'              	movwf	___fltol@f1+3
 14645  0602' 1683               	bsf	3,5	;RP0=1, select bank1
 14646  0603' 1303               	bcf	3,6	;RP1=0, select bank1
 14647  0604' 0800'              	movf	(efgtoa@l+2)^(0+128),w
 14648  0605' 1283               	bcf	3,5	;RP0=0, select bank0
 14649  0606' 1303               	bcf	3,6	;RP1=0, select bank0
 14650  0607' 009C'              	movwf	___fltol@f1+2
 14651  0608' 1683               	bsf	3,5	;RP0=1, select bank1
 14652  0609' 1303               	bcf	3,6	;RP1=0, select bank1
 14653  060A' 0800'              	movf	(efgtoa@l+1)^(0+128),w
 14654  060B' 1283               	bcf	3,5	;RP0=0, select bank0
 14655  060C' 1303               	bcf	3,6	;RP1=0, select bank0
 14656  060D' 009B'              	movwf	___fltol@f1+1
 14657  060E' 1683               	bsf	3,5	;RP0=1, select bank1
 14658  060F' 1303               	bcf	3,6	;RP1=0, select bank1
 14659  0610' 0800'              	movf	efgtoa@l^(0+128),w
 14660  0611' 1283               	bcf	3,5	;RP0=0, select bank0
 14661  0612' 1303               	bcf	3,6	;RP1=0, select bank0
 14662  0613' 009A'              	movwf	___fltol@f1
 14663  0614' 120A' 118A' 2000' 120A' 118A' 	fcall	___fltol
 14664  0619' 1283               	bcf	3,5	;RP0=0, select bank0
 14665  061A' 1303               	bcf	3,6	;RP1=0, select bank0
 14666  061B' 081B'              	movf	?___fltol+1,w
 14667  061C' 3A80               	xorlw	128
 14668  061D' 00FF               	movwf	btemp+1
 14669  061E' 3080               	movlw	128
 14670  061F' 027F               	subwf	btemp+1,w
 14671  0620' 1D03               	skipz
 14672  0621' 2800'              	goto	u512_25
 14673  0622' 300A               	movlw	10
 14674  0623' 021A'              	subwf	?___fltol,w
 14675  0624'                    u512_25:
 14676  0624' 1803               	skipnc
 14677  0625' 2800'              	goto	u512_21
 14678  0626' 2800'              	goto	u512_20
 14679  0627'                    u512_21:
 14680  0627' 2800'              	goto	i1l3710
 14681  0628'                    u512_20:
 14682  0628'                    i1l3708:
 14683  0628' 1683               	bsf	3,5	;RP0=1, select bank1
 14684  0629' 1303               	bcf	3,6	;RP1=0, select bank1
 14685  062A' 0800'              	movf	(efgtoa@l+3)^(0+128),w
 14686  062B' 1283               	bcf	3,5	;RP0=0, select bank0
 14687  062C' 1303               	bcf	3,6	;RP1=0, select bank0
 14688  062D' 009D'              	movwf	___fltol@f1+3
 14689  062E' 1683               	bsf	3,5	;RP0=1, select bank1
 14690  062F' 1303               	bcf	3,6	;RP1=0, select bank1
 14691  0630' 0800'              	movf	(efgtoa@l+2)^(0+128),w
 14692  0631' 1283               	bcf	3,5	;RP0=0, select bank0
 14693  0632' 1303               	bcf	3,6	;RP1=0, select bank0
 14694  0633' 009C'              	movwf	___fltol@f1+2
 14695  0634' 1683               	bsf	3,5	;RP0=1, select bank1
 14696  0635' 1303               	bcf	3,6	;RP1=0, select bank1
 14697  0636' 0800'              	movf	(efgtoa@l+1)^(0+128),w
 14698  0637' 1283               	bcf	3,5	;RP0=0, select bank0
 14699  0638' 1303               	bcf	3,6	;RP1=0, select bank0
 14700  0639' 009B'              	movwf	___fltol@f1+1
 14701  063A' 1683               	bsf	3,5	;RP0=1, select bank1
 14702  063B' 1303               	bcf	3,6	;RP1=0, select bank1
 14703  063C' 0800'              	movf	efgtoa@l^(0+128),w
 14704  063D' 1283               	bcf	3,5	;RP0=0, select bank0
 14705  063E' 1303               	bcf	3,6	;RP1=0, select bank0
 14706  063F' 009A'              	movwf	___fltol@f1
 14707  0640' 120A' 118A' 2000' 120A' 118A' 	fcall	___fltol
 14708  0645' 1283               	bcf	3,5	;RP0=0, select bank0
 14709  0646' 1303               	bcf	3,6	;RP1=0, select bank0
 14710  0647' 081B'              	movf	?___fltol+1,w
 14711  0648' 1683               	bsf	3,5	;RP0=1, select bank1
 14712  0649' 1303               	bcf	3,6	;RP1=0, select bank1
 14713  064A' 0080'              	movwf	(efgtoa@d+1)^(0+128)
 14714  064B' 1283               	bcf	3,5	;RP0=0, select bank0
 14715  064C' 1303               	bcf	3,6	;RP1=0, select bank0
 14716  064D' 081A'              	movf	?___fltol,w
 14717  064E' 1683               	bsf	3,5	;RP0=1, select bank1
 14718  064F' 1303               	bcf	3,6	;RP1=0, select bank1
 14719  0650' 0080'              	movwf	efgtoa@d^(0+128)
 14720  0651' 2800'              	goto	i1l3712
 14721  0652'                    i1l3710:
 14722  0652' 3009               	movlw	9
 14723  0653' 1683               	bsf	3,5	;RP0=1, select bank1
 14724  0654' 1303               	bcf	3,6	;RP1=0, select bank1
 14725  0655' 0080'              	movwf	efgtoa@d^(0+128)
 14726  0656' 3000               	movlw	0
 14727  0657' 0081'              	movwf	(efgtoa@d^(0+128)+1)
 14728  0658'                    i1l3712:
 14729                           
 14730                           ;/opt/microchip/xc8/v2.45/pic/sources/c99/common/doprnt.c: 792:   {;/opt/microchip/xc8/v
      +                          2.45/pic/sources/c99/common/doprnt.c: 793:             if (!pp && (ne < 0)) {
 14731  0658' 0800'              	movf	efgtoa@pp^(0+128),w
 14732  0659' 1D03               	btfss	3,2
 14733  065A' 2800'              	goto	u513_21
 14734  065B' 2800'              	goto	u513_20
 14735  065C'                    u513_21:
 14736  065C' 2800'              	goto	i1l3732
 14737  065D'                    u513_20:
 14738  065D'                    i1l3714:
 14739  065D' 1F80'              	btfss	(efgtoa@ne+1)^(0+128),7
 14740  065E' 2800'              	goto	u514_21
 14741  065F' 2800'              	goto	u514_20
 14742  0660'                    u514_21:
 14743  0660' 2800'              	goto	i1l3732
 14744  0661'                    u514_20:
 14745  0661'                    i1l3716:
 14746                           
 14747                           ;/opt/microchip/xc8/v2.45/pic/sources/c99/common/doprnt.c: 794:                 dbuf[n++
      +                          ] = '.';
 14748  0661' 0800'              	movf	efgtoa@n^(0+128),w
 14749  0662' 3E00'              	addlw	(low (_dbuf| (0+256)))& (0+255)
 14750  0663' 0084               	movwf	4
 14751  0664' 302E               	movlw	46
 14752  0665' 1783               	bsf	3,7	;select IRP bank2
 14753  0666' 0080               	movwf	0
 14754  0667'                    i1l3718:
 14755  0667' 3001               	movlw	1
 14756  0668' 0780'              	addwf	efgtoa@n^(0+128),f
 14757  0669' 1803               	skipnc
 14758  066A' 0A80'              	incf	(efgtoa@n+1)^(0+128),f
 14759  066B' 3000               	movlw	0
 14760  066C' 0780'              	addwf	(efgtoa@n+1)^(0+128),f
 14761  066D'                    i1l3720:
 14762                           
 14763                           ;/opt/microchip/xc8/v2.45/pic/sources/c99/common/doprnt.c: 795:                 --w;
 14764  066D' 30FF               	movlw	255
 14765  066E' 0780'              	addwf	efgtoa@w^(0+128),f
 14766  066F' 1803               	skipnc
 14767  0670' 0A80'              	incf	(efgtoa@w+1)^(0+128),f
 14768  0671' 30FF               	movlw	255
 14769  0672' 0780'              	addwf	(efgtoa@w+1)^(0+128),f
 14770  0673'                    i1l3722:
 14771                           
 14772                           ;/opt/microchip/xc8/v2.45/pic/sources/c99/common/doprnt.c: 796:                 pp = 1;
 14773  0673' 0180'              	clrf	efgtoa@pp^(0+128)
 14774  0674' 0A80'              	incf	efgtoa@pp^(0+128),f
 14775  0675' 2800'              	goto	i1l3732
 14776  0676'                    i1l3724:
 14777                           
 14778                           ;/opt/microchip/xc8/v2.45/pic/sources/c99/common/doprnt.c: 799:                 dbuf[n++
      +                          ] = '0';
 14779  0676' 0800'              	movf	efgtoa@n^(0+128),w
 14780  0677' 3E00'              	addlw	(low (_dbuf| (0+256)))& (0+255)
 14781  0678' 0084               	movwf	4
 14782  0679' 3030               	movlw	48
 14783  067A' 1783               	bsf	3,7	;select IRP bank2
 14784  067B' 0080               	movwf	0
 14785  067C'                    i1l3726:
 14786  067C' 3001               	movlw	1
 14787  067D' 0780'              	addwf	efgtoa@n^(0+128),f
 14788  067E' 1803               	skipnc
 14789  067F' 0A80'              	incf	(efgtoa@n+1)^(0+128),f
 14790  0680' 3000               	movlw	0
 14791  0681' 0780'              	addwf	(efgtoa@n+1)^(0+128),f
 14792  0682'                    i1l3728:
 14793                           
 14794                           ;/opt/microchip/xc8/v2.45/pic/sources/c99/common/doprnt.c: 800:                 --w;
 14795  0682' 30FF               	movlw	255
 14796  0683' 0780'              	addwf	efgtoa@w^(0+128),f
 14797  0684' 1803               	skipnc
 14798  0685' 0A80'              	incf	(efgtoa@w+1)^(0+128),f
 14799  0686' 30FF               	movlw	255
 14800  0687' 0780'              	addwf	(efgtoa@w+1)^(0+128),f
 14801  0688'                    i1l3730:
 14802                           
 14803                           ;/opt/microchip/xc8/v2.45/pic/sources/c99/common/doprnt.c: 801:                 --t;
 14804  0688' 30FF               	movlw	255
 14805  0689' 0780'              	addwf	efgtoa@t^(0+128),f
 14806  068A' 1803               	skipnc
 14807  068B' 0A80'              	incf	(efgtoa@t+1)^(0+128),f
 14808  068C' 30FF               	movlw	255
 14809  068D' 0780'              	addwf	(efgtoa@t+1)^(0+128),f
 14810  068E'                    i1l3732:
 14811                           
 14812                           ;/opt/microchip/xc8/v2.45/pic/sources/c99/common/doprnt.c: 798:             while (t) {
 14813  068E' 0800'              	movf	efgtoa@t^(0+128),w
 14814  068F' 0400'              	iorwf	(efgtoa@t+1)^(0+128),w
 14815  0690' 1D03               	btfss	3,2
 14816  0691' 2800'              	goto	u515_21
 14817  0692' 2800'              	goto	u515_20
 14818  0693'                    u515_21:
 14819  0693' 2800'              	goto	i1l3724
 14820  0694'                    u515_20:
 14821  0694'                    i1l3734:
 14822                           
 14823                           ;/opt/microchip/xc8/v2.45/pic/sources/c99/common/doprnt.c: 803:             dbuf[n++] = 
      +                          (char)((int)'0' + d);
 14824  0694' 0800'              	movf	efgtoa@n^(0+128),w
 14825  0695' 3E00'              	addlw	(low (_dbuf| (0+256)))& (0+255)
 14826  0696' 0084               	movwf	4
 14827  0697' 0800'              	movf	efgtoa@d^(0+128),w
 14828  0698' 3E30               	addlw	48
 14829  0699' 1783               	bsf	3,7	;select IRP bank2
 14830  069A' 0080               	movwf	0
 14831  069B'                    i1l3736:
 14832  069B' 3001               	movlw	1
 14833  069C' 0780'              	addwf	efgtoa@n^(0+128),f
 14834  069D' 1803               	skipnc
 14835  069E' 0A80'              	incf	(efgtoa@n+1)^(0+128),f
 14836  069F' 3000               	movlw	0
 14837  06A0' 0780'              	addwf	(efgtoa@n+1)^(0+128),f
 14838  06A1'                    i1l3738:
 14839                           
 14840                           ;/opt/microchip/xc8/v2.45/pic/sources/c99/common/doprnt.c: 804:             --w;
 14841  06A1' 30FF               	movlw	255
 14842  06A2' 0780'              	addwf	efgtoa@w^(0+128),f
 14843  06A3' 1803               	skipnc
 14844  06A4' 0A80'              	incf	(efgtoa@w+1)^(0+128),f
 14845  06A5' 30FF               	movlw	255
 14846  06A6' 0780'              	addwf	(efgtoa@w+1)^(0+128),f
 14847  06A7'                    i1l3740:
 14848                           
 14849                           ;/opt/microchip/xc8/v2.45/pic/sources/c99/common/doprnt.c: 805:         };/opt/microchip
      +                          /xc8/v2.45/pic/sources/c99/common/doprnt.c: 806:         h -= l*u.f;
 14850  06A7' 0800'              	movf	(efgtoa@u+3)^(0+128),w
 14851  06A8' 1283               	bcf	3,5	;RP0=0, select bank0
 14852  06A9' 1303               	bcf	3,6	;RP1=0, select bank0
 14853  06AA' 0087'              	movwf	___flmul@a+3
 14854  06AB' 1683               	bsf	3,5	;RP0=1, select bank1
 14855  06AC' 1303               	bcf	3,6	;RP1=0, select bank1
 14856  06AD' 0800'              	movf	(efgtoa@u+2)^(0+128),w
 14857  06AE' 1283               	bcf	3,5	;RP0=0, select bank0
 14858  06AF' 1303               	bcf	3,6	;RP1=0, select bank0
 14859  06B0' 0086'              	movwf	___flmul@a+2
 14860  06B1' 1683               	bsf	3,5	;RP0=1, select bank1
 14861  06B2' 1303               	bcf	3,6	;RP1=0, select bank1
 14862  06B3' 0800'              	movf	(efgtoa@u+1)^(0+128),w
 14863  06B4' 1283               	bcf	3,5	;RP0=0, select bank0
 14864  06B5' 1303               	bcf	3,6	;RP1=0, select bank0
 14865  06B6' 0085'              	movwf	___flmul@a+1
 14866  06B7' 1683               	bsf	3,5	;RP0=1, select bank1
 14867  06B8' 1303               	bcf	3,6	;RP1=0, select bank1
 14868  06B9' 0800'              	movf	efgtoa@u^(0+128),w
 14869  06BA' 1283               	bcf	3,5	;RP0=0, select bank0
 14870  06BB' 1303               	bcf	3,6	;RP1=0, select bank0
 14871  06BC' 0084'              	movwf	___flmul@a
 14872  06BD' 1683               	bsf	3,5	;RP0=1, select bank1
 14873  06BE' 1303               	bcf	3,6	;RP1=0, select bank1
 14874  06BF' 0800'              	movf	(efgtoa@l+3)^(0+128),w
 14875  06C0' 1283               	bcf	3,5	;RP0=0, select bank0
 14876  06C1' 1303               	bcf	3,6	;RP1=0, select bank0
 14877  06C2' 0083'              	movwf	___flmul@b+3
 14878  06C3' 1683               	bsf	3,5	;RP0=1, select bank1
 14879  06C4' 1303               	bcf	3,6	;RP1=0, select bank1
 14880  06C5' 0800'              	movf	(efgtoa@l+2)^(0+128),w
 14881  06C6' 1283               	bcf	3,5	;RP0=0, select bank0
 14882  06C7' 1303               	bcf	3,6	;RP1=0, select bank0
 14883  06C8' 0082'              	movwf	___flmul@b+2
 14884  06C9' 1683               	bsf	3,5	;RP0=1, select bank1
 14885  06CA' 1303               	bcf	3,6	;RP1=0, select bank1
 14886  06CB' 0800'              	movf	(efgtoa@l+1)^(0+128),w
 14887  06CC' 1283               	bcf	3,5	;RP0=0, select bank0
 14888  06CD' 1303               	bcf	3,6	;RP1=0, select bank0
 14889  06CE' 0081'              	movwf	___flmul@b+1
 14890  06CF' 1683               	bsf	3,5	;RP0=1, select bank1
 14891  06D0' 1303               	bcf	3,6	;RP1=0, select bank1
 14892  06D1' 0800'              	movf	efgtoa@l^(0+128),w
 14893  06D2' 1283               	bcf	3,5	;RP0=0, select bank0
 14894  06D3' 1303               	bcf	3,6	;RP1=0, select bank0
 14895  06D4' 0080'              	movwf	___flmul@b
 14896  06D5' 120A' 118A' 2000' 120A' 118A' 	fcall	___flmul
 14897  06DA' 1283               	bcf	3,5	;RP0=0, select bank0
 14898  06DB' 1303               	bcf	3,6	;RP1=0, select bank0
 14899  06DC' 0803'              	movf	?___flmul+3,w
 14900  06DD' 009D'              	movwf	___flsub@a+3
 14901  06DE' 0802'              	movf	?___flmul+2,w
 14902  06DF' 009C'              	movwf	___flsub@a+2
 14903  06E0' 0801'              	movf	?___flmul+1,w
 14904  06E1' 009B'              	movwf	___flsub@a+1
 14905  06E2' 0800'              	movf	?___flmul,w
 14906  06E3' 009A'              	movwf	___flsub@a
 14907  06E4' 1683               	bsf	3,5	;RP0=1, select bank1
 14908  06E5' 1303               	bcf	3,6	;RP1=0, select bank1
 14909  06E6' 0800'              	movf	(efgtoa@h+3)^(0+128),w
 14910  06E7' 1283               	bcf	3,5	;RP0=0, select bank0
 14911  06E8' 1303               	bcf	3,6	;RP1=0, select bank0
 14912  06E9' 00A1'              	movwf	___flsub@b+3
 14913  06EA' 1683               	bsf	3,5	;RP0=1, select bank1
 14914  06EB' 1303               	bcf	3,6	;RP1=0, select bank1
 14915  06EC' 0800'              	movf	(efgtoa@h+2)^(0+128),w
 14916  06ED' 1283               	bcf	3,5	;RP0=0, select bank0
 14917  06EE' 1303               	bcf	3,6	;RP1=0, select bank0
 14918  06EF' 00A0'              	movwf	___flsub@b+2
 14919  06F0' 1683               	bsf	3,5	;RP0=1, select bank1
 14920  06F1' 1303               	bcf	3,6	;RP1=0, select bank1
 14921  06F2' 0800'              	movf	(efgtoa@h+1)^(0+128),w
 14922  06F3' 1283               	bcf	3,5	;RP0=0, select bank0
 14923  06F4' 1303               	bcf	3,6	;RP1=0, select bank0
 14924  06F5' 009F'              	movwf	___flsub@b+1
 14925  06F6' 1683               	bsf	3,5	;RP0=1, select bank1
 14926  06F7' 1303               	bcf	3,6	;RP1=0, select bank1
 14927  06F8' 0800'              	movf	efgtoa@h^(0+128),w
 14928  06F9' 1283               	bcf	3,5	;RP0=0, select bank0
 14929  06FA' 1303               	bcf	3,6	;RP1=0, select bank0
 14930  06FB' 009E'              	movwf	___flsub@b
 14931  06FC' 120A' 118A' 2000' 120A' 118A' 	fcall	___flsub
 14932  0701' 1283               	bcf	3,5	;RP0=0, select bank0
 14933  0702' 1303               	bcf	3,6	;RP1=0, select bank0
 14934  0703' 081D'              	movf	?___flsub+3,w
 14935  0704' 1683               	bsf	3,5	;RP0=1, select bank1
 14936  0705' 1303               	bcf	3,6	;RP1=0, select bank1
 14937  0706' 0080'              	movwf	(efgtoa@h+3)^(0+128)
 14938  0707' 1283               	bcf	3,5	;RP0=0, select bank0
 14939  0708' 1303               	bcf	3,6	;RP1=0, select bank0
 14940  0709' 081C'              	movf	?___flsub+2,w
 14941  070A' 1683               	bsf	3,5	;RP0=1, select bank1
 14942  070B' 1303               	bcf	3,6	;RP1=0, select bank1
 14943  070C' 0080'              	movwf	(efgtoa@h+2)^(0+128)
 14944  070D' 1283               	bcf	3,5	;RP0=0, select bank0
 14945  070E' 1303               	bcf	3,6	;RP1=0, select bank0
 14946  070F' 081B'              	movf	?___flsub+1,w
 14947  0710' 1683               	bsf	3,5	;RP0=1, select bank1
 14948  0711' 1303               	bcf	3,6	;RP1=0, select bank1
 14949  0712' 0080'              	movwf	(efgtoa@h+1)^(0+128)
 14950  0713' 1283               	bcf	3,5	;RP0=0, select bank0
 14951  0714' 1303               	bcf	3,6	;RP1=0, select bank0
 14952  0715' 081A'              	movf	?___flsub,w
 14953  0716' 1683               	bsf	3,5	;RP0=1, select bank1
 14954  0717' 1303               	bcf	3,6	;RP1=0, select bank1
 14955  0718' 0080'              	movwf	efgtoa@h^(0+128)
 14956  0719'                    i1l3742:
 14957                           
 14958                           ;/opt/microchip/xc8/v2.45/pic/sources/c99/common/doprnt.c: 807:         u.f = u.f/10.0;
 14959  0719' 3041               	movlw	65
 14960  071A' 1283               	bcf	3,5	;RP0=0, select bank0
 14961  071B' 1303               	bcf	3,6	;RP1=0, select bank0
 14962  071C' 0097'              	movwf	___fldiv@a+3
 14963  071D' 3020               	movlw	32
 14964  071E' 0096'              	movwf	___fldiv@a+2
 14965  071F' 3000               	movlw	0
 14966  0720' 0095'              	movwf	___fldiv@a+1
 14967  0721' 3000               	movlw	0
 14968  0722' 0094'              	movwf	___fldiv@a
 14969  0723' 1683               	bsf	3,5	;RP0=1, select bank1
 14970  0724' 1303               	bcf	3,6	;RP1=0, select bank1
 14971  0725' 0800'              	movf	(efgtoa@u+3)^(0+128),w
 14972  0726' 1283               	bcf	3,5	;RP0=0, select bank0
 14973  0727' 1303               	bcf	3,6	;RP1=0, select bank0
 14974  0728' 009B'              	movwf	___fldiv@b+3
 14975  0729' 1683               	bsf	3,5	;RP0=1, select bank1
 14976  072A' 1303               	bcf	3,6	;RP1=0, select bank1
 14977  072B' 0800'              	movf	(efgtoa@u+2)^(0+128),w
 14978  072C' 1283               	bcf	3,5	;RP0=0, select bank0
 14979  072D' 1303               	bcf	3,6	;RP1=0, select bank0
 14980  072E' 009A'              	movwf	___fldiv@b+2
 14981  072F' 1683               	bsf	3,5	;RP0=1, select bank1
 14982  0730' 1303               	bcf	3,6	;RP1=0, select bank1
 14983  0731' 0800'              	movf	(efgtoa@u+1)^(0+128),w
 14984  0732' 1283               	bcf	3,5	;RP0=0, select bank0
 14985  0733' 1303               	bcf	3,6	;RP1=0, select bank0
 14986  0734' 0099'              	movwf	___fldiv@b+1
 14987  0735' 1683               	bsf	3,5	;RP0=1, select bank1
 14988  0736' 1303               	bcf	3,6	;RP1=0, select bank1
 14989  0737' 0800'              	movf	efgtoa@u^(0+128),w
 14990  0738' 1283               	bcf	3,5	;RP0=0, select bank0
 14991  0739' 1303               	bcf	3,6	;RP1=0, select bank0
 14992  073A' 0098'              	movwf	___fldiv@b
 14993  073B' 120A' 118A' 2000' 120A' 118A' 	fcall	___fldiv
 14994  0740' 1283               	bcf	3,5	;RP0=0, select bank0
 14995  0741' 1303               	bcf	3,6	;RP1=0, select bank0
 14996  0742' 0817'              	movf	?___fldiv+3,w
 14997  0743' 1683               	bsf	3,5	;RP0=1, select bank1
 14998  0744' 1303               	bcf	3,6	;RP1=0, select bank1
 14999  0745' 0080'              	movwf	(efgtoa@u+3)^(0+128)
 15000  0746' 1283               	bcf	3,5	;RP0=0, select bank0
 15001  0747' 1303               	bcf	3,6	;RP1=0, select bank0
 15002  0748' 0816'              	movf	?___fldiv+2,w
 15003  0749' 1683               	bsf	3,5	;RP0=1, select bank1
 15004  074A' 1303               	bcf	3,6	;RP1=0, select bank1
 15005  074B' 0080'              	movwf	(efgtoa@u+2)^(0+128)
 15006  074C' 1283               	bcf	3,5	;RP0=0, select bank0
 15007  074D' 1303               	bcf	3,6	;RP1=0, select bank0
 15008  074E' 0815'              	movf	?___fldiv+1,w
 15009  074F' 1683               	bsf	3,5	;RP0=1, select bank1
 15010  0750' 1303               	bcf	3,6	;RP1=0, select bank1
 15011  0751' 0080'              	movwf	(efgtoa@u+1)^(0+128)
 15012  0752' 1283               	bcf	3,5	;RP0=0, select bank0
 15013  0753' 1303               	bcf	3,6	;RP1=0, select bank0
 15014  0754' 0814'              	movf	?___fldiv,w
 15015  0755' 1683               	bsf	3,5	;RP0=1, select bank1
 15016  0756' 1303               	bcf	3,6	;RP1=0, select bank1
 15017  0757' 0080'              	movwf	efgtoa@u^(0+128)
 15018  0758'                    i1l3744:
 15019                           
 15020                           ;/opt/microchip/xc8/v2.45/pic/sources/c99/common/doprnt.c: 808:         --ne;
 15021  0758' 30FF               	movlw	255
 15022  0759' 0780'              	addwf	efgtoa@ne^(0+128),f
 15023  075A' 1803               	skipnc
 15024  075B' 0A80'              	incf	(efgtoa@ne+1)^(0+128),f
 15025  075C' 30FF               	movlw	255
 15026  075D' 0780'              	addwf	(efgtoa@ne+1)^(0+128),f
 15027  075E'                    i1l3746:
 15028                           
 15029                           ;/opt/microchip/xc8/v2.45/pic/sources/c99/common/doprnt.c: 809:         ++i;
 15030  075E' 3001               	movlw	1
 15031  075F' 0780'              	addwf	efgtoa@i^(0+128),f
 15032  0760' 1803               	skipnc
 15033  0761' 0A80'              	incf	(efgtoa@i+1)^(0+128),f
 15034  0762' 3000               	movlw	0
 15035  0763' 0780'              	addwf	(efgtoa@i+1)^(0+128),f
 15036  0764'                    i1l3748:
 15037                           
 15038                           ;/opt/microchip/xc8/v2.45/pic/sources/c99/common/doprnt.c: 779:     while ((i < m) && (n
      +                           < (80 - 5))) {
 15039  0764' 0800'              	movf	(efgtoa@i+1)^(0+128),w
 15040  0765' 3A80               	xorlw	128
 15041  0766' 1283               	bcf	3,5	;RP0=0, select bank0
 15042  0767' 1303               	bcf	3,6	;RP1=0, select bank0
 15043  0768' 00C7'              	movwf	??_efgtoa
 15044  0769' 1683               	bsf	3,5	;RP0=1, select bank1
 15045  076A' 1303               	bcf	3,6	;RP1=0, select bank1
 15046  076B' 0800'              	movf	(efgtoa@m+1)^(0+128),w
 15047  076C' 3A80               	xorlw	128
 15048  076D' 1283               	bcf	3,5	;RP0=0, select bank0
 15049  076E' 1303               	bcf	3,6	;RP1=0, select bank0
 15050  076F' 0247'              	subwf	??_efgtoa,w
 15051  0770' 1D03               	skipz
 15052  0771' 2800'              	goto	u516_25
 15053  0772' 1683               	bsf	3,5	;RP0=1, select bank1
 15054  0773' 1303               	bcf	3,6	;RP1=0, select bank1
 15055  0774' 0800'              	movf	efgtoa@m^(0+128),w
 15056  0775' 0200'              	subwf	efgtoa@i^(0+128),w
 15057  0776'                    u516_25:
 15058  0776' 1803               	skipnc
 15059  0777' 2800'              	goto	u516_21
 15060  0778' 2800'              	goto	u516_20
 15061  0779'                    u516_21:
 15062  0779' 2800'              	goto	i1l3752
 15063  077A'                    u516_20:
 15064  077A'                    i1l3750:
 15065  077A' 1683               	bsf	3,5	;RP0=1, select bank1
 15066  077B' 1303               	bcf	3,6	;RP1=0, select bank1
 15067  077C' 0800'              	movf	(efgtoa@n+1)^(0+128),w
 15068  077D' 3A80               	xorlw	128
 15069  077E' 00FF               	movwf	btemp+1
 15070  077F' 3080               	movlw	128
 15071  0780' 027F               	subwf	btemp+1,w
 15072  0781' 1D03               	skipz
 15073  0782' 2800'              	goto	u517_25
 15074  0783' 304B               	movlw	75
 15075  0784' 0200'              	subwf	efgtoa@n^(0+128),w
 15076  0785'                    u517_25:
 15077  0785' 1C03               	skipc
 15078  0786' 2800'              	goto	u517_21
 15079  0787' 2800'              	goto	u517_20
 15080  0788'                    u517_21:
 15081  0788' 2800'              	goto	i1l3706
 15082  0789'                    u517_20:
 15083  0789'                    i1l3752:
 15084                           
 15085                           ;/opt/microchip/xc8/v2.45/pic/sources/c99/common/doprnt.c: 816:  i = sizeof(dbuf) - 1;
 15086  0789' 304F               	movlw	79
 15087  078A' 1683               	bsf	3,5	;RP0=1, select bank1
 15088  078B' 1303               	bcf	3,6	;RP1=0, select bank1
 15089  078C' 0080'              	movwf	efgtoa@i^(0+128)
 15090  078D' 3000               	movlw	0
 15091  078E' 0081'              	movwf	(efgtoa@i^(0+128)+1)
 15092  078F'                    i1l3754:
 15093                           
 15094                           ;/opt/microchip/xc8/v2.45/pic/sources/c99/common/doprnt.c: 817:     dbuf[i] = '\0';
 15095  078F' 0800'              	movf	efgtoa@i^(0+128),w
 15096  0790' 3E00'              	addlw	(low (_dbuf| (0+256)))& (0+255)
 15097  0791' 0084               	movwf	4
 15098  0792' 1783               	bsf	3,7	;select IRP bank2
 15099  0793' 0180               	clrf	0
 15100  0794'                    i1l3756:
 15101                           
 15102                           ;/opt/microchip/xc8/v2.45/pic/sources/c99/common/doprnt.c: 848:  memcpy(&dbuf[i-n], &dbu
      +                          f[0], (size_t)n);
 15103  0794' 3000'              	movlw	(low (_dbuf| (0+256)))& (0+255)
 15104  0795' 0080'              	movwf	memcpy@s1
 15105  0796' 0800'              	movf	(efgtoa@n+1)^(0+128),w
 15106  0797' 0082'              	movwf	memcpy@n+1
 15107  0798' 0800'              	movf	efgtoa@n^(0+128),w
 15108  0799' 0081'              	movwf	memcpy@n
 15109  079A' 3000'              	movlw	(low (_dbuf| (0+256)))& (0+255)
 15110  079B' 1283               	bcf	3,5	;RP0=0, select bank0
 15111  079C' 1303               	bcf	3,6	;RP1=0, select bank0
 15112  079D' 00C7'              	movwf	??_efgtoa
 15113  079E' 1683               	bsf	3,5	;RP0=1, select bank1
 15114  079F' 1303               	bcf	3,6	;RP1=0, select bank1
 15115  07A0' 0800'              	movf	efgtoa@n^(0+128),w
 15116  07A1' 1283               	bcf	3,5	;RP0=0, select bank0
 15117  07A2' 1303               	bcf	3,6	;RP1=0, select bank0
 15118  07A3' 02C7'              	subwf	??_efgtoa,f
 15119  07A4' 1683               	bsf	3,5	;RP0=1, select bank1
 15120  07A5' 1303               	bcf	3,6	;RP1=0, select bank1
 15121  07A6' 0800'              	movf	efgtoa@i^(0+128),w
 15122  07A7' 1283               	bcf	3,5	;RP0=0, select bank0
 15123  07A8' 1303               	bcf	3,6	;RP1=0, select bank0
 15124  07A9' 0747'              	addwf	??_efgtoa,w
 15125  07AA' 120A' 118A' 2000' 120A' 118A' 	fcall	_memcpy
 15126  07AF'                    i1l3758:
 15127                           
 15128                           ;/opt/microchip/xc8/v2.45/pic/sources/c99/common/doprnt.c: 849:  n = i-n;
 15129  07AF' 1683               	bsf	3,5	;RP0=1, select bank1
 15130  07B0' 1303               	bcf	3,6	;RP1=0, select bank1
 15131  07B1' 0800'              	movf	efgtoa@n^(0+128),w
 15132  07B2' 0200'              	subwf	efgtoa@i^(0+128),w
 15133  07B3' 0080'              	movwf	efgtoa@n^(0+128)
 15134  07B4' 0800'              	movf	(efgtoa@n+1)^(0+128),w
 15135  07B5' 1C03               	skipc
 15136  07B6' 0A00'              	incf	(efgtoa@n+1)^(0+128),w
 15137  07B7' 0200'              	subwf	(efgtoa@i+1)^(0+128),w
 15138  07B8' 0080'              	movwf	(efgtoa@n+1)^(0+128)
 15139  07B9'                    i1l3760:
 15140                           
 15141                           ;/opt/microchip/xc8/v2.45/pic/sources/c99/common/doprnt.c: 850:  i = sign == 0 ? 0 : 1;
 15142  07B9' 0800'              	movf	efgtoa@sign^(0+128),w
 15143  07BA' 1D03               	btfss	3,2
 15144  07BB' 2800'              	goto	u518_21
 15145  07BC' 2800'              	goto	u518_20
 15146  07BD'                    u518_21:
 15147  07BD' 3001               	movlw	1
 15148  07BE' 2800'              	goto	u519_20
 15149  07BF'                    u518_20:
 15150  07BF' 3000               	movlw	0
 15151  07C0'                    u519_20:
 15152  07C0' 1283               	bcf	3,5	;RP0=0, select bank0
 15153  07C1' 1303               	bcf	3,6	;RP1=0, select bank0
 15154  07C2' 00C7'              	movwf	??_efgtoa
 15155  07C3' 01C8'              	clrf	??_efgtoa+1
 15156  07C4' 0847'              	movf	??_efgtoa,w
 15157  07C5' 1683               	bsf	3,5	;RP0=1, select bank1
 15158  07C6' 1303               	bcf	3,6	;RP1=0, select bank1
 15159  07C7' 0080'              	movwf	efgtoa@i^(0+128)
 15160  07C8' 1283               	bcf	3,5	;RP0=0, select bank0
 15161  07C9' 1303               	bcf	3,6	;RP1=0, select bank0
 15162  07CA' 0848'              	movf	??_efgtoa+1,w
 15163  07CB' 1683               	bsf	3,5	;RP0=1, select bank1
 15164  07CC' 1303               	bcf	3,6	;RP1=0, select bank1
 15165  07CD' 0080'              	movwf	(efgtoa@i+1)^(0+128)
 15166  07CE'                    i1l3762:
 15167                           
 15168                           ;/opt/microchip/xc8/v2.45/pic/sources/c99/common/doprnt.c: 861:  if (sign) {
 15169  07CE' 0800'              	movf	efgtoa@sign^(0+128),w
 15170  07CF' 1903               	btfsc	3,2
 15171  07D0' 2800'              	goto	u520_21
 15172  07D1' 2800'              	goto	u520_20
 15173  07D2'                    u520_21:
 15174  07D2' 2800'              	goto	i1l3766
 15175  07D3'                    u520_20:
 15176  07D3'                    i1l3764:
 15177                           
 15178                           ;/opt/microchip/xc8/v2.45/pic/sources/c99/common/doprnt.c: 862:   dbuf[--n] = sign;
 15179  07D3' 30FF               	movlw	255
 15180  07D4' 0780'              	addwf	efgtoa@n^(0+128),f
 15181  07D5' 1803               	skipnc
 15182  07D6' 0A80'              	incf	(efgtoa@n+1)^(0+128),f
 15183  07D7' 30FF               	movlw	255
 15184  07D8' 0780'              	addwf	(efgtoa@n+1)^(0+128),f
 15185  07D9' 0800'              	movf	efgtoa@n^(0+128),w
 15186  07DA' 3E00'              	addlw	(low (_dbuf| (0+256)))& (0+255)
 15187  07DB' 0084               	movwf	4
 15188  07DC' 0800'              	movf	efgtoa@sign^(0+128),w
 15189  07DD' 1783               	bsf	3,7	;select IRP bank2
 15190  07DE' 0080               	movwf	0
 15191  07DF'                    i1l3766:
 15192                           
 15193                           ;/opt/microchip/xc8/v2.45/pic/sources/c99/common/doprnt.c: 864:  w -= i;
 15194  07DF' 0800'              	movf	efgtoa@i^(0+128),w
 15195  07E0' 0280'              	subwf	efgtoa@w^(0+128),f
 15196  07E1' 0800'              	movf	(efgtoa@i+1)^(0+128),w
 15197  07E2' 1C03               	skipc
 15198  07E3' 0380'              	decf	(efgtoa@w+1)^(0+128),f
 15199  07E4' 0280'              	subwf	(efgtoa@w+1)^(0+128),f
 15200  07E5'                    i1l3768:
 15201                           
 15202                           ;/opt/microchip/xc8/v2.45/pic/sources/c99/common/doprnt.c: 867:     return (void) pad(fp
      +                          , &dbuf[n], w);
 15203  07E5' 0800'              	movf	efgtoa@n^(0+128),w
 15204  07E6' 3E00'              	addlw	(low (_dbuf| (0+256)))& (0+255)
 15205  07E7' 1283               	bcf	3,5	;RP0=0, select bank0
 15206  07E8' 1303               	bcf	3,6	;RP1=0, select bank0
 15207  07E9' 0084'              	movwf	pad@buf
 15208  07EA' 1683               	bsf	3,5	;RP0=1, select bank1
 15209  07EB' 1303               	bcf	3,6	;RP1=0, select bank1
 15210  07EC' 0800'              	movf	(efgtoa@w+1)^(0+128),w
 15211  07ED' 1283               	bcf	3,5	;RP0=0, select bank0
 15212  07EE' 1303               	bcf	3,6	;RP1=0, select bank0
 15213  07EF' 0086'              	movwf	pad@p+1
 15214  07F0' 1683               	bsf	3,5	;RP0=1, select bank1
 15215  07F1' 1303               	bcf	3,6	;RP1=0, select bank1
 15216  07F2' 0800'              	movf	efgtoa@w^(0+128),w
 15217  07F3' 1283               	bcf	3,5	;RP0=0, select bank0
 15218  07F4' 1303               	bcf	3,6	;RP1=0, select bank0
 15219  07F5' 0085'              	movwf	pad@p
 15220  07F6' 1683               	bsf	3,5	;RP0=1, select bank1
 15221  07F7' 1303               	bcf	3,6	;RP1=0, select bank1
 15222  07F8' 0800'              	movf	efgtoa@fp^(0+128),w
 15223  07F9' 120A' 118A' 2000' 120A' 118A' 	fcall	_pad
 15224  07FE'                    i1l901:
 15225  07FE' 0008               	return
 15226  07FF'                    __end_of_efgtoa:

Data Sizes:
    Strings     102
    Constant    0
    Data        0
    BSS         120
    Persistent  0
    Stack       0

Auto Spaces:
    Space          Size  Autos    Used
    COMMON           14     14      14
    BANK0            80     80      80
    BANK1            80     77      80
    BANK3            96      1      38
    BANK2            96      0      80

Pointer List with Targets:

    dtoa@fp	PTR struct _IO_FILE size(1) Largest target is 0
		 -> NULL(NULL[0]), 

    efgtoa@fp	PTR struct _IO_FILE size(1) Largest target is 0
		 -> NULL(NULL[0]), 

    fputc@fp	PTR struct _IO_FILE size(1) Largest target is 0
		 -> NULL(NULL[0]), 

    fputc@fp$.$buffer	PTR unsigned char  size(1) Largest target is 0

    fputc@fp$.$source	PTR const unsigned char  size(1) Largest target is 0

    fputs@fp	PTR struct _IO_FILE size(1) Largest target is 0
		 -> NULL(NULL[0]), 

    fputs@s	PTR const unsigned char  size(1) Largest target is 80
		 -> dbuf(BANK2[80]), 

    memcpy@d	PTR unsigned char  size(1) Largest target is 80
		 -> dbuf(BANK2[80]), 

    memcpy@d1	PTR void  size(1) Largest target is 80
		 -> dbuf(BANK2[80]), 

    memcpy@s	PTR const unsigned char  size(1) Largest target is 80
		 -> dbuf(BANK2[80]), 

    memcpy@s1	PTR const void  size(1) Largest target is 80
		 -> dbuf(BANK2[80]), 

    pad@buf	PTR unsigned char  size(1) Largest target is 80
		 -> dbuf(BANK2[80]), 

    pad@fp	PTR struct _IO_FILE size(1) Largest target is 0
		 -> NULL(NULL[0]), 

    printf@ap	PTR void [1] size(1) Largest target is 2
		 -> ?_printf(BANK1[2]), 

    printf@fmt	PTR const unsigned char  size(1) Largest target is 20
		 -> STR_1(CODE[18]), STR_2(CODE[20]), 

    read_prec_or_width@ap	PTR PTR void [1] size(1) Largest target is 1
		 -> printf@ap(BANK1[1]), 

    read_prec_or_width@fmt	PTR PTR const unsigned char  size(1) Largest target is 1
		 -> vfprintf@cfmt(BANK1[1]), 

    S1292$buffer	PTR unsigned char  size(1) Largest target is 0

    S1292$source	PTR const unsigned char  size(1) Largest target is 0

    send_float_to_uart@name	PTR unsigned char  size(1) Largest target is 12
		 -> STR_6(CODE[9]), STR_7(CODE[11]), STR_8(CODE[12]), 

    send_uint16t_to_uart@name	PTR unsigned char  size(1) Largest target is 7
		 -> STR_3(CODE[7]), STR_4(CODE[4]), STR_5(CODE[6]), 

    sp__memcpy	PTR void  size(1) Largest target is 80
		 -> dbuf(BANK2[80]), 

    sp__strcpy	PTR unsigned char  size(1) Largest target is 80
		 -> dbuf(BANK2[80]), 

    stoa@cp	PTR unsigned char  size(2) Largest target is 12
		 -> ?_printf(BANK1[2]), STR_15(CODE[7]), STR_3(CODE[7]), STR_4(CODE[4]), 
		 -> STR_5(CODE[6]), STR_6(CODE[9]), STR_7(CODE[11]), STR_8(CODE[12]), 

    stoa@fp	PTR struct _IO_FILE size(1) Largest target is 0
		 -> NULL(NULL[0]), 

    stoa@s	PTR unsigned char  size(2) Largest target is 12
		 -> ?_printf(BANK1[2]), STR_3(CODE[7]), STR_4(CODE[4]), STR_5(CODE[6]), 
		 -> STR_6(CODE[9]), STR_7(CODE[11]), STR_8(CODE[12]), 

    strcpy@d	PTR unsigned char  size(1) Largest target is 80
		 -> dbuf(BANK2[80]), 

    strcpy@dest	PTR unsigned char  size(1) Largest target is 80
		 -> dbuf(BANK2[80]), 

    strcpy@src	PTR const unsigned char  size(1) Largest target is 4
		 -> STR_12(CODE[4]), STR_9(CODE[4]), 

    vfpfcnvrt@ap	PTR PTR void  size(1) Largest target is 1
		 -> printf@ap(BANK1[1]), 

    vfpfcnvrt@cp	PTR unsigned char  size(1) Largest target is 20
		 -> STR_1(CODE[18]), STR_2(CODE[20]), 

    vfpfcnvrt@fmt	PTR PTR unsigned char  size(1) Largest target is 1
		 -> vfprintf@cfmt(BANK1[1]), 

    vfpfcnvrt@fp	PTR struct _IO_FILE size(1) Largest target is 0
		 -> NULL(NULL[0]), 

    vfprintf@ap	PTR PTR void  size(1) Largest target is 1
		 -> printf@ap(BANK1[1]), 

    vfprintf@cfmt	PTR unsigned char  size(1) Largest target is 20
		 -> STR_1(CODE[18]), STR_2(CODE[20]), 

    vfprintf@fmt	PTR const unsigned char  size(1) Largest target is 20
		 -> STR_1(CODE[18]), STR_2(CODE[20]), 

    vfprintf@fp	PTR struct _IO_FILE size(1) Largest target is 0
		 -> NULL(NULL[0]), 


Critical Paths under _main in COMMON

    None.

Critical Paths under _interrupt_rutine in COMMON

    _interrupt_rutine->___xxtofl
    _vfpfcnvrt->_stoa
    _stoa->_fputc
    _read_prec_or_width->___wmul
    _dtoa->_pad
    _pad->_fputs
    _fputs->_fputc
    _fputc->_putch
    _abs->___awmod
    _send_PWM_sign->___xxtofl
    _read_temperature->___xxtofl
    _read_noise_channel->_read_adc_channel
    _read_luminosity->___xxtofl
    ___flmul->___xxtofl
    _read_humidity_channel->___xxtofl
    ___fldiv->___xxtofl
    ___fladd->___xxtofl
    _read_co2_environment->_i2c_read
    _change_color_lamp->_spi_write_read
    _change_brightness_lamp->_spi_write_read

Critical Paths under _main in BANK0

    None.

Critical Paths under _interrupt_rutine in BANK0

    _interrupt_rutine->_send_float_to_uart
    _interrupt_rutine->_send_uint16t_to_uart
    _vfprintf->_vfpfcnvrt
    _vfpfcnvrt->_efgtoa
    _efgtoa->_floorf
    _floorf->___fldiv
    ___flsub->___flmul
    ___flge->___flmul
    _dtoa->_pad
    _pad->_fputs
    _send_PWM_sign->___fldiv
    ___fltol->___flmul
    _read_temperature->___fldiv
    _read_luminosity->___flmul
    _read_humidity_channel->___fldiv
    ___fldiv->___fladd

Critical Paths under _main in BANK1

    None.

Critical Paths under _interrupt_rutine in BANK1

    _interrupt_rutine->_send_float_to_uart
    _send_uint16t_to_uart->_printf
    _send_float_to_uart->_printf
    _printf->_vfprintf
    _vfprintf->_vfpfcnvrt
    _vfpfcnvrt->_efgtoa

Critical Paths under _main in BANK3

    _config_luminosity->_i2c_write

Critical Paths under _interrupt_rutine in BANK3

    None.

Critical Paths under _main in BANK2

    None.

Critical Paths under _interrupt_rutine in BANK2

    None.

Call Graph Tables:

 ---------------------------------------------------------------------------------
 (Depth) Function   	        Calls       Base Space   Used Autos Params    Refs
 ---------------------------------------------------------------------------------
 (0) _main                                                 0     0      0      22
                         _config_sma
 ---------------------------------------------------------------------------------
 (1) _config_sma                                           0     0      0      22
                 _config_adc_channel
                  _config_luminosity
                         _config_pwm
                        _config_tmr0
                        _config_uart
                         _i2c_config
 ---------------------------------------------------------------------------------
 (2) _i2c_config                                           0     0      0       0
 ---------------------------------------------------------------------------------
 (2) _config_uart                                          0     0      0       0
 ---------------------------------------------------------------------------------
 (2) _config_tmr0                                          0     0      0       0
 ---------------------------------------------------------------------------------
 (2) _config_pwm                                           0     0      0       0
                        _config_CCP1
                        _config_tmr2
 ---------------------------------------------------------------------------------
 (3) _config_tmr2                                          0     0      0       0
 ---------------------------------------------------------------------------------
 (3) _config_CCP1                                          0     0      0       0
 ---------------------------------------------------------------------------------
 (2) _config_luminosity                                    0     0      0      22
                          _i2c_start
                           _i2c_stop
                          _i2c_write
 ---------------------------------------------------------------------------------
 (3) _i2c_write                                            1     1      0      22
                                              0 BANK3      1     1      0
                          _wait_MSSP
 ---------------------------------------------------------------------------------
 (3) _i2c_stop                                             0     0      0       0
                          _wait_MSSP
 ---------------------------------------------------------------------------------
 (3) _i2c_start                                            0     0      0       0
                          _wait_MSSP
 ---------------------------------------------------------------------------------
 (4) _wait_MSSP                                            0     0      0       0
 ---------------------------------------------------------------------------------
 (2) _config_adc_channel                                   0     0      0       0
 ---------------------------------------------------------------------------------
 Estimated maximum stack depth 4
 ---------------------------------------------------------------------------------
 (Depth) Function   	        Calls       Base Space   Used Autos Params    Refs
 ---------------------------------------------------------------------------------
 (5) _interrupt_rutine                                     8     8      0   80392
                                             69 BANK1      8     8      0
                            ___awdiv
                            ___awmod
                            ___fldiv
                           ___xxtofl
             _change_brightness_lamp
                  _change_color_lamp
               _read_co2_environment
              _read_humidity_channel
                    _read_luminosity
                 _read_noise_channel
                   _read_temperature
                       _receive_uart
                   _reset_best_noise
                      _send_PWM_sign
                 _send_float_to_uart
               _send_uint16t_to_uart
                    _take_best_noise
 ---------------------------------------------------------------------------------
 (6) _take_best_noise                                      2     0      2     120
                                              0 COMMON     2     0      2
 ---------------------------------------------------------------------------------
 (6) _send_uint16t_to_uart                                 3     1      2   29258
                                             79 BANK0      1     1      0
                                             65 BANK1      2     0      2
                             _printf
 ---------------------------------------------------------------------------------
 (6) _send_float_to_uart                                   5     1      4   29258
                                             79 BANK0      1     1      0
                                             65 BANK1      4     0      4
                             _printf
 ---------------------------------------------------------------------------------
 (7) _printf                                              10     4      6   28887
                                             57 BANK1      8     2      6
                           _vfprintf
 ---------------------------------------------------------------------------------
 (8) _vfprintf                                             4     2      2   28759
                                             53 BANK1      4     2      2
                          _vfpfcnvrt
 ---------------------------------------------------------------------------------
 (9) _vfpfcnvrt                                           12    10      2   28415
                                             75 BANK0      4     2      2
                                             45 BANK1      8     8      0
                               _dtoa
                             _efgtoa
                              _fputc
                 _read_prec_or_width
                               _stoa
 ---------------------------------------------------------------------------------
 (10) _stoa                                               12    10      2    1193
                                              9 COMMON     5     3      2
                                              0 BANK0      7     7      0
                              _fputc
 ---------------------------------------------------------------------------------
 (10) _read_prec_or_width                                  7     5      2     533
                                              6 COMMON     7     5      2
                             ___wmul
 ---------------------------------------------------------------------------------
 (11) ___wmul                                              6     2      4     244
                                              0 COMMON     6     2      4
 ---------------------------------------------------------------------------------
 (10) _efgtoa                                             55    50      5   20018
                                             66 BANK0      9     4      5
                                              0 BANK1     45    45      0
                            ___fladd
                            ___fldiv
                             ___fleq
                             ___flge
                            ___flmul
                            ___flneg
                            ___flsub
                            ___fltol
                      ___fpclassifyf
                             _floorf
                               _labs
                             _memcpy
                                _pad
                             _strcpy
 ---------------------------------------------------------------------------------
 (12) _strcpy                                              4     3      1     291
                                              0 COMMON     4     3      1
 ---------------------------------------------------------------------------------
 (11) _memcpy                                              8     5      3     328
                                              0 COMMON     8     5      3
 ---------------------------------------------------------------------------------
 (11) _labs                                                4     0      4     294
                                              0 COMMON     4     0      4
 ---------------------------------------------------------------------------------
 (11) _floorf                                             20    16      4     490
                                             46 BANK0     20    16      4
                            ___fldiv (ARG)
 ---------------------------------------------------------------------------------
 (11) ___fpclassifyf                                      16    12      4     287
                                              0 COMMON    10     6      4
                                              0 BANK0      6     6      0
 ---------------------------------------------------------------------------------
 (11) ___flsub                                             8     0      8    2789
                                             26 BANK0      8     0      8
                            ___fladd
                            ___flmul (ARG)
 ---------------------------------------------------------------------------------
 (11) ___flneg                                             4     0      4     121
                                              0 COMMON     4     0      4
 ---------------------------------------------------------------------------------
 (11) ___flge                                             12     4      8     942
                                             26 BANK0     12     4      8
                            ___flmul (ARG)
 ---------------------------------------------------------------------------------
 (11) ___fleq                                             12     4      8     394
                                              0 COMMON    12     4      8
 ---------------------------------------------------------------------------------
 (10) _dtoa                                               12    10      2    4721
                                             10 BANK0     12    10      2
                            ___awdiv
                            ___awmod
                                _abs
                                _pad
 ---------------------------------------------------------------------------------
 (11) _pad                                                 7     4      3    2861
                                             12 COMMON     1     1      0
                                              4 BANK0      6     3      3
                              _fputc
                              _fputs
 ---------------------------------------------------------------------------------
 (12) _fputs                                               7     6      1    1062
                                              9 COMMON     3     2      1
                                              0 BANK0      4     4      0
                              _fputc
 ---------------------------------------------------------------------------------
 (11) _fputc                                               8     5      3     856
                                              1 COMMON     8     5      3
                              _putch
 ---------------------------------------------------------------------------------
 (12) _putch                                               1     1      0      22
                                              0 COMMON     1     1      0
 ---------------------------------------------------------------------------------
 (11) _abs                                                 4     2      2     142
                                              7 COMMON     4     2      2
                            ___awmod (ARG)
 ---------------------------------------------------------------------------------
 (11) ___awmod                                             7     3      4     600
                                              0 COMMON     7     3      4
 ---------------------------------------------------------------------------------
 (11) ___awdiv                                             9     5      4     604
                                              0 COMMON     9     5      4
 ---------------------------------------------------------------------------------
 (6) _send_PWM_sign                                        4     0      4    4112
                                             46 BANK0      4     0      4
                            ___fldiv (ARG)
                            ___flmul
                            ___fltol
                           ___xxtofl (ARG)
                       _receive_uart (ARG)
 ---------------------------------------------------------------------------------
 (11) ___fltol                                            10     6      4     533
                                             26 BANK0     10     6      4
                            ___flmul (ARG)
 ---------------------------------------------------------------------------------
 (6) _reset_best_noise                                     0     0      0       0
 ---------------------------------------------------------------------------------
 (6) _receive_uart                                         0     0      0       0
 ---------------------------------------------------------------------------------
 (6) _read_temperature                                     6     2      4    3032
                                             46 BANK0      6     2      4
                            ___fldiv
                           ___xxtofl
                   _read_adc_channel
 ---------------------------------------------------------------------------------
 (6) _read_noise_channel                                   2     0      2      46
                                             10 COMMON     2     0      2
                   _read_adc_channel
 ---------------------------------------------------------------------------------
 (6) _read_luminosity                                     11     7      4    4243
                                             26 BANK0     10     6      4
                            ___flmul
                           ___xxtofl
                           _i2c_read
                        i1_i2c_start
                         i1_i2c_stop
 ---------------------------------------------------------------------------------
 (11) ___flmul                                            26    18      8    3481
                                              0 BANK0     26    18      8
                          __Umul8_16
                           ___xxtofl (ARG)
 ---------------------------------------------------------------------------------
 (12) __Umul8_16                                           9     7      2     799
                                              0 COMMON     9     7      2
 ---------------------------------------------------------------------------------
 (6) _read_humidity_channel                                6     2      4    5472
                                             46 BANK0      6     2      4
                            ___fladd
                            ___fldiv
                           ___xxtofl
                   _read_adc_channel
 ---------------------------------------------------------------------------------
 (7) _read_adc_channel                                    10     8      2      46
                                              0 COMMON    10     8      2
 ---------------------------------------------------------------------------------
 (7) ___xxtofl                                            14    10      4     626
                                              0 COMMON    14    10      4
                       _receive_uart (ARG)
 ---------------------------------------------------------------------------------
 (11) ___fldiv                                            26    18      8    2337
                                             20 BANK0     26    18      8
                            ___fladd (ARG)
                           ___xxtofl (ARG)
                       _receive_uart (ARG)
 ---------------------------------------------------------------------------------
 (12) ___fladd                                            20    12      8    2440
                                              0 BANK0     20    12      8
                           ___xxtofl (ARG)
 ---------------------------------------------------------------------------------
 (6) _read_co2_environment                                 9     7      2     158
                                              2 COMMON     8     6      2
                           _i2c_read
                        i1_i2c_start
                         i1_i2c_stop
                        i1_i2c_write
 ---------------------------------------------------------------------------------
 (7) i1_i2c_write                                          1     1      0      22
                                              0 COMMON     1     1      0
                        i1_wait_MSSP
 ---------------------------------------------------------------------------------
 (7) i1_i2c_stop                                           0     0      0       0
                        i1_wait_MSSP
 ---------------------------------------------------------------------------------
 (7) i1_i2c_start                                          0     0      0       0
                        i1_wait_MSSP
 ---------------------------------------------------------------------------------
 (7) _i2c_read                                             2     2      0      45
                                              0 COMMON     2     2      0
                        i1_wait_MSSP
 ---------------------------------------------------------------------------------
 (8) i1_wait_MSSP                                          0     0      0       0
 ---------------------------------------------------------------------------------
 (6) _change_color_lamp                                    3     1      2     361
                                              5 COMMON     3     1      2
                     _spi_write_read
 ---------------------------------------------------------------------------------
 (6) _change_brightness_lamp                               1     1      0     165
                                              5 COMMON     1     1      0
                     _spi_write_read
 ---------------------------------------------------------------------------------
 (7) _spi_write_read                                       5     5      0     143
                                              0 COMMON     5     5      0
 ---------------------------------------------------------------------------------
 Estimated maximum stack depth 12
 ---------------------------------------------------------------------------------

 Call Graph Graphs:

 _main (ROOT)
   _config_sma
     _config_adc_channel
     _config_luminosity
       _i2c_start
         _wait_MSSP
       _i2c_stop
         _wait_MSSP
       _i2c_write
         _wait_MSSP
     _config_pwm
       _config_CCP1
       _config_tmr2
     _config_tmr0
     _config_uart
     _i2c_config

 _interrupt_rutine (ROOT)
   ___awdiv
   ___awmod
   ___fldiv
     ___fladd (ARG)
       ___xxtofl (ARG)
         _receive_uart (ARG)
     ___xxtofl (ARG)
     _receive_uart (ARG)
   ___xxtofl
   _change_brightness_lamp
     _spi_write_read
   _change_color_lamp
     _spi_write_read
   _read_co2_environment
     _i2c_read
       i1_wait_MSSP
     i1_i2c_start
       i1_wait_MSSP
     i1_i2c_stop
       i1_wait_MSSP
     i1_i2c_write
       i1_wait_MSSP
   _read_humidity_channel
     ___fladd
     ___fldiv
     ___xxtofl
     _read_adc_channel
   _read_luminosity
     ___flmul
       __Umul8_16
       ___xxtofl (ARG)
     ___xxtofl
     _i2c_read
     i1_i2c_start
     i1_i2c_stop
   _read_noise_channel
     _read_adc_channel
   _read_temperature
     ___fldiv
     ___xxtofl
     _read_adc_channel
   _receive_uart
   _reset_best_noise
   _send_PWM_sign
     ___fldiv (ARG)
     ___flmul (ARG)
     ___fltol (ARG)
       ___flmul (ARG)
     ___xxtofl (ARG)
     _receive_uart (ARG)
   _send_float_to_uart
     _printf
       _vfprintf
         _vfpfcnvrt
           _dtoa
             ___awdiv
             ___awmod
             _abs
               ___awmod (ARG)
             _pad
               _fputc
                 _putch
               _fputs
                 _fputc
           _efgtoa
             ___fladd
             ___fldiv
             ___fleq
             ___flge
               ___flmul (ARG)
             ___flmul
             ___flneg
             ___flsub
               ___fladd
               ___flmul (ARG)
             ___fltol
             ___fpclassifyf
             _floorf
               ___fldiv (ARG)
             _labs
             _memcpy
             _pad
             _strcpy
           _fputc
           _read_prec_or_width
             ___wmul
           _stoa
             _fputc
   _send_uint16t_to_uart
     _printf
   _take_best_noise

 Address spaces:
Name               Size   Autos  Total    Cost      Usage
BITCOMMON            E      0       0       0        0.0%
EEDATA             100      0       0       0        0.0%
NULL                 0      0       0       0        0.0%
CODE                 0      0       0       0        0.0%
COMMON               E      E       E       1      100.0%
BITSFR0              0      0       0       1        0.0%
SFR0                 0      0       0       1        0.0%
BITSFR1              0      0       0       2        0.0%
SFR1                 0      0       0       2        0.0%
STACK                0      0       0       2        0.0%
ABS                  0      0     124       3        0.0%
BITBANK0            50      0       0       4        0.0%
BITSFR3              0      0       0       4        0.0%
SFR3                 0      0       0       4        0.0%
BANK0               50     50      50       5      100.0%
BITSFR2              0      0       0       5        0.0%
SFR2                 0      0       0       5        0.0%
BITBANK1            50      0       0       6        0.0%
BANK1               50     4D      50       7      100.0%
BITBANK3            60      0       0       8        0.0%
BANK3               60      1      26       9       39.6%
BITBANK2            60      0       0      10        0.0%
BANK2               60      0      50      11       83.3%
DATA                 0      0     124      12        0.0%


Microchip Technology PIC Macro Assembler V2.45 build 20230818022343 
Symbol Table                                                                                   Fri Dec 22 12:31:28 2023

                    ___fldiv@aexp 002D                      ___fldiv@bexp 002C                                 _i 001A  
                               pc 0002                      ___fldiv@sign 0025                                l19 000E  
                              l47 001F                                l83 0007                                l92 0008  
                              l86 0000                                l95 0008                                l88 0006  
                              l89 0007                      ___awdiv@sign 0006               ?_send_float_to_uart 0041  
                              fsr 0004               ___wmul@multiplicand 0002                   _take_best_noise 0000  
             __Umul8_16@word_mpld 0006                               l101 000F                               l200 0015  
                             l120 000D                               l117 000E                               l152 006A  
                             l270 0005                               l187 000F                               l275 001E  
                             l269 0005                               _PR2 0092                               i1l5 0007  
                             i1l8 0013                               _co2 0020                               _abs 0000  
                             _pad 0000                               fsr0 0004                               indf 0000  
                    ___awmod@sign 0006                      ___flmul@aexp 0012                      ___flmul@bexp 0013  
                    ___flmul@sign 000D                      ___flmul@temp 0018                      ___flmul@prod 0014  
                    ___fltol@exp1 0023                              ?_abs 0007                              l4000 0009  
                            l4010 0013                              l4002 000B                              l4020 001E  
                            l4012 0014                              l4004 000C                              l4014 0017  
                            l4006 000D                              l4030 0006                              l4016 001A  
                            l4008 0010                              l4050 0003                              l4018 001B  
                            l4060 0011                              l4052 0008                              l4028 0000  
                            l4070 0039                              l4062 0017                              l4054 0000  
                            l4080 005F                              l4072 003E                              l4064 0027  
                            l4056 0005                              l4048 0000                              l4232 0000  
                            l4240 0000                              l4082 0065                              l4074 0043  
                            l4066 002D                              l4058 000B                              l4090 000E  
                            l4076 0049                              l4068 0033                              l4084 0000  
                            l4078 004F                              l4086 0006                              l4088 000A  
                            ?_pad 0004                              l3808 0000                              l3922 0000  
                            l3930 0003                              l3924 0003                              l3934 0003  
                            l3942 0000                              l3950 000B                              l3928 0000  
                            l3936 0007                              l3944 000C                              l3952 000E  
                            l3938 000C                              l3954 0011                              l3946 0000  
                            l3948 0005                              l3986 0000                              l3988 0008  
                            l3996 0000                              l3998 0006                   spi_write_read@x 0004  
                            STR_1 0024                              STR_2 0010                              STR_3 005D  
                            STR_4 0072                              STR_5 0064                              STR_6 004D  
                            STR_7 0042                              STR_8 0036                              STR_9 006A  
            ??_send_float_to_uart 000E                              i1l22 0020                              i1l50 0015  
                            u5290 0006                              u5291 0005                              i1l53 0019  
                            i1l62 0009                              i1l71 002C                              i1l72 0033  
                            i1l56 0004                              i1l59 0001                              i1l92 0008  
                            i1l86 0000                              i1l95 0008                              i1l88 0006  
                            i1l89 0007                              _TMR0 0001                              _TXIF 0064  
          __end_of_spi_write_read 0034                              abs@a 0007                              _dbuf 0000  
                            _labs 0000                              _main 0000                              _lamp 0008  
                            _dtoa 0000                              _prec 0000                              pad@i 0007  
                            pad@p 0005                              _stoa 0000                              btemp 007E  
                   ___fpclassifyf 0000                              start 0000* change_brightness_lamp@brightness 0005  
                 ___fldiv@new_exp 0026             __end_of_send_PWM_sign 002B                             ??_abs 0009  
                           ??_pad 000C         read_temperature@adc_value 0032                     ___fltol@sign1 0022  
                           ?_labs 0000                   __end_of___fladd 0258                             ?_main 0000  
                           ?_dtoa 000A                   __end_of___fldiv 01D3                   __end_of___awdiv 0067  
                 __end_of___flneg 000B                             STR_12 006E                             STR_15 0056  
                 __end_of___awmod 0059                   __end_of___flmul 0345                   __end_of___flsub 0024  
                 __end_of___fltol 0078                             ?_stoa 0009        __end_of_config_adc_channel 000F  
                 ___awdiv@divisor 0000                             i1l101 000D                             i1l104 0016  
                           i1l105 0019                             i1l106 0020                             i1l123 002A  
                           i1l141 0055                             i1l134 003B                             i1l155 005D  
                           i1l171 0004                             i1l164 000F                             i1l168 0010  
                           i1l178 003E                             i1l290 01EB          __end_of_interrupt_rutine 01F8  
                           i1l702 01CB                             i1l542 0058                             i1l711 022B  
                           i1l551 004D                             i1l287 012B                             i1l720 0257  
                           i1l376 000C                             i1l529 0066                             i1l545 001C  
                           i1l570 0077                             i1l546 0038                             i1l562 00A3  
                           i1l554 001E                             i1l378 0024                             i1l723 0023  
                           i1l708 01ED                             i1l580 0077                             i1l733 0056  
                           i1l557 008A                             i1l901 07FE                             i1l830 0081  
                           i1l566 000A                             i1l719 024D                             i1l735 01D2  
                           i1l831 008D                             i1l823 0065                             i1l681 00DE  
                           i1l817 0022                             i1l577 0062                             i1l690 0257  
                           i1l683 00B7                             i1l755 01BA                             i1l819 00B7  
                           i1l677 005B                             i1l757 01C8                             i1l749 0148  
                           i1l773 0344                             i1l917 0269                             i1l950 005A  
                           i1l927 058E                             i1l839 000F                             i1l792 0014  
                           i1l872 0039                             i1l785 0338                             i1l698 01A7  
                           i1l794 0026                             i1l890 00D9                             i1l962 0057  
                           i1l954 008D                             i1l970 01F8                             i1l779 02B4  
                           i1l883 0046                             i1l868 0009                             i1l949 0036  
                           i1l878 0021                             i1l879 0048                             i1l898 0081  
                           i1l996 0028                   ___awdiv@counter 0005                             _RCREG 001A  
                    vfpfcnvrt@fmt 004B                             _SPBRG 0099                             _TRISC 0087  
                           _TXREG 0019                change_color_lamp@B 0006                change_color_lamp@G 0005  
              change_color_lamp@R 0007          ??_change_brightness_lamp 0005        __end_of_read_noise_channel 0010  
                           _flags 0024               read_prec_or_width@c 0009               read_prec_or_width@n 000A  
                           _fputc 0000                             _fputs 0000                             _noise 001E  
                           labs@a 0000                             pad@fp 0009                             _width 0018  
                     ?i1_i2c_stop 0000                             _putch 0000                             dtoa@d 000A  
                           dtoa@i 0014                             dtoa@p 0010                             dtoa@s 0013  
                           dtoa@w 000E                             pclath 000A                       i1_wait_MSSP 0000  
                 ?_spi_write_read 0000                             stoa@l 0005                             stoa@p 0000  
                           stoa@s 0009                             status 0003                             wtemp0 007E  
                  ?___fpclassifyf 0000          __end_of_read_temperature 003F                        _i2c_config 0000  
         ??_read_humidity_channel 000E           __end_of_take_best_noise 0011                   __initialization 0000  
                    __end_of_labs 0015                      __end_of_main 0009                      __end_of_dtoa 00DA  
                    __end_of_stoa 008E                  __end_of_i2c_read 0021                  __end_of_i2c_stop 0009  
                          ??_labs 0004                            ??_main 0001                            ??_dtoa 000D  
            send_PWM_sign@percent 002E                            ??_stoa 000B         send_uint16t_to_uart@value 0041  
      __end_of_read_prec_or_width 0058               i1i2c_write@I2C_data 0000                            ?_fputc 0001  
                          ?_fputs 0009                            _ADRESH 001E                            _ADRESL 009E  
                          _CCPR1L 0015                  ___awdiv@dividend 0002                            ?_putch 0000  
                          i1l1020 010E                            i1l1014 0010                            i1l1006 008C  
                          i1l1024 0106                            i1l1040 0025                            i1l1034 0014  
                          i1l1019 004D                            i1l1052 0055                            i1l1060 0029  
                          i1l1037 0017                            i1l3000 002F                            i1l3010 0052  
                          i1l3002 0033                            i1l1066 001A                            i1l3100 000B  
                          i1l3004 0044                            i1l3012 0058                            i1l3020 0000  
                          i1l3110 0030                            i1l3014 005D                            i1l3006 004A  
                          i1l3030 0010                            i1l3022 0001                            i1l3200 00A7  
                          i1l3120 003E                            i1l3112 0032                            i1l3104 0014  
                          i1l3016 0062                            i1l3008 004B                            i1l3040 0029  
                          i1l3032 0015                            i1l3024 0005                            i1l3210 00CC  
                          i1l3202 00AF                            i1l3130 0067                            i1l3114 0036  
                          i1l3122 0050                            i1l3106 0027                            i1l3042 002D  
                          i1l3034 001B                            i1l3050 004A                            i1l3026 000A  
                          i1l3220 00F7                            i1l3212 00CD                            i1l3204 00B1  
                          i1l3140 0000                            i1l4100 002A                            i1l3300 002A  
                          i1l3132 006C                            i1l3108 0028                            i1l3052 004F  
                          i1l3044 0037                            i1l3036 001E                            i1l3028 000C  
                          i1l3060 0014                            i1l3230 0114                            i1l3206 00B6  
                          i1l3214 00D6                            i1l3222 00FB                            i1l3150 0013  
                          i1l3142 0005                            i1l4110 004A                            i1l3310 003D  
                          i1l3302 002F                            i1l3054 0054                            i1l3046 003D  
                          i1l3038 0025                            i1l3062 0030                            i1l3070 0000  
                          i1l3134 0000                            i1l4022 0003                            i1l4040 0012  
                          i1l4032 0001                            i1l3240 012C                            i1l3232 0118  
                          i1l3224 0101                            i1l3216 00E8                            i1l3208 00C8  
                          i1l3160 002B                            i1l3152 0018                            i1l3144 0009  
                          i1l4120 007B                            i1l4112 004E                            i1l4104 0033  
                          i1l3400 02EF                            i1l3320 0059                            i1l3312 0042  
                          i1l3304 0033                            i1l4200 0000                            i1l3128 0057  
                          i1l3048 0044                            i1l3064 004A                            i1l3080 0062  
                          i1l3072 0016                            i1l3136 0004                            i1l4024 0005  
                          i1l4042 001A                            i1l4034 0004                            i1l3250 014D  
                          i1l3242 012D                            i1l3234 0119                            i1l3226 0109  
                          i1l3218 00E9                            i1l3170 003E                            i1l3162 0030  
                          i1l3154 0020                            i1l3146 000D                            i1l4130 00AE  
                          i1l4122 0085                            i1l4114 005C                            i1l4106 0036  
                          i1l3410 0322                            i1l3402 02FC                            i1l3330 0082  
                          i1l3322 005E                            i1l3314 004A                            i1l3306 0037  
                          i1l4202 0000                            i1l3066 004C                            i1l3058 0000  
                          i1l3082 0066                            i1l3074 0032                            i1l3090 0000  
                          i1l4044 001F                            i1l4036 0009                            i1l3252 0152  
                          i1l3260 0183                            i1l3244 0131                            i1l3236 0122  
                          i1l3228 010B                            i1l3180 005E                            i1l3172 0043  
                          i1l3164 0034                            i1l3156 0021                            i1l3148 000E  
                          i1l4132 00AF                            i1l4124 008F                            i1l4116 006C  
                          i1l4108 0043                            i1l3412 032E                            i1l3404 0307  
                          i1l3340 011B                            i1l3332 009D                            i1l3316 004C  
                          i1l3308 0038                            i1l4204 0005                            i1l4212 0000  
                          i1l3084 00A0                            i1l3076 003A                            i1l3092 0008  
                          i1l3500 00DC                            i1l4220 000C                            i1l4038 000D  
                          i1l4142 0000                            i1l4150 0005                            i1l3270 01B9  
                          i1l3262 0190                            i1l3254 0160                            i1l3246 0145  
                          i1l3238 0128                            i1l3190 007C                            i1l3182 006A  
                          i1l3174 004B                            i1l3166 0038                            i1l3158 0023  
                          i1l4126 00A5                            i1l4118 0077                            i1l3414 0332  
                          i1l3406 0316                            i1l3350 017A                            i1l3342 0124  
                          i1l3334 00B9                            i1l3326 0067                            i1l3318 0054  
                          i1l4206 0013                            i1l4214 0006                            i1l4222 0000  
                          i1l3430 0021                            i1l3422 0003                            i1l3086 00A2  
                          i1l3078 003E                            i1l3094 000A                            i1l3502 00E5  
                          i1l3510 0006                            i1l4136 0000                            i1l4144 0003  
                          i1l4152 000A                            i1l2800 006F                            i1l3272 01BE  
                          i1l3264 019E                            i1l3256 0164                            i1l3184 006E  
                          i1l3176 004C                            i1l3168 0039                            i1l4128 00AA  
                          i1l3416 0333                            i1l3408 0320                            i1l3360 0212  
                          i1l3352 0191                            i1l3344 0132                            i1l3336 00E3  
                          i1l3328 0075                            i1l4208 002B                            i1l4224 0000  
                          i1l3432 002F                            i1l3424 0007                            i1l3520 0010  
                          i1l3504 00FE                            i1l3512 000B                            i1l3600 00F7  
                          i1l4160 0003                            i1l4138 0003                            i1l2810 0079  
                          i1l2802 0071                            i1l3274 01C2                            i1l3266 01AD  
                          i1l3258 017D                            i1l3194 0085                            i1l3178 004E  
                          i1l3418 033C                            i1l3370 0280                            i1l3362 0238  
                          i1l3354 01AE                            i1l3346 014F                            i1l3338 00FF  
                          i1l3290 000E                            i1l3282 0000                            i1l4226 0006  
                          i1l3098 0000                            i1l4170 0000                            i1l3434 0000  
                          i1l2730 0007                            i1l3426 000C                            i1l3530 003D  
                          i1l3522 0017                            i1l3450 0056                            i1l3442 0000  
                          i1l3514 000F                            i1l3610 000A                            i1l3602 0107  
                          i1l4162 0003                            i1l4218 0000                            i1l4250 0056  
                          i1l4242 0000                            i1l4156 0001                            i1l4148 0001  
                          i1l4180 0010                            i1l4172 0000                            i1l2900 01DB  
                          i1l2820 0083                            i1l2812 007B                            i1l2804 0073  
                          i1l3276 01C4                            i1l3268 01B1                            i1l3196 0097  
                          i1l3188 0077                            i1l4092 0001                            i1l3380 0298  
                          i1l3372 0284                            i1l3364 0260                            i1l3356 01D9  
                          i1l3348 015D                            i1l3292 0013                            i1l3284 0005  
                          i1l4228 0011                            i1l4164 0000                            i1l3436 0004  
                          i1l2740 0020                            i1l2732 0000                            i1l3428 0019  
                          i1l3540 0075                            i1l3532 0042                            i1l3524 002D  
                          i1l3516 0003                            i1l3452 005B                            i1l3444 0020  
                          i1l3508 0001                            i1l3700 059C                            i1l3620 0075  
                          i1l3612 000C                            i1l3604 0110                            i1l4260 0078  
                          i1l4252 005C                            i1l4244 0006                            i1l4158 0001  
                          i1l4182 0015                            i1l4174 0000                            i1l2902 01DF  
                          i1l2830 00BB                            i1l2822 0085                            i1l2814 007D  
                          i1l2806 0075                            i1l2750 0009                            i1l3198 009F  
                          i1l4094 0006                            i1l3390 02B9                            i1l3382 0299  
                          i1l3374 0285                            i1l3366 0269                            i1l3358 01E7  
                          i1l3294 0018                            i1l3286 0009                            i1l4166 0003  
                          i1l3438 0005                            i1l2742 003E                            i1l2734 0005  
                          i1l3550 00AC                            i1l3542 007D                            i1l3534 004C  
                          i1l3526 0032                            i1l3518 000A                            i1l3462 0088  
                          i1l3446 0037                            i1l3470 0000                            i1l3710 0652  
                          i1l3702 059D                            i1l3630 01B6                            i1l3622 00D3  
                          i1l4262 008D                            i1l4246 000E                            i1l4270 00AD  
                          i1l4184 0021                            i1l4176 0005                            i1l2920 0227  
                          i1l2912 01F2                            i1l2904 01E0                            i1l2840 00D2  
                          i1l2832 00C2                            i1l2816 007F                            i1l2808 0077  
                          i1l2824 0087                            i1l2760 0020                            i1l2752 000D  
                          i1l4096 000A                            i1l4192 0000                            i1l3392 02BE  
                          i1l3384 029D                            i1l3376 028E                            i1l3368 0277  
                          i1l3296 0020                            i1l3288 000D                            i1l2728 0001  
                          i1l2736 000A                            i1l3552 00B9                            i1l3544 0083  
                          i1l3536 0050                            i1l3528 0038                            i1l3448 003D  
                          i1l3456 0060                            i1l3480 0020                            i1l3472 0004  
                          i1l3720 066D                            i1l3712 0658                            i1l3704 059F  
                          i1l3640 025C                            i1l3632 01BC                            i1l3624 010C  
                          i1l3616 0026                            i1l3608 0000                            i1l3800 003B  
                          i1l4280 0113                            i1l4272 00B1                            i1l4256 006A  
                          i1l4248 0014                            i1l4186 0032                            i1l4178 000B  
                          i1l2930 0243                            i1l2922 0230                            i1l2914 01F7  
                          i1l2906 01E4                            i1l2850 00F0                            i1l2834 00C4  
                          i1l2842 00D6                            i1l2826 0088                            i1l2818 0081  
                          i1l2770 0034                            i1l2762 0021                            i1l2754 000E  
                          i1l2746 0000                            i1l4098 001A                            i1l4194 0006  
                          i1l3394 02CC                            i1l3386 02B1                            i1l3378 0294  
                          i1l3298 0022                            i1l2738 0011                            i1l3554 00C0  
                          i1l3538 0058                            i1l3546 0096                            i1l3458 0066  
                          i1l3482 003F                            i1l3474 0005                            i1l3466 0001  
                          i1l3730 0688                            i1l3722 0673                            i1l3714 065D  
                          i1l3706 05A2                            i1l3650 027D                            i1l3642 0260  
                          i1l3626 016C                            i1l3618 0036                            i1l3570 0047  
                          i1l3562 0003                            i1l3802 0042                            i1l3810 0003  
                          i1l4290 0162                            i1l4282 0117                            i1l4274 00BC  
                          i1l4258 0072                            i1l4266 0096                            i1l4188 0037  
                          i1l2932 0247                            i1l2924 0235                            i1l2916 0205  
                          i1l2908 01EA                            i1l2860 0118                            i1l2852 0107  
                          i1l2844 00E2                            i1l2836 00C8                            i1l2828 009F  
                          i1l2780 0043                            i1l2772 0035                            i1l2756 0013  
                          i1l2764 0023                            i1l2748 0005                            i1l4196 0011  
                          i1l2940 0001                            i1l3396 02D0                            i1l3556 00C6  
                          i1l3548 00A4                            i1l3492 0082                            i1l3484 004C  
                          i1l3468 0003                            i1l3740 06A7                            i1l3724 0676  
                          i1l3716 0661                            i1l3732 068E                            i1l3708 0628  
                          i1l3660 0295                            i1l3652 0285                            i1l3644 0265  
                          i1l3628 0177                            i1l3636 021B                            i1l3580 0078  
                          i1l3572 005E                            i1l3564 0004                            i1l3804 0053  
                          i1l3820 0039                            i1l3812 0014                            i1l4292 01DE  
                          i1l4284 0140                            i1l4276 00D9                            i1l4268 00AA  
                          i1l2934 0249                            i1l2926 023D                            i1l2918 0209  
                          i1l2870 0141                            i1l2862 011C                            i1l2854 010B  
                          i1l2846 00E7                            i1l2838 00C9                            i1l2790 0061  
                          i1l2782 0048                            i1l2774 0039                            i1l2766 002B  
                          i1l2758 0018                            i1l2950 0022                            i1l2942 0003  
                          i1l3398 02E9                            i1l3558 00CC                            i1l3494 009B  
                          i1l3486 0053                            i1l3478 0000                            i1l3750 077A  
                          i1l3742 0719                            i1l3734 0694                            i1l3726 067C  
                          i1l3718 0667                            i1l3670 039B                            i1l3662 029D  
                          i1l3654 0287                            i1l3646 0273                            i1l3638 0254  
                          i1l3590 00AD                            i1l3582 007D                            i1l3574 0062  
                          i1l3566 001C                            i1l4390 0182                            i1l3830 006D  
                          i1l3822 003F                            i1l3814 001A                            i1l4294 01E4  
                          i1l4286 0152                            i1l4278 00F6                            i1l2936 0252  
                          i1l2928 0242                            i1l2880 01AF                            i1l2872 017F  
                          i1l2864 011D                            i1l2856 010F                            u300_20 009F  
                          i1l2792 0065                            i1l2784 0050                            i1l2776 003D  
                          i1l2768 002E                            i1l2944 000A                            i1l2960 001C  
                          i1l3496 00B2                            i1l3488 006D                            i1l3760 07B9  
                          i1l3752 0789                            i1l3744 0758                            i1l3736 069B  
                          i1l3728 0682                            i1l3680 046C                            i1l3672 03DA  
                          i1l3664 02A6                            i1l3656 028D                            i1l3648 0279  
                          i1l3592 00B6                            i1l3584 0083                            i1l3576 006E  
                          i1l3568 0043                            i1l4392 01D0                            i1l3840 00AB  
                          i1l3832 0087                            i1l3824 004D                            i1l3816 0023  
                          i1l4296 01EA                            i1l4288 0157                            u300_21 009E  
                          i1l2938 0256                            i1l2890 01CA                            i1l2882 01B4  
                          i1l2874 0185                            i1l2866 0126                            i1l2858 0116  
                          i1l2794 0069                            i1l2786 0051                            i1l2778 003E  
                          i1l2946 000E                            i1l2954 0003                            i1l3498 00C3  
                          i1l3762 07CE                            i1l3754 078F                            i1l3746 075E  
                          i1l3738 06A1                            i1l3690 04ED                            i1l3682 0477  
                          i1l3666 0302                            i1l3674 03E0                            i1l3658 0293  
                          i1l3586 0096                            i1l3578 0073                            i1l2970 001A  
                          i1l2962 0000                            i1l3850 00E2                            i1l3842 00B1  
                          i1l3826 0055                            i1l3818 0029                            i1l2892 01CF  
                          i1l2876 018A                            i1l2868 012B                            i1l2796 006B  
                          i1l2788 0053                            i1l2948 001D                            i1l2980 0005  
                          i1l2956 0006                            i1l3764 07D3                            i1l3756 0794  
                          i1l3748 0764                            i1l3692 053B                            i1l3684 0492  
                          i1l3676 03F6                            i1l3668 0329                            i1l3588 009D  
                          i1l3596 00D9                            i1l2972 0020                            i1l2964 0002  
                          i1l3780 001A                            i1l3772 0003                            i1l4388 0134  
                          i1l3860 0109                            i1l3844 00B6                            i1l3836 009A  
                          i1l3828 0061                            u300_25 009B                            i1l2894 01D2  
                          i1l2886 01BD                            i1l2878 0199                            i1l2798 006D  
                          i1l2990 0019                            i1l2982 000A                            i1l2958 0014  
                          i1l3766 07DF                            i1l3758 07AF                            i1l3694 0543  
                          i1l3686 0498                            i1l3678 0435                            i1l3598 00F0  
                          i1l2966 0006                            i1l3790 007F                            i1l3782 003C  
                          i1l3774 000D                            i1l3862 0111                            i1l3846 00C4  
                          i1l3854 00E9                            i1l3838 009B                            i1l2896 01D4  
                          i1l2888 01C6                            u301_20 00AA                            i1l2992 001B  
                          i1l2984 000C                            i1l2976 0000                            i1l3768 07E5  
                          i1l3696 0582                            i1l3688 04A0                            i1l2968 0013  
                          i1l3792 0001                            i1l3784 004E                            i1l3776 0011  
                          i1l3864 011A                            i1l3872 012A                            i1l3856 00F0  
                          i1l3848 00D3                            i1l3960 0018                            u301_21 00A8  
                          i1l3970 0002                            i1l2898 01D9                            i1l2994 0021  
                          i1l2986 0010                            i1l2978 0001                            i1l3698 0588  
                          i1l3794 0003                            i1l3786 0061                            i1l3778 0014  
                          i1l3882 0178                            i1l3866 0121                            i1l3874 013F  
                          i1l3962 0026                            i1l3980 0021                            i1l2996 0024  
                          i1l2988 0015                            i1l3796 0012                            i1l3788 0077  
                          i1l3892 01C0                            i1l3884 018A                            i1l3876 014C  
                          i1l3868 0126                            i1l3956 0003                            i1l3982 0022  
                          i1l3966 0000                            i1l3990 0000                            i1l2998 002B  
                          i1l3798 0026                            i1l3886 0193                            i1l3878 0162  
                          i1l3894 01D5                            i1l3958 0006                            i1l3984 0028  
                          i1l3976 0004                            i1l3968 0001                            u310_20 010B  
                          u302_20 00AB                            i1l3992 0003                            u310_21 010A  
                          i1l3978 0019                            i1l3898 01DF                            u311_20 010F  
                          u303_20 00BB                            u311_21 010E                            u303_21 00BA  
                          u312_20 011C                            u304_20 00C8                            u400_20 0109  
                          u312_21 011B                            u304_21 00C7                            u400_21 0108  
                          u320_25 01BF                            u321_20 01CA                            u321_21 01C9  
                          u313_25 011F                            u305_25 00CB                            u401_25 010D  
                          u330_20 0218                            u322_20 01CF                            u314_20 0141  
                          u306_20 00DE                            u410_20 0173                            u402_20 0118  
                          u322_21 01CE                            u314_21 0140                            u306_21 00DD  
                          u402_21 0117                            u314_23 013D                            u330_25 0213  
                          u410_25 016E                            u331_20 0227                            u323_20 01D9  
                          u307_20 00E2                            u411_20 0190                            u331_21 0226  
                          u323_21 01D8                            u315_21 0158                            u307_21 00E1  
                          u411_21 018F                            u315_22 0159                            u315_23 015E  
                          u315_24 015F                            u315_25 0164                            u411_25 018C  
                          u403_25 011B                            u315_26 0165                            u332_20 0230  
                          u324_20 01DF                            u316_20 016C                            u308_20 00E7  
                          u412_20 01AD                            u404_20 012C                            u420_20 0059  
                          u340_20 0029                            u500_20 021A                            u332_21 022F  
                          u324_21 01DE                            u316_21 016D                            u308_21 00E6  
                          u412_21 01AC                            u404_21 012B                            u420_21 0058  
                          u340_21 0028                            u500_21 0219                            u316_22 0172  
                          u316_23 0173                            u500_23 0216                            u412_25 01A9  
                          u333_20 0235                            u325_20 01E4                            u317_20 018A  
                          u413_20 01C2                            u405_20 0131                            u421_20 005E  
                          u501_20 0254                            u341_20 0006                            u333_21 0234  
                          u325_21 01E3                            u317_21 0189                            u309_21 00F9  
                          u413_21 01C1                            u405_21 0130                            u421_21 005D  
                          u501_21 0253                            u341_21 0005                            u309_22 0100  
                          u309_23 0107                            u334_20 0242                            u326_20 01EA  
                          u318_20 01AF                            u406_20 0145                            u414_20 000D  
                          u510_20 053B                            u502_20 0260                            u334_21 0241  
                          u326_21 01E9                            u318_21 01AE                            u406_21 0144  
                          u430_21 01A0                            u422_21 00AB                            u414_21 000C  
                          u510_21 053A                            u502_21 025F                            u430_22 01A7  
                          u422_22 00B2                            u430_23 01AE                            u422_23 00B9  
                          u350_25 0034                            u342_25 000D                            u335_20 0247  
                          u327_20 01F1                            u319_20 01B4                            u407_20 014C  
                          u415_20 0013                            u351_20 0044                            u511_20 0588  
                          u503_20 0279                            u335_21 0246                            u327_21 01F0  
                          u319_21 01B3                            u407_21 014B                            u431_21 01CB  
                          u423_21 00C7                            u415_21 0012                            u351_21 0043  
                          u511_21 0587                            u503_21 0278                            u431_22 01D2  
                          u423_22 00CE                            u431_23 01D9                            u423_23 00D5  
                          u351_25 0040                            u343_25 0014                            u336_20 0256  
                          u328_20 01F7                            u408_20 0152                            u416_20 0018  
                          u360_20 0037                            u520_20 07D3                            u512_20 0628  
                          u504_20 027D                            u344_20 0020                            u336_21 0255  
                          u328_21 01F6                            u408_21 0151                            u432_21 01F6  
                          u424_21 00F1                            u416_21 0017                            u360_21 0036  
                          u520_21 07D2                            u512_21 0627                            u504_21 027C  
                          u344_21 001F                            u432_22 01FD                            u424_22 00F8  
                          u432_23 0204                            u424_23 00FF                            u440_25 0287  
                          u352_25 004C                            u360_25 0033                            u512_25 0624  
                          u329_20 0209                            u409_20 0164                            u337_20 000E  
                          u441_20 0298                            u433_20 021E                            u417_20 0037  
                          u353_20 0058                            u345_20 0005                            u513_20 065D  
                          u505_20 028D                            u521_20 000D                            u329_21 0208  
                          u409_21 0163                            u337_21 000D                            u441_21 0297  
                          u425_21 010D                            u417_21 0036                            u353_21 0057  
                          u345_21 0004                            u513_21 065C                            u505_21 028C  
                          u521_21 000C                            u425_22 0114                            u425_23 011B  
                          u433_25 0219                            u361_25 003E                            u450_20 0332  
                          u442_20 029D                            u418_20 003D                            u354_20 005D  
                          u346_20 0010                            u362_20 004A                            u290_20 003E  
                          u514_20 0661                            u506_20 03F6                            u522_20 0024  
                          u530_20 0014                            u450_21 0331                            u442_21 029C  
                          u434_21 022A                            u418_21 003C                            u354_21 005C  
                          u346_21 000F                            u362_21 0049                            u290_21 003D  
                          u370_21 004D                            u514_21 0660                            u506_21 03F5  
                          u530_21 0013                            u434_22 0231                            u370_22 004E  
                          u434_23 0238                            u370_23 0053                            u370_24 0054  
                          u338_25 0015                            u426_25 011D                            u290_25 003A  
                          u370_25 0059                            u506_25 03F2                            u370_26 005A  
                          u291_20 000D                            u339_20 0022                            u443_20 02B1  
                          u435_20 0246                            u419_20 0042                            u347_20 0021  
                          u363_20 004F                            u355_20 0005                            u451_20 0007  
                          u371_20 0066                            u515_20 0694                            u507_20 046C  
                          u523_20 0036                            u531_20 0039                            u291_21 000C  
                          u339_21 0021                            u443_21 02B0                            u427_21 0141  
                          u419_21 0041                            u347_21 0020                            u363_21 004E  
                          u355_21 0004                            u451_21 0006                            u371_21 0065  
                          u515_21 0693                            u507_21 046B                            u523_21 0035  
                          u531_21 0038                            u427_22 0148                            u427_23 014F  
                          u435_25 0241                            u292_20 0013                            u444_20 02B8  
                          u380_20 004F                            u356_20 0010                            u452_20 002F  
                          u364_20 0014                            u460_20 0080                            u516_20 077A  
                          u508_20 0492                            u524_20 003C                            u532_20 0061  
                          u540_20 0026                            u292_21 0012                            u444_21 02B7  
                          u436_21 0252                            u428_21 016C                            u380_21 004E  
                          u356_21 000F                            u452_21 002E                            u364_21 0013  
                          u372_21 0075                            u460_21 007E                            u516_21 0779  
                          u508_21 0491                            u524_21 003B                            u532_21 0060  
                          u540_21 0025            send_float_to_uart@name 004F                            u436_22 0259  
                          u428_22 0173                            u372_22 0076                            u436_23 0260  
                          u428_23 017A                            u372_23 007B                            u372_24 007C  
                          u348_25 0025                            u452_25 002B                            u372_25 0081  
                          u516_25 0776                            u372_26 0082                            u541_20 0006  
                          u293_20 0018                            u445_20 02BE                            u381_20 0056  
                          u349_20 0033                            u357_20 001B                            u453_20 0004  
                          u365_20 0030                            u373_20 00A0                            u461_20 0081  
                          u517_20 0789                            u509_20 0498                            u525_20 004E  
                          u533_20 006D                            u541_21 0005                            u293_21 0017  
                          u445_21 02BD                            u381_21 0055                            u349_21 0032  
                          u357_21 001A                            u453_21 0003                            u365_21 002F  
                          u373_21 009F                            u517_21 0788                            u509_21 0497  
                          u525_21 004D                            u533_21 006C                            u437_25 0262  
                          u429_25 017C                            u373_25 009C                            u517_25 0785  
                          u525_25 004A                            u294_20 0034                            u390_20 0043  
                          u550_20 002A                            u446_20 02D0                            u286_20 0007  
                          u366_20 004A                            u374_20 0008                            u454_20 002E  
                          u470_20 009B                            u462_20 001A                            u518_20 07BF  
                          u526_20 008D                            u534_20 00AB                            u294_21 0033  
                          u390_21 0042                            u550_21 0029                            u446_21 02CF  
                          u286_21 0006                            u366_21 0049                            u374_21 0007  
                          u470_21 009A                            u462_21 0019                            u518_21 07BD  
                          u526_21 008C                            u534_21 00AA                            u542_24 000C  
                          u542_25 000A                            u438_25 0279                            u382_25 0059  
                          u358_25 001F                            u366_25 0046                            u454_25 0029  
                          u543_20 0016                            u295_20 003D                            u391_20 005E  
                          u447_20 02DF                            u439_20 0284                            u383_20 0067  
                          u375_20 000B                            u359_20 002D                            u287_20 0005  
                          u367_20 0016                            u455_20 003D                            u463_20 0004  
                          u519_20 07C0                            u527_20 0012                            u535_20 00C4  
                          u543_21 0012                            u295_21 003C                            u391_21 005D  
                          u439_21 0283                            u383_21 0066                            u375_21 000A  
                          u359_21 002C                            u287_21 0004                            u367_21 0015  
                          u455_21 003C                            u471_21 00A4                            u463_21 0003  
                          u527_21 0011                            u535_21 00C3                            u471_22 00AB  
                          u471_23 00B2                            u551_25 003B                            u447_25 02DA  
                          u296_20 0043                            u392_20 007C                            u560_20 00AA  
                          u552_20 0049                            u448_20 02FC                            u384_20 006C  
                          u376_20 0022                            u288_20 000A                            u480_20 0032  
                          u368_20 0032                            u456_20 004B                            u472_20 00D1  
                          u464_20 002E                            u528_20 0053                            u536_20 00D3  
                          u296_21 0042                            u392_21 007B                            u560_21 00A9  
                          u552_21 0048                            u448_21 02FB                            u384_21 006B  
                          u288_21 0009                            u480_21 0031                            u368_21 0031  
                          u528_21 0052                            u536_21 00D2                            u544_24 0019  
                          u448_25 02F8                            u376_25 001D                            u456_25 0046  
                          u472_25 00CC                            u464_25 0029                            u545_20 0028  
                          u297_20 0048                            u393_20 00B6                            u385_20 000D  
                          u561_20 00AE                            u449_20 0316                            u377_20 0036  
                          u289_20 0020                            u481_20 003D                            u369_20 003E  
                          u457_20 0056                            u473_20 00DC                            u465_20 004C  
                          u537_20 00E2                            u545_21 0027                            u297_21 0047  
                          u393_21 00B5                            u385_21 000C                            u561_21 00AD  
                          u449_21 0315                            u377_21 0035                            u289_21 001F  
                          u481_21 003C                            u369_21 003D                            u457_21 0055  
                          u473_21 00DB                            u465_21 004B                            u537_21 00E1  
                          u553_25 005D                            u449_25 0312                            u465_25 0048  
                          u546_20 0033                            u298_20 0061                            u386_20 0013  
                          u554_20 006B                            u378_20 003D                            u482_20 00A4  
                          u458_20 0066                            u474_20 00F3                            u466_20 0053  
                          u490_20 009D                            u538_20 00F0                            u562_20 000C  
                          u570_20 0162                            u546_21 0032                            u298_21 0060  
                          u386_21 0012                            u554_21 006A                            u378_21 003C  
                          u482_21 00A3                            u458_21 0065                            u466_21 0052  
                          u490_21 009C                            u538_21 00EF                            u562_21 000B  
                          u570_21 0161                            u394_25 00B8                            u482_25 00A0  
                          u474_25 00EE                            u562_25 0008                            u547_20 0012  
                          u299_20 0065                            u387_20 0018                            u483_20 00AC  
                          u459_20 0074                            u475_20 00FE                            u467_20 0063  
                          u491_20 00F0                            u539_20 014B                            u563_20 0006  
                          u547_21 0011                            u299_21 0064                            u387_21 0017  
                          u483_21 00AB                            u475_21 00FD                            u491_21 00ED  
                          u539_21 014A                            u563_21 0005                            u395_25 00C1  
                          u555_25 0070                            u379_25 003F                            u459_25 006F  
                          u467_25 005E                            u396_20 00CC                            u388_20 0038  
                          u556_20 007B                            u548_20 0006                            u484_20 00B9  
                          u468_20 0081                            u476_20 0025                            u492_20 00F7  
                          u564_20 0014                            u396_21 00CB                            u388_21 0037  
                          u556_21 007A                            u548_21 0005                            u484_21 00B8  
                          u468_21 0080                            u476_21 0024                            u492_21 00F6  
                          u564_21 0013                            u484_25 00B5                            u389_20 003E  
                          u557_20 0081                            u549_20 000A                            u485_20 00C0  
                          u477_20 0008                            u469_20 0090                            u493_20 0025  
                          u565_20 0069                            u389_21 003D                            u557_21 0080  
                          u549_21 0009                            u485_21 00BF                            u477_21 0006  
                          u493_21 0024                            u565_21 0068                            u397_25 00CF  
                          u469_25 008B                            u565_25 0065                            u398_20 00E8  
                          u558_20 0085                            u478_20 0009                            u486_20 0043  
                          u566_20 0078                            u398_21 00E7                            u558_21 0084  
                          u494_21 0098                            u486_21 0042                            u566_21 0077  
                          u494_22 009B                            u494_23 00A2                            u494_24 00A5  
                          u398_25 00E4                            u494_25 00AC                            u494_26 00AF  
                          u399_20 0101                            u559_20 009A                            u479_20 0010  
                          u495_20 00D3                            u487_20 0073                            u567_20 00B1  
                          u399_21 0100                            u479_21 000F                            u495_21 00D2  
                          u487_21 0072                            u567_21 00B0                            u495_23 00CF  
                          u559_25 0095                            u496_20 010C                            u488_20 0078  
                          u568_20 0117                            u496_21 010B                            u488_21 0077  
                          u568_21 0116                     vfpfcnvrt@done 002D                            u489_20 0096  
                          u569_20 0140                            u497_21 0131                            u489_21 0095  
                          u569_21 013F                            u497_22 0134                            u497_23 013B  
                          u497_24 013E                            u497_25 0145                            u497_26 0148  
                          u498_20 016C                            u498_21 016B                            u498_23 0168  
                          u499_21 01DF                            u499_22 01E2                            u499_23 01E9  
                          u499_24 01EC                            u499_25 01F3                            u499_26 01F6  
                          _SPBRGH 009A                            _SSPBUF 0013                  __end_of___xxtofl 00B8  
               ??_read_luminosity 001E                      vfprintf@cfmt 0038                            ___flge 0000  
                          ___fleq 0000                         ??___fladd 0008                            ___wmul 0000  
                       ??___fldiv 001C                         ??___awdiv 0004                         ??___flneg 0004  
                       ??___awmod 0004                         ??___flmul 0008                         ??___flsub 000E  
                       ??___fltol 001E                 ?_reset_best_noise 0000                            _efgtoa 0000  
                          _floorf 0000                            _memcpy 0000              read_prec_or_width@ap 0006  
                ___awdiv@quotient 0007                   ___awmod@divisor 0000                            _serial 0002  
              ??_reset_best_noise 0000                   ___awmod@counter 0005                            _printf 0000  
                          pad@buf 0004                      ?i1_i2c_start 0000                      ?i1_i2c_write 0000  
                          dtoa@fp 0012                            _strcpy 0000                            fputc@c 0001  
                          fputs@c 0000                            fputs@i 0001                            fputs@s 0003  
                 ___fpclassifyf@e 0000                   ___fpclassifyf@u 0002                   ___fpclassifyf@x 0000  
                          saved_w 007E                            stoa@cp 0003                            stoa@fp 0002  
                __end_of_vfprintf 0029                        ___flge@ff1 001A                        ___flge@ff2 001E  
                 ??___fpclassifyf 0004                      ___xxtofl@arg 000A                      ___xxtofl@exp 0009  
                    ___xxtofl@val 0000                        ___fleq@ff1 0000                        ___fleq@ff2 0004  
         __end_of__initialization 0016                        ___flneg@f1 0000                     ?_receive_uart 0000  
                      ___fltol@f1 001A                       ?_i2c_config 0000      __end_of_read_co2_environment 003C  
                ?_take_best_noise 0000                    __pcstackCOMMON 0000                     __end_of_fputc 0056  
                   __end_of_fputs 002A                     __end_of_putch 000A          send_uint16t_to_uart@name 004F  
               __end_of_i2c_start 0009                 __end_of_i2c_write 0010                    _OPTION_REGbits 0081  
                         ??_fputc 0004                           ??_fputs 000A                           ??_putch 0000  
                      __pbssBANK1 0000                        __pbssBANK2 0000                        __pbssBANK3 0000  
                       ?_i2c_read 0000                    ??_receive_uart 0000                         ?_i2c_stop 0000  
  read_humidity_channel@adc_value 0032                 __end_of__Umul8_16 0027                        __pmaintext 0000  
                         ?___flge 001A                           ?___fleq 0000            _change_brightness_lamp 0000  
                      _best_noise 0022                           ?___wmul 0000                        __pintentry 0000  
                         ?_efgtoa 0042                           ?_floorf 002E                           ?_memcpy 0000  
                         ?_printf 0039                           ?_strcpy 0000                 ?_interrupt_rutine 0000  
                       ?___xxtofl 0000                 _change_color_lamp 0000                        _brightness 0010  
                      _config_sma 0000                        _config_pwm 0000           send_float_to_uart@value 0041  
              ??_interrupt_rutine 0045                  ??_spi_write_read 0000                ?_change_color_lamp 0005  
                    ??i1_i2c_stop 0000                        __stringtab 0000                _config_adc_channel 0000  
                    ?i1_wait_MSSP 0000                        ??_i2c_read 0000                        ??_i2c_stop 0000  
             ??_change_color_lamp 0007                 ?_read_temperature 002E               ?_config_adc_channel 0000  
              _read_noise_channel 0000              spi_write_read@answer 0003                ??_read_temperature 000E  
                         ___fladd 0000                           ___fldiv 0000                           ___awdiv 0000  
                         ___flneg 0000                           ___awmod 0000                           ___flmul 0000  
                         ___flsub 0000                           ___fltol 0000     __end_of_read_humidity_channel 0056  
                       ?_vfprintf 0035               ?_read_noise_channel 000A                __end_ofi1_i2c_stop 0009  
                         __ptext1 0000                           __ptext2 0000                           __ptext3 0000  
                         __ptext4 0000                           __ptext5 0000                           __ptext6 0000  
                         __ptext7 0000                           __ptext8 0000                           __ptext9 0000  
       __end_of_change_color_lamp 0014                         _T2CONbits 0012             read_prec_or_width@fmt 000C  
                      ??___xxtofl 0004                  ___awmod@dividend 0002              ??_config_adc_channel 0000  
                         efgtoa@c 0046                           efgtoa@d 000B                           efgtoa@e 0010  
                         efgtoa@f 0042                           efgtoa@g 0025                           efgtoa@h 001A  
                         efgtoa@i 0018                           efgtoa@l 001E                           efgtoa@m 000D  
                         efgtoa@n 0023                           efgtoa@p 0002                           efgtoa@t 0004  
                         efgtoa@u 0029                           efgtoa@w 0012              _read_co2_environment 0000  
                         clrloop0 0001                   _read_luminosity 0000              end_of_initialization 0016  
            ??_read_noise_channel 000C                           floorf@e 003C                           floorf@m 0038  
                         floorf@u 003E                           floorf@x 002E                           memcpy@d 0006  
                         memcpy@n 0001                           memcpy@s 0007                           fputc@fp 0003  
               __end_of_wait_MSSP 0008                           fputs@fp 0009                _read_prec_or_width 0000  
              i2c_read@master_ack 0000                 __end_of_vfpfcnvrt 01F9                        efgtoa@mode 0009  
                      efgtoa@sign 0022                         _RCSTAbits 0018               ?_read_prec_or_width 0006  
                         psplit$0 25004F                  _read_adc_channel 0000  
                vfpfcnvrt@convarg 002E                        ??_vfprintf 000E                           strcpy@d 0002  
                       _PORTAbits 0005                         _PORTCbits 0007              __end_of_receive_uart 0005  
                     ___fladd@grs 0013                     ___xxtofl@sign 0008                       ?_config_sma 0000  
                     ?_config_pwm 0000             ?_read_co2_environment 0002              ??_read_prec_or_width 0008  
                     ___fldiv@grs 0028                       ___fldiv@rem 0021                       ___flmul@grs 000E  
                   ??_config_CCP1 0000                       _CCP1CONbits 0017                         _TXSTAbits 0098  
                    ??_i2c_config 0000                     ??_config_tmr0 0000                     ??_config_tmr2 0000  
                   ??_config_uart 0000                     _send_PWM_sign 0000                    __end_of___flge 00A4  
                  __end_of___fleq 004E                       vfpfcnvrt@ap 004C                       vfpfcnvrt@cp 0034  
                     vfpfcnvrt@fp 0033                    __end_of___wmul 0025                    __end_of_efgtoa 07FF  
                     _BAUDCTLbits 0187                    __end_of_floorf 010F      __end_of_send_uint16t_to_uart 0016  
                  __end_of_memcpy 0026                        floorf@F521 0000                    __end_of_printf 0010  
         __end_of_read_luminosity 005E                    __end_of_strcpy 001B               start_initialization 0000  
                     __end_of_abs 0011                         _i2c_start 0000                       __end_of_pad 003A  
              __end_of_i2c_config 0008                         _i2c_write 0000     read_co2_environment@co2_value 0008  
           __end_of___fpclassifyf 008D           ?_change_brightness_lamp 0000                    ?_send_PWM_sign 002E  
                     vfprintf@fmt 0035                          ??___flge 0022                          ??___fleq 0008  
             __end_of_config_CCP1 000F                          ??___wmul 0004                          ??_efgtoa 0047  
                       __Umul8_16 0000            spi_write_read@one_byte 0002                          ??_floorf 0032  
                        ??_memcpy 0003               __end_of_config_tmr0 0010               __end_of_config_tmr2 0016  
             __end_of_config_uart 0020                          ??_printf 000E                          ??_strcpy 0001  
                       ___fladd@a 0004                         ___fladd@b 0000                         ___fldiv@a 0014  
                       ___fldiv@b 0018              take_best_noise@noise 0000                         ___flmul@a 0004  
                       ___flmul@b 0000            ??_read_co2_environment 0004                         ___flsub@a 001A  
                       ___flsub@b 001E                         ___latbits 0002                     __pcstackBANK0 0000  
                   __pcstackBANK1 0000                     __pcstackBANK3 0000                        ?_i2c_start 0000  
                      ?_i2c_write 0000    __end_of_change_brightness_lamp 0008                       _efgtoa$1420 0006  
                       _dtoa$1389 000C                          ?___fladd 0000                          ?___fldiv 0014  
                        ?___awdiv 0000                          ?___flneg 0000                          ?___awmod 0000  
                        ?___flmul 0000                          ?___flsub 001A                          ?___fltol 001A  
                      ?__Umul8_16 0000                         __pstrings 0000                  ?_read_luminosity 001A  
      __end_of_send_float_to_uart 001A                  _reset_best_noise 0000          __end_of_read_adc_channel 0021  
       read_adc_channel@adc_value 0008                        pnum$text24 0025                  i2c_read@I2C_data 0001  
               interrupt_function 0000                    ___wmul@product 0004                      _receive_uart 0000  
                     _config_CCP1 0000              _send_uint16t_to_uart 0000                         clear_ram0 0000  
                        _PIE1bits 008C                read_luminosity@lum 0022                   ??_send_PWM_sign 000E  
                       _wait_MSSP 0000                          _PIR1bits 000C                       _config_tmr0 0000  
                     _config_tmr2 0000                       _config_uart 0000                         _vfpfcnvrt 0000  
                   ??i1_i2c_start 0000             _read_humidity_channel 0000                     ??i1_i2c_write 0000  
                      _ADCON0bits 001F                       __stringbase 000F                        _ADCON1bits 009F  
               ___wmul@multiplier 0000                      ??_config_sma 0001                      ??_config_pwm 0000  
                     ??_i2c_start 0000                       ??_i2c_write 0000                 ??_take_best_noise 0002  
                      vfpfcnvrt@c 0032                          _i2c_read 0000                          _i2c_stop 0000  
           ?_send_uint16t_to_uart 0041                        ?_wait_MSSP 0000                         memcpy@tmp 0004  
                      vfprintf@ap 0036                        vfprintf@fp 0037                 i2c_write@I2C_data 0000  
              __end_of_config_sma 001F                __end_of_config_pwm 000E                       ??__Umul8_16 0002  
                      ?_vfpfcnvrt 004B                __end_of__stringtab 0010                ___fpclassifyf@F465 0004  
                        ___xxtofl 0000               __end_ofi1_i2c_start 0009               __end_ofi1_i2c_write 000E  
                        __ptext10 0000                          __ptext11 0000                          __ptext20 0000  
                        __ptext12 0000                          __ptext21 0000                          __ptext13 0000  
                        __ptext30 0000                          __ptext22 0000                          __ptext14 0000  
                        __ptext31 0000                          __ptext23 0000                          __ptext15 0000  
                        __ptext40 0000                          __ptext32 0000                          __ptext24 0000  
                        __ptext16 0000                          __ptext41 0000                          __ptext33 0000  
                        __ptext25 0000                          __ptext17 0000                          __ptext50 0000  
                        __ptext42 0000                          __ptext34 0000                          __ptext26 0000  
                        __ptext18 0000                          __ptext51 0000                          __ptext43 0000  
                        __ptext35 0000                          __ptext27 0000                          __ptext19 0000  
                        __ptext60 0000                          __ptext52 0000                          __ptext44 0000  
                        __ptext36 0000                          __ptext28 0000                          __ptext61 0000  
                        __ptext53 0000                          __ptext45 0000                          __ptext37 0000  
                        __ptext29 0000                          __ptext62 0000                          __ptext54 0000  
                        __ptext46 0000                          __ptext38 0000                          __ptext63 0000  
                        __ptext55 0000                          __ptext47 0000                          __ptext39 0000  
                        __ptext64 0000                          __ptext56 0000                          __ptext48 0000  
                        __ptext57 0000                          __ptext49 0000                          __ptext58 0000  
                        __ptext59 0000                        strcpy@dest 0003                  _interrupt_rutine 0000  
                        _humidity 0014                          efgtoa@fp 000F                          efgtoa@ne 0000  
                        efgtoa@pp 0008                          efgtoa@ou 0014                          _vfprintf 0000  
          ?_read_humidity_channel 002E                         printf@fmt 003F                     _timer_counter 001C  
                _read_temperature 0000                pnum$text24_split_1 004F                         putch@data 0000  
                      _INTCONbits 000B                 _config_luminosity 0000                          memcpy@d1 0005  
                        memcpy@s1 0000                ?_config_luminosity 0000                          intlevel1 0000* 
                   ??i1_wait_MSSP 0000            ??_send_uint16t_to_uart 000E               ??_config_luminosity 0001  
                       strcpy@src 0000                         stringcode 000A                       ??_wait_MSSP 0000  
                     efgtoa@nmode 000A          __end_of_reset_best_noise 0005                          printf@ap 0040  
                     ??_vfpfcnvrt 004D                       i1_i2c_start 0000                       i1_i2c_write 0000  
          __Umul8_16@multiplicand 0000                       _temperature 000C         __end_of_config_luminosity 006B  
                        stringdir 000A                          stringtab 0000                       _SSPCON2bits 0091  
                   ___fladd@signs 0010                 ?_read_adc_channel 0000                        i1_i2c_stop 0000  
              ??_read_adc_channel 0002                      ___fladd@aexp 0011                      ___fladd@bexp 0012  
                    ?_config_CCP1 0000              __Umul8_16@multiplier 0008                    _spi_write_read 0000  
                      _SSPCONbits 0014                _send_float_to_uart 0000                      ?_config_tmr0 0000  
                    ?_config_tmr2 0000               __end_ofi1_wait_MSSP 0008                      ?_config_uart 0000  
               __Umul8_16@product 0004  
